(dp1
S'output'
p2
S"<type 'exceptions.UnboundLocalError'> local variable 'i' referenced before assignment"
p3
sS'layer'
p4
S'/home/chitra/courses/SSAD/web2py/applications/ssad3/controllers/default.py'
p5
sS'code'
p6
S'# -*- coding: utf-8 -*-\n### required - do no delete\ndef user(): return dict(form=auth())\ndef download(): return response.download(request,db)\ndef call(): return service()\n### end requires\n#def index():\n #   return dict()\n\n#def error():\n #   return dict()\nfrom gluon.tools import fetch\nimport re\nlistf=[]\ncount=0\nbigans=[]\ndef index():\n    form=SQLFORM(db.input)\n    if form.process().accepted:\n        response.flash = \'you entred\'\n        redirect(URL(\'final_ans\'))\n    return dict(form=form)\ndef year_user(index_yr):   #index_yr - only in this code not in main one\n    flag=index_yr\n    redirect(URL(\'final_ans()\'))\n    flag=0\n    #return dict(ans=ll1[0],l_yr=ll1[1])\ndef extract1(url,l1):\n    ret=[]\n    html=fetch(url)\n    html_splitted=html.split("<A HREF=\\"citation.cfm")\n    del html_splitted[0]\n    k=html_splitted[0].split(\'>\')\n    if k[1][:-3]==l1[0]:\n        s="http://dl.acm.org/citation.cfm"+html_splitted[i][:k]\n        ret.append(s.split(\'&preflayout\')[0]+\'&preflayout=flat\')\n    else:\n        for i in range(0,l1[2]):\n            k=html_splitted[i].find(\'\\"\')\n            s="http://dl.acm.org/citation.cfm"+html_splitted[i][:k]\n            ret.append(s.split(\'&preflayout\')[0]+\'&preflayout=flat\')\n    return ret  \n    \n    \ndef final_ans():\n    l1=u_filter() \n    url="http://dl.acm.org/results.cfm?h=1&query="+\'+\'.join(l1[0].split())\n    fst_l=extract1(url,l1)\n    #for l in fst_l:\n     #   listf.append(cite(l))\n    rec(fst_l,l1,bigans)\n    global listf\n    return dict(bigans=bigans,level=l1[1],top=l1[2])\ndef rec(list1,l1,bigans):\n    global count\n    count=count+1\n    global listf\n    listf.append([])\n    for x in list1:\n        if x!=\'\':\n            z=cite(x)\n            #global listf\n            #listf[count-1].append(z)\n            bigans.append(z)\n            if count < l1[1]:\n                rec(z[5],l1,bigans[-1])\n    count=count-1\n    return\ndef cite(url):\n    if url==\'\':\n        return []\n    l1=u_filter()\n    html=fetch(url)\n    temp=[]\n        #temp=[]\n    d=re.search(\'<meta name="citation_title"[\\w\\W]*?>\',html).group()\n    d=bold(d)\n        #temp.append(d.split(\'>\')[0][9:-1])\n    temp.append(d.split(\'=\')[2][1:-2])\n    temp.append(url)\n    c=re.search(\'<meta name="citation_authors"[\\w\\W]*?>\',html).group()\n    c=bold(c)\n    if l1[3]==1:\n        #temp.append(d.split(\'>\')[0][9:-1])\n        temp.append(c.split(\'=\')[2][1:-2])\n    else:\n        temp.append(-1)\n    b=re.search(\'<meta name="citation_date"[\\w\\W]*?>\',html).group()\n    b=bold(b)\n    if l1[5]==1:\n        temp.append(b.split(\'=\')[2][1:-2])\n    else:\n        temp.append(-1)\n    s=re.search(\'CITED BY[\\w\\W]*?INDEX TERMS\',html).group()\n    if \'Citings are not available\' not in s:\n        e=re.search(\'\\d* Citations\',s)\n        if l1[4]!=1:\n            temp.append(-1)\n        elif e!=None:\n            temp.append(e.group().split()[0])\n        else:                                                                            \n            temp.append(1)\n        i=0\n        cit=[]\n        while i < l1[2]:\n            i+=1\n            s1=re.search(\'<a href[\\w\\W]*?</a>\',s)\n            if s1==None:\n                cit.append(\'\')\n            elif s1!=None:\n                k=s.find(s1.group())\n                #k1=s[:k]\n                cit.append(("http://dl.acm.org/"+s1.group().split(\'\\"\')[1]).split(\'&preflayout\')[0]+\'&preflayout=flat\')\n                s=s[k+2:]\n           \n        temp.append(cit)\n    else:\n        if l1[4]==1:\n            temp.append(0)\n        else:\n            temp.append(-1)\n        temp.append([])\n    return temp\ndef u_filter():\n    inpu=db().select(db.input.ALL)\n    for inp in inpu:\n        key=inp.keywords\n        level=inp.level\n        top=inp.top\n        auth=inp.author\n        cited_by=inp.cited_by\n        year=inp.year\n    return [key,level,top,auth,cited_by,year]\ndef bold(d):\n    pre=""\n    while pre!=d:\n        pre=d\n        d=d.replace("<b>","");\n        d=d.replace("</b>","");\n    return d\n\nresponse._vars=response._caller(final_ans)\n'
p7
sS'snapshot'
p8
(dp9
S'exception'
p10
(dp11
S'__hash__'
p12
S"<method-wrapper '__hash__' of exceptions.UnboundLocalError object>"
p13
sS'__setattr__'
p14
S"<method-wrapper '__setattr__' of exceptions.UnboundLocalError object>"
p15
sS'__reduce_ex__'
p16
S'<built-in method __reduce_ex__ of exceptions.UnboundLocalError object>'
p17
sS'__getslice__'
p18
S"<method-wrapper '__getslice__' of exceptions.UnboundLocalError object>"
p19
sS'__getitem__'
p20
S"<method-wrapper '__getitem__' of exceptions.UnboundLocalError object>"
p21
sS'__setstate__'
p22
S'<built-in method __setstate__ of exceptions.UnboundLocalError object>'
p23
sS'args'
p24
S'("local variable \'i\' referenced before assignment",)'
p25
sS'__reduce__'
p26
S'<built-in method __reduce__ of exceptions.UnboundLocalError object>'
p27
sS'__str__'
p28
S"<method-wrapper '__str__' of exceptions.UnboundLocalError object>"
p29
sS'__format__'
p30
S'<built-in method __format__ of exceptions.UnboundLocalError object>'
p31
sS'__getattribute__'
p32
S"<method-wrapper '__getattribute__' of exceptions.UnboundLocalError object>"
p33
sS'__class__'
p34
S"<type 'exceptions.UnboundLocalError'>"
p35
sS'__unicode__'
p36
S'<built-in method __unicode__ of exceptions.UnboundLocalError object>'
p37
sS'__delattr__'
p38
S"<method-wrapper '__delattr__' of exceptions.UnboundLocalError object>"
p39
sS'__subclasshook__'
p40
S'<built-in method __subclasshook__ of type object>'
p41
sS'__repr__'
p42
S"<method-wrapper '__repr__' of exceptions.UnboundLocalError object>"
p43
sS'__dict__'
p44
S'{}'
p45
sS'__sizeof__'
p46
S'<built-in method __sizeof__ of exceptions.UnboundLocalError object>'
p47
sS'__doc__'
p48
S"'Local name referenced but not bound to a value.'"
p49
sS'__init__'
p50
S"<method-wrapper '__init__' of exceptions.UnboundLocalError object>"
p51
sS'__new__'
p52
S'<built-in method __new__ of type object>'
p53
ssS'evalue'
p54
S"local variable 'i' referenced before assignment"
p55
sS'request'
p56
ccopy_reg
_reconstructor
p57
(cgluon.html
BEAUTIFY
p58
c__builtin__
object
p59
NtRp60
(dp61
S'attributes'
p62
(dp63
sS'components'
p64
(lp65
g57
(cgluon.html
TABLE
p66
g59
NtRp67
(dp68
g62
(dp69
S'level'
p70
I5
ssS'parent'
p71
Nsg64
(lp72
g57
(cgluon.html
TR
p73
g59
NtRp74
(dp75
g62
(dp76
sg71
g67
sg64
(lp77
g57
(cgluon.html
TD
p78
g59
NtRp79
(dp80
g62
(dp81
S'_style'
p82
S'font-weight:bold;vertical-align:top'
p83
ssg71
g74
sg64
(lp84
S'ajax'
p85
asbag57
(g78
g59
NtRp86
(dp87
g62
(dp88
S'_valign'
p89
S'top'
p90
ssg71
g74
sg64
(lp91
S':'
asbag57
(g78
g59
NtRp92
(dp93
g62
(dp94
sg71
g74
sg64
(lp95
g57
(g58
g59
NtRp96
(dp97
g62
(dp98
g70
I5
ssg71
g92
sg64
(lp99
S'False'
p100
asbasbasbag57
(g73
g59
NtRp101
(dp102
g62
(dp103
sg71
g67
sg64
(lp104
g57
(g78
g59
NtRp105
(dp106
g62
(dp107
g82
g83
ssg71
g101
sg64
(lp108
S'application'
p109
asbag57
(g78
g59
NtRp110
(dp111
g62
(dp112
g89
g90
ssg71
g101
sg64
(lp113
S':'
asbag57
(g78
g59
NtRp114
(dp115
g62
(dp116
sg71
g101
sg64
(lp117
g57
(g58
g59
NtRp118
(dp119
g62
(dp120
g70
I5
ssg71
g114
sg64
(lp121
S'ssad3'
p122
asbasbasbag57
(g73
g59
NtRp123
(dp124
g62
(dp125
sg71
g67
sg64
(lp126
g57
(g78
g59
NtRp127
(dp128
g62
(dp129
g82
g83
ssg71
g123
sg64
(lp130
g24
asbag57
(g78
g59
NtRp131
(dp132
g62
(dp133
g89
g90
ssg71
g123
sg64
(lp134
S':'
asbag57
(g78
g59
NtRp135
(dp136
g62
(dp137
sg71
g123
sg64
(lp138
g57
(g58
g59
NtRp139
(dp140
g62
(dp141
g70
I5
ssg71
g135
sg64
(lp142
g57
(g66
g59
NtRp143
(dp144
g62
(dp145
g70
I4
ssg71
Nsg64
(lp146
sbasbasbasbag57
(g73
g59
NtRp147
(dp148
g62
(dp149
sg71
g67
sg64
(lp150
g57
(g78
g59
NtRp151
(dp152
g62
(dp153
g82
g83
ssg71
g147
sg64
(lp154
S'body'
p155
asbag57
(g78
g59
NtRp156
(dp157
g62
(dp158
g89
g90
ssg71
g147
sg64
(lp159
S':'
asbag57
(g78
g59
NtRp160
(dp161
g62
(dp162
sg71
g147
sg64
(lp163
g57
(g58
g59
NtRp164
(dp165
g62
(dp166
g70
I5
ssg71
g160
sg64
(lp167
S'<cStringIO.StringO object at 0x7fb5302a3ae8>'
p168
asbasbasbag57
(g73
g59
NtRp169
(dp170
g62
(dp171
sg71
g67
sg64
(lp172
g57
(g78
g59
NtRp173
(dp174
g62
(dp175
g82
g83
ssg71
g169
sg64
(lp176
S'client'
p177
asbag57
(g78
g59
NtRp178
(dp179
g62
(dp180
g89
g90
ssg71
g169
sg64
(lp181
S':'
asbag57
(g78
g59
NtRp182
(dp183
g62
(dp184
sg71
g169
sg64
(lp185
g57
(g58
g59
NtRp186
(dp187
g62
(dp188
g70
I5
ssg71
g182
sg64
(lp189
S'127.0.0.1'
p190
asbasbasbag57
(g73
g59
NtRp191
(dp192
g62
(dp193
sg71
g67
sg64
(lp194
g57
(g78
g59
NtRp195
(dp196
g62
(dp197
g82
g83
ssg71
g191
sg64
(lp198
S'controller'
p199
asbag57
(g78
g59
NtRp200
(dp201
g62
(dp202
g89
g90
ssg71
g191
sg64
(lp203
S':'
asbag57
(g78
g59
NtRp204
(dp205
g62
(dp206
sg71
g191
sg64
(lp207
g57
(g58
g59
NtRp208
(dp209
g62
(dp210
g70
I5
ssg71
g204
sg64
(lp211
S'default'
p212
asbasbasbag57
(g73
g59
NtRp213
(dp214
g62
(dp215
sg71
g67
sg64
(lp216
g57
(g78
g59
NtRp217
(dp218
g62
(dp219
g82
g83
ssg71
g213
sg64
(lp220
S'cookies'
p221
asbag57
(g78
g59
NtRp222
(dp223
g62
(dp224
g89
g90
ssg71
g213
sg64
(lp225
S':'
asbag57
(g78
g59
NtRp226
(dp227
g62
(dp228
sg71
g213
sg64
(lp229
g57
(g58
g59
NtRp230
(dp231
g62
(dp232
g70
I5
ssg71
g226
sg64
(lp233
g57
(g66
g59
NtRp234
(dp235
g62
(dp236
g70
I4
ssg71
Nsg64
(lp237
g57
(g73
g59
NtRp238
(dp239
g62
(dp240
sg71
g234
sg64
(lp241
g57
(g78
g59
NtRp242
(dp243
g62
(dp244
g82
g83
ssg71
g238
sg64
(lp245
S'session_id_admin'
p246
asbag57
(g78
g59
NtRp247
(dp248
g62
(dp249
g89
g90
ssg71
g238
sg64
(lp250
S':'
asbag57
(g78
g59
NtRp251
(dp252
g62
(dp253
sg71
g238
sg64
(lp254
g57
(g58
g59
NtRp255
(dp256
g62
(dp257
g70
I4
ssg71
g251
sg64
(lp258
g57
(g66
g59
NtRp259
(dp260
g62
(dp261
g70
I3
ssg71
Nsg64
(lp262
g57
(g73
g59
NtRp263
(dp264
g62
(dp265
sg71
g259
sg64
(lp266
g57
(g78
g59
NtRp267
(dp268
g62
(dp269
g82
g83
ssg71
g263
sg64
(lp270
S'comment'
p271
asbag57
(g78
g59
NtRp272
(dp273
g62
(dp274
g89
g90
ssg71
g263
sg64
(lp275
S':'
asbag57
(g78
g59
NtRp276
(dp277
g62
(dp278
sg71
g263
sg64
(lp279
g57
(g58
g59
NtRp280
(dp281
g62
(dp282
g70
I3
ssg71
g276
sg64
(lp283
S''
asbasbasbag57
(g73
g59
NtRp284
(dp285
g62
(dp286
sg71
g259
sg64
(lp287
g57
(g78
g59
NtRp288
(dp289
g62
(dp290
g82
g83
ssg71
g284
sg64
(lp291
S'domain'
p292
asbag57
(g78
g59
NtRp293
(dp294
g62
(dp295
g89
g90
ssg71
g284
sg64
(lp296
S':'
asbag57
(g78
g59
NtRp297
(dp298
g62
(dp299
sg71
g284
sg64
(lp300
g57
(g58
g59
NtRp301
(dp302
g62
(dp303
g70
I3
ssg71
g297
sg64
(lp304
S''
asbasbasbag57
(g73
g59
NtRp305
(dp306
g62
(dp307
sg71
g259
sg64
(lp308
g57
(g78
g59
NtRp309
(dp310
g62
(dp311
g82
g83
ssg71
g305
sg64
(lp312
S'expires'
p313
asbag57
(g78
g59
NtRp314
(dp315
g62
(dp316
g89
g90
ssg71
g305
sg64
(lp317
S':'
asbag57
(g78
g59
NtRp318
(dp319
g62
(dp320
sg71
g305
sg64
(lp321
g57
(g58
g59
NtRp322
(dp323
g62
(dp324
g70
I3
ssg71
g318
sg64
(lp325
S''
asbasbasbag57
(g73
g59
NtRp326
(dp327
g62
(dp328
sg71
g259
sg64
(lp329
g57
(g78
g59
NtRp330
(dp331
g62
(dp332
g82
g83
ssg71
g326
sg64
(lp333
S'httponly'
p334
asbag57
(g78
g59
NtRp335
(dp336
g62
(dp337
g89
g90
ssg71
g326
sg64
(lp338
S':'
asbag57
(g78
g59
NtRp339
(dp340
g62
(dp341
sg71
g326
sg64
(lp342
g57
(g58
g59
NtRp343
(dp344
g62
(dp345
g70
I3
ssg71
g339
sg64
(lp346
S''
asbasbasbag57
(g73
g59
NtRp347
(dp348
g62
(dp349
sg71
g259
sg64
(lp350
g57
(g78
g59
NtRp351
(dp352
g62
(dp353
g82
g83
ssg71
g347
sg64
(lp354
S'max-age'
p355
asbag57
(g78
g59
NtRp356
(dp357
g62
(dp358
g89
g90
ssg71
g347
sg64
(lp359
S':'
asbag57
(g78
g59
NtRp360
(dp361
g62
(dp362
sg71
g347
sg64
(lp363
g57
(g58
g59
NtRp364
(dp365
g62
(dp366
g70
I3
ssg71
g360
sg64
(lp367
S''
asbasbasbag57
(g73
g59
NtRp368
(dp369
g62
(dp370
sg71
g259
sg64
(lp371
g57
(g78
g59
NtRp372
(dp373
g62
(dp374
g82
g83
ssg71
g368
sg64
(lp375
S'path'
p376
asbag57
(g78
g59
NtRp377
(dp378
g62
(dp379
g89
g90
ssg71
g368
sg64
(lp380
S':'
asbag57
(g78
g59
NtRp381
(dp382
g62
(dp383
sg71
g368
sg64
(lp384
g57
(g58
g59
NtRp385
(dp386
g62
(dp387
g70
I3
ssg71
g381
sg64
(lp388
S''
asbasbasbag57
(g73
g59
NtRp389
(dp390
g62
(dp391
sg71
g259
sg64
(lp392
g57
(g78
g59
NtRp393
(dp394
g62
(dp395
g82
g83
ssg71
g389
sg64
(lp396
S'secure'
p397
asbag57
(g78
g59
NtRp398
(dp399
g62
(dp400
g89
g90
ssg71
g389
sg64
(lp401
S':'
asbag57
(g78
g59
NtRp402
(dp403
g62
(dp404
sg71
g389
sg64
(lp405
g57
(g58
g59
NtRp406
(dp407
g62
(dp408
g70
I3
ssg71
g402
sg64
(lp409
S''
asbasbasbag57
(g73
g59
NtRp410
(dp411
g62
(dp412
sg71
g259
sg64
(lp413
g57
(g78
g59
NtRp414
(dp415
g62
(dp416
g82
g83
ssg71
g410
sg64
(lp417
S'version'
p418
asbag57
(g78
g59
NtRp419
(dp420
g62
(dp421
g89
g90
ssg71
g410
sg64
(lp422
S':'
asbag57
(g78
g59
NtRp423
(dp424
g62
(dp425
sg71
g410
sg64
(lp426
g57
(g58
g59
NtRp427
(dp428
g62
(dp429
g70
I3
ssg71
g423
sg64
(lp430
S''
asbasbasbasbasbasbasbag57
(g73
g59
NtRp431
(dp432
g62
(dp433
sg71
g234
sg64
(lp434
g57
(g78
g59
NtRp435
(dp436
g62
(dp437
g82
g83
ssg71
g431
sg64
(lp438
S'session_id_proj2'
p439
asbag57
(g78
g59
NtRp440
(dp441
g62
(dp442
g89
g90
ssg71
g431
sg64
(lp443
S':'
asbag57
(g78
g59
NtRp444
(dp445
g62
(dp446
sg71
g431
sg64
(lp447
g57
(g58
g59
NtRp448
(dp449
g62
(dp450
g70
I4
ssg71
g444
sg64
(lp451
g57
(g66
g59
NtRp452
(dp453
g62
(dp454
g70
I3
ssg71
Nsg64
(lp455
g57
(g73
g59
NtRp456
(dp457
g62
(dp458
sg71
g452
sg64
(lp459
g57
(g78
g59
NtRp460
(dp461
g62
(dp462
g82
g83
ssg71
g456
sg64
(lp463
g271
asbag57
(g78
g59
NtRp464
(dp465
g62
(dp466
g89
g90
ssg71
g456
sg64
(lp467
S':'
asbag57
(g78
g59
NtRp468
(dp469
g62
(dp470
sg71
g456
sg64
(lp471
g57
(g58
g59
NtRp472
(dp473
g62
(dp474
g70
I3
ssg71
g468
sg64
(lp475
S''
asbasbasbag57
(g73
g59
NtRp476
(dp477
g62
(dp478
sg71
g452
sg64
(lp479
g57
(g78
g59
NtRp480
(dp481
g62
(dp482
g82
g83
ssg71
g476
sg64
(lp483
g292
asbag57
(g78
g59
NtRp484
(dp485
g62
(dp486
g89
g90
ssg71
g476
sg64
(lp487
S':'
asbag57
(g78
g59
NtRp488
(dp489
g62
(dp490
sg71
g476
sg64
(lp491
g57
(g58
g59
NtRp492
(dp493
g62
(dp494
g70
I3
ssg71
g488
sg64
(lp495
S''
asbasbasbag57
(g73
g59
NtRp496
(dp497
g62
(dp498
sg71
g452
sg64
(lp499
g57
(g78
g59
NtRp500
(dp501
g62
(dp502
g82
g83
ssg71
g496
sg64
(lp503
g313
asbag57
(g78
g59
NtRp504
(dp505
g62
(dp506
g89
g90
ssg71
g496
sg64
(lp507
S':'
asbag57
(g78
g59
NtRp508
(dp509
g62
(dp510
sg71
g496
sg64
(lp511
g57
(g58
g59
NtRp512
(dp513
g62
(dp514
g70
I3
ssg71
g508
sg64
(lp515
S''
asbasbasbag57
(g73
g59
NtRp516
(dp517
g62
(dp518
sg71
g452
sg64
(lp519
g57
(g78
g59
NtRp520
(dp521
g62
(dp522
g82
g83
ssg71
g516
sg64
(lp523
g334
asbag57
(g78
g59
NtRp524
(dp525
g62
(dp526
g89
g90
ssg71
g516
sg64
(lp527
S':'
asbag57
(g78
g59
NtRp528
(dp529
g62
(dp530
sg71
g516
sg64
(lp531
g57
(g58
g59
NtRp532
(dp533
g62
(dp534
g70
I3
ssg71
g528
sg64
(lp535
S''
asbasbasbag57
(g73
g59
NtRp536
(dp537
g62
(dp538
sg71
g452
sg64
(lp539
g57
(g78
g59
NtRp540
(dp541
g62
(dp542
g82
g83
ssg71
g536
sg64
(lp543
g355
asbag57
(g78
g59
NtRp544
(dp545
g62
(dp546
g89
g90
ssg71
g536
sg64
(lp547
S':'
asbag57
(g78
g59
NtRp548
(dp549
g62
(dp550
sg71
g536
sg64
(lp551
g57
(g58
g59
NtRp552
(dp553
g62
(dp554
g70
I3
ssg71
g548
sg64
(lp555
S''
asbasbasbag57
(g73
g59
NtRp556
(dp557
g62
(dp558
sg71
g452
sg64
(lp559
g57
(g78
g59
NtRp560
(dp561
g62
(dp562
g82
g83
ssg71
g556
sg64
(lp563
g376
asbag57
(g78
g59
NtRp564
(dp565
g62
(dp566
g89
g90
ssg71
g556
sg64
(lp567
S':'
asbag57
(g78
g59
NtRp568
(dp569
g62
(dp570
sg71
g556
sg64
(lp571
g57
(g58
g59
NtRp572
(dp573
g62
(dp574
g70
I3
ssg71
g568
sg64
(lp575
S''
asbasbasbag57
(g73
g59
NtRp576
(dp577
g62
(dp578
sg71
g452
sg64
(lp579
g57
(g78
g59
NtRp580
(dp581
g62
(dp582
g82
g83
ssg71
g576
sg64
(lp583
g397
asbag57
(g78
g59
NtRp584
(dp585
g62
(dp586
g89
g90
ssg71
g576
sg64
(lp587
S':'
asbag57
(g78
g59
NtRp588
(dp589
g62
(dp590
sg71
g576
sg64
(lp591
g57
(g58
g59
NtRp592
(dp593
g62
(dp594
g70
I3
ssg71
g588
sg64
(lp595
S''
asbasbasbag57
(g73
g59
NtRp596
(dp597
g62
(dp598
sg71
g452
sg64
(lp599
g57
(g78
g59
NtRp600
(dp601
g62
(dp602
g82
g83
ssg71
g596
sg64
(lp603
g418
asbag57
(g78
g59
NtRp604
(dp605
g62
(dp606
g89
g90
ssg71
g596
sg64
(lp607
S':'
asbag57
(g78
g59
NtRp608
(dp609
g62
(dp610
sg71
g596
sg64
(lp611
g57
(g58
g59
NtRp612
(dp613
g62
(dp614
g70
I3
ssg71
g608
sg64
(lp615
S''
asbasbasbasbasbasbasbag57
(g73
g59
NtRp616
(dp617
g62
(dp618
sg71
g234
sg64
(lp619
g57
(g78
g59
NtRp620
(dp621
g62
(dp622
g82
g83
ssg71
g616
sg64
(lp623
S'session_id_proj3'
p624
asbag57
(g78
g59
NtRp625
(dp626
g62
(dp627
g89
g90
ssg71
g616
sg64
(lp628
S':'
asbag57
(g78
g59
NtRp629
(dp630
g62
(dp631
sg71
g616
sg64
(lp632
g57
(g58
g59
NtRp633
(dp634
g62
(dp635
g70
I4
ssg71
g629
sg64
(lp636
g57
(g66
g59
NtRp637
(dp638
g62
(dp639
g70
I3
ssg71
Nsg64
(lp640
g57
(g73
g59
NtRp641
(dp642
g62
(dp643
sg71
g637
sg64
(lp644
g57
(g78
g59
NtRp645
(dp646
g62
(dp647
g82
g83
ssg71
g641
sg64
(lp648
g271
asbag57
(g78
g59
NtRp649
(dp650
g62
(dp651
g89
g90
ssg71
g641
sg64
(lp652
S':'
asbag57
(g78
g59
NtRp653
(dp654
g62
(dp655
sg71
g641
sg64
(lp656
g57
(g58
g59
NtRp657
(dp658
g62
(dp659
g70
I3
ssg71
g653
sg64
(lp660
S''
asbasbasbag57
(g73
g59
NtRp661
(dp662
g62
(dp663
sg71
g637
sg64
(lp664
g57
(g78
g59
NtRp665
(dp666
g62
(dp667
g82
g83
ssg71
g661
sg64
(lp668
g292
asbag57
(g78
g59
NtRp669
(dp670
g62
(dp671
g89
g90
ssg71
g661
sg64
(lp672
S':'
asbag57
(g78
g59
NtRp673
(dp674
g62
(dp675
sg71
g661
sg64
(lp676
g57
(g58
g59
NtRp677
(dp678
g62
(dp679
g70
I3
ssg71
g673
sg64
(lp680
S''
asbasbasbag57
(g73
g59
NtRp681
(dp682
g62
(dp683
sg71
g637
sg64
(lp684
g57
(g78
g59
NtRp685
(dp686
g62
(dp687
g82
g83
ssg71
g681
sg64
(lp688
g313
asbag57
(g78
g59
NtRp689
(dp690
g62
(dp691
g89
g90
ssg71
g681
sg64
(lp692
S':'
asbag57
(g78
g59
NtRp693
(dp694
g62
(dp695
sg71
g681
sg64
(lp696
g57
(g58
g59
NtRp697
(dp698
g62
(dp699
g70
I3
ssg71
g693
sg64
(lp700
S''
asbasbasbag57
(g73
g59
NtRp701
(dp702
g62
(dp703
sg71
g637
sg64
(lp704
g57
(g78
g59
NtRp705
(dp706
g62
(dp707
g82
g83
ssg71
g701
sg64
(lp708
g334
asbag57
(g78
g59
NtRp709
(dp710
g62
(dp711
g89
g90
ssg71
g701
sg64
(lp712
S':'
asbag57
(g78
g59
NtRp713
(dp714
g62
(dp715
sg71
g701
sg64
(lp716
g57
(g58
g59
NtRp717
(dp718
g62
(dp719
g70
I3
ssg71
g713
sg64
(lp720
S''
asbasbasbag57
(g73
g59
NtRp721
(dp722
g62
(dp723
sg71
g637
sg64
(lp724
g57
(g78
g59
NtRp725
(dp726
g62
(dp727
g82
g83
ssg71
g721
sg64
(lp728
g355
asbag57
(g78
g59
NtRp729
(dp730
g62
(dp731
g89
g90
ssg71
g721
sg64
(lp732
S':'
asbag57
(g78
g59
NtRp733
(dp734
g62
(dp735
sg71
g721
sg64
(lp736
g57
(g58
g59
NtRp737
(dp738
g62
(dp739
g70
I3
ssg71
g733
sg64
(lp740
S''
asbasbasbag57
(g73
g59
NtRp741
(dp742
g62
(dp743
sg71
g637
sg64
(lp744
g57
(g78
g59
NtRp745
(dp746
g62
(dp747
g82
g83
ssg71
g741
sg64
(lp748
g376
asbag57
(g78
g59
NtRp749
(dp750
g62
(dp751
g89
g90
ssg71
g741
sg64
(lp752
S':'
asbag57
(g78
g59
NtRp753
(dp754
g62
(dp755
sg71
g741
sg64
(lp756
g57
(g58
g59
NtRp757
(dp758
g62
(dp759
g70
I3
ssg71
g753
sg64
(lp760
S''
asbasbasbag57
(g73
g59
NtRp761
(dp762
g62
(dp763
sg71
g637
sg64
(lp764
g57
(g78
g59
NtRp765
(dp766
g62
(dp767
g82
g83
ssg71
g761
sg64
(lp768
g397
asbag57
(g78
g59
NtRp769
(dp770
g62
(dp771
g89
g90
ssg71
g761
sg64
(lp772
S':'
asbag57
(g78
g59
NtRp773
(dp774
g62
(dp775
sg71
g761
sg64
(lp776
g57
(g58
g59
NtRp777
(dp778
g62
(dp779
g70
I3
ssg71
g773
sg64
(lp780
S''
asbasbasbag57
(g73
g59
NtRp781
(dp782
g62
(dp783
sg71
g637
sg64
(lp784
g57
(g78
g59
NtRp785
(dp786
g62
(dp787
g82
g83
ssg71
g781
sg64
(lp788
g418
asbag57
(g78
g59
NtRp789
(dp790
g62
(dp791
g89
g90
ssg71
g781
sg64
(lp792
S':'
asbag57
(g78
g59
NtRp793
(dp794
g62
(dp795
sg71
g781
sg64
(lp796
g57
(g58
g59
NtRp797
(dp798
g62
(dp799
g70
I3
ssg71
g793
sg64
(lp800
S''
asbasbasbasbasbasbasbag57
(g73
g59
NtRp801
(dp802
g62
(dp803
sg71
g234
sg64
(lp804
g57
(g78
g59
NtRp805
(dp806
g62
(dp807
g82
g83
ssg71
g801
sg64
(lp808
S'session_id_rough'
p809
asbag57
(g78
g59
NtRp810
(dp811
g62
(dp812
g89
g90
ssg71
g801
sg64
(lp813
S':'
asbag57
(g78
g59
NtRp814
(dp815
g62
(dp816
sg71
g801
sg64
(lp817
g57
(g58
g59
NtRp818
(dp819
g62
(dp820
g70
I4
ssg71
g814
sg64
(lp821
g57
(g66
g59
NtRp822
(dp823
g62
(dp824
g70
I3
ssg71
Nsg64
(lp825
g57
(g73
g59
NtRp826
(dp827
g62
(dp828
sg71
g822
sg64
(lp829
g57
(g78
g59
NtRp830
(dp831
g62
(dp832
g82
g83
ssg71
g826
sg64
(lp833
g271
asbag57
(g78
g59
NtRp834
(dp835
g62
(dp836
g89
g90
ssg71
g826
sg64
(lp837
S':'
asbag57
(g78
g59
NtRp838
(dp839
g62
(dp840
sg71
g826
sg64
(lp841
g57
(g58
g59
NtRp842
(dp843
g62
(dp844
g70
I3
ssg71
g838
sg64
(lp845
S''
asbasbasbag57
(g73
g59
NtRp846
(dp847
g62
(dp848
sg71
g822
sg64
(lp849
g57
(g78
g59
NtRp850
(dp851
g62
(dp852
g82
g83
ssg71
g846
sg64
(lp853
g292
asbag57
(g78
g59
NtRp854
(dp855
g62
(dp856
g89
g90
ssg71
g846
sg64
(lp857
S':'
asbag57
(g78
g59
NtRp858
(dp859
g62
(dp860
sg71
g846
sg64
(lp861
g57
(g58
g59
NtRp862
(dp863
g62
(dp864
g70
I3
ssg71
g858
sg64
(lp865
S''
asbasbasbag57
(g73
g59
NtRp866
(dp867
g62
(dp868
sg71
g822
sg64
(lp869
g57
(g78
g59
NtRp870
(dp871
g62
(dp872
g82
g83
ssg71
g866
sg64
(lp873
g313
asbag57
(g78
g59
NtRp874
(dp875
g62
(dp876
g89
g90
ssg71
g866
sg64
(lp877
S':'
asbag57
(g78
g59
NtRp878
(dp879
g62
(dp880
sg71
g866
sg64
(lp881
g57
(g58
g59
NtRp882
(dp883
g62
(dp884
g70
I3
ssg71
g878
sg64
(lp885
S''
asbasbasbag57
(g73
g59
NtRp886
(dp887
g62
(dp888
sg71
g822
sg64
(lp889
g57
(g78
g59
NtRp890
(dp891
g62
(dp892
g82
g83
ssg71
g886
sg64
(lp893
g334
asbag57
(g78
g59
NtRp894
(dp895
g62
(dp896
g89
g90
ssg71
g886
sg64
(lp897
S':'
asbag57
(g78
g59
NtRp898
(dp899
g62
(dp900
sg71
g886
sg64
(lp901
g57
(g58
g59
NtRp902
(dp903
g62
(dp904
g70
I3
ssg71
g898
sg64
(lp905
S''
asbasbasbag57
(g73
g59
NtRp906
(dp907
g62
(dp908
sg71
g822
sg64
(lp909
g57
(g78
g59
NtRp910
(dp911
g62
(dp912
g82
g83
ssg71
g906
sg64
(lp913
g355
asbag57
(g78
g59
NtRp914
(dp915
g62
(dp916
g89
g90
ssg71
g906
sg64
(lp917
S':'
asbag57
(g78
g59
NtRp918
(dp919
g62
(dp920
sg71
g906
sg64
(lp921
g57
(g58
g59
NtRp922
(dp923
g62
(dp924
g70
I3
ssg71
g918
sg64
(lp925
S''
asbasbasbag57
(g73
g59
NtRp926
(dp927
g62
(dp928
sg71
g822
sg64
(lp929
g57
(g78
g59
NtRp930
(dp931
g62
(dp932
g82
g83
ssg71
g926
sg64
(lp933
g376
asbag57
(g78
g59
NtRp934
(dp935
g62
(dp936
g89
g90
ssg71
g926
sg64
(lp937
S':'
asbag57
(g78
g59
NtRp938
(dp939
g62
(dp940
sg71
g926
sg64
(lp941
g57
(g58
g59
NtRp942
(dp943
g62
(dp944
g70
I3
ssg71
g938
sg64
(lp945
S''
asbasbasbag57
(g73
g59
NtRp946
(dp947
g62
(dp948
sg71
g822
sg64
(lp949
g57
(g78
g59
NtRp950
(dp951
g62
(dp952
g82
g83
ssg71
g946
sg64
(lp953
g397
asbag57
(g78
g59
NtRp954
(dp955
g62
(dp956
g89
g90
ssg71
g946
sg64
(lp957
S':'
asbag57
(g78
g59
NtRp958
(dp959
g62
(dp960
sg71
g946
sg64
(lp961
g57
(g58
g59
NtRp962
(dp963
g62
(dp964
g70
I3
ssg71
g958
sg64
(lp965
S''
asbasbasbag57
(g73
g59
NtRp966
(dp967
g62
(dp968
sg71
g822
sg64
(lp969
g57
(g78
g59
NtRp970
(dp971
g62
(dp972
g82
g83
ssg71
g966
sg64
(lp973
g418
asbag57
(g78
g59
NtRp974
(dp975
g62
(dp976
g89
g90
ssg71
g966
sg64
(lp977
S':'
asbag57
(g78
g59
NtRp978
(dp979
g62
(dp980
sg71
g966
sg64
(lp981
g57
(g58
g59
NtRp982
(dp983
g62
(dp984
g70
I3
ssg71
g978
sg64
(lp985
S''
asbasbasbasbasbasbasbag57
(g73
g59
NtRp986
(dp987
g62
(dp988
sg71
g234
sg64
(lp989
g57
(g78
g59
NtRp990
(dp991
g62
(dp992
g82
g83
ssg71
g986
sg64
(lp993
S'session_id_ssad1'
p994
asbag57
(g78
g59
NtRp995
(dp996
g62
(dp997
g89
g90
ssg71
g986
sg64
(lp998
S':'
asbag57
(g78
g59
NtRp999
(dp1000
g62
(dp1001
sg71
g986
sg64
(lp1002
g57
(g58
g59
NtRp1003
(dp1004
g62
(dp1005
g70
I4
ssg71
g999
sg64
(lp1006
g57
(g66
g59
NtRp1007
(dp1008
g62
(dp1009
g70
I3
ssg71
Nsg64
(lp1010
g57
(g73
g59
NtRp1011
(dp1012
g62
(dp1013
sg71
g1007
sg64
(lp1014
g57
(g78
g59
NtRp1015
(dp1016
g62
(dp1017
g82
g83
ssg71
g1011
sg64
(lp1018
g271
asbag57
(g78
g59
NtRp1019
(dp1020
g62
(dp1021
g89
g90
ssg71
g1011
sg64
(lp1022
S':'
asbag57
(g78
g59
NtRp1023
(dp1024
g62
(dp1025
sg71
g1011
sg64
(lp1026
g57
(g58
g59
NtRp1027
(dp1028
g62
(dp1029
g70
I3
ssg71
g1023
sg64
(lp1030
S''
asbasbasbag57
(g73
g59
NtRp1031
(dp1032
g62
(dp1033
sg71
g1007
sg64
(lp1034
g57
(g78
g59
NtRp1035
(dp1036
g62
(dp1037
g82
g83
ssg71
g1031
sg64
(lp1038
g292
asbag57
(g78
g59
NtRp1039
(dp1040
g62
(dp1041
g89
g90
ssg71
g1031
sg64
(lp1042
S':'
asbag57
(g78
g59
NtRp1043
(dp1044
g62
(dp1045
sg71
g1031
sg64
(lp1046
g57
(g58
g59
NtRp1047
(dp1048
g62
(dp1049
g70
I3
ssg71
g1043
sg64
(lp1050
S''
asbasbasbag57
(g73
g59
NtRp1051
(dp1052
g62
(dp1053
sg71
g1007
sg64
(lp1054
g57
(g78
g59
NtRp1055
(dp1056
g62
(dp1057
g82
g83
ssg71
g1051
sg64
(lp1058
g313
asbag57
(g78
g59
NtRp1059
(dp1060
g62
(dp1061
g89
g90
ssg71
g1051
sg64
(lp1062
S':'
asbag57
(g78
g59
NtRp1063
(dp1064
g62
(dp1065
sg71
g1051
sg64
(lp1066
g57
(g58
g59
NtRp1067
(dp1068
g62
(dp1069
g70
I3
ssg71
g1063
sg64
(lp1070
S''
asbasbasbag57
(g73
g59
NtRp1071
(dp1072
g62
(dp1073
sg71
g1007
sg64
(lp1074
g57
(g78
g59
NtRp1075
(dp1076
g62
(dp1077
g82
g83
ssg71
g1071
sg64
(lp1078
g334
asbag57
(g78
g59
NtRp1079
(dp1080
g62
(dp1081
g89
g90
ssg71
g1071
sg64
(lp1082
S':'
asbag57
(g78
g59
NtRp1083
(dp1084
g62
(dp1085
sg71
g1071
sg64
(lp1086
g57
(g58
g59
NtRp1087
(dp1088
g62
(dp1089
g70
I3
ssg71
g1083
sg64
(lp1090
S''
asbasbasbag57
(g73
g59
NtRp1091
(dp1092
g62
(dp1093
sg71
g1007
sg64
(lp1094
g57
(g78
g59
NtRp1095
(dp1096
g62
(dp1097
g82
g83
ssg71
g1091
sg64
(lp1098
g355
asbag57
(g78
g59
NtRp1099
(dp1100
g62
(dp1101
g89
g90
ssg71
g1091
sg64
(lp1102
S':'
asbag57
(g78
g59
NtRp1103
(dp1104
g62
(dp1105
sg71
g1091
sg64
(lp1106
g57
(g58
g59
NtRp1107
(dp1108
g62
(dp1109
g70
I3
ssg71
g1103
sg64
(lp1110
S''
asbasbasbag57
(g73
g59
NtRp1111
(dp1112
g62
(dp1113
sg71
g1007
sg64
(lp1114
g57
(g78
g59
NtRp1115
(dp1116
g62
(dp1117
g82
g83
ssg71
g1111
sg64
(lp1118
g376
asbag57
(g78
g59
NtRp1119
(dp1120
g62
(dp1121
g89
g90
ssg71
g1111
sg64
(lp1122
S':'
asbag57
(g78
g59
NtRp1123
(dp1124
g62
(dp1125
sg71
g1111
sg64
(lp1126
g57
(g58
g59
NtRp1127
(dp1128
g62
(dp1129
g70
I3
ssg71
g1123
sg64
(lp1130
S''
asbasbasbag57
(g73
g59
NtRp1131
(dp1132
g62
(dp1133
sg71
g1007
sg64
(lp1134
g57
(g78
g59
NtRp1135
(dp1136
g62
(dp1137
g82
g83
ssg71
g1131
sg64
(lp1138
g397
asbag57
(g78
g59
NtRp1139
(dp1140
g62
(dp1141
g89
g90
ssg71
g1131
sg64
(lp1142
S':'
asbag57
(g78
g59
NtRp1143
(dp1144
g62
(dp1145
sg71
g1131
sg64
(lp1146
g57
(g58
g59
NtRp1147
(dp1148
g62
(dp1149
g70
I3
ssg71
g1143
sg64
(lp1150
S''
asbasbasbag57
(g73
g59
NtRp1151
(dp1152
g62
(dp1153
sg71
g1007
sg64
(lp1154
g57
(g78
g59
NtRp1155
(dp1156
g62
(dp1157
g82
g83
ssg71
g1151
sg64
(lp1158
g418
asbag57
(g78
g59
NtRp1159
(dp1160
g62
(dp1161
g89
g90
ssg71
g1151
sg64
(lp1162
S':'
asbag57
(g78
g59
NtRp1163
(dp1164
g62
(dp1165
sg71
g1151
sg64
(lp1166
g57
(g58
g59
NtRp1167
(dp1168
g62
(dp1169
g70
I3
ssg71
g1163
sg64
(lp1170
S''
asbasbasbasbasbasbasbag57
(g73
g59
NtRp1171
(dp1172
g62
(dp1173
sg71
g234
sg64
(lp1174
g57
(g78
g59
NtRp1175
(dp1176
g62
(dp1177
g82
g83
ssg71
g1171
sg64
(lp1178
S'session_id_ssad2'
p1179
asbag57
(g78
g59
NtRp1180
(dp1181
g62
(dp1182
g89
g90
ssg71
g1171
sg64
(lp1183
S':'
asbag57
(g78
g59
NtRp1184
(dp1185
g62
(dp1186
sg71
g1171
sg64
(lp1187
g57
(g58
g59
NtRp1188
(dp1189
g62
(dp1190
g70
I4
ssg71
g1184
sg64
(lp1191
g57
(g66
g59
NtRp1192
(dp1193
g62
(dp1194
g70
I3
ssg71
Nsg64
(lp1195
g57
(g73
g59
NtRp1196
(dp1197
g62
(dp1198
sg71
g1192
sg64
(lp1199
g57
(g78
g59
NtRp1200
(dp1201
g62
(dp1202
g82
g83
ssg71
g1196
sg64
(lp1203
g271
asbag57
(g78
g59
NtRp1204
(dp1205
g62
(dp1206
g89
g90
ssg71
g1196
sg64
(lp1207
S':'
asbag57
(g78
g59
NtRp1208
(dp1209
g62
(dp1210
sg71
g1196
sg64
(lp1211
g57
(g58
g59
NtRp1212
(dp1213
g62
(dp1214
g70
I3
ssg71
g1208
sg64
(lp1215
S''
asbasbasbag57
(g73
g59
NtRp1216
(dp1217
g62
(dp1218
sg71
g1192
sg64
(lp1219
g57
(g78
g59
NtRp1220
(dp1221
g62
(dp1222
g82
g83
ssg71
g1216
sg64
(lp1223
g292
asbag57
(g78
g59
NtRp1224
(dp1225
g62
(dp1226
g89
g90
ssg71
g1216
sg64
(lp1227
S':'
asbag57
(g78
g59
NtRp1228
(dp1229
g62
(dp1230
sg71
g1216
sg64
(lp1231
g57
(g58
g59
NtRp1232
(dp1233
g62
(dp1234
g70
I3
ssg71
g1228
sg64
(lp1235
S''
asbasbasbag57
(g73
g59
NtRp1236
(dp1237
g62
(dp1238
sg71
g1192
sg64
(lp1239
g57
(g78
g59
NtRp1240
(dp1241
g62
(dp1242
g82
g83
ssg71
g1236
sg64
(lp1243
g313
asbag57
(g78
g59
NtRp1244
(dp1245
g62
(dp1246
g89
g90
ssg71
g1236
sg64
(lp1247
S':'
asbag57
(g78
g59
NtRp1248
(dp1249
g62
(dp1250
sg71
g1236
sg64
(lp1251
g57
(g58
g59
NtRp1252
(dp1253
g62
(dp1254
g70
I3
ssg71
g1248
sg64
(lp1255
S''
asbasbasbag57
(g73
g59
NtRp1256
(dp1257
g62
(dp1258
sg71
g1192
sg64
(lp1259
g57
(g78
g59
NtRp1260
(dp1261
g62
(dp1262
g82
g83
ssg71
g1256
sg64
(lp1263
g334
asbag57
(g78
g59
NtRp1264
(dp1265
g62
(dp1266
g89
g90
ssg71
g1256
sg64
(lp1267
S':'
asbag57
(g78
g59
NtRp1268
(dp1269
g62
(dp1270
sg71
g1256
sg64
(lp1271
g57
(g58
g59
NtRp1272
(dp1273
g62
(dp1274
g70
I3
ssg71
g1268
sg64
(lp1275
S''
asbasbasbag57
(g73
g59
NtRp1276
(dp1277
g62
(dp1278
sg71
g1192
sg64
(lp1279
g57
(g78
g59
NtRp1280
(dp1281
g62
(dp1282
g82
g83
ssg71
g1276
sg64
(lp1283
g355
asbag57
(g78
g59
NtRp1284
(dp1285
g62
(dp1286
g89
g90
ssg71
g1276
sg64
(lp1287
S':'
asbag57
(g78
g59
NtRp1288
(dp1289
g62
(dp1290
sg71
g1276
sg64
(lp1291
g57
(g58
g59
NtRp1292
(dp1293
g62
(dp1294
g70
I3
ssg71
g1288
sg64
(lp1295
S''
asbasbasbag57
(g73
g59
NtRp1296
(dp1297
g62
(dp1298
sg71
g1192
sg64
(lp1299
g57
(g78
g59
NtRp1300
(dp1301
g62
(dp1302
g82
g83
ssg71
g1296
sg64
(lp1303
g376
asbag57
(g78
g59
NtRp1304
(dp1305
g62
(dp1306
g89
g90
ssg71
g1296
sg64
(lp1307
S':'
asbag57
(g78
g59
NtRp1308
(dp1309
g62
(dp1310
sg71
g1296
sg64
(lp1311
g57
(g58
g59
NtRp1312
(dp1313
g62
(dp1314
g70
I3
ssg71
g1308
sg64
(lp1315
S''
asbasbasbag57
(g73
g59
NtRp1316
(dp1317
g62
(dp1318
sg71
g1192
sg64
(lp1319
g57
(g78
g59
NtRp1320
(dp1321
g62
(dp1322
g82
g83
ssg71
g1316
sg64
(lp1323
g397
asbag57
(g78
g59
NtRp1324
(dp1325
g62
(dp1326
g89
g90
ssg71
g1316
sg64
(lp1327
S':'
asbag57
(g78
g59
NtRp1328
(dp1329
g62
(dp1330
sg71
g1316
sg64
(lp1331
g57
(g58
g59
NtRp1332
(dp1333
g62
(dp1334
g70
I3
ssg71
g1328
sg64
(lp1335
S''
asbasbasbag57
(g73
g59
NtRp1336
(dp1337
g62
(dp1338
sg71
g1192
sg64
(lp1339
g57
(g78
g59
NtRp1340
(dp1341
g62
(dp1342
g82
g83
ssg71
g1336
sg64
(lp1343
g418
asbag57
(g78
g59
NtRp1344
(dp1345
g62
(dp1346
g89
g90
ssg71
g1336
sg64
(lp1347
S':'
asbag57
(g78
g59
NtRp1348
(dp1349
g62
(dp1350
sg71
g1336
sg64
(lp1351
g57
(g58
g59
NtRp1352
(dp1353
g62
(dp1354
g70
I3
ssg71
g1348
sg64
(lp1355
S''
asbasbasbasbasbasbasbag57
(g73
g59
NtRp1356
(dp1357
g62
(dp1358
sg71
g234
sg64
(lp1359
g57
(g78
g59
NtRp1360
(dp1361
g62
(dp1362
g82
g83
ssg71
g1356
sg64
(lp1363
S'session_id_ssad3'
p1364
asbag57
(g78
g59
NtRp1365
(dp1366
g62
(dp1367
g89
g90
ssg71
g1356
sg64
(lp1368
S':'
asbag57
(g78
g59
NtRp1369
(dp1370
g62
(dp1371
sg71
g1356
sg64
(lp1372
g57
(g58
g59
NtRp1373
(dp1374
g62
(dp1375
g70
I4
ssg71
g1369
sg64
(lp1376
g57
(g66
g59
NtRp1377
(dp1378
g62
(dp1379
g70
I3
ssg71
Nsg64
(lp1380
g57
(g73
g59
NtRp1381
(dp1382
g62
(dp1383
sg71
g1377
sg64
(lp1384
g57
(g78
g59
NtRp1385
(dp1386
g62
(dp1387
g82
g83
ssg71
g1381
sg64
(lp1388
g271
asbag57
(g78
g59
NtRp1389
(dp1390
g62
(dp1391
g89
g90
ssg71
g1381
sg64
(lp1392
S':'
asbag57
(g78
g59
NtRp1393
(dp1394
g62
(dp1395
sg71
g1381
sg64
(lp1396
g57
(g58
g59
NtRp1397
(dp1398
g62
(dp1399
g70
I3
ssg71
g1393
sg64
(lp1400
S''
asbasbasbag57
(g73
g59
NtRp1401
(dp1402
g62
(dp1403
sg71
g1377
sg64
(lp1404
g57
(g78
g59
NtRp1405
(dp1406
g62
(dp1407
g82
g83
ssg71
g1401
sg64
(lp1408
g292
asbag57
(g78
g59
NtRp1409
(dp1410
g62
(dp1411
g89
g90
ssg71
g1401
sg64
(lp1412
S':'
asbag57
(g78
g59
NtRp1413
(dp1414
g62
(dp1415
sg71
g1401
sg64
(lp1416
g57
(g58
g59
NtRp1417
(dp1418
g62
(dp1419
g70
I3
ssg71
g1413
sg64
(lp1420
S''
asbasbasbag57
(g73
g59
NtRp1421
(dp1422
g62
(dp1423
sg71
g1377
sg64
(lp1424
g57
(g78
g59
NtRp1425
(dp1426
g62
(dp1427
g82
g83
ssg71
g1421
sg64
(lp1428
g313
asbag57
(g78
g59
NtRp1429
(dp1430
g62
(dp1431
g89
g90
ssg71
g1421
sg64
(lp1432
S':'
asbag57
(g78
g59
NtRp1433
(dp1434
g62
(dp1435
sg71
g1421
sg64
(lp1436
g57
(g58
g59
NtRp1437
(dp1438
g62
(dp1439
g70
I3
ssg71
g1433
sg64
(lp1440
S''
asbasbasbag57
(g73
g59
NtRp1441
(dp1442
g62
(dp1443
sg71
g1377
sg64
(lp1444
g57
(g78
g59
NtRp1445
(dp1446
g62
(dp1447
g82
g83
ssg71
g1441
sg64
(lp1448
g334
asbag57
(g78
g59
NtRp1449
(dp1450
g62
(dp1451
g89
g90
ssg71
g1441
sg64
(lp1452
S':'
asbag57
(g78
g59
NtRp1453
(dp1454
g62
(dp1455
sg71
g1441
sg64
(lp1456
g57
(g58
g59
NtRp1457
(dp1458
g62
(dp1459
g70
I3
ssg71
g1453
sg64
(lp1460
S''
asbasbasbag57
(g73
g59
NtRp1461
(dp1462
g62
(dp1463
sg71
g1377
sg64
(lp1464
g57
(g78
g59
NtRp1465
(dp1466
g62
(dp1467
g82
g83
ssg71
g1461
sg64
(lp1468
g355
asbag57
(g78
g59
NtRp1469
(dp1470
g62
(dp1471
g89
g90
ssg71
g1461
sg64
(lp1472
S':'
asbag57
(g78
g59
NtRp1473
(dp1474
g62
(dp1475
sg71
g1461
sg64
(lp1476
g57
(g58
g59
NtRp1477
(dp1478
g62
(dp1479
g70
I3
ssg71
g1473
sg64
(lp1480
S''
asbasbasbag57
(g73
g59
NtRp1481
(dp1482
g62
(dp1483
sg71
g1377
sg64
(lp1484
g57
(g78
g59
NtRp1485
(dp1486
g62
(dp1487
g82
g83
ssg71
g1481
sg64
(lp1488
g376
asbag57
(g78
g59
NtRp1489
(dp1490
g62
(dp1491
g89
g90
ssg71
g1481
sg64
(lp1492
S':'
asbag57
(g78
g59
NtRp1493
(dp1494
g62
(dp1495
sg71
g1481
sg64
(lp1496
g57
(g58
g59
NtRp1497
(dp1498
g62
(dp1499
g70
I3
ssg71
g1493
sg64
(lp1500
S''
asbasbasbag57
(g73
g59
NtRp1501
(dp1502
g62
(dp1503
sg71
g1377
sg64
(lp1504
g57
(g78
g59
NtRp1505
(dp1506
g62
(dp1507
g82
g83
ssg71
g1501
sg64
(lp1508
g397
asbag57
(g78
g59
NtRp1509
(dp1510
g62
(dp1511
g89
g90
ssg71
g1501
sg64
(lp1512
S':'
asbag57
(g78
g59
NtRp1513
(dp1514
g62
(dp1515
sg71
g1501
sg64
(lp1516
g57
(g58
g59
NtRp1517
(dp1518
g62
(dp1519
g70
I3
ssg71
g1513
sg64
(lp1520
S''
asbasbasbag57
(g73
g59
NtRp1521
(dp1522
g62
(dp1523
sg71
g1377
sg64
(lp1524
g57
(g78
g59
NtRp1525
(dp1526
g62
(dp1527
g82
g83
ssg71
g1521
sg64
(lp1528
g418
asbag57
(g78
g59
NtRp1529
(dp1530
g62
(dp1531
g89
g90
ssg71
g1521
sg64
(lp1532
S':'
asbag57
(g78
g59
NtRp1533
(dp1534
g62
(dp1535
sg71
g1521
sg64
(lp1536
g57
(g58
g59
NtRp1537
(dp1538
g62
(dp1539
g70
I3
ssg71
g1533
sg64
(lp1540
S''
asbasbasbasbasbasbasbag57
(g73
g59
NtRp1541
(dp1542
g62
(dp1543
sg71
g234
sg64
(lp1544
g57
(g78
g59
NtRp1545
(dp1546
g62
(dp1547
g82
g83
ssg71
g1541
sg64
(lp1548
S'session_id_welcome'
p1549
asbag57
(g78
g59
NtRp1550
(dp1551
g62
(dp1552
g89
g90
ssg71
g1541
sg64
(lp1553
S':'
asbag57
(g78
g59
NtRp1554
(dp1555
g62
(dp1556
sg71
g1541
sg64
(lp1557
g57
(g58
g59
NtRp1558
(dp1559
g62
(dp1560
g70
I4
ssg71
g1554
sg64
(lp1561
g57
(g66
g59
NtRp1562
(dp1563
g62
(dp1564
g70
I3
ssg71
Nsg64
(lp1565
g57
(g73
g59
NtRp1566
(dp1567
g62
(dp1568
sg71
g1562
sg64
(lp1569
g57
(g78
g59
NtRp1570
(dp1571
g62
(dp1572
g82
g83
ssg71
g1566
sg64
(lp1573
g271
asbag57
(g78
g59
NtRp1574
(dp1575
g62
(dp1576
g89
g90
ssg71
g1566
sg64
(lp1577
S':'
asbag57
(g78
g59
NtRp1578
(dp1579
g62
(dp1580
sg71
g1566
sg64
(lp1581
g57
(g58
g59
NtRp1582
(dp1583
g62
(dp1584
g70
I3
ssg71
g1578
sg64
(lp1585
S''
asbasbasbag57
(g73
g59
NtRp1586
(dp1587
g62
(dp1588
sg71
g1562
sg64
(lp1589
g57
(g78
g59
NtRp1590
(dp1591
g62
(dp1592
g82
g83
ssg71
g1586
sg64
(lp1593
g292
asbag57
(g78
g59
NtRp1594
(dp1595
g62
(dp1596
g89
g90
ssg71
g1586
sg64
(lp1597
S':'
asbag57
(g78
g59
NtRp1598
(dp1599
g62
(dp1600
sg71
g1586
sg64
(lp1601
g57
(g58
g59
NtRp1602
(dp1603
g62
(dp1604
g70
I3
ssg71
g1598
sg64
(lp1605
S''
asbasbasbag57
(g73
g59
NtRp1606
(dp1607
g62
(dp1608
sg71
g1562
sg64
(lp1609
g57
(g78
g59
NtRp1610
(dp1611
g62
(dp1612
g82
g83
ssg71
g1606
sg64
(lp1613
g313
asbag57
(g78
g59
NtRp1614
(dp1615
g62
(dp1616
g89
g90
ssg71
g1606
sg64
(lp1617
S':'
asbag57
(g78
g59
NtRp1618
(dp1619
g62
(dp1620
sg71
g1606
sg64
(lp1621
g57
(g58
g59
NtRp1622
(dp1623
g62
(dp1624
g70
I3
ssg71
g1618
sg64
(lp1625
S''
asbasbasbag57
(g73
g59
NtRp1626
(dp1627
g62
(dp1628
sg71
g1562
sg64
(lp1629
g57
(g78
g59
NtRp1630
(dp1631
g62
(dp1632
g82
g83
ssg71
g1626
sg64
(lp1633
g334
asbag57
(g78
g59
NtRp1634
(dp1635
g62
(dp1636
g89
g90
ssg71
g1626
sg64
(lp1637
S':'
asbag57
(g78
g59
NtRp1638
(dp1639
g62
(dp1640
sg71
g1626
sg64
(lp1641
g57
(g58
g59
NtRp1642
(dp1643
g62
(dp1644
g70
I3
ssg71
g1638
sg64
(lp1645
S''
asbasbasbag57
(g73
g59
NtRp1646
(dp1647
g62
(dp1648
sg71
g1562
sg64
(lp1649
g57
(g78
g59
NtRp1650
(dp1651
g62
(dp1652
g82
g83
ssg71
g1646
sg64
(lp1653
g355
asbag57
(g78
g59
NtRp1654
(dp1655
g62
(dp1656
g89
g90
ssg71
g1646
sg64
(lp1657
S':'
asbag57
(g78
g59
NtRp1658
(dp1659
g62
(dp1660
sg71
g1646
sg64
(lp1661
g57
(g58
g59
NtRp1662
(dp1663
g62
(dp1664
g70
I3
ssg71
g1658
sg64
(lp1665
S''
asbasbasbag57
(g73
g59
NtRp1666
(dp1667
g62
(dp1668
sg71
g1562
sg64
(lp1669
g57
(g78
g59
NtRp1670
(dp1671
g62
(dp1672
g82
g83
ssg71
g1666
sg64
(lp1673
g376
asbag57
(g78
g59
NtRp1674
(dp1675
g62
(dp1676
g89
g90
ssg71
g1666
sg64
(lp1677
S':'
asbag57
(g78
g59
NtRp1678
(dp1679
g62
(dp1680
sg71
g1666
sg64
(lp1681
g57
(g58
g59
NtRp1682
(dp1683
g62
(dp1684
g70
I3
ssg71
g1678
sg64
(lp1685
S''
asbasbasbag57
(g73
g59
NtRp1686
(dp1687
g62
(dp1688
sg71
g1562
sg64
(lp1689
g57
(g78
g59
NtRp1690
(dp1691
g62
(dp1692
g82
g83
ssg71
g1686
sg64
(lp1693
g397
asbag57
(g78
g59
NtRp1694
(dp1695
g62
(dp1696
g89
g90
ssg71
g1686
sg64
(lp1697
S':'
asbag57
(g78
g59
NtRp1698
(dp1699
g62
(dp1700
sg71
g1686
sg64
(lp1701
g57
(g58
g59
NtRp1702
(dp1703
g62
(dp1704
g70
I3
ssg71
g1698
sg64
(lp1705
S''
asbasbasbag57
(g73
g59
NtRp1706
(dp1707
g62
(dp1708
sg71
g1562
sg64
(lp1709
g57
(g78
g59
NtRp1710
(dp1711
g62
(dp1712
g82
g83
ssg71
g1706
sg64
(lp1713
g418
asbag57
(g78
g59
NtRp1714
(dp1715
g62
(dp1716
g89
g90
ssg71
g1706
sg64
(lp1717
S':'
asbag57
(g78
g59
NtRp1718
(dp1719
g62
(dp1720
sg71
g1706
sg64
(lp1721
g57
(g58
g59
NtRp1722
(dp1723
g62
(dp1724
g70
I3
ssg71
g1718
sg64
(lp1725
S''
asbasbasbasbasbasbasbasbasbasbasbag57
(g73
g59
NtRp1726
(dp1727
g62
(dp1728
sg71
g67
sg64
(lp1729
g57
(g78
g59
NtRp1730
(dp1731
g62
(dp1732
g82
g83
ssg71
g1726
sg64
(lp1733
S'env'
p1734
asbag57
(g78
g59
NtRp1735
(dp1736
g62
(dp1737
g89
g90
ssg71
g1726
sg64
(lp1738
S':'
asbag57
(g78
g59
NtRp1739
(dp1740
g62
(dp1741
sg71
g1726
sg64
(lp1742
g57
(g58
g59
NtRp1743
(dp1744
g62
(dp1745
g70
I5
ssg71
g1739
sg64
(lp1746
g57
(g66
g59
NtRp1747
(dp1748
g62
(dp1749
g70
I4
ssg71
Nsg64
(lp1750
g57
(g73
g59
NtRp1751
(dp1752
g62
(dp1753
sg71
g1747
sg64
(lp1754
g57
(g78
g59
NtRp1755
(dp1756
g62
(dp1757
g82
g83
ssg71
g1751
sg64
(lp1758
S'app_folders'
p1759
asbag57
(g78
g59
NtRp1760
(dp1761
g62
(dp1762
g89
g90
ssg71
g1751
sg64
(lp1763
S':'
asbag57
(g78
g59
NtRp1764
(dp1765
g62
(dp1766
sg71
g1751
sg64
(lp1767
g57
(g58
g59
NtRp1768
(dp1769
g62
(dp1770
g70
I4
ssg71
g1764
sg64
(lp1771
S"set(['/home/chitra/courses/SSAD/web2py/applications/ssad1/', '/home/chitra/courses/SSAD/web2py/applications/ssad3/', '/home/chitra/courses/SSAD/web2py/applications/admin/', '/home/chitra/courses/SSAD/web2py/applications/rough/', '/home/chitra/courses/SSAD/web2py/applications/welcome/', '/home/chitra/courses/SSAD/web2py/applications/proj2/', '/home/chitra/courses/SSAD/web2py/applications/ssad2/'])"
p1772
asbasbasbag57
(g73
g59
NtRp1773
(dp1774
g62
(dp1775
sg71
g1747
sg64
(lp1776
g57
(g78
g59
NtRp1777
(dp1778
g62
(dp1779
g82
g83
ssg71
g1773
sg64
(lp1780
S'applications_parent'
p1781
asbag57
(g78
g59
NtRp1782
(dp1783
g62
(dp1784
g89
g90
ssg71
g1773
sg64
(lp1785
S':'
asbag57
(g78
g59
NtRp1786
(dp1787
g62
(dp1788
sg71
g1773
sg64
(lp1789
g57
(g58
g59
NtRp1790
(dp1791
g62
(dp1792
g70
I4
ssg71
g1786
sg64
(lp1793
S'/home/chitra/courses/SSAD/web2py'
p1794
asbasbasbag57
(g73
g59
NtRp1795
(dp1796
g62
(dp1797
sg71
g1747
sg64
(lp1798
g57
(g78
g59
NtRp1799
(dp1800
g62
(dp1801
g82
g83
ssg71
g1795
sg64
(lp1802
S'cmd_args'
p1803
asbag57
(g78
g59
NtRp1804
(dp1805
g62
(dp1806
g89
g90
ssg71
g1795
sg64
(lp1807
S':'
asbag57
(g78
g59
NtRp1808
(dp1809
g62
(dp1810
sg71
g1795
sg64
(lp1811
g57
(g58
g59
NtRp1812
(dp1813
g62
(dp1814
g70
I4
ssg71
g1808
sg64
(lp1815
g57
(g66
g59
NtRp1816
(dp1817
g62
(dp1818
g70
I3
ssg71
Nsg64
(lp1819
sbasbasbasbag57
(g73
g59
NtRp1820
(dp1821
g62
(dp1822
sg71
g1747
sg64
(lp1823
g57
(g78
g59
NtRp1824
(dp1825
g62
(dp1826
g82
g83
ssg71
g1820
sg64
(lp1827
S'cmd_options'
p1828
asbag57
(g78
g59
NtRp1829
(dp1830
g62
(dp1831
g89
g90
ssg71
g1820
sg64
(lp1832
S':'
asbag57
(g78
g59
NtRp1833
(dp1834
g62
(dp1835
sg71
g1820
sg64
(lp1836
g57
(g58
g59
NtRp1837
(dp1838
g62
(dp1839
g70
I4
ssg71
g1833
sg64
(lp1840
S"<Values at 0x237ebd8: {'verbose': False, 'ip': '127.0.0.1', 'shutdown_timeout': 5, 'taskbar': False, 'nocron': False, 'pid_filename': 'httpserver.pid', 'maxthreads': None, 'softcron': False, 'server_name': 'chitra-HP-Pavilion-dv6-Notebook-PC', 'bpython': False, 'nogui': False, 'port': 8000, 'extcron': False, 'debuglevel': 30, 'test': None, 'folder': '/home/chitra/courses/SSAD/web2py', 'config': '', 'import_models': False, 'winservice': '', 'shell': None, 'run': '', 'log_filename': 'httpserver.log', 'args': [''], 'socket_timeout': 5, 'ssl_ca_certificate': None, 'scheduler': None, 'profiler_filename': None, 'ssl_private_key': '', 'password': '<ask>', 'request_queue_size': 5, 'ssl_certificate': '', 'cronjob': False, 'numthreads': None, 'quiet': False, 'interfaces': None, 'minthreads': None, 'timeout': 10, 'plain': False, 'nobanner': False}>"
p1841
asbasbasbag57
(g73
g59
NtRp1842
(dp1843
g62
(dp1844
sg71
g1747
sg64
(lp1845
g57
(g78
g59
NtRp1846
(dp1847
g62
(dp1848
g82
g83
ssg71
g1842
sg64
(lp1849
S'db_sessions'
p1850
asbag57
(g78
g59
NtRp1851
(dp1852
g62
(dp1853
g89
g90
ssg71
g1842
sg64
(lp1854
S':'
asbag57
(g78
g59
NtRp1855
(dp1856
g62
(dp1857
sg71
g1842
sg64
(lp1858
g57
(g58
g59
NtRp1859
(dp1860
g62
(dp1861
g70
I4
ssg71
g1855
sg64
(lp1862
S'set([])'
p1863
asbasbasbag57
(g73
g59
NtRp1864
(dp1865
g62
(dp1866
sg71
g1747
sg64
(lp1867
g57
(g78
g59
NtRp1868
(dp1869
g62
(dp1870
g82
g83
ssg71
g1864
sg64
(lp1871
S'debugging'
p1872
asbag57
(g78
g59
NtRp1873
(dp1874
g62
(dp1875
g89
g90
ssg71
g1864
sg64
(lp1876
S':'
asbag57
(g78
g59
NtRp1877
(dp1878
g62
(dp1879
sg71
g1864
sg64
(lp1880
g57
(g58
g59
NtRp1881
(dp1882
g62
(dp1883
g70
I4
ssg71
g1877
sg64
(lp1884
g100
asbasbasbag57
(g73
g59
NtRp1885
(dp1886
g62
(dp1887
sg71
g1747
sg64
(lp1888
g57
(g78
g59
NtRp1889
(dp1890
g62
(dp1891
g82
g83
ssg71
g1885
sg64
(lp1892
S'gluon_parent'
p1893
asbag57
(g78
g59
NtRp1894
(dp1895
g62
(dp1896
g89
g90
ssg71
g1885
sg64
(lp1897
S':'
asbag57
(g78
g59
NtRp1898
(dp1899
g62
(dp1900
sg71
g1885
sg64
(lp1901
g57
(g58
g59
NtRp1902
(dp1903
g62
(dp1904
g70
I4
ssg71
g1898
sg64
(lp1905
S'/home/chitra/courses/SSAD/web2py'
p1906
asbasbasbag57
(g73
g59
NtRp1907
(dp1908
g62
(dp1909
sg71
g1747
sg64
(lp1910
g57
(g78
g59
NtRp1911
(dp1912
g62
(dp1913
g82
g83
ssg71
g1907
sg64
(lp1914
S'http_accept'
p1915
asbag57
(g78
g59
NtRp1916
(dp1917
g62
(dp1918
g89
g90
ssg71
g1907
sg64
(lp1919
S':'
asbag57
(g78
g59
NtRp1920
(dp1921
g62
(dp1922
sg71
g1907
sg64
(lp1923
g57
(g58
g59
NtRp1924
(dp1925
g62
(dp1926
g70
I4
ssg71
g1920
sg64
(lp1927
S'text/html,application/xhtml+xml,application/xml;q=0.9,*/*;q=0.8'
p1928
asbasbasbag57
(g73
g59
NtRp1929
(dp1930
g62
(dp1931
sg71
g1747
sg64
(lp1932
g57
(g78
g59
NtRp1933
(dp1934
g62
(dp1935
g82
g83
ssg71
g1929
sg64
(lp1936
S'http_accept_encoding'
p1937
asbag57
(g78
g59
NtRp1938
(dp1939
g62
(dp1940
g89
g90
ssg71
g1929
sg64
(lp1941
S':'
asbag57
(g78
g59
NtRp1942
(dp1943
g62
(dp1944
sg71
g1929
sg64
(lp1945
g57
(g58
g59
NtRp1946
(dp1947
g62
(dp1948
g70
I4
ssg71
g1942
sg64
(lp1949
S'gzip, deflate'
p1950
asbasbasbag57
(g73
g59
NtRp1951
(dp1952
g62
(dp1953
sg71
g1747
sg64
(lp1954
g57
(g78
g59
NtRp1955
(dp1956
g62
(dp1957
g82
g83
ssg71
g1951
sg64
(lp1958
S'http_accept_language'
p1959
asbag57
(g78
g59
NtRp1960
(dp1961
g62
(dp1962
g89
g90
ssg71
g1951
sg64
(lp1963
S':'
asbag57
(g78
g59
NtRp1964
(dp1965
g62
(dp1966
sg71
g1951
sg64
(lp1967
g57
(g58
g59
NtRp1968
(dp1969
g62
(dp1970
g70
I4
ssg71
g1964
sg64
(lp1971
S'en-us,en;q=0.5'
p1972
asbasbasbag57
(g73
g59
NtRp1973
(dp1974
g62
(dp1975
sg71
g1747
sg64
(lp1976
g57
(g78
g59
NtRp1977
(dp1978
g62
(dp1979
g82
g83
ssg71
g1973
sg64
(lp1980
S'http_connection'
p1981
asbag57
(g78
g59
NtRp1982
(dp1983
g62
(dp1984
g89
g90
ssg71
g1973
sg64
(lp1985
S':'
asbag57
(g78
g59
NtRp1986
(dp1987
g62
(dp1988
sg71
g1973
sg64
(lp1989
g57
(g58
g59
NtRp1990
(dp1991
g62
(dp1992
g70
I4
ssg71
g1986
sg64
(lp1993
S'keep-alive'
p1994
asbasbasbag57
(g73
g59
NtRp1995
(dp1996
g62
(dp1997
sg71
g1747
sg64
(lp1998
g57
(g78
g59
NtRp1999
(dp2000
g62
(dp2001
g82
g83
ssg71
g1995
sg64
(lp2002
S'http_cookie'
p2003
asbag57
(g78
g59
NtRp2004
(dp2005
g62
(dp2006
g89
g90
ssg71
g1995
sg64
(lp2007
S':'
asbag57
(g78
g59
NtRp2008
(dp2009
g62
(dp2010
sg71
g1995
sg64
(lp2011
g57
(g58
g59
NtRp2012
(dp2013
g62
(dp2014
g70
I4
ssg71
g2008
sg64
(lp2015
S'session_id_proj3=127.0.0.1-7b6e923e-436a-487a-a58a-be74ac4b7da4; session_id_welcome=127.0.0.1-1445a4a6-6391-4d7f-a67f-eb1d9595f6e1; session_id_rough=127.0.0.1-d0bf3c7b-3e10-4137-8a7c-69d73b810be8; session_id_admin=127.0.0.1-636b77ab-b8a0-4d68-9093-c59f18837a62; session_id_proj2=127.0.0.1-9b4dfb46-0dbe-4eb5-aaff-c75ccd17281d; session_id_ssad1=127.0.0.1-0170374a-8ccd-4f67-aeb3-848820127ed2; session_id_ssad2=127.0.0.1-11b94260-bd18-44ca-b985-33abd8c086ea; session_id_ssad3=127.0.0.1-0868b6ef-d0fd-4c69-93f5-10ec9780f1b8'
p2016
asbasbasbag57
(g73
g59
NtRp2017
(dp2018
g62
(dp2019
sg71
g1747
sg64
(lp2020
g57
(g78
g59
NtRp2021
(dp2022
g62
(dp2023
g82
g83
ssg71
g2017
sg64
(lp2024
S'http_host'
p2025
asbag57
(g78
g59
NtRp2026
(dp2027
g62
(dp2028
g89
g90
ssg71
g2017
sg64
(lp2029
S':'
asbag57
(g78
g59
NtRp2030
(dp2031
g62
(dp2032
sg71
g2017
sg64
(lp2033
g57
(g58
g59
NtRp2034
(dp2035
g62
(dp2036
g70
I4
ssg71
g2030
sg64
(lp2037
S'127.0.0.1:8000'
p2038
asbasbasbag57
(g73
g59
NtRp2039
(dp2040
g62
(dp2041
sg71
g1747
sg64
(lp2042
g57
(g78
g59
NtRp2043
(dp2044
g62
(dp2045
g82
g83
ssg71
g2039
sg64
(lp2046
S'http_referer'
p2047
asbag57
(g78
g59
NtRp2048
(dp2049
g62
(dp2050
g89
g90
ssg71
g2039
sg64
(lp2051
S':'
asbag57
(g78
g59
NtRp2052
(dp2053
g62
(dp2054
sg71
g2039
sg64
(lp2055
g57
(g58
g59
NtRp2056
(dp2057
g62
(dp2058
g70
I4
ssg71
g2052
sg64
(lp2059
S'http://127.0.0.1:8000/ssad3/default/index'
p2060
asbasbasbag57
(g73
g59
NtRp2061
(dp2062
g62
(dp2063
sg71
g1747
sg64
(lp2064
g57
(g78
g59
NtRp2065
(dp2066
g62
(dp2067
g82
g83
ssg71
g2061
sg64
(lp2068
S'http_user_agent'
p2069
asbag57
(g78
g59
NtRp2070
(dp2071
g62
(dp2072
g89
g90
ssg71
g2061
sg64
(lp2073
S':'
asbag57
(g78
g59
NtRp2074
(dp2075
g62
(dp2076
sg71
g2061
sg64
(lp2077
g57
(g58
g59
NtRp2078
(dp2079
g62
(dp2080
g70
I4
ssg71
g2074
sg64
(lp2081
S'Mozilla/5.0 (X11; Ubuntu; Linux x86_64; rv:13.0) Gecko/20100101 Firefox/13.0.1'
p2082
asbasbasbag57
(g73
g59
NtRp2083
(dp2084
g62
(dp2085
sg71
g1747
sg64
(lp2086
g57
(g78
g59
NtRp2087
(dp2088
g62
(dp2089
g82
g83
ssg71
g2083
sg64
(lp2090
S'is_jython'
p2091
asbag57
(g78
g59
NtRp2092
(dp2093
g62
(dp2094
g89
g90
ssg71
g2083
sg64
(lp2095
S':'
asbag57
(g78
g59
NtRp2096
(dp2097
g62
(dp2098
sg71
g2083
sg64
(lp2099
g57
(g58
g59
NtRp2100
(dp2101
g62
(dp2102
g70
I4
ssg71
g2096
sg64
(lp2103
g100
asbasbasbag57
(g73
g59
NtRp2104
(dp2105
g62
(dp2106
sg71
g1747
sg64
(lp2107
g57
(g78
g59
NtRp2108
(dp2109
g62
(dp2110
g82
g83
ssg71
g2104
sg64
(lp2111
S'is_pypy'
p2112
asbag57
(g78
g59
NtRp2113
(dp2114
g62
(dp2115
g89
g90
ssg71
g2104
sg64
(lp2116
S':'
asbag57
(g78
g59
NtRp2117
(dp2118
g62
(dp2119
sg71
g2104
sg64
(lp2120
g57
(g58
g59
NtRp2121
(dp2122
g62
(dp2123
g70
I4
ssg71
g2117
sg64
(lp2124
g100
asbasbasbag57
(g73
g59
NtRp2125
(dp2126
g62
(dp2127
sg71
g1747
sg64
(lp2128
g57
(g78
g59
NtRp2129
(dp2130
g62
(dp2131
g82
g83
ssg71
g2125
sg64
(lp2132
S'path_info'
p2133
asbag57
(g78
g59
NtRp2134
(dp2135
g62
(dp2136
g89
g90
ssg71
g2125
sg64
(lp2137
S':'
asbag57
(g78
g59
NtRp2138
(dp2139
g62
(dp2140
sg71
g2125
sg64
(lp2141
g57
(g58
g59
NtRp2142
(dp2143
g62
(dp2144
g70
I4
ssg71
g2138
sg64
(lp2145
S'/ssad3/default/final_ans'
p2146
asbasbasbag57
(g73
g59
NtRp2147
(dp2148
g62
(dp2149
sg71
g1747
sg64
(lp2150
g57
(g78
g59
NtRp2151
(dp2152
g62
(dp2153
g82
g83
ssg71
g2147
sg64
(lp2154
S'query_string'
p2155
asbag57
(g78
g59
NtRp2156
(dp2157
g62
(dp2158
g89
g90
ssg71
g2147
sg64
(lp2159
S':'
asbag57
(g78
g59
NtRp2160
(dp2161
g62
(dp2162
sg71
g2147
sg64
(lp2163
g57
(g58
g59
NtRp2164
(dp2165
g62
(dp2166
g70
I4
ssg71
g2160
sg64
(lp2167
S''
asbasbasbag57
(g73
g59
NtRp2168
(dp2169
g62
(dp2170
sg71
g1747
sg64
(lp2171
g57
(g78
g59
NtRp2172
(dp2173
g62
(dp2174
g82
g83
ssg71
g2168
sg64
(lp2175
S'remote_addr'
p2176
asbag57
(g78
g59
NtRp2177
(dp2178
g62
(dp2179
g89
g90
ssg71
g2168
sg64
(lp2180
S':'
asbag57
(g78
g59
NtRp2181
(dp2182
g62
(dp2183
sg71
g2168
sg64
(lp2184
g57
(g58
g59
NtRp2185
(dp2186
g62
(dp2187
g70
I4
ssg71
g2181
sg64
(lp2188
g190
asbasbasbag57
(g73
g59
NtRp2189
(dp2190
g62
(dp2191
sg71
g1747
sg64
(lp2192
g57
(g78
g59
NtRp2193
(dp2194
g62
(dp2195
g82
g83
ssg71
g2189
sg64
(lp2196
S'remote_port'
p2197
asbag57
(g78
g59
NtRp2198
(dp2199
g62
(dp2200
g89
g90
ssg71
g2189
sg64
(lp2201
S':'
asbag57
(g78
g59
NtRp2202
(dp2203
g62
(dp2204
sg71
g2189
sg64
(lp2205
g57
(g58
g59
NtRp2206
(dp2207
g62
(dp2208
g70
I4
ssg71
g2202
sg64
(lp2209
S'51683'
p2210
asbasbasbag57
(g73
g59
NtRp2211
(dp2212
g62
(dp2213
sg71
g1747
sg64
(lp2214
g57
(g78
g59
NtRp2215
(dp2216
g62
(dp2217
g82
g83
ssg71
g2211
sg64
(lp2218
S'request_method'
p2219
asbag57
(g78
g59
NtRp2220
(dp2221
g62
(dp2222
g89
g90
ssg71
g2211
sg64
(lp2223
S':'
asbag57
(g78
g59
NtRp2224
(dp2225
g62
(dp2226
sg71
g2211
sg64
(lp2227
g57
(g58
g59
NtRp2228
(dp2229
g62
(dp2230
g70
I4
ssg71
g2224
sg64
(lp2231
S'GET'
p2232
asbasbasbag57
(g73
g59
NtRp2233
(dp2234
g62
(dp2235
sg71
g1747
sg64
(lp2236
g57
(g78
g59
NtRp2237
(dp2238
g62
(dp2239
g82
g83
ssg71
g2233
sg64
(lp2240
S'script_name'
p2241
asbag57
(g78
g59
NtRp2242
(dp2243
g62
(dp2244
g89
g90
ssg71
g2233
sg64
(lp2245
S':'
asbag57
(g78
g59
NtRp2246
(dp2247
g62
(dp2248
sg71
g2233
sg64
(lp2249
g57
(g58
g59
NtRp2250
(dp2251
g62
(dp2252
g70
I4
ssg71
g2246
sg64
(lp2253
S''
asbasbasbag57
(g73
g59
NtRp2254
(dp2255
g62
(dp2256
sg71
g1747
sg64
(lp2257
g57
(g78
g59
NtRp2258
(dp2259
g62
(dp2260
g82
g83
ssg71
g2254
sg64
(lp2261
S'server_name'
p2262
asbag57
(g78
g59
NtRp2263
(dp2264
g62
(dp2265
g89
g90
ssg71
g2254
sg64
(lp2266
S':'
asbag57
(g78
g59
NtRp2267
(dp2268
g62
(dp2269
sg71
g2254
sg64
(lp2270
g57
(g58
g59
NtRp2271
(dp2272
g62
(dp2273
g70
I4
ssg71
g2267
sg64
(lp2274
S'chitra-HP-Pavilion-dv6-Notebook-PC'
p2275
asbasbasbag57
(g73
g59
NtRp2276
(dp2277
g62
(dp2278
sg71
g1747
sg64
(lp2279
g57
(g78
g59
NtRp2280
(dp2281
g62
(dp2282
g82
g83
ssg71
g2276
sg64
(lp2283
S'server_port'
p2284
asbag57
(g78
g59
NtRp2285
(dp2286
g62
(dp2287
g89
g90
ssg71
g2276
sg64
(lp2288
S':'
asbag57
(g78
g59
NtRp2289
(dp2290
g62
(dp2291
sg71
g2276
sg64
(lp2292
g57
(g58
g59
NtRp2293
(dp2294
g62
(dp2295
g70
I4
ssg71
g2289
sg64
(lp2296
S'8000'
p2297
asbasbasbag57
(g73
g59
NtRp2298
(dp2299
g62
(dp2300
sg71
g1747
sg64
(lp2301
g57
(g78
g59
NtRp2302
(dp2303
g62
(dp2304
g82
g83
ssg71
g2298
sg64
(lp2305
S'server_protocol'
p2306
asbag57
(g78
g59
NtRp2307
(dp2308
g62
(dp2309
g89
g90
ssg71
g2298
sg64
(lp2310
S':'
asbag57
(g78
g59
NtRp2311
(dp2312
g62
(dp2313
sg71
g2298
sg64
(lp2314
g57
(g58
g59
NtRp2315
(dp2316
g62
(dp2317
g70
I4
ssg71
g2311
sg64
(lp2318
S'HTTP/1.1'
p2319
asbasbasbag57
(g73
g59
NtRp2320
(dp2321
g62
(dp2322
sg71
g1747
sg64
(lp2323
g57
(g78
g59
NtRp2324
(dp2325
g62
(dp2326
g82
g83
ssg71
g2320
sg64
(lp2327
S'server_software'
p2328
asbag57
(g78
g59
NtRp2329
(dp2330
g62
(dp2331
g89
g90
ssg71
g2320
sg64
(lp2332
S':'
asbag57
(g78
g59
NtRp2333
(dp2334
g62
(dp2335
sg71
g2320
sg64
(lp2336
g57
(g58
g59
NtRp2337
(dp2338
g62
(dp2339
g70
I4
ssg71
g2333
sg64
(lp2340
S'Rocket 1.2.4'
p2341
asbasbasbag57
(g73
g59
NtRp2342
(dp2343
g62
(dp2344
sg71
g1747
sg64
(lp2345
g57
(g78
g59
NtRp2346
(dp2347
g62
(dp2348
g82
g83
ssg71
g2342
sg64
(lp2349
S'web2py_crontype'
p2350
asbag57
(g78
g59
NtRp2351
(dp2352
g62
(dp2353
g89
g90
ssg71
g2342
sg64
(lp2354
S':'
asbag57
(g78
g59
NtRp2355
(dp2356
g62
(dp2357
sg71
g2342
sg64
(lp2358
g57
(g58
g59
NtRp2359
(dp2360
g62
(dp2361
g70
I4
ssg71
g2355
sg64
(lp2362
S'hard'
p2363
asbasbasbag57
(g73
g59
NtRp2364
(dp2365
g62
(dp2366
sg71
g1747
sg64
(lp2367
g57
(g78
g59
NtRp2368
(dp2369
g62
(dp2370
g82
g83
ssg71
g2364
sg64
(lp2371
S'web2py_path'
p2372
asbag57
(g78
g59
NtRp2373
(dp2374
g62
(dp2375
g89
g90
ssg71
g2364
sg64
(lp2376
S':'
asbag57
(g78
g59
NtRp2377
(dp2378
g62
(dp2379
sg71
g2364
sg64
(lp2380
g57
(g58
g59
NtRp2381
(dp2382
g62
(dp2383
g70
I4
ssg71
g2377
sg64
(lp2384
g1794
asbasbasbag57
(g73
g59
NtRp2385
(dp2386
g62
(dp2387
sg71
g1747
sg64
(lp2388
g57
(g78
g59
NtRp2389
(dp2390
g62
(dp2391
g82
g83
ssg71
g2385
sg64
(lp2392
S'web2py_version'
p2393
asbag57
(g78
g59
NtRp2394
(dp2395
g62
(dp2396
g89
g90
ssg71
g2385
sg64
(lp2397
S':'
asbag57
(g78
g59
NtRp2398
(dp2399
g62
(dp2400
sg71
g2385
sg64
(lp2401
g57
(g58
g59
NtRp2402
(dp2403
g62
(dp2404
g70
I4
ssg71
g2398
sg64
(lp2405
g57
(g66
g59
NtRp2406
(dp2407
g62
(dp2408
g70
I3
ssg71
Nsg64
(lp2409
g57
(g73
g59
NtRp2410
(dp2411
g62
(dp2412
sg71
g2406
sg64
(lp2413
g57
(g78
g59
NtRp2414
(dp2415
g62
(dp2416
sg71
g2410
sg64
(lp2417
g57
(g58
g59
NtRp2418
(dp2419
g62
(dp2420
g70
I3
ssg71
g2414
sg64
(lp2421
S'1'
asbasbasbag57
(g73
g59
NtRp2422
(dp2423
g62
(dp2424
sg71
g2406
sg64
(lp2425
g57
(g78
g59
NtRp2426
(dp2427
g62
(dp2428
sg71
g2422
sg64
(lp2429
g57
(g58
g59
NtRp2430
(dp2431
g62
(dp2432
g70
I3
ssg71
g2426
sg64
(lp2433
S'99'
p2434
asbasbasbag57
(g73
g59
NtRp2435
(dp2436
g62
(dp2437
sg71
g2406
sg64
(lp2438
g57
(g78
g59
NtRp2439
(dp2440
g62
(dp2441
sg71
g2435
sg64
(lp2442
g57
(g58
g59
NtRp2443
(dp2444
g62
(dp2445
g70
I3
ssg71
g2439
sg64
(lp2446
S'7'
asbasbasbag57
(g73
g59
NtRp2447
(dp2448
g62
(dp2449
sg71
g2406
sg64
(lp2450
g57
(g78
g59
NtRp2451
(dp2452
g62
(dp2453
sg71
g2447
sg64
(lp2454
g57
(g58
g59
NtRp2455
(dp2456
g62
(dp2457
g70
I3
ssg71
g2451
sg64
(lp2458
S'datetime.datetime(2012, 3, 4, 22, 12, 8)'
p2459
asbasbasbag57
(g73
g59
NtRp2460
(dp2461
g62
(dp2462
sg71
g2406
sg64
(lp2463
g57
(g78
g59
NtRp2464
(dp2465
g62
(dp2466
sg71
g2460
sg64
(lp2467
g57
(g58
g59
NtRp2468
(dp2469
g62
(dp2470
g70
I3
ssg71
g2464
sg64
(lp2471
S'stable'
p2472
asbasbasbasbasbasbasbag57
(g73
g59
NtRp2473
(dp2474
g62
(dp2475
sg71
g1747
sg64
(lp2476
g57
(g78
g59
NtRp2477
(dp2478
g62
(dp2479
g82
g83
ssg71
g2473
sg64
(lp2480
S'wsgi_errors'
p2481
asbag57
(g78
g59
NtRp2482
(dp2483
g62
(dp2484
g89
g90
ssg71
g2473
sg64
(lp2485
S':'
asbag57
(g78
g59
NtRp2486
(dp2487
g62
(dp2488
sg71
g2473
sg64
(lp2489
g57
(g58
g59
NtRp2490
(dp2491
g62
(dp2492
g70
I4
ssg71
g2486
sg64
(lp2493
S"<open file '<stderr>', mode 'w' at 0x7fb55ffab270>"
p2494
asbasbasbag57
(g73
g59
NtRp2495
(dp2496
g62
(dp2497
sg71
g1747
sg64
(lp2498
g57
(g78
g59
NtRp2499
(dp2500
g62
(dp2501
g82
g83
ssg71
g2495
sg64
(lp2502
S'wsgi_file_wrapper'
p2503
asbag57
(g78
g59
NtRp2504
(dp2505
g62
(dp2506
g89
g90
ssg71
g2495
sg64
(lp2507
S':'
asbag57
(g78
g59
NtRp2508
(dp2509
g62
(dp2510
sg71
g2495
sg64
(lp2511
g57
(g58
g59
NtRp2512
(dp2513
g62
(dp2514
g70
I4
ssg71
g2508
sg64
(lp2515
S'<class wsgiref.util.FileWrapper at 0x226e120>'
p2516
asbasbasbag57
(g73
g59
NtRp2517
(dp2518
g62
(dp2519
sg71
g1747
sg64
(lp2520
g57
(g78
g59
NtRp2521
(dp2522
g62
(dp2523
g82
g83
ssg71
g2517
sg64
(lp2524
S'wsgi_input'
p2525
asbag57
(g78
g59
NtRp2526
(dp2527
g62
(dp2528
g89
g90
ssg71
g2517
sg64
(lp2529
S':'
asbag57
(g78
g59
NtRp2530
(dp2531
g62
(dp2532
sg71
g2517
sg64
(lp2533
g57
(g58
g59
NtRp2534
(dp2535
g62
(dp2536
g70
I4
ssg71
g2530
sg64
(lp2537
S'<socket._fileobject object at 0x7fb51826d050>'
p2538
asbasbasbag57
(g73
g59
NtRp2539
(dp2540
g62
(dp2541
sg71
g1747
sg64
(lp2542
g57
(g78
g59
NtRp2543
(dp2544
g62
(dp2545
g82
g83
ssg71
g2539
sg64
(lp2546
S'wsgi_multiprocess'
p2547
asbag57
(g78
g59
NtRp2548
(dp2549
g62
(dp2550
g89
g90
ssg71
g2539
sg64
(lp2551
S':'
asbag57
(g78
g59
NtRp2552
(dp2553
g62
(dp2554
sg71
g2539
sg64
(lp2555
g57
(g58
g59
NtRp2556
(dp2557
g62
(dp2558
g70
I4
ssg71
g2552
sg64
(lp2559
g100
asbasbasbag57
(g73
g59
NtRp2560
(dp2561
g62
(dp2562
sg71
g1747
sg64
(lp2563
g57
(g78
g59
NtRp2564
(dp2565
g62
(dp2566
g82
g83
ssg71
g2560
sg64
(lp2567
S'wsgi_multithread'
p2568
asbag57
(g78
g59
NtRp2569
(dp2570
g62
(dp2571
g89
g90
ssg71
g2560
sg64
(lp2572
S':'
asbag57
(g78
g59
NtRp2573
(dp2574
g62
(dp2575
sg71
g2560
sg64
(lp2576
g57
(g58
g59
NtRp2577
(dp2578
g62
(dp2579
g70
I4
ssg71
g2573
sg64
(lp2580
S'True'
p2581
asbasbasbag57
(g73
g59
NtRp2582
(dp2583
g62
(dp2584
sg71
g1747
sg64
(lp2585
g57
(g78
g59
NtRp2586
(dp2587
g62
(dp2588
g82
g83
ssg71
g2582
sg64
(lp2589
S'wsgi_run_once'
p2590
asbag57
(g78
g59
NtRp2591
(dp2592
g62
(dp2593
g89
g90
ssg71
g2582
sg64
(lp2594
S':'
asbag57
(g78
g59
NtRp2595
(dp2596
g62
(dp2597
sg71
g2582
sg64
(lp2598
g57
(g58
g59
NtRp2599
(dp2600
g62
(dp2601
g70
I4
ssg71
g2595
sg64
(lp2602
g100
asbasbasbag57
(g73
g59
NtRp2603
(dp2604
g62
(dp2605
sg71
g1747
sg64
(lp2606
g57
(g78
g59
NtRp2607
(dp2608
g62
(dp2609
g82
g83
ssg71
g2603
sg64
(lp2610
S'wsgi_url_scheme'
p2611
asbag57
(g78
g59
NtRp2612
(dp2613
g62
(dp2614
g89
g90
ssg71
g2603
sg64
(lp2615
S':'
asbag57
(g78
g59
NtRp2616
(dp2617
g62
(dp2618
sg71
g2603
sg64
(lp2619
g57
(g58
g59
NtRp2620
(dp2621
g62
(dp2622
g70
I4
ssg71
g2616
sg64
(lp2623
S'http'
p2624
asbasbasbag57
(g73
g59
NtRp2625
(dp2626
g62
(dp2627
sg71
g1747
sg64
(lp2628
g57
(g78
g59
NtRp2629
(dp2630
g62
(dp2631
g82
g83
ssg71
g2625
sg64
(lp2632
S'wsgi_version'
p2633
asbag57
(g78
g59
NtRp2634
(dp2635
g62
(dp2636
g89
g90
ssg71
g2625
sg64
(lp2637
S':'
asbag57
(g78
g59
NtRp2638
(dp2639
g62
(dp2640
sg71
g2625
sg64
(lp2641
g57
(g58
g59
NtRp2642
(dp2643
g62
(dp2644
g70
I4
ssg71
g2638
sg64
(lp2645
g57
(g66
g59
NtRp2646
(dp2647
g62
(dp2648
g70
I3
ssg71
Nsg64
(lp2649
g57
(g73
g59
NtRp2650
(dp2651
g62
(dp2652
sg71
g2646
sg64
(lp2653
g57
(g78
g59
NtRp2654
(dp2655
g62
(dp2656
sg71
g2650
sg64
(lp2657
g57
(g58
g59
NtRp2658
(dp2659
g62
(dp2660
g70
I3
ssg71
g2654
sg64
(lp2661
S'1'
asbasbasbag57
(g73
g59
NtRp2662
(dp2663
g62
(dp2664
sg71
g2646
sg64
(lp2665
g57
(g78
g59
NtRp2666
(dp2667
g62
(dp2668
sg71
g2662
sg64
(lp2669
g57
(g58
g59
NtRp2670
(dp2671
g62
(dp2672
g70
I3
ssg71
g2666
sg64
(lp2673
S'0'
asbasbasbasbasbasbasbasbasbasbasbag57
(g73
g59
NtRp2674
(dp2675
g62
(dp2676
sg71
g67
sg64
(lp2677
g57
(g78
g59
NtRp2678
(dp2679
g62
(dp2680
g82
g83
ssg71
g2674
sg64
(lp2681
S'extension'
p2682
asbag57
(g78
g59
NtRp2683
(dp2684
g62
(dp2685
g89
g90
ssg71
g2674
sg64
(lp2686
S':'
asbag57
(g78
g59
NtRp2687
(dp2688
g62
(dp2689
sg71
g2674
sg64
(lp2690
g57
(g58
g59
NtRp2691
(dp2692
g62
(dp2693
g70
I5
ssg71
g2687
sg64
(lp2694
S'html'
p2695
asbasbasbag57
(g73
g59
NtRp2696
(dp2697
g62
(dp2698
sg71
g67
sg64
(lp2699
g57
(g78
g59
NtRp2700
(dp2701
g62
(dp2702
g82
g83
ssg71
g2696
sg64
(lp2703
S'folder'
p2704
asbag57
(g78
g59
NtRp2705
(dp2706
g62
(dp2707
g89
g90
ssg71
g2696
sg64
(lp2708
S':'
asbag57
(g78
g59
NtRp2709
(dp2710
g62
(dp2711
sg71
g2696
sg64
(lp2712
g57
(g58
g59
NtRp2713
(dp2714
g62
(dp2715
g70
I5
ssg71
g2709
sg64
(lp2716
S'/home/chitra/courses/SSAD/web2py/applications/ssad3/'
p2717
asbasbasbag57
(g73
g59
NtRp2718
(dp2719
g62
(dp2720
sg71
g67
sg64
(lp2721
g57
(g78
g59
NtRp2722
(dp2723
g62
(dp2724
g82
g83
ssg71
g2718
sg64
(lp2725
S'function'
p2726
asbag57
(g78
g59
NtRp2727
(dp2728
g62
(dp2729
g89
g90
ssg71
g2718
sg64
(lp2730
S':'
asbag57
(g78
g59
NtRp2731
(dp2732
g62
(dp2733
sg71
g2718
sg64
(lp2734
g57
(g58
g59
NtRp2735
(dp2736
g62
(dp2737
g70
I5
ssg71
g2731
sg64
(lp2738
S'final_ans'
p2739
asbasbasbag57
(g73
g59
NtRp2740
(dp2741
g62
(dp2742
sg71
g67
sg64
(lp2743
g57
(g78
g59
NtRp2744
(dp2745
g62
(dp2746
g82
g83
ssg71
g2740
sg64
(lp2747
S'get_vars'
p2748
asbag57
(g78
g59
NtRp2749
(dp2750
g62
(dp2751
g89
g90
ssg71
g2740
sg64
(lp2752
S':'
asbag57
(g78
g59
NtRp2753
(dp2754
g62
(dp2755
sg71
g2740
sg64
(lp2756
g57
(g58
g59
NtRp2757
(dp2758
g62
(dp2759
g70
I5
ssg71
g2753
sg64
(lp2760
g57
(g66
g59
NtRp2761
(dp2762
g62
(dp2763
g70
I4
ssg71
Nsg64
(lp2764
sbasbasbasbag57
(g73
g59
NtRp2765
(dp2766
g62
(dp2767
sg71
g67
sg64
(lp2768
g57
(g78
g59
NtRp2769
(dp2770
g62
(dp2771
g82
g83
ssg71
g2765
sg64
(lp2772
S'global_settings'
p2773
asbag57
(g78
g59
NtRp2774
(dp2775
g62
(dp2776
g89
g90
ssg71
g2765
sg64
(lp2777
S':'
asbag57
(g78
g59
NtRp2778
(dp2779
g62
(dp2780
sg71
g2765
sg64
(lp2781
g57
(g58
g59
NtRp2782
(dp2783
g62
(dp2784
g70
I5
ssg71
g2778
sg64
(lp2785
g57
(g66
g59
NtRp2786
(dp2787
g62
(dp2788
g70
I4
ssg71
Nsg64
(lp2789
g57
(g73
g59
NtRp2790
(dp2791
g62
(dp2792
sg71
g2786
sg64
(lp2793
g57
(g78
g59
NtRp2794
(dp2795
g62
(dp2796
g82
g83
ssg71
g2790
sg64
(lp2797
g1759
asbag57
(g78
g59
NtRp2798
(dp2799
g62
(dp2800
g89
g90
ssg71
g2790
sg64
(lp2801
S':'
asbag57
(g78
g59
NtRp2802
(dp2803
g62
(dp2804
sg71
g2790
sg64
(lp2805
g57
(g58
g59
NtRp2806
(dp2807
g62
(dp2808
g70
I4
ssg71
g2802
sg64
(lp2809
S"set(['/home/chitra/courses/SSAD/web2py/applications/ssad1/', '/home/chitra/courses/SSAD/web2py/applications/ssad3/', '/home/chitra/courses/SSAD/web2py/applications/admin/', '/home/chitra/courses/SSAD/web2py/applications/rough/', '/home/chitra/courses/SSAD/web2py/applications/welcome/', '/home/chitra/courses/SSAD/web2py/applications/proj2/', '/home/chitra/courses/SSAD/web2py/applications/ssad2/'])"
p2810
asbasbasbag57
(g73
g59
NtRp2811
(dp2812
g62
(dp2813
sg71
g2786
sg64
(lp2814
g57
(g78
g59
NtRp2815
(dp2816
g62
(dp2817
g82
g83
ssg71
g2811
sg64
(lp2818
g1781
asbag57
(g78
g59
NtRp2819
(dp2820
g62
(dp2821
g89
g90
ssg71
g2811
sg64
(lp2822
S':'
asbag57
(g78
g59
NtRp2823
(dp2824
g62
(dp2825
sg71
g2811
sg64
(lp2826
g57
(g58
g59
NtRp2827
(dp2828
g62
(dp2829
g70
I4
ssg71
g2823
sg64
(lp2830
g1794
asbasbasbag57
(g73
g59
NtRp2831
(dp2832
g62
(dp2833
sg71
g2786
sg64
(lp2834
g57
(g78
g59
NtRp2835
(dp2836
g62
(dp2837
g82
g83
ssg71
g2831
sg64
(lp2838
g1803
asbag57
(g78
g59
NtRp2839
(dp2840
g62
(dp2841
g89
g90
ssg71
g2831
sg64
(lp2842
S':'
asbag57
(g78
g59
NtRp2843
(dp2844
g62
(dp2845
sg71
g2831
sg64
(lp2846
g57
(g58
g59
NtRp2847
(dp2848
g62
(dp2849
g70
I4
ssg71
g2843
sg64
(lp2850
g57
(g66
g59
NtRp2851
(dp2852
g62
(dp2853
g70
I3
ssg71
Nsg64
(lp2854
sbasbasbasbag57
(g73
g59
NtRp2855
(dp2856
g62
(dp2857
sg71
g2786
sg64
(lp2858
g57
(g78
g59
NtRp2859
(dp2860
g62
(dp2861
g82
g83
ssg71
g2855
sg64
(lp2862
g1828
asbag57
(g78
g59
NtRp2863
(dp2864
g62
(dp2865
g89
g90
ssg71
g2855
sg64
(lp2866
S':'
asbag57
(g78
g59
NtRp2867
(dp2868
g62
(dp2869
sg71
g2855
sg64
(lp2870
g57
(g58
g59
NtRp2871
(dp2872
g62
(dp2873
g70
I4
ssg71
g2867
sg64
(lp2874
S"<Values at 0x237ebd8: {'verbose': False, 'ip': '127.0.0.1', 'shutdown_timeout': 5, 'taskbar': False, 'nocron': False, 'pid_filename': 'httpserver.pid', 'maxthreads': None, 'softcron': False, 'server_name': 'chitra-HP-Pavilion-dv6-Notebook-PC', 'bpython': False, 'nogui': False, 'port': 8000, 'extcron': False, 'debuglevel': 30, 'test': None, 'folder': '/home/chitra/courses/SSAD/web2py', 'config': '', 'import_models': False, 'winservice': '', 'shell': None, 'run': '', 'log_filename': 'httpserver.log', 'args': [''], 'socket_timeout': 5, 'ssl_ca_certificate': None, 'scheduler': None, 'profiler_filename': None, 'ssl_private_key': '', 'password': '<ask>', 'request_queue_size': 5, 'ssl_certificate': '', 'cronjob': False, 'numthreads': None, 'quiet': False, 'interfaces': None, 'minthreads': None, 'timeout': 10, 'plain': False, 'nobanner': False}>"
p2875
asbasbasbag57
(g73
g59
NtRp2876
(dp2877
g62
(dp2878
sg71
g2786
sg64
(lp2879
g57
(g78
g59
NtRp2880
(dp2881
g62
(dp2882
g82
g83
ssg71
g2876
sg64
(lp2883
g1850
asbag57
(g78
g59
NtRp2884
(dp2885
g62
(dp2886
g89
g90
ssg71
g2876
sg64
(lp2887
S':'
asbag57
(g78
g59
NtRp2888
(dp2889
g62
(dp2890
sg71
g2876
sg64
(lp2891
g57
(g58
g59
NtRp2892
(dp2893
g62
(dp2894
g70
I4
ssg71
g2888
sg64
(lp2895
S'set([])'
p2896
asbasbasbag57
(g73
g59
NtRp2897
(dp2898
g62
(dp2899
sg71
g2786
sg64
(lp2900
g57
(g78
g59
NtRp2901
(dp2902
g62
(dp2903
g82
g83
ssg71
g2897
sg64
(lp2904
g1872
asbag57
(g78
g59
NtRp2905
(dp2906
g62
(dp2907
g89
g90
ssg71
g2897
sg64
(lp2908
S':'
asbag57
(g78
g59
NtRp2909
(dp2910
g62
(dp2911
sg71
g2897
sg64
(lp2912
g57
(g58
g59
NtRp2913
(dp2914
g62
(dp2915
g70
I4
ssg71
g2909
sg64
(lp2916
g100
asbasbasbag57
(g73
g59
NtRp2917
(dp2918
g62
(dp2919
sg71
g2786
sg64
(lp2920
g57
(g78
g59
NtRp2921
(dp2922
g62
(dp2923
g82
g83
ssg71
g2917
sg64
(lp2924
g1893
asbag57
(g78
g59
NtRp2925
(dp2926
g62
(dp2927
g89
g90
ssg71
g2917
sg64
(lp2928
S':'
asbag57
(g78
g59
NtRp2929
(dp2930
g62
(dp2931
sg71
g2917
sg64
(lp2932
g57
(g58
g59
NtRp2933
(dp2934
g62
(dp2935
g70
I4
ssg71
g2929
sg64
(lp2936
g1906
asbasbasbag57
(g73
g59
NtRp2937
(dp2938
g62
(dp2939
sg71
g2786
sg64
(lp2940
g57
(g78
g59
NtRp2941
(dp2942
g62
(dp2943
g82
g83
ssg71
g2937
sg64
(lp2944
g2091
asbag57
(g78
g59
NtRp2945
(dp2946
g62
(dp2947
g89
g90
ssg71
g2937
sg64
(lp2948
S':'
asbag57
(g78
g59
NtRp2949
(dp2950
g62
(dp2951
sg71
g2937
sg64
(lp2952
g57
(g58
g59
NtRp2953
(dp2954
g62
(dp2955
g70
I4
ssg71
g2949
sg64
(lp2956
g100
asbasbasbag57
(g73
g59
NtRp2957
(dp2958
g62
(dp2959
sg71
g2786
sg64
(lp2960
g57
(g78
g59
NtRp2961
(dp2962
g62
(dp2963
g82
g83
ssg71
g2957
sg64
(lp2964
g2112
asbag57
(g78
g59
NtRp2965
(dp2966
g62
(dp2967
g89
g90
ssg71
g2957
sg64
(lp2968
S':'
asbag57
(g78
g59
NtRp2969
(dp2970
g62
(dp2971
sg71
g2957
sg64
(lp2972
g57
(g58
g59
NtRp2973
(dp2974
g62
(dp2975
g70
I4
ssg71
g2969
sg64
(lp2976
g100
asbasbasbag57
(g73
g59
NtRp2977
(dp2978
g62
(dp2979
sg71
g2786
sg64
(lp2980
g57
(g78
g59
NtRp2981
(dp2982
g62
(dp2983
g82
g83
ssg71
g2977
sg64
(lp2984
g2350
asbag57
(g78
g59
NtRp2985
(dp2986
g62
(dp2987
g89
g90
ssg71
g2977
sg64
(lp2988
S':'
asbag57
(g78
g59
NtRp2989
(dp2990
g62
(dp2991
sg71
g2977
sg64
(lp2992
g57
(g58
g59
NtRp2993
(dp2994
g62
(dp2995
g70
I4
ssg71
g2989
sg64
(lp2996
g2363
asbasbasbag57
(g73
g59
NtRp2997
(dp2998
g62
(dp2999
sg71
g2786
sg64
(lp3000
g57
(g78
g59
NtRp3001
(dp3002
g62
(dp3003
g82
g83
ssg71
g2997
sg64
(lp3004
g2393
asbag57
(g78
g59
NtRp3005
(dp3006
g62
(dp3007
g89
g90
ssg71
g2997
sg64
(lp3008
S':'
asbag57
(g78
g59
NtRp3009
(dp3010
g62
(dp3011
sg71
g2997
sg64
(lp3012
g57
(g58
g59
NtRp3013
(dp3014
g62
(dp3015
g70
I4
ssg71
g3009
sg64
(lp3016
g57
(g66
g59
NtRp3017
(dp3018
g62
(dp3019
g70
I3
ssg71
Nsg64
(lp3020
g57
(g73
g59
NtRp3021
(dp3022
g62
(dp3023
sg71
g3017
sg64
(lp3024
g57
(g78
g59
NtRp3025
(dp3026
g62
(dp3027
sg71
g3021
sg64
(lp3028
g57
(g58
g59
NtRp3029
(dp3030
g62
(dp3031
g70
I3
ssg71
g3025
sg64
(lp3032
S'1'
asbasbasbag57
(g73
g59
NtRp3033
(dp3034
g62
(dp3035
sg71
g3017
sg64
(lp3036
g57
(g78
g59
NtRp3037
(dp3038
g62
(dp3039
sg71
g3033
sg64
(lp3040
g57
(g58
g59
NtRp3041
(dp3042
g62
(dp3043
g70
I3
ssg71
g3037
sg64
(lp3044
S'99'
p3045
asbasbasbag57
(g73
g59
NtRp3046
(dp3047
g62
(dp3048
sg71
g3017
sg64
(lp3049
g57
(g78
g59
NtRp3050
(dp3051
g62
(dp3052
sg71
g3046
sg64
(lp3053
g57
(g58
g59
NtRp3054
(dp3055
g62
(dp3056
g70
I3
ssg71
g3050
sg64
(lp3057
S'7'
asbasbasbag57
(g73
g59
NtRp3058
(dp3059
g62
(dp3060
sg71
g3017
sg64
(lp3061
g57
(g78
g59
NtRp3062
(dp3063
g62
(dp3064
sg71
g3058
sg64
(lp3065
g57
(g58
g59
NtRp3066
(dp3067
g62
(dp3068
g70
I3
ssg71
g3062
sg64
(lp3069
S'datetime.datetime(2012, 3, 4, 22, 12, 8)'
p3070
asbasbasbag57
(g73
g59
NtRp3071
(dp3072
g62
(dp3073
sg71
g3017
sg64
(lp3074
g57
(g78
g59
NtRp3075
(dp3076
g62
(dp3077
sg71
g3071
sg64
(lp3078
g57
(g58
g59
NtRp3079
(dp3080
g62
(dp3081
g70
I3
ssg71
g3075
sg64
(lp3082
g2472
asbasbasbasbasbasbasbasbasbasbasbag57
(g73
g59
NtRp3083
(dp3084
g62
(dp3085
sg71
g67
sg64
(lp3086
g57
(g78
g59
NtRp3087
(dp3088
g62
(dp3089
g82
g83
ssg71
g3083
sg64
(lp3090
S'is_https'
p3091
asbag57
(g78
g59
NtRp3092
(dp3093
g62
(dp3094
g89
g90
ssg71
g3083
sg64
(lp3095
S':'
asbag57
(g78
g59
NtRp3096
(dp3097
g62
(dp3098
sg71
g3083
sg64
(lp3099
g57
(g58
g59
NtRp3100
(dp3101
g62
(dp3102
g70
I5
ssg71
g3096
sg64
(lp3103
g100
asbasbasbag57
(g73
g59
NtRp3104
(dp3105
g62
(dp3106
sg71
g67
sg64
(lp3107
g57
(g78
g59
NtRp3108
(dp3109
g62
(dp3110
g82
g83
ssg71
g3104
sg64
(lp3111
S'is_local'
p3112
asbag57
(g78
g59
NtRp3113
(dp3114
g62
(dp3115
g89
g90
ssg71
g3104
sg64
(lp3116
S':'
asbag57
(g78
g59
NtRp3117
(dp3118
g62
(dp3119
sg71
g3104
sg64
(lp3120
g57
(g58
g59
NtRp3121
(dp3122
g62
(dp3123
g70
I5
ssg71
g3117
sg64
(lp3124
g2581
asbasbasbag57
(g73
g59
NtRp3125
(dp3126
g62
(dp3127
sg71
g67
sg64
(lp3128
g57
(g78
g59
NtRp3129
(dp3130
g62
(dp3131
g82
g83
ssg71
g3125
sg64
(lp3132
S'is_restful'
p3133
asbag57
(g78
g59
NtRp3134
(dp3135
g62
(dp3136
g89
g90
ssg71
g3125
sg64
(lp3137
S':'
asbag57
(g78
g59
NtRp3138
(dp3139
g62
(dp3140
sg71
g3125
sg64
(lp3141
g57
(g58
g59
NtRp3142
(dp3143
g62
(dp3144
g70
I5
ssg71
g3138
sg64
(lp3145
g100
asbasbasbag57
(g73
g59
NtRp3146
(dp3147
g62
(dp3148
sg71
g67
sg64
(lp3149
g57
(g78
g59
NtRp3150
(dp3151
g62
(dp3152
g82
g83
ssg71
g3146
sg64
(lp3153
S'now'
p3154
asbag57
(g78
g59
NtRp3155
(dp3156
g62
(dp3157
g89
g90
ssg71
g3146
sg64
(lp3158
S':'
asbag57
(g78
g59
NtRp3159
(dp3160
g62
(dp3161
sg71
g3146
sg64
(lp3162
g57
(g58
g59
NtRp3163
(dp3164
g62
(dp3165
g70
I5
ssg71
g3159
sg64
(lp3166
S'datetime.datetime(2012, 10, 15, 1, 49, 37, 958996)'
p3167
asbasbasbag57
(g73
g59
NtRp3168
(dp3169
g62
(dp3170
sg71
g67
sg64
(lp3171
g57
(g78
g59
NtRp3172
(dp3173
g62
(dp3174
g82
g83
ssg71
g3168
sg64
(lp3175
S'post_vars'
p3176
asbag57
(g78
g59
NtRp3177
(dp3178
g62
(dp3179
g89
g90
ssg71
g3168
sg64
(lp3180
S':'
asbag57
(g78
g59
NtRp3181
(dp3182
g62
(dp3183
sg71
g3168
sg64
(lp3184
g57
(g58
g59
NtRp3185
(dp3186
g62
(dp3187
g70
I5
ssg71
g3181
sg64
(lp3188
g57
(g66
g59
NtRp3189
(dp3190
g62
(dp3191
g70
I4
ssg71
Nsg64
(lp3192
sbasbasbasbag57
(g73
g59
NtRp3193
(dp3194
g62
(dp3195
sg71
g67
sg64
(lp3196
g57
(g78
g59
NtRp3197
(dp3198
g62
(dp3199
g82
g83
ssg71
g3193
sg64
(lp3200
S'url'
p3201
asbag57
(g78
g59
NtRp3202
(dp3203
g62
(dp3204
g89
g90
ssg71
g3193
sg64
(lp3205
S':'
asbag57
(g78
g59
NtRp3206
(dp3207
g62
(dp3208
sg71
g3193
sg64
(lp3209
g57
(g58
g59
NtRp3210
(dp3211
g62
(dp3212
g70
I5
ssg71
g3206
sg64
(lp3213
S'/ssad3/default/final_ans'
p3214
asbasbasbag57
(g73
g59
NtRp3215
(dp3216
g62
(dp3217
sg71
g67
sg64
(lp3218
g57
(g78
g59
NtRp3219
(dp3220
g62
(dp3221
g82
g83
ssg71
g3215
sg64
(lp3222
S'utcnow'
p3223
asbag57
(g78
g59
NtRp3224
(dp3225
g62
(dp3226
g89
g90
ssg71
g3215
sg64
(lp3227
S':'
asbag57
(g78
g59
NtRp3228
(dp3229
g62
(dp3230
sg71
g3215
sg64
(lp3231
g57
(g58
g59
NtRp3232
(dp3233
g62
(dp3234
g70
I5
ssg71
g3228
sg64
(lp3235
S'datetime.datetime(2012, 10, 14, 20, 19, 37, 959021)'
p3236
asbasbasbag57
(g73
g59
NtRp3237
(dp3238
g62
(dp3239
sg71
g67
sg64
(lp3240
g57
(g78
g59
NtRp3241
(dp3242
g62
(dp3243
g82
g83
ssg71
g3237
sg64
(lp3244
S'uuid'
p3245
asbag57
(g78
g59
NtRp3246
(dp3247
g62
(dp3248
g89
g90
ssg71
g3237
sg64
(lp3249
S':'
asbag57
(g78
g59
NtRp3250
(dp3251
g62
(dp3252
sg71
g3237
sg64
(lp3253
g57
(g58
g59
NtRp3254
(dp3255
g62
(dp3256
g70
I5
ssg71
g3250
sg64
(lp3257
S'ssad3/127.0.0.1.2012-10-15.01-49-37.2c9a0e28-8b32-4611-86c9-9916908e93d1'
p3258
asbasbasbag57
(g73
g59
NtRp3259
(dp3260
g62
(dp3261
sg71
g67
sg64
(lp3262
g57
(g78
g59
NtRp3263
(dp3264
g62
(dp3265
g82
g83
ssg71
g3259
sg64
(lp3266
S'vars'
p3267
asbag57
(g78
g59
NtRp3268
(dp3269
g62
(dp3270
g89
g90
ssg71
g3259
sg64
(lp3271
S':'
asbag57
(g78
g59
NtRp3272
(dp3273
g62
(dp3274
sg71
g3259
sg64
(lp3275
g57
(g58
g59
NtRp3276
(dp3277
g62
(dp3278
g70
I5
ssg71
g3272
sg64
(lp3279
g57
(g66
g59
NtRp3280
(dp3281
g62
(dp3282
g70
I4
ssg71
Nsg64
(lp3283
sbasbasbasbag57
(g73
g59
NtRp3284
(dp3285
g62
(dp3286
sg71
g67
sg64
(lp3287
g57
(g78
g59
NtRp3288
(dp3289
g62
(dp3290
g82
g83
ssg71
g3284
sg64
(lp3291
S'wsgi'
p3292
asbag57
(g78
g59
NtRp3293
(dp3294
g62
(dp3295
g89
g90
ssg71
g3284
sg64
(lp3296
S':'
asbag57
(g78
g59
NtRp3297
(dp3298
g62
(dp3299
sg71
g3284
sg64
(lp3300
g57
(g58
g59
NtRp3301
(dp3302
g62
(dp3303
g70
I5
ssg71
g3297
sg64
(lp3304
g57
(g66
g59
NtRp3305
(dp3306
g62
(dp3307
g70
I4
ssg71
Nsg64
(lp3308
g57
(g73
g59
NtRp3309
(dp3310
g62
(dp3311
sg71
g3305
sg64
(lp3312
g57
(g78
g59
NtRp3313
(dp3314
g62
(dp3315
g82
g83
ssg71
g3309
sg64
(lp3316
S'environ'
p3317
asbag57
(g78
g59
NtRp3318
(dp3319
g62
(dp3320
g89
g90
ssg71
g3309
sg64
(lp3321
S':'
asbag57
(g78
g59
NtRp3322
(dp3323
g62
(dp3324
sg71
g3309
sg64
(lp3325
g57
(g58
g59
NtRp3326
(dp3327
g62
(dp3328
g70
I4
ssg71
g3322
sg64
(lp3329
g57
(g66
g59
NtRp3330
(dp3331
g62
(dp3332
g70
I3
ssg71
Nsg64
(lp3333
g57
(g73
g59
NtRp3334
(dp3335
g62
(dp3336
sg71
g3330
sg64
(lp3337
g57
(g78
g59
NtRp3338
(dp3339
g62
(dp3340
g82
g83
ssg71
g3334
sg64
(lp3341
S'HTTP_ACCEPT'
p3342
asbag57
(g78
g59
NtRp3343
(dp3344
g62
(dp3345
g89
g90
ssg71
g3334
sg64
(lp3346
S':'
asbag57
(g78
g59
NtRp3347
(dp3348
g62
(dp3349
sg71
g3334
sg64
(lp3350
g57
(g58
g59
NtRp3351
(dp3352
g62
(dp3353
g70
I3
ssg71
g3347
sg64
(lp3354
g1928
asbasbasbag57
(g73
g59
NtRp3355
(dp3356
g62
(dp3357
sg71
g3330
sg64
(lp3358
g57
(g78
g59
NtRp3359
(dp3360
g62
(dp3361
g82
g83
ssg71
g3355
sg64
(lp3362
S'HTTP_ACCEPT_ENCODING'
p3363
asbag57
(g78
g59
NtRp3364
(dp3365
g62
(dp3366
g89
g90
ssg71
g3355
sg64
(lp3367
S':'
asbag57
(g78
g59
NtRp3368
(dp3369
g62
(dp3370
sg71
g3355
sg64
(lp3371
g57
(g58
g59
NtRp3372
(dp3373
g62
(dp3374
g70
I3
ssg71
g3368
sg64
(lp3375
g1950
asbasbasbag57
(g73
g59
NtRp3376
(dp3377
g62
(dp3378
sg71
g3330
sg64
(lp3379
g57
(g78
g59
NtRp3380
(dp3381
g62
(dp3382
g82
g83
ssg71
g3376
sg64
(lp3383
S'HTTP_ACCEPT_LANGUAGE'
p3384
asbag57
(g78
g59
NtRp3385
(dp3386
g62
(dp3387
g89
g90
ssg71
g3376
sg64
(lp3388
S':'
asbag57
(g78
g59
NtRp3389
(dp3390
g62
(dp3391
sg71
g3376
sg64
(lp3392
g57
(g58
g59
NtRp3393
(dp3394
g62
(dp3395
g70
I3
ssg71
g3389
sg64
(lp3396
g1972
asbasbasbag57
(g73
g59
NtRp3397
(dp3398
g62
(dp3399
sg71
g3330
sg64
(lp3400
g57
(g78
g59
NtRp3401
(dp3402
g62
(dp3403
g82
g83
ssg71
g3397
sg64
(lp3404
S'HTTP_CONNECTION'
p3405
asbag57
(g78
g59
NtRp3406
(dp3407
g62
(dp3408
g89
g90
ssg71
g3397
sg64
(lp3409
S':'
asbag57
(g78
g59
NtRp3410
(dp3411
g62
(dp3412
sg71
g3397
sg64
(lp3413
g57
(g58
g59
NtRp3414
(dp3415
g62
(dp3416
g70
I3
ssg71
g3410
sg64
(lp3417
g1994
asbasbasbag57
(g73
g59
NtRp3418
(dp3419
g62
(dp3420
sg71
g3330
sg64
(lp3421
g57
(g78
g59
NtRp3422
(dp3423
g62
(dp3424
g82
g83
ssg71
g3418
sg64
(lp3425
S'HTTP_COOKIE'
p3426
asbag57
(g78
g59
NtRp3427
(dp3428
g62
(dp3429
g89
g90
ssg71
g3418
sg64
(lp3430
S':'
asbag57
(g78
g59
NtRp3431
(dp3432
g62
(dp3433
sg71
g3418
sg64
(lp3434
g57
(g58
g59
NtRp3435
(dp3436
g62
(dp3437
g70
I3
ssg71
g3431
sg64
(lp3438
g2016
asbasbasbag57
(g73
g59
NtRp3439
(dp3440
g62
(dp3441
sg71
g3330
sg64
(lp3442
g57
(g78
g59
NtRp3443
(dp3444
g62
(dp3445
g82
g83
ssg71
g3439
sg64
(lp3446
S'HTTP_HOST'
p3447
asbag57
(g78
g59
NtRp3448
(dp3449
g62
(dp3450
g89
g90
ssg71
g3439
sg64
(lp3451
S':'
asbag57
(g78
g59
NtRp3452
(dp3453
g62
(dp3454
sg71
g3439
sg64
(lp3455
g57
(g58
g59
NtRp3456
(dp3457
g62
(dp3458
g70
I3
ssg71
g3452
sg64
(lp3459
g2038
asbasbasbag57
(g73
g59
NtRp3460
(dp3461
g62
(dp3462
sg71
g3330
sg64
(lp3463
g57
(g78
g59
NtRp3464
(dp3465
g62
(dp3466
g82
g83
ssg71
g3460
sg64
(lp3467
S'HTTP_REFERER'
p3468
asbag57
(g78
g59
NtRp3469
(dp3470
g62
(dp3471
g89
g90
ssg71
g3460
sg64
(lp3472
S':'
asbag57
(g78
g59
NtRp3473
(dp3474
g62
(dp3475
sg71
g3460
sg64
(lp3476
g57
(g58
g59
NtRp3477
(dp3478
g62
(dp3479
g70
I3
ssg71
g3473
sg64
(lp3480
g2060
asbasbasbag57
(g73
g59
NtRp3481
(dp3482
g62
(dp3483
sg71
g3330
sg64
(lp3484
g57
(g78
g59
NtRp3485
(dp3486
g62
(dp3487
g82
g83
ssg71
g3481
sg64
(lp3488
S'HTTP_USER_AGENT'
p3489
asbag57
(g78
g59
NtRp3490
(dp3491
g62
(dp3492
g89
g90
ssg71
g3481
sg64
(lp3493
S':'
asbag57
(g78
g59
NtRp3494
(dp3495
g62
(dp3496
sg71
g3481
sg64
(lp3497
g57
(g58
g59
NtRp3498
(dp3499
g62
(dp3500
g70
I3
ssg71
g3494
sg64
(lp3501
g2082
asbasbasbag57
(g73
g59
NtRp3502
(dp3503
g62
(dp3504
sg71
g3330
sg64
(lp3505
g57
(g78
g59
NtRp3506
(dp3507
g62
(dp3508
g82
g83
ssg71
g3502
sg64
(lp3509
S'PATH_INFO'
p3510
asbag57
(g78
g59
NtRp3511
(dp3512
g62
(dp3513
g89
g90
ssg71
g3502
sg64
(lp3514
S':'
asbag57
(g78
g59
NtRp3515
(dp3516
g62
(dp3517
sg71
g3502
sg64
(lp3518
g57
(g58
g59
NtRp3519
(dp3520
g62
(dp3521
g70
I3
ssg71
g3515
sg64
(lp3522
g2146
asbasbasbag57
(g73
g59
NtRp3523
(dp3524
g62
(dp3525
sg71
g3330
sg64
(lp3526
g57
(g78
g59
NtRp3527
(dp3528
g62
(dp3529
g82
g83
ssg71
g3523
sg64
(lp3530
S'QUERY_STRING'
p3531
asbag57
(g78
g59
NtRp3532
(dp3533
g62
(dp3534
g89
g90
ssg71
g3523
sg64
(lp3535
S':'
asbag57
(g78
g59
NtRp3536
(dp3537
g62
(dp3538
sg71
g3523
sg64
(lp3539
g57
(g58
g59
NtRp3540
(dp3541
g62
(dp3542
g70
I3
ssg71
g3536
sg64
(lp3543
S''
asbasbasbag57
(g73
g59
NtRp3544
(dp3545
g62
(dp3546
sg71
g3330
sg64
(lp3547
g57
(g78
g59
NtRp3548
(dp3549
g62
(dp3550
g82
g83
ssg71
g3544
sg64
(lp3551
S'REMOTE_ADDR'
p3552
asbag57
(g78
g59
NtRp3553
(dp3554
g62
(dp3555
g89
g90
ssg71
g3544
sg64
(lp3556
S':'
asbag57
(g78
g59
NtRp3557
(dp3558
g62
(dp3559
sg71
g3544
sg64
(lp3560
g57
(g58
g59
NtRp3561
(dp3562
g62
(dp3563
g70
I3
ssg71
g3557
sg64
(lp3564
g190
asbasbasbag57
(g73
g59
NtRp3565
(dp3566
g62
(dp3567
sg71
g3330
sg64
(lp3568
g57
(g78
g59
NtRp3569
(dp3570
g62
(dp3571
g82
g83
ssg71
g3565
sg64
(lp3572
S'REMOTE_PORT'
p3573
asbag57
(g78
g59
NtRp3574
(dp3575
g62
(dp3576
g89
g90
ssg71
g3565
sg64
(lp3577
S':'
asbag57
(g78
g59
NtRp3578
(dp3579
g62
(dp3580
sg71
g3565
sg64
(lp3581
g57
(g58
g59
NtRp3582
(dp3583
g62
(dp3584
g70
I3
ssg71
g3578
sg64
(lp3585
g2210
asbasbasbag57
(g73
g59
NtRp3586
(dp3587
g62
(dp3588
sg71
g3330
sg64
(lp3589
g57
(g78
g59
NtRp3590
(dp3591
g62
(dp3592
g82
g83
ssg71
g3586
sg64
(lp3593
S'REQUEST_METHOD'
p3594
asbag57
(g78
g59
NtRp3595
(dp3596
g62
(dp3597
g89
g90
ssg71
g3586
sg64
(lp3598
S':'
asbag57
(g78
g59
NtRp3599
(dp3600
g62
(dp3601
sg71
g3586
sg64
(lp3602
g57
(g58
g59
NtRp3603
(dp3604
g62
(dp3605
g70
I3
ssg71
g3599
sg64
(lp3606
g2232
asbasbasbag57
(g73
g59
NtRp3607
(dp3608
g62
(dp3609
sg71
g3330
sg64
(lp3610
g57
(g78
g59
NtRp3611
(dp3612
g62
(dp3613
g82
g83
ssg71
g3607
sg64
(lp3614
S'SCRIPT_NAME'
p3615
asbag57
(g78
g59
NtRp3616
(dp3617
g62
(dp3618
g89
g90
ssg71
g3607
sg64
(lp3619
S':'
asbag57
(g78
g59
NtRp3620
(dp3621
g62
(dp3622
sg71
g3607
sg64
(lp3623
g57
(g58
g59
NtRp3624
(dp3625
g62
(dp3626
g70
I3
ssg71
g3620
sg64
(lp3627
S''
asbasbasbag57
(g73
g59
NtRp3628
(dp3629
g62
(dp3630
sg71
g3330
sg64
(lp3631
g57
(g78
g59
NtRp3632
(dp3633
g62
(dp3634
g82
g83
ssg71
g3628
sg64
(lp3635
S'SERVER_NAME'
p3636
asbag57
(g78
g59
NtRp3637
(dp3638
g62
(dp3639
g89
g90
ssg71
g3628
sg64
(lp3640
S':'
asbag57
(g78
g59
NtRp3641
(dp3642
g62
(dp3643
sg71
g3628
sg64
(lp3644
g57
(g58
g59
NtRp3645
(dp3646
g62
(dp3647
g70
I3
ssg71
g3641
sg64
(lp3648
g2275
asbasbasbag57
(g73
g59
NtRp3649
(dp3650
g62
(dp3651
sg71
g3330
sg64
(lp3652
g57
(g78
g59
NtRp3653
(dp3654
g62
(dp3655
g82
g83
ssg71
g3649
sg64
(lp3656
S'SERVER_PORT'
p3657
asbag57
(g78
g59
NtRp3658
(dp3659
g62
(dp3660
g89
g90
ssg71
g3649
sg64
(lp3661
S':'
asbag57
(g78
g59
NtRp3662
(dp3663
g62
(dp3664
sg71
g3649
sg64
(lp3665
g57
(g58
g59
NtRp3666
(dp3667
g62
(dp3668
g70
I3
ssg71
g3662
sg64
(lp3669
g2297
asbasbasbag57
(g73
g59
NtRp3670
(dp3671
g62
(dp3672
sg71
g3330
sg64
(lp3673
g57
(g78
g59
NtRp3674
(dp3675
g62
(dp3676
g82
g83
ssg71
g3670
sg64
(lp3677
S'SERVER_PROTOCOL'
p3678
asbag57
(g78
g59
NtRp3679
(dp3680
g62
(dp3681
g89
g90
ssg71
g3670
sg64
(lp3682
S':'
asbag57
(g78
g59
NtRp3683
(dp3684
g62
(dp3685
sg71
g3670
sg64
(lp3686
g57
(g58
g59
NtRp3687
(dp3688
g62
(dp3689
g70
I3
ssg71
g3683
sg64
(lp3690
g2319
asbasbasbag57
(g73
g59
NtRp3691
(dp3692
g62
(dp3693
sg71
g3330
sg64
(lp3694
g57
(g78
g59
NtRp3695
(dp3696
g62
(dp3697
g82
g83
ssg71
g3691
sg64
(lp3698
S'SERVER_SOFTWARE'
p3699
asbag57
(g78
g59
NtRp3700
(dp3701
g62
(dp3702
g89
g90
ssg71
g3691
sg64
(lp3703
S':'
asbag57
(g78
g59
NtRp3704
(dp3705
g62
(dp3706
sg71
g3691
sg64
(lp3707
g57
(g58
g59
NtRp3708
(dp3709
g62
(dp3710
g70
I3
ssg71
g3704
sg64
(lp3711
g2341
asbasbasbag57
(g73
g59
NtRp3712
(dp3713
g62
(dp3714
sg71
g3330
sg64
(lp3715
g57
(g78
g59
NtRp3716
(dp3717
g62
(dp3718
g82
g83
ssg71
g3712
sg64
(lp3719
S'wsgi.errors'
p3720
asbag57
(g78
g59
NtRp3721
(dp3722
g62
(dp3723
g89
g90
ssg71
g3712
sg64
(lp3724
S':'
asbag57
(g78
g59
NtRp3725
(dp3726
g62
(dp3727
sg71
g3712
sg64
(lp3728
g57
(g58
g59
NtRp3729
(dp3730
g62
(dp3731
g70
I3
ssg71
g3725
sg64
(lp3732
S"<open file '<stderr>', mode 'w' at 0x7fb55ffab270>"
p3733
asbasbasbag57
(g73
g59
NtRp3734
(dp3735
g62
(dp3736
sg71
g3330
sg64
(lp3737
g57
(g78
g59
NtRp3738
(dp3739
g62
(dp3740
g82
g83
ssg71
g3734
sg64
(lp3741
S'wsgi.file_wrapper'
p3742
asbag57
(g78
g59
NtRp3743
(dp3744
g62
(dp3745
g89
g90
ssg71
g3734
sg64
(lp3746
S':'
asbag57
(g78
g59
NtRp3747
(dp3748
g62
(dp3749
sg71
g3734
sg64
(lp3750
g57
(g58
g59
NtRp3751
(dp3752
g62
(dp3753
g70
I3
ssg71
g3747
sg64
(lp3754
S'<class wsgiref.util.FileWrapper at 0x226e120>'
p3755
asbasbasbag57
(g73
g59
NtRp3756
(dp3757
g62
(dp3758
sg71
g3330
sg64
(lp3759
g57
(g78
g59
NtRp3760
(dp3761
g62
(dp3762
g82
g83
ssg71
g3756
sg64
(lp3763
S'wsgi.input'
p3764
asbag57
(g78
g59
NtRp3765
(dp3766
g62
(dp3767
g89
g90
ssg71
g3756
sg64
(lp3768
S':'
asbag57
(g78
g59
NtRp3769
(dp3770
g62
(dp3771
sg71
g3756
sg64
(lp3772
g57
(g58
g59
NtRp3773
(dp3774
g62
(dp3775
g70
I3
ssg71
g3769
sg64
(lp3776
S'<cStringIO.StringO object at 0x7fb5302a3ae8>'
p3777
asbasbasbag57
(g73
g59
NtRp3778
(dp3779
g62
(dp3780
sg71
g3330
sg64
(lp3781
g57
(g78
g59
NtRp3782
(dp3783
g62
(dp3784
g82
g83
ssg71
g3778
sg64
(lp3785
S'wsgi.multiprocess'
p3786
asbag57
(g78
g59
NtRp3787
(dp3788
g62
(dp3789
g89
g90
ssg71
g3778
sg64
(lp3790
S':'
asbag57
(g78
g59
NtRp3791
(dp3792
g62
(dp3793
sg71
g3778
sg64
(lp3794
g57
(g58
g59
NtRp3795
(dp3796
g62
(dp3797
g70
I3
ssg71
g3791
sg64
(lp3798
g100
asbasbasbag57
(g73
g59
NtRp3799
(dp3800
g62
(dp3801
sg71
g3330
sg64
(lp3802
g57
(g78
g59
NtRp3803
(dp3804
g62
(dp3805
g82
g83
ssg71
g3799
sg64
(lp3806
S'wsgi.multithread'
p3807
asbag57
(g78
g59
NtRp3808
(dp3809
g62
(dp3810
g89
g90
ssg71
g3799
sg64
(lp3811
S':'
asbag57
(g78
g59
NtRp3812
(dp3813
g62
(dp3814
sg71
g3799
sg64
(lp3815
g57
(g58
g59
NtRp3816
(dp3817
g62
(dp3818
g70
I3
ssg71
g3812
sg64
(lp3819
g2581
asbasbasbag57
(g73
g59
NtRp3820
(dp3821
g62
(dp3822
sg71
g3330
sg64
(lp3823
g57
(g78
g59
NtRp3824
(dp3825
g62
(dp3826
g82
g83
ssg71
g3820
sg64
(lp3827
S'wsgi.run_once'
p3828
asbag57
(g78
g59
NtRp3829
(dp3830
g62
(dp3831
g89
g90
ssg71
g3820
sg64
(lp3832
S':'
asbag57
(g78
g59
NtRp3833
(dp3834
g62
(dp3835
sg71
g3820
sg64
(lp3836
g57
(g58
g59
NtRp3837
(dp3838
g62
(dp3839
g70
I3
ssg71
g3833
sg64
(lp3840
g100
asbasbasbag57
(g73
g59
NtRp3841
(dp3842
g62
(dp3843
sg71
g3330
sg64
(lp3844
g57
(g78
g59
NtRp3845
(dp3846
g62
(dp3847
g82
g83
ssg71
g3841
sg64
(lp3848
S'wsgi.url_scheme'
p3849
asbag57
(g78
g59
NtRp3850
(dp3851
g62
(dp3852
g89
g90
ssg71
g3841
sg64
(lp3853
S':'
asbag57
(g78
g59
NtRp3854
(dp3855
g62
(dp3856
sg71
g3841
sg64
(lp3857
g57
(g58
g59
NtRp3858
(dp3859
g62
(dp3860
g70
I3
ssg71
g3854
sg64
(lp3861
g2624
asbasbasbag57
(g73
g59
NtRp3862
(dp3863
g62
(dp3864
sg71
g3330
sg64
(lp3865
g57
(g78
g59
NtRp3866
(dp3867
g62
(dp3868
g82
g83
ssg71
g3862
sg64
(lp3869
S'wsgi.version'
p3870
asbag57
(g78
g59
NtRp3871
(dp3872
g62
(dp3873
g89
g90
ssg71
g3862
sg64
(lp3874
S':'
asbag57
(g78
g59
NtRp3875
(dp3876
g62
(dp3877
sg71
g3862
sg64
(lp3878
g57
(g58
g59
NtRp3879
(dp3880
g62
(dp3881
g70
I3
ssg71
g3875
sg64
(lp3882
S'1'
asbasbasbasbasbasbasbasbasbasbasbasbasbsS'frames'
p3883
(lp3884
(dp3885
S'file'
p3886
S'/home/chitra/courses/SSAD/web2py/gluon/restricted.py'
p3887
sS'dump'
p3888
(dp3889
S'environment'
p3890
S"{'A': <class 'gluon.html.A'>, 'Auth': <class 'gluon.tools.Auth'>, 'B': <class 'gluon.html.B'>, 'BEAUTIFY': <class 'gluon.html.BEAUTIFY'>, 'BODY': <class 'gluon.html.BODY'>, 'BR': <class 'gluon.html.BR'>, 'BUTTON': <class 'gluon.html.BUTTON'>, 'CAT': <class 'gluon.html.CAT'>, 'CENTER': <class 'gluon.html.CENTER'>, 'CLEANUP': <class 'gluon.validators.CLEANUP'>, ...}"
p3891
sS'ccode'
p3892
S'<code object <module> at 0x7fb5443e5cb0, file "/...plications/ssad3/controllers/default.py", line 3>'
p3893
ssS'lnum'
p3894
I205
sS'lines'
p3895
(dp3896
I200
S'    try:'
p3897
sI201
S'        if type(code) == types.CodeType:'
p3898
sI202
S'            ccode = code'
p3899
sI203
S'        else:'
p3900
sI204
S'            ccode = compile2(code,layer)'
p3901
sI205
S'        exec ccode in environment'
p3902
sI206
S'    except HTTP:'
p3903
sI207
S'        raise'
p3904
sI208
S'    except RestrictedError:'
p3905
sI209
S'        # do not encapsulate (obfuscate) the original RestrictedError'
p3906
ssS'call'
p3907
S"(code='# -*- coding: utf-8 -*-\\n### required - do no del...rn d\\n\\nresponse._vars=response._caller(final_ans)\\n', environment={'A': <class 'gluon.html.A'>, 'Auth': <class 'gluon.tools.Auth'>, 'B': <class 'gluon.html.B'>, 'BEAUTIFY': <class 'gluon.html.BEAUTIFY'>, 'BODY': <class 'gluon.html.BODY'>, 'BR': <class 'gluon.html.BR'>, 'BUTTON': <class 'gluon.html.BUTTON'>, 'CAT': <class 'gluon.html.CAT'>, 'CENTER': <class 'gluon.html.CENTER'>, 'CLEANUP': <class 'gluon.validators.CLEANUP'>, ...}, layer='/home/chitra/courses/SSAD/web2py/applications/ssad3/controllers/default.py')"
p3908
sS'func'
p3909
S'restricted'
p3910
sa(dp3911
g3886
S'/home/chitra/courses/SSAD/web2py/applications/ssad3/controllers/default.py'
p3912
sg3888
(dp3913
sg3894
I142
sg3895
(dp3914
I131
S'        cited_by=inp.cited_by'
p3915
sI132
S'        year=inp.year'
p3916
sI133
S'    return [key,level,top,auth,cited_by,year]'
p3917
sI134
S'def bold(d):'
p3918
sI135
S'    pre=""'
p3919
sI136
S'    while pre!=d:'
p3920
sI137
S'        pre=d'
p3921
sI138
S'        d=d.replace("<b>","");'
p3922
sI139
S'        d=d.replace("</b>","");'
p3923
sI140
S'    return d'
p3924
ssg3907
S'()'
p3925
sg3909
S'<module>'
p3926
sa(dp3927
g3886
S'/home/chitra/courses/SSAD/web2py/gluon/globals.py'
p3928
sg3888
(dp3929
S'self'
p3930
S'undefined'
p3931
sS'f'
S'<function final_ans>'
p3932
ssg3894
I173
sg3895
(dp3933
I168
S'        self.menu = []             # used by the default view layout'
p3934
sI169
S'        self.files = []            # used by web2py_ajax.html'
p3935
sI170
S'        self.generic_patterns = [] # patterns to allow generic views'
p3936
sI171
S"        self.delimiters = ('{{','}}')"
p3937
sI172
S'        self._vars = None'
p3938
sI173
S'        self._caller = lambda f: f()'
p3939
sI174
S'        self._view_environment = None'
p3940
sI175
S'        self._custom_commit = None'
p3941
sI176
S'        self._custom_rollback = None'
p3942
sI177
S''
ssg3907
S'(f=<function final_ans>)'
p3943
sg3909
S'<lambda>'
p3944
sa(dp3945
g3886
S'/home/chitra/courses/SSAD/web2py/applications/ssad3/controllers/default.py'
p3946
sg3888
(dp3947
S'global extract1'
p3948
S'<function extract1>'
p3949
sS'url'
p3950
S"'http://dl.acm.org/results.cfm?h=1&query=Database...with+common+sense+business+reasoning+and+learning'"
p3951
sS'l1'
p3952
S"['Database design with common sense business reasoning and learning', 3, 4, False, False, True]"
p3953
sS'fst_l'
p3954
g3931
ssg3894
I48
sg3895
(dp3955
I43
S''
sI44
S''
sI45
S'def final_ans():'
p3956
sI46
S'    l1=u_filter()'
p3957
sI47
S'    url="http://dl.acm.org/results.cfm?h=1&query="+\'+\'.join(l1[0].split())'
p3958
sI48
S'    fst_l=extract1(url,l1)'
p3959
sI49
S'    #for l in fst_l:'
p3960
sI50
S'     #   listf.append(cite(l))'
p3961
sI51
S'    rec(fst_l,l1,bigans)'
p3962
sI52
S'    global listf'
p3963
ssg3907
S'()'
p3964
sg3909
S'final_ans'
p3965
sa(dp3966
g3886
S'/home/chitra/courses/SSAD/web2py/applications/ssad3/controllers/default.py'
p3967
sg3888
(dp3968
S'html_splitted'
p3969
S'[\'?id=278245.278246&coll=DL&dl=ACM&CFID=174493008&...="89%">\\r\\n\\t\\t\\t\\t<tr>\\r\\n\\t\\t\\t\\t\\t<td colspan="3"> \\r\\n\\t\\t\\t\\t\\t\\t\', \'?id=857076.857079&coll=DL&dl=ACM&CFID=174493008&...="89%">\\r\\n\\t\\t\\t\\t<tr>\\r\\n\\t\\t\\t\\t\\t<td colspan="3"> \\r\\n\\t\\t\\t\\t\\t\\t\', \'?id=1028099.1028103&coll=DL&dl=ACM&CFID=17449300...="89%">\\r\\n\\t\\t\\t\\t<tr>\\r\\n\\t\\t\\t\\t\\t<td colspan="3"> \\r\\n\\t\\t\\t\\t\\t\\t\', \'?id=331983.331984&coll=DL&dl=ACM&CFID=174493008&...="89%">\\r\\n\\t\\t\\t\\t<tr>\\r\\n\\t\\t\\t\\t\\t<td colspan="3"> \\r\\n\\t\\t\\t\\t\\t\\t\', \'?id=2063176&coll=DL&dl=ACM&CFID=174493008&CFTOKE...="89%">\\r\\n\\t\\t\\t\\t<tr>\\r\\n\\t\\t\\t\\t\\t<td colspan="3"> \\r\\n\\t\\t\\t\\t\\t\\t\', \'?id=1962438&coll=DL&dl=ACM&CFID=174493008&CFTOKE...="89%">\\r\\n\\t\\t\\t\\t<tr>\\r\\n\\t\\t\\t\\t\\t<td colspan="3"> \\r\\n\\t\\t\\t\\t\\t\\t\', \'?id=1516533.1516538&coll=DL&dl=ACM&CFID=17449300...="89%">\\r\\n\\t\\t\\t\\t<tr>\\r\\n\\t\\t\\t\\t\\t<td colspan="3"> \\r\\n\\t\\t\\t\\t\\t\\t\', \'?id=1456650.1456651&coll=DL&dl=ACM&CFID=17449300...="89%">\\r\\n\\t\\t\\t\\t<tr>\\r\\n\\t\\t\\t\\t\\t<td colspan="3"> \\r\\n\\t\\t\\t\\t\\t\\t\', \'?id=242223.242268&coll=DL&dl=ACM&CFID=174493008&...="89%">\\r\\n\\t\\t\\t\\t<tr>\\r\\n\\t\\t\\t\\t\\t<td colspan="3"> \\r\\n\\t\\t\\t\\t\\t\\t\', \'?id=1189215.1189180&coll=DL&dl=ACM&CFID=17449300...="89%">\\r\\n\\t\\t\\t\\t<tr>\\r\\n\\t\\t\\t\\t\\t<td colspan="3"> \\r\\n\\t\\t\\t\\t\\t\\t\', \'?id=1721831.1721836&coll=DL&dl=ACM&CFID=17449300...="89%">\\r\\n\\t\\t\\t\\t<tr>\\r\\n\\t\\t\\t\\t\\t<td colspan="3"> \\r\\n\\t\\t\\t\\t\\t\\t\', \'?id=1113308.1113313&coll=DL&dl=ACM&CFID=17449300...="89%">\\r\\n\\t\\t\\t\\t<tr>\\r\\n\\t\\t\\t\\t\\t<td colspan="3"> \\r\\n\\t\\t\\t\\t\\t\\t\', \'?id=2019136.2019142&coll=DL&dl=ACM&CFID=17449300...="89%">\\r\\n\\t\\t\\t\\t<tr>\\r\\n\\t\\t\\t\\t\\t<td colspan="3"> \\r\\n\\t\\t\\t\\t\\t\\t\', \'?id=1234388.1234394&coll=DL&dl=ACM&CFID=17449300...="89%">\\r\\n\\t\\t\\t\\t<tr>\\r\\n\\t\\t\\t\\t\\t<td colspan="3"> \\r\\n\\t\\t\\t\\t\\t\\t\', \'?id=219717.219745&coll=DL&dl=ACM&CFID=174493008&...="89%">\\r\\n\\t\\t\\t\\t<tr>\\r\\n\\t\\t\\t\\t\\t<td colspan="3"> \\r\\n\\t\\t\\t\\t\\t\\t\', \'?id=1463434.1463512&coll=DL&dl=ACM&CFID=17449300...="89%">\\r\\n\\t\\t\\t\\t<tr>\\r\\n\\t\\t\\t\\t\\t<td colspan="3"> \\r\\n\\t\\t\\t\\t\\t\\t\', \'?id=1592761&coll=DL&dl=ACM&CFID=174493008&CFTOKE...="89%">\\r\\n\\t\\t\\t\\t<tr>\\r\\n\\t\\t\\t\\t\\t<td colspan="3"> \\r\\n\\t\\t\\t\\t\\t\\t\', \'?id=1516016&coll=DL&dl=ACM&CFID=174493008&CFTOKE...="89%">\\r\\n\\t\\t\\t\\t<tr>\\r\\n\\t\\t\\t\\t\\t<td colspan="3"> \\r\\n\\t\\t\\t\\t\\t\\t\', \'?id=1978802.1978815&coll=DL&dl=ACM&CFID=17449300...="89%">\\r\\n\\t\\t\\t\\t<tr>\\r\\n\\t\\t\\t\\t\\t<td colspan="3"> \\r\\n\\t\\t\\t\\t\\t\\t\', \'?id=1646353&coll=DL&dl=ACM&CFID=174493008&CFTOKE.../td>\\r\\n</tr>\\r\\n</table>\\r\\n</div>\\r\\n</body>\\r\\n</html>\\r\\n\']'
p3970
sS'i'
g3931
sS's'
g3931
sS'k'
S'[\'?id=278245.278246&coll=DL&dl=ACM&CFID=174493008&CFTOKEN=82271117" class="medium-text" target="_self"\', \'Database design with common sense business reasoning and learning</A\', \'\\r\\n\\t\\t\\t\\t\\t\\t\\t\\r\\n\\t\\t \\t\\t\\t\\t\\t<div class="authors"\', \'\\r\\n\\t\\t\\t\\t\\t\\t\\t\\r\\n\\t\\t\\t\\t\\t\\t\\t\\t\\r\\n\\t\\t\\t\\t\\t\\t\\t\\t\\t\\t\\t\\t<a href="author...1&coll=DL&dl=ACM&CFID=174493008&CFTOKEN=82271117"\', \'Veda C. Storey</a\', \', \\r\\n\\t\\t\\t\\t\\t\\t\\t\\t\\t\\t\\t\\t<a href="author_page.cfm?id=8110...4&coll=DL&dl=ACM&CFID=174493008&CFTOKEN=82271117"\', \'Roger H. L. Chiang</a\', \', \\r\\n\\t\\t\\t\\t\\t\\t\\t\\t\\t\\t\\t\\t<a href="author_page.cfm?id=8110...0&coll=DL&dl=ACM&CFID=174493008&CFTOKEN=82271117"\', \'Debabrata Dey</a\', \', \\r\\n\\t\\t\\t\\t\\t\\t\\t\\t\\t\\t\\t\\t<a href="author_page.cfm?id=8110...8&coll=DL&dl=ACM&CFID=174493008&CFTOKEN=82271117"\', \'Robert C. Goldstein</a\', \', \\r\\n\\t\\t\\t\\t\\t\\t\\t\\t\\t\\t\\t\\t<a href="author_page.cfm?id=8133...3&coll=DL&dl=ACM&CFID=174493008&CFTOKEN=82271117"\', \'Shankar Sudaresan</a\', \' \\r\\n\\t\\t \\t\\t\\t\\t\\t</div\', \'\\r\\n\\t\\t\\t\\t\\t</td\', \'\\r\\n\\t\\t\\t\\t</tr\', \'\\r\\n\\t\\t\\t\\t\\r\\n\\t\\t\\t\\t\\r\\n\\t\\t\\t\\t\\r\\n\\t\\t\\t\\t<tr valign="top"\', \'\\r\\n\\t\\t\\t\\t\\t<td class="small-text" nowrap\', \'\\r\\n\\t\\t\\t\\t\\t   \\r\\n\\t\\t\\t\\t\\t\\tDecember 1997 \\r\\n\\t\\t\\t\\t\\t</td\', \'\\r\\n\\t\\t\\t\\t\\t<td\', ...]'
p3971
ssg3894
I35
sg3895
(dp3972
I32
S'    del html_splitted[0]'
p3973
sI33
S"    k=html_splitted[0].split('>')"
p3974
sI34
S'    if k[1][:-3]==l1[0]:'
p3975
sI35
S'        s="http://dl.acm.org/citation.cfm"+html_splitted[i][:k]'
p3976
sI36
S"        ret.append(s.split('&preflayout')[0]+'&preflayout=flat')"
p3977
sI37
S'    else:'
p3978
sI38
S'        for i in range(0,l1[2]):'
p3979
sI39
S'            k=html_splitted[i].find(\'\\"\')'
p3980
sI30
S'    html=fetch(url)'
p3981
sI31
S'    html_splitted=html.split("<A HREF=\\"citation.cfm")'
p3982
ssg3907
S"(url='http://dl.acm.org/results.cfm?h=1&query=Database...with+common+sense+business+reasoning+and+learning', l1=['Database design with common sense business reasoning and learning', 3, 4, False, False, True])"
p3983
sg3909
S'extract1'
p3984
sasS'pyver'
p3985
S'Python 2.7.3: /usr/bin/python'
p3986
sS'session'
p3987
g57
(g58
g59
NtRp3988
(dp3989
g62
(dp3990
sg64
(lp3991
g57
(g66
g59
NtRp3992
(dp3993
g62
(dp3994
g70
I5
ssg71
Nsg64
(lp3995
sbasbsS'etype'
p3996
S"<type 'exceptions.UnboundLocalError'>"
p3997
sS'date'
p3998
S'Mon Oct 15 01:49:41 2012'
p3999
sS'response'
p4000
g57
(g58
g59
NtRp4001
(dp4002
g62
(dp4003
sg64
(lp4004
g57
(g66
g59
NtRp4005
(dp4006
g62
(dp4007
g70
I5
ssg71
Nsg64
(lp4008
g57
(g73
g59
NtRp4009
(dp4010
g62
(dp4011
sg71
g4005
sg64
(lp4012
g57
(g78
g59
NtRp4013
(dp4014
g62
(dp4015
g82
g83
ssg71
g4009
sg64
(lp4016
g155
asbag57
(g78
g59
NtRp4017
(dp4018
g62
(dp4019
g89
g90
ssg71
g4009
sg64
(lp4020
S':'
asbag57
(g78
g59
NtRp4021
(dp4022
g62
(dp4023
sg71
g4009
sg64
(lp4024
g57
(g58
g59
NtRp4025
(dp4026
g62
(dp4027
g70
I5
ssg71
g4021
sg64
(lp4028
S'<cStringIO.StringO object at 0x7fb5302a37d8>'
p4029
asbasbasbag57
(g73
g59
NtRp4030
(dp4031
g62
(dp4032
sg71
g4005
sg64
(lp4033
g57
(g78
g59
NtRp4034
(dp4035
g62
(dp4036
g82
g83
ssg71
g4030
sg64
(lp4037
g221
asbag57
(g78
g59
NtRp4038
(dp4039
g62
(dp4040
g89
g90
ssg71
g4030
sg64
(lp4041
S':'
asbag57
(g78
g59
NtRp4042
(dp4043
g62
(dp4044
sg71
g4030
sg64
(lp4045
g57
(g58
g59
NtRp4046
(dp4047
g62
(dp4048
g70
I5
ssg71
g4042
sg64
(lp4049
g57
(g66
g59
NtRp4050
(dp4051
g62
(dp4052
g70
I4
ssg71
Nsg64
(lp4053
g57
(g73
g59
NtRp4054
(dp4055
g62
(dp4056
sg71
g4050
sg64
(lp4057
g57
(g78
g59
NtRp4058
(dp4059
g62
(dp4060
g82
g83
ssg71
g4054
sg64
(lp4061
S'session_id_ssad3'
p4062
asbag57
(g78
g59
NtRp4063
(dp4064
g62
(dp4065
g89
g90
ssg71
g4054
sg64
(lp4066
S':'
asbag57
(g78
g59
NtRp4067
(dp4068
g62
(dp4069
sg71
g4054
sg64
(lp4070
g57
(g58
g59
NtRp4071
(dp4072
g62
(dp4073
g70
I4
ssg71
g4067
sg64
(lp4074
g57
(g66
g59
NtRp4075
(dp4076
g62
(dp4077
g70
I3
ssg71
Nsg64
(lp4078
g57
(g73
g59
NtRp4079
(dp4080
g62
(dp4081
sg71
g4075
sg64
(lp4082
g57
(g78
g59
NtRp4083
(dp4084
g62
(dp4085
g82
g83
ssg71
g4079
sg64
(lp4086
g271
asbag57
(g78
g59
NtRp4087
(dp4088
g62
(dp4089
g89
g90
ssg71
g4079
sg64
(lp4090
S':'
asbag57
(g78
g59
NtRp4091
(dp4092
g62
(dp4093
sg71
g4079
sg64
(lp4094
g57
(g58
g59
NtRp4095
(dp4096
g62
(dp4097
g70
I3
ssg71
g4091
sg64
(lp4098
S''
asbasbasbag57
(g73
g59
NtRp4099
(dp4100
g62
(dp4101
sg71
g4075
sg64
(lp4102
g57
(g78
g59
NtRp4103
(dp4104
g62
(dp4105
g82
g83
ssg71
g4099
sg64
(lp4106
g292
asbag57
(g78
g59
NtRp4107
(dp4108
g62
(dp4109
g89
g90
ssg71
g4099
sg64
(lp4110
S':'
asbag57
(g78
g59
NtRp4111
(dp4112
g62
(dp4113
sg71
g4099
sg64
(lp4114
g57
(g58
g59
NtRp4115
(dp4116
g62
(dp4117
g70
I3
ssg71
g4111
sg64
(lp4118
S''
asbasbasbag57
(g73
g59
NtRp4119
(dp4120
g62
(dp4121
sg71
g4075
sg64
(lp4122
g57
(g78
g59
NtRp4123
(dp4124
g62
(dp4125
g82
g83
ssg71
g4119
sg64
(lp4126
g313
asbag57
(g78
g59
NtRp4127
(dp4128
g62
(dp4129
g89
g90
ssg71
g4119
sg64
(lp4130
S':'
asbag57
(g78
g59
NtRp4131
(dp4132
g62
(dp4133
sg71
g4119
sg64
(lp4134
g57
(g58
g59
NtRp4135
(dp4136
g62
(dp4137
g70
I3
ssg71
g4131
sg64
(lp4138
S''
asbasbasbag57
(g73
g59
NtRp4139
(dp4140
g62
(dp4141
sg71
g4075
sg64
(lp4142
g57
(g78
g59
NtRp4143
(dp4144
g62
(dp4145
g82
g83
ssg71
g4139
sg64
(lp4146
g334
asbag57
(g78
g59
NtRp4147
(dp4148
g62
(dp4149
g89
g90
ssg71
g4139
sg64
(lp4150
S':'
asbag57
(g78
g59
NtRp4151
(dp4152
g62
(dp4153
sg71
g4139
sg64
(lp4154
g57
(g58
g59
NtRp4155
(dp4156
g62
(dp4157
g70
I3
ssg71
g4151
sg64
(lp4158
S''
asbasbasbag57
(g73
g59
NtRp4159
(dp4160
g62
(dp4161
sg71
g4075
sg64
(lp4162
g57
(g78
g59
NtRp4163
(dp4164
g62
(dp4165
g82
g83
ssg71
g4159
sg64
(lp4166
g355
asbag57
(g78
g59
NtRp4167
(dp4168
g62
(dp4169
g89
g90
ssg71
g4159
sg64
(lp4170
S':'
asbag57
(g78
g59
NtRp4171
(dp4172
g62
(dp4173
sg71
g4159
sg64
(lp4174
g57
(g58
g59
NtRp4175
(dp4176
g62
(dp4177
g70
I3
ssg71
g4171
sg64
(lp4178
S''
asbasbasbag57
(g73
g59
NtRp4179
(dp4180
g62
(dp4181
sg71
g4075
sg64
(lp4182
g57
(g78
g59
NtRp4183
(dp4184
g62
(dp4185
g82
g83
ssg71
g4179
sg64
(lp4186
g376
asbag57
(g78
g59
NtRp4187
(dp4188
g62
(dp4189
g89
g90
ssg71
g4179
sg64
(lp4190
S':'
asbag57
(g78
g59
NtRp4191
(dp4192
g62
(dp4193
sg71
g4179
sg64
(lp4194
g57
(g58
g59
NtRp4195
(dp4196
g62
(dp4197
g70
I3
ssg71
g4191
sg64
(lp4198
S'/'
asbasbasbag57
(g73
g59
NtRp4199
(dp4200
g62
(dp4201
sg71
g4075
sg64
(lp4202
g57
(g78
g59
NtRp4203
(dp4204
g62
(dp4205
g82
g83
ssg71
g4199
sg64
(lp4206
g397
asbag57
(g78
g59
NtRp4207
(dp4208
g62
(dp4209
g89
g90
ssg71
g4199
sg64
(lp4210
S':'
asbag57
(g78
g59
NtRp4211
(dp4212
g62
(dp4213
sg71
g4199
sg64
(lp4214
g57
(g58
g59
NtRp4215
(dp4216
g62
(dp4217
g70
I3
ssg71
g4211
sg64
(lp4218
S''
asbasbasbag57
(g73
g59
NtRp4219
(dp4220
g62
(dp4221
sg71
g4075
sg64
(lp4222
g57
(g78
g59
NtRp4223
(dp4224
g62
(dp4225
g82
g83
ssg71
g4219
sg64
(lp4226
g418
asbag57
(g78
g59
NtRp4227
(dp4228
g62
(dp4229
g89
g90
ssg71
g4219
sg64
(lp4230
S':'
asbag57
(g78
g59
NtRp4231
(dp4232
g62
(dp4233
sg71
g4219
sg64
(lp4234
g57
(g58
g59
NtRp4235
(dp4236
g62
(dp4237
g70
I3
ssg71
g4231
sg64
(lp4238
S''
asbasbasbasbasbasbasbasbasbasbasbag57
(g73
g59
NtRp4239
(dp4240
g62
(dp4241
sg71
g4005
sg64
(lp4242
g57
(g78
g59
NtRp4243
(dp4244
g62
(dp4245
g82
g83
ssg71
g4239
sg64
(lp4246
S'delimiters'
p4247
asbag57
(g78
g59
NtRp4248
(dp4249
g62
(dp4250
g89
g90
ssg71
g4239
sg64
(lp4251
S':'
asbag57
(g78
g59
NtRp4252
(dp4253
g62
(dp4254
sg71
g4239
sg64
(lp4255
g57
(g58
g59
NtRp4256
(dp4257
g62
(dp4258
g70
I5
ssg71
g4252
sg64
(lp4259
g57
(g66
g59
NtRp4260
(dp4261
g62
(dp4262
g70
I4
ssg71
Nsg64
(lp4263
g57
(g73
g59
NtRp4264
(dp4265
g62
(dp4266
sg71
g4260
sg64
(lp4267
g57
(g78
g59
NtRp4268
(dp4269
g62
(dp4270
sg71
g4264
sg64
(lp4271
g57
(g58
g59
NtRp4272
(dp4273
g62
(dp4274
g70
I4
ssg71
g4268
sg64
(lp4275
S'{{'
p4276
asbasbasbag57
(g73
g59
NtRp4277
(dp4278
g62
(dp4279
sg71
g4260
sg64
(lp4280
g57
(g78
g59
NtRp4281
(dp4282
g62
(dp4283
sg71
g4277
sg64
(lp4284
g57
(g58
g59
NtRp4285
(dp4286
g62
(dp4287
g70
I4
ssg71
g4281
sg64
(lp4288
S'}}'
p4289
asbasbasbasbasbasbasbag57
(g73
g59
NtRp4290
(dp4291
g62
(dp4292
sg71
g4005
sg64
(lp4293
g57
(g78
g59
NtRp4294
(dp4295
g62
(dp4296
g82
g83
ssg71
g4290
sg64
(lp4297
S'files'
p4298
asbag57
(g78
g59
NtRp4299
(dp4300
g62
(dp4301
g89
g90
ssg71
g4290
sg64
(lp4302
S':'
asbag57
(g78
g59
NtRp4303
(dp4304
g62
(dp4305
sg71
g4290
sg64
(lp4306
g57
(g58
g59
NtRp4307
(dp4308
g62
(dp4309
g70
I5
ssg71
g4303
sg64
(lp4310
g57
(g66
g59
NtRp4311
(dp4312
g62
(dp4313
g70
I4
ssg71
Nsg64
(lp4314
sbasbasbasbag57
(g73
g59
NtRp4315
(dp4316
g62
(dp4317
sg71
g4005
sg64
(lp4318
g57
(g78
g59
NtRp4319
(dp4320
g62
(dp4321
g82
g83
ssg71
g4315
sg64
(lp4322
S'flash'
p4323
asbag57
(g78
g59
NtRp4324
(dp4325
g62
(dp4326
g89
g90
ssg71
g4315
sg64
(lp4327
S':'
asbag57
(g78
g59
NtRp4328
(dp4329
g62
(dp4330
sg71
g4315
sg64
(lp4331
g57
(g58
g59
NtRp4332
(dp4333
g62
(dp4334
g70
I5
ssg71
g4328
sg64
(lp4335
S''
asbasbasbag57
(g73
g59
NtRp4336
(dp4337
g62
(dp4338
sg71
g4005
sg64
(lp4339
g57
(g78
g59
NtRp4340
(dp4341
g62
(dp4342
g82
g83
ssg71
g4336
sg64
(lp4343
S'generic_patterns'
p4344
asbag57
(g78
g59
NtRp4345
(dp4346
g62
(dp4347
g89
g90
ssg71
g4336
sg64
(lp4348
S':'
asbag57
(g78
g59
NtRp4349
(dp4350
g62
(dp4351
sg71
g4336
sg64
(lp4352
g57
(g58
g59
NtRp4353
(dp4354
g62
(dp4355
g70
I5
ssg71
g4349
sg64
(lp4356
g57
(g66
g59
NtRp4357
(dp4358
g62
(dp4359
g70
I4
ssg71
Nsg64
(lp4360
g57
(g73
g59
NtRp4361
(dp4362
g62
(dp4363
sg71
g4357
sg64
(lp4364
g57
(g78
g59
NtRp4365
(dp4366
g62
(dp4367
sg71
g4361
sg64
(lp4368
g57
(g58
g59
NtRp4369
(dp4370
g62
(dp4371
g70
I4
ssg71
g4365
sg64
(lp4372
S'*'
asbasbasbasbasbasbasbag57
(g73
g59
NtRp4373
(dp4374
g62
(dp4375
sg71
g4005
sg64
(lp4376
g57
(g78
g59
NtRp4377
(dp4378
g62
(dp4379
g82
g83
ssg71
g4373
sg64
(lp4380
S'headers'
p4381
asbag57
(g78
g59
NtRp4382
(dp4383
g62
(dp4384
g89
g90
ssg71
g4373
sg64
(lp4385
S':'
asbag57
(g78
g59
NtRp4386
(dp4387
g62
(dp4388
sg71
g4373
sg64
(lp4389
g57
(g58
g59
NtRp4390
(dp4391
g62
(dp4392
g70
I5
ssg71
g4386
sg64
(lp4393
g57
(g66
g59
NtRp4394
(dp4395
g62
(dp4396
g70
I4
ssg71
Nsg64
(lp4397
g57
(g73
g59
NtRp4398
(dp4399
g62
(dp4400
sg71
g4394
sg64
(lp4401
g57
(g78
g59
NtRp4402
(dp4403
g62
(dp4404
g82
g83
ssg71
g4398
sg64
(lp4405
S'Cache-Control'
p4406
asbag57
(g78
g59
NtRp4407
(dp4408
g62
(dp4409
g89
g90
ssg71
g4398
sg64
(lp4410
S':'
asbag57
(g78
g59
NtRp4411
(dp4412
g62
(dp4413
sg71
g4398
sg64
(lp4414
g57
(g58
g59
NtRp4415
(dp4416
g62
(dp4417
g70
I4
ssg71
g4411
sg64
(lp4418
S'no-store, no-cache, must-revalidate, post-check=0, pre-check=0'
p4419
asbasbasbag57
(g73
g59
NtRp4420
(dp4421
g62
(dp4422
sg71
g4394
sg64
(lp4423
g57
(g78
g59
NtRp4424
(dp4425
g62
(dp4426
g82
g83
ssg71
g4420
sg64
(lp4427
S'Content-Type'
p4428
asbag57
(g78
g59
NtRp4429
(dp4430
g62
(dp4431
g89
g90
ssg71
g4420
sg64
(lp4432
S':'
asbag57
(g78
g59
NtRp4433
(dp4434
g62
(dp4435
sg71
g4420
sg64
(lp4436
g57
(g58
g59
NtRp4437
(dp4438
g62
(dp4439
g70
I4
ssg71
g4433
sg64
(lp4440
S'text/html; charset=utf-8'
p4441
asbasbasbag57
(g73
g59
NtRp4442
(dp4443
g62
(dp4444
sg71
g4394
sg64
(lp4445
g57
(g78
g59
NtRp4446
(dp4447
g62
(dp4448
g82
g83
ssg71
g4442
sg64
(lp4449
S'Expires'
p4450
asbag57
(g78
g59
NtRp4451
(dp4452
g62
(dp4453
g89
g90
ssg71
g4442
sg64
(lp4454
S':'
asbag57
(g78
g59
NtRp4455
(dp4456
g62
(dp4457
sg71
g4442
sg64
(lp4458
g57
(g58
g59
NtRp4459
(dp4460
g62
(dp4461
g70
I4
ssg71
g4455
sg64
(lp4462
S'Sun, 14 Oct 2012 20:19:37 GMT'
p4463
asbasbasbag57
(g73
g59
NtRp4464
(dp4465
g62
(dp4466
sg71
g4394
sg64
(lp4467
g57
(g78
g59
NtRp4468
(dp4469
g62
(dp4470
g82
g83
ssg71
g4464
sg64
(lp4471
S'Pragma'
p4472
asbag57
(g78
g59
NtRp4473
(dp4474
g62
(dp4475
g89
g90
ssg71
g4464
sg64
(lp4476
S':'
asbag57
(g78
g59
NtRp4477
(dp4478
g62
(dp4479
sg71
g4464
sg64
(lp4480
g57
(g58
g59
NtRp4481
(dp4482
g62
(dp4483
g70
I4
ssg71
g4477
sg64
(lp4484
S'no-cache'
p4485
asbasbasbag57
(g73
g59
NtRp4486
(dp4487
g62
(dp4488
sg71
g4394
sg64
(lp4489
g57
(g78
g59
NtRp4490
(dp4491
g62
(dp4492
g82
g83
ssg71
g4486
sg64
(lp4493
S'X-Powered-By'
p4494
asbag57
(g78
g59
NtRp4495
(dp4496
g62
(dp4497
g89
g90
ssg71
g4486
sg64
(lp4498
S':'
asbag57
(g78
g59
NtRp4499
(dp4500
g62
(dp4501
sg71
g4486
sg64
(lp4502
g57
(g58
g59
NtRp4503
(dp4504
g62
(dp4505
g70
I4
ssg71
g4499
sg64
(lp4506
S'web2py'
p4507
asbasbasbasbasbasbasbag57
(g73
g59
NtRp4508
(dp4509
g62
(dp4510
sg71
g4005
sg64
(lp4511
g57
(g78
g59
NtRp4512
(dp4513
g62
(dp4514
g82
g83
ssg71
g4508
sg64
(lp4515
S'menu'
p4516
asbag57
(g78
g59
NtRp4517
(dp4518
g62
(dp4519
g89
g90
ssg71
g4508
sg64
(lp4520
S':'
asbag57
(g78
g59
NtRp4521
(dp4522
g62
(dp4523
sg71
g4508
sg64
(lp4524
g57
(g58
g59
NtRp4525
(dp4526
g62
(dp4527
g70
I5
ssg71
g4521
sg64
(lp4528
g57
(g66
g59
NtRp4529
(dp4530
g62
(dp4531
g70
I4
ssg71
Nsg64
(lp4532
g57
(g73
g59
NtRp4533
(dp4534
g62
(dp4535
sg71
g4529
sg64
(lp4536
g57
(g78
g59
NtRp4537
(dp4538
g62
(dp4539
sg71
g4533
sg64
(lp4540
g57
(g58
g59
NtRp4541
(dp4542
g62
(dp4543
g70
I4
ssg71
g4537
sg64
(lp4544
g57
(g66
g59
NtRp4545
(dp4546
g62
(dp4547
g70
I3
ssg71
Nsg64
(lp4548
g57
(g73
g59
NtRp4549
(dp4550
g62
(dp4551
sg71
g4545
sg64
(lp4552
g57
(g78
g59
NtRp4553
(dp4554
g62
(dp4555
sg71
g4549
sg64
(lp4556
g57
(g58
g59
NtRp4557
(dp4558
g62
(dp4559
g70
I3
ssg71
g4553
sg64
(lp4560
cgluon.languages
lazyT_unpickle
p4561
(S't\x05\x00\x00\x00Index'
tRp4562
asbasbasbag57
(g73
g59
NtRp4563
(dp4564
g62
(dp4565
sg71
g4545
sg64
(lp4566
g57
(g78
g59
NtRp4567
(dp4568
g62
(dp4569
sg71
g4563
sg64
(lp4570
g57
(g58
g59
NtRp4571
(dp4572
g62
(dp4573
g70
I3
ssg71
g4567
sg64
(lp4574
g100
asbasbasbag57
(g73
g59
NtRp4575
(dp4576
g62
(dp4577
sg71
g4545
sg64
(lp4578
g57
(g78
g59
NtRp4579
(dp4580
g62
(dp4581
sg71
g4575
sg64
(lp4582
g57
(g58
g59
NtRp4583
(dp4584
g62
(dp4585
g70
I3
ssg71
g4579
sg64
(lp4586
S'/ssad3/default/index'
p4587
asbasbasbag57
(g73
g59
NtRp4588
(dp4589
g62
(dp4590
sg71
g4545
sg64
(lp4591
g57
(g78
g59
NtRp4592
(dp4593
g62
(dp4594
sg71
g4588
sg64
(lp4595
g57
(g58
g59
NtRp4596
(dp4597
g62
(dp4598
g70
I3
ssg71
g4592
sg64
(lp4599
g57
(g66
g59
NtRp4600
(dp4601
g62
(dp4602
g70
I2
ssg71
Nsg64
(lp4603
sbasbasbasbasbasbasbasbasbasbasbasbag57
(g73
g59
NtRp4604
(dp4605
g62
(dp4606
sg71
g4005
sg64
(lp4607
g57
(g78
g59
NtRp4608
(dp4609
g62
(dp4610
g82
g83
ssg71
g4604
sg64
(lp4611
S'meta'
p4612
asbag57
(g78
g59
NtRp4613
(dp4614
g62
(dp4615
g89
g90
ssg71
g4604
sg64
(lp4616
S':'
asbag57
(g78
g59
NtRp4617
(dp4618
g62
(dp4619
sg71
g4604
sg64
(lp4620
g57
(g58
g59
NtRp4621
(dp4622
g62
(dp4623
g70
I5
ssg71
g4617
sg64
(lp4624
g57
(g66
g59
NtRp4625
(dp4626
g62
(dp4627
g70
I4
ssg71
Nsg64
(lp4628
g57
(g73
g59
NtRp4629
(dp4630
g62
(dp4631
sg71
g4625
sg64
(lp4632
g57
(g78
g59
NtRp4633
(dp4634
g62
(dp4635
g82
g83
ssg71
g4629
sg64
(lp4636
S'author'
p4637
asbag57
(g78
g59
NtRp4638
(dp4639
g62
(dp4640
g89
g90
ssg71
g4629
sg64
(lp4641
S':'
asbag57
(g78
g59
NtRp4642
(dp4643
g62
(dp4644
sg71
g4629
sg64
(lp4645
g57
(g58
g59
NtRp4646
(dp4647
g62
(dp4648
g70
I4
ssg71
g4642
sg64
(lp4649
S'you <you@example.com>'
p4650
asbasbasbag57
(g73
g59
NtRp4651
(dp4652
g62
(dp4653
sg71
g4625
sg64
(lp4654
g57
(g78
g59
NtRp4655
(dp4656
g62
(dp4657
g82
g83
ssg71
g4651
sg64
(lp4658
S'description'
p4659
asbag57
(g78
g59
NtRp4660
(dp4661
g62
(dp4662
g89
g90
ssg71
g4651
sg64
(lp4663
S':'
asbag57
(g78
g59
NtRp4664
(dp4665
g62
(dp4666
sg71
g4651
sg64
(lp4667
g57
(g58
g59
NtRp4668
(dp4669
g62
(dp4670
g70
I4
ssg71
g4664
sg64
(lp4671
S''
asbasbasbag57
(g73
g59
NtRp4672
(dp4673
g62
(dp4674
sg71
g4625
sg64
(lp4675
g57
(g78
g59
NtRp4676
(dp4677
g62
(dp4678
g82
g83
ssg71
g4672
sg64
(lp4679
S'keywords'
p4680
asbag57
(g78
g59
NtRp4681
(dp4682
g62
(dp4683
g89
g90
ssg71
g4672
sg64
(lp4684
S':'
asbag57
(g78
g59
NtRp4685
(dp4686
g62
(dp4687
sg71
g4672
sg64
(lp4688
g57
(g58
g59
NtRp4689
(dp4690
g62
(dp4691
g70
I4
ssg71
g4685
sg64
(lp4692
S''
asbasbasbasbasbasbasbag57
(g73
g59
NtRp4693
(dp4694
g62
(dp4695
sg71
g4005
sg64
(lp4696
g57
(g78
g59
NtRp4697
(dp4698
g62
(dp4699
g82
g83
ssg71
g4693
sg64
(lp4700
S'postprocessing'
p4701
asbag57
(g78
g59
NtRp4702
(dp4703
g62
(dp4704
g89
g90
ssg71
g4693
sg64
(lp4705
S':'
asbag57
(g78
g59
NtRp4706
(dp4707
g62
(dp4708
sg71
g4693
sg64
(lp4709
g57
(g58
g59
NtRp4710
(dp4711
g62
(dp4712
g70
I5
ssg71
g4706
sg64
(lp4713
g57
(g66
g59
NtRp4714
(dp4715
g62
(dp4716
g70
I4
ssg71
Nsg64
(lp4717
sbasbasbasbag57
(g73
g59
NtRp4718
(dp4719
g62
(dp4720
sg71
g4005
sg64
(lp4721
g57
(g78
g59
NtRp4722
(dp4723
g62
(dp4724
g82
g83
ssg71
g4718
sg64
(lp4725
S'session_file'
p4726
asbag57
(g78
g59
NtRp4727
(dp4728
g62
(dp4729
g89
g90
ssg71
g4718
sg64
(lp4730
S':'
asbag57
(g78
g59
NtRp4731
(dp4732
g62
(dp4733
sg71
g4718
sg64
(lp4734
g57
(g58
g59
NtRp4735
(dp4736
g62
(dp4737
g70
I5
ssg71
g4731
sg64
(lp4738
S"<open file '/home/chitra/courses/SSAD/web2py/applications/ssad3/sessions/127.0.0.1-0868b6ef-d0fd-4c69-93f5-10ec9780f1b8', mode 'rb+' at 0x7fb53425f5d0>"
p4739
asbasbasbag57
(g73
g59
NtRp4740
(dp4741
g62
(dp4742
sg71
g4005
sg64
(lp4743
g57
(g78
g59
NtRp4744
(dp4745
g62
(dp4746
g82
g83
ssg71
g4740
sg64
(lp4747
S'session_filename'
p4748
asbag57
(g78
g59
NtRp4749
(dp4750
g62
(dp4751
g89
g90
ssg71
g4740
sg64
(lp4752
S':'
asbag57
(g78
g59
NtRp4753
(dp4754
g62
(dp4755
sg71
g4740
sg64
(lp4756
g57
(g58
g59
NtRp4757
(dp4758
g62
(dp4759
g70
I5
ssg71
g4753
sg64
(lp4760
S'/home/chitra/courses/SSAD/web2py/applications/ssad3/sessions/127.0.0.1-0868b6ef-d0fd-4c69-93f5-10ec9780f1b8'
p4761
asbasbasbag57
(g73
g59
NtRp4762
(dp4763
g62
(dp4764
sg71
g4005
sg64
(lp4765
g57
(g78
g59
NtRp4766
(dp4767
g62
(dp4768
g82
g83
ssg71
g4762
sg64
(lp4769
S'session_id'
p4770
asbag57
(g78
g59
NtRp4771
(dp4772
g62
(dp4773
g89
g90
ssg71
g4762
sg64
(lp4774
S':'
asbag57
(g78
g59
NtRp4775
(dp4776
g62
(dp4777
sg71
g4762
sg64
(lp4778
g57
(g58
g59
NtRp4779
(dp4780
g62
(dp4781
g70
I5
ssg71
g4775
sg64
(lp4782
S'127.0.0.1-0868b6ef-d0fd-4c69-93f5-10ec9780f1b8'
p4783
asbasbasbag57
(g73
g59
NtRp4784
(dp4785
g62
(dp4786
sg71
g4005
sg64
(lp4787
g57
(g78
g59
NtRp4788
(dp4789
g62
(dp4790
g82
g83
ssg71
g4784
sg64
(lp4791
S'session_id_name'
p4792
asbag57
(g78
g59
NtRp4793
(dp4794
g62
(dp4795
g89
g90
ssg71
g4784
sg64
(lp4796
S':'
asbag57
(g78
g59
NtRp4797
(dp4798
g62
(dp4799
sg71
g4784
sg64
(lp4800
g57
(g58
g59
NtRp4801
(dp4802
g62
(dp4803
g70
I5
ssg71
g4797
sg64
(lp4804
g4062
asbasbasbag57
(g73
g59
NtRp4805
(dp4806
g62
(dp4807
sg71
g4005
sg64
(lp4808
g57
(g78
g59
NtRp4809
(dp4810
g62
(dp4811
g82
g83
ssg71
g4805
sg64
(lp4812
S'session_locked'
p4813
asbag57
(g78
g59
NtRp4814
(dp4815
g62
(dp4816
g89
g90
ssg71
g4805
sg64
(lp4817
S':'
asbag57
(g78
g59
NtRp4818
(dp4819
g62
(dp4820
sg71
g4805
sg64
(lp4821
g57
(g58
g59
NtRp4822
(dp4823
g62
(dp4824
g70
I5
ssg71
g4818
sg64
(lp4825
g2581
asbasbasbag57
(g73
g59
NtRp4826
(dp4827
g62
(dp4828
sg71
g4005
sg64
(lp4829
g57
(g78
g59
NtRp4830
(dp4831
g62
(dp4832
g82
g83
ssg71
g4826
sg64
(lp4833
S'session_new'
p4834
asbag57
(g78
g59
NtRp4835
(dp4836
g62
(dp4837
g89
g90
ssg71
g4826
sg64
(lp4838
S':'
asbag57
(g78
g59
NtRp4839
(dp4840
g62
(dp4841
sg71
g4826
sg64
(lp4842
g57
(g58
g59
NtRp4843
(dp4844
g62
(dp4845
g70
I5
ssg71
g4839
sg64
(lp4846
g100
asbasbasbag57
(g73
g59
NtRp4847
(dp4848
g62
(dp4849
sg71
g4005
sg64
(lp4850
g57
(g78
g59
NtRp4851
(dp4852
g62
(dp4853
g82
g83
ssg71
g4847
sg64
(lp4854
S'status'
p4855
asbag57
(g78
g59
NtRp4856
(dp4857
g62
(dp4858
g89
g90
ssg71
g4847
sg64
(lp4859
S':'
asbag57
(g78
g59
NtRp4860
(dp4861
g62
(dp4862
sg71
g4847
sg64
(lp4863
g57
(g58
g59
NtRp4864
(dp4865
g62
(dp4866
g70
I5
ssg71
g4860
sg64
(lp4867
S'200'
p4868
asbasbasbag57
(g73
g59
NtRp4869
(dp4870
g62
(dp4871
sg71
g4005
sg64
(lp4872
g57
(g78
g59
NtRp4873
(dp4874
g62
(dp4875
g82
g83
ssg71
g4869
sg64
(lp4876
S'subtitle'
p4877
asbag57
(g78
g59
NtRp4878
(dp4879
g62
(dp4880
g89
g90
ssg71
g4869
sg64
(lp4881
S':'
asbag57
(g78
g59
NtRp4882
(dp4883
g62
(dp4884
sg71
g4869
sg64
(lp4885
g57
(g58
g59
NtRp4886
(dp4887
g62
(dp4888
g70
I5
ssg71
g4882
sg64
(lp4889
S'powered by web2py'
p4890
asbasbasbag57
(g73
g59
NtRp4891
(dp4892
g62
(dp4893
sg71
g4005
sg64
(lp4894
g57
(g78
g59
NtRp4895
(dp4896
g62
(dp4897
g82
g83
ssg71
g4891
sg64
(lp4898
S'title'
p4899
asbag57
(g78
g59
NtRp4900
(dp4901
g62
(dp4902
g89
g90
ssg71
g4891
sg64
(lp4903
S':'
asbag57
(g78
g59
NtRp4904
(dp4905
g62
(dp4906
sg71
g4891
sg64
(lp4907
g57
(g58
g59
NtRp4908
(dp4909
g62
(dp4910
g70
I5
ssg71
g4904
sg64
(lp4911
S'My New App'
p4912
asbasbasbag57
(g73
g59
NtRp4913
(dp4914
g62
(dp4915
sg71
g4005
sg64
(lp4916
g57
(g78
g59
NtRp4917
(dp4918
g62
(dp4919
g82
g83
ssg71
g4913
sg64
(lp4920
g3245
asbag57
(g78
g59
NtRp4921
(dp4922
g62
(dp4923
g89
g90
ssg71
g4913
sg64
(lp4924
S':'
asbag57
(g78
g59
NtRp4925
(dp4926
g62
(dp4927
sg71
g4913
sg64
(lp4928
g57
(g58
g59
NtRp4929
(dp4930
g62
(dp4931
g70
I5
ssg71
g4925
sg64
(lp4932
g3258
asbasbasbag57
(g73
g59
NtRp4933
(dp4934
g62
(dp4935
sg71
g4005
sg64
(lp4936
g57
(g78
g59
NtRp4937
(dp4938
g62
(dp4939
g82
g83
ssg71
g4933
sg64
(lp4940
S'view'
p4941
asbag57
(g78
g59
NtRp4942
(dp4943
g62
(dp4944
g89
g90
ssg71
g4933
sg64
(lp4945
S':'
asbag57
(g78
g59
NtRp4946
(dp4947
g62
(dp4948
sg71
g4933
sg64
(lp4949
g57
(g58
g59
NtRp4950
(dp4951
g62
(dp4952
g70
I5
ssg71
g4946
sg64
(lp4953
S'default/final_ans.html'
p4954
asbasbasbasbasbsS'locals'
p4955
(dp4956
S'html_splitted'
p4957
S'[\'?id=278245.278246&coll=DL&dl=ACM&CFID=174493008&...="89%">\\r\\n\\t\\t\\t\\t<tr>\\r\\n\\t\\t\\t\\t\\t<td colspan="3"> \\r\\n\\t\\t\\t\\t\\t\\t\', \'?id=857076.857079&coll=DL&dl=ACM&CFID=174493008&...="89%">\\r\\n\\t\\t\\t\\t<tr>\\r\\n\\t\\t\\t\\t\\t<td colspan="3"> \\r\\n\\t\\t\\t\\t\\t\\t\', \'?id=1028099.1028103&coll=DL&dl=ACM&CFID=17449300...="89%">\\r\\n\\t\\t\\t\\t<tr>\\r\\n\\t\\t\\t\\t\\t<td colspan="3"> \\r\\n\\t\\t\\t\\t\\t\\t\', \'?id=331983.331984&coll=DL&dl=ACM&CFID=174493008&...="89%">\\r\\n\\t\\t\\t\\t<tr>\\r\\n\\t\\t\\t\\t\\t<td colspan="3"> \\r\\n\\t\\t\\t\\t\\t\\t\', \'?id=2063176&coll=DL&dl=ACM&CFID=174493008&CFTOKE...="89%">\\r\\n\\t\\t\\t\\t<tr>\\r\\n\\t\\t\\t\\t\\t<td colspan="3"> \\r\\n\\t\\t\\t\\t\\t\\t\', \'?id=1962438&coll=DL&dl=ACM&CFID=174493008&CFTOKE...="89%">\\r\\n\\t\\t\\t\\t<tr>\\r\\n\\t\\t\\t\\t\\t<td colspan="3"> \\r\\n\\t\\t\\t\\t\\t\\t\', \'?id=1516533.1516538&coll=DL&dl=ACM&CFID=17449300...="89%">\\r\\n\\t\\t\\t\\t<tr>\\r\\n\\t\\t\\t\\t\\t<td colspan="3"> \\r\\n\\t\\t\\t\\t\\t\\t\', \'?id=1456650.1456651&coll=DL&dl=ACM&CFID=17449300...="89%">\\r\\n\\t\\t\\t\\t<tr>\\r\\n\\t\\t\\t\\t\\t<td colspan="3"> \\r\\n\\t\\t\\t\\t\\t\\t\', \'?id=242223.242268&coll=DL&dl=ACM&CFID=174493008&...="89%">\\r\\n\\t\\t\\t\\t<tr>\\r\\n\\t\\t\\t\\t\\t<td colspan="3"> \\r\\n\\t\\t\\t\\t\\t\\t\', \'?id=1189215.1189180&coll=DL&dl=ACM&CFID=17449300...="89%">\\r\\n\\t\\t\\t\\t<tr>\\r\\n\\t\\t\\t\\t\\t<td colspan="3"> \\r\\n\\t\\t\\t\\t\\t\\t\', \'?id=1721831.1721836&coll=DL&dl=ACM&CFID=17449300...="89%">\\r\\n\\t\\t\\t\\t<tr>\\r\\n\\t\\t\\t\\t\\t<td colspan="3"> \\r\\n\\t\\t\\t\\t\\t\\t\', \'?id=1113308.1113313&coll=DL&dl=ACM&CFID=17449300...="89%">\\r\\n\\t\\t\\t\\t<tr>\\r\\n\\t\\t\\t\\t\\t<td colspan="3"> \\r\\n\\t\\t\\t\\t\\t\\t\', \'?id=2019136.2019142&coll=DL&dl=ACM&CFID=17449300...="89%">\\r\\n\\t\\t\\t\\t<tr>\\r\\n\\t\\t\\t\\t\\t<td colspan="3"> \\r\\n\\t\\t\\t\\t\\t\\t\', \'?id=1234388.1234394&coll=DL&dl=ACM&CFID=17449300...="89%">\\r\\n\\t\\t\\t\\t<tr>\\r\\n\\t\\t\\t\\t\\t<td colspan="3"> \\r\\n\\t\\t\\t\\t\\t\\t\', \'?id=219717.219745&coll=DL&dl=ACM&CFID=174493008&...="89%">\\r\\n\\t\\t\\t\\t<tr>\\r\\n\\t\\t\\t\\t\\t<td colspan="3"> \\r\\n\\t\\t\\t\\t\\t\\t\', \'?id=1463434.1463512&coll=DL&dl=ACM&CFID=17449300...="89%">\\r\\n\\t\\t\\t\\t<tr>\\r\\n\\t\\t\\t\\t\\t<td colspan="3"> \\r\\n\\t\\t\\t\\t\\t\\t\', \'?id=1592761&coll=DL&dl=ACM&CFID=174493008&CFTOKE...="89%">\\r\\n\\t\\t\\t\\t<tr>\\r\\n\\t\\t\\t\\t\\t<td colspan="3"> \\r\\n\\t\\t\\t\\t\\t\\t\', \'?id=1516016&coll=DL&dl=ACM&CFID=174493008&CFTOKE...="89%">\\r\\n\\t\\t\\t\\t<tr>\\r\\n\\t\\t\\t\\t\\t<td colspan="3"> \\r\\n\\t\\t\\t\\t\\t\\t\', \'?id=1978802.1978815&coll=DL&dl=ACM&CFID=17449300...="89%">\\r\\n\\t\\t\\t\\t<tr>\\r\\n\\t\\t\\t\\t\\t<td colspan="3"> \\r\\n\\t\\t\\t\\t\\t\\t\', \'?id=1646353&coll=DL&dl=ACM&CFID=174493008&CFTOKE.../td>\\r\\n</tr>\\r\\n</table>\\r\\n</div>\\r\\n</body>\\r\\n</html>\\r\\n\']'
p4958
sg3201
S"'http://dl.acm.org/results.cfm?h=1&query=Database...with+common+sense+business+reasoning+and+learning'"
p4959
sS'k'
S'[\'?id=278245.278246&coll=DL&dl=ACM&CFID=174493008&CFTOKEN=82271117" class="medium-text" target="_self"\', \'Database design with common sense business reasoning and learning</A\', \'\\r\\n\\t\\t\\t\\t\\t\\t\\t\\r\\n\\t\\t \\t\\t\\t\\t\\t<div class="authors"\', \'\\r\\n\\t\\t\\t\\t\\t\\t\\t\\r\\n\\t\\t\\t\\t\\t\\t\\t\\t\\r\\n\\t\\t\\t\\t\\t\\t\\t\\t\\t\\t\\t\\t<a href="author...1&coll=DL&dl=ACM&CFID=174493008&CFTOKEN=82271117"\', \'Veda C. Storey</a\', \', \\r\\n\\t\\t\\t\\t\\t\\t\\t\\t\\t\\t\\t\\t<a href="author_page.cfm?id=8110...4&coll=DL&dl=ACM&CFID=174493008&CFTOKEN=82271117"\', \'Roger H. L. Chiang</a\', \', \\r\\n\\t\\t\\t\\t\\t\\t\\t\\t\\t\\t\\t\\t<a href="author_page.cfm?id=8110...0&coll=DL&dl=ACM&CFID=174493008&CFTOKEN=82271117"\', \'Debabrata Dey</a\', \', \\r\\n\\t\\t\\t\\t\\t\\t\\t\\t\\t\\t\\t\\t<a href="author_page.cfm?id=8110...8&coll=DL&dl=ACM&CFID=174493008&CFTOKEN=82271117"\', \'Robert C. Goldstein</a\', \', \\r\\n\\t\\t\\t\\t\\t\\t\\t\\t\\t\\t\\t\\t<a href="author_page.cfm?id=8133...3&coll=DL&dl=ACM&CFID=174493008&CFTOKEN=82271117"\', \'Shankar Sudaresan</a\', \' \\r\\n\\t\\t \\t\\t\\t\\t\\t</div\', \'\\r\\n\\t\\t\\t\\t\\t</td\', \'\\r\\n\\t\\t\\t\\t</tr\', \'\\r\\n\\t\\t\\t\\t\\r\\n\\t\\t\\t\\t\\r\\n\\t\\t\\t\\t\\r\\n\\t\\t\\t\\t<tr valign="top"\', \'\\r\\n\\t\\t\\t\\t\\t<td class="small-text" nowrap\', \'\\r\\n\\t\\t\\t\\t\\t   \\r\\n\\t\\t\\t\\t\\t\\tDecember 1997 \\r\\n\\t\\t\\t\\t\\t</td\', \'\\r\\n\\t\\t\\t\\t\\t<td\', ...]'
p4960
sS'ret'
p4961
S'[]'
p4962
sg2695
S'\'\\r\\n\\r\\n<!DOCTYPE html PUBLIC "-//W3C//DTD XHTML 1.0.../td>\\r\\n</tr>\\r\\n</table>\\r\\n</div>\\r\\n</body>\\r\\n</html>\\r\\n\''
p4963
sS'l1'
p4964
S"['Database design with common sense business reasoning and learning', 3, 4, False, False, True]"
p4965
sssS'traceback'
p4966
S'Traceback (most recent call last):\n  File "/home/chitra/courses/SSAD/web2py/gluon/restricted.py", line 205, in restricted\n    exec ccode in environment\n  File "/home/chitra/courses/SSAD/web2py/applications/ssad3/controllers/default.py", line 142, in <module>\n  File "/home/chitra/courses/SSAD/web2py/gluon/globals.py", line 173, in <lambda>\n    self._caller = lambda f: f()\n  File "/home/chitra/courses/SSAD/web2py/applications/ssad3/controllers/default.py", line 48, in final_ans\n    fst_l=extract1(url,l1)\n  File "/home/chitra/courses/SSAD/web2py/applications/ssad3/controllers/default.py", line 35, in extract1\n    s="http://dl.acm.org/citation.cfm"+html_splitted[i][:k]\nUnboundLocalError: local variable \'i\' referenced before assignment\n'
p4967
s.