(dp1
S'output'
p2
S"<class 'urllib2.URLError'> <urlopen error [Errno -2] Name or service not known>"
p3
sS'layer'
p4
S'/home/maneesha/Downloads/web2py/applications/ssad3/controllers/default.py'
p5
sS'code'
p6
S'# -*- coding: utf-8 -*-\n### required - do no delete\ndef user(): return dict(form=auth())\ndef download(): return response.download(request,db)\ndef call(): return service()\n### end requires\n#def index():\n #   return dict()\n\n#def error():\n #   return dict()\nfrom gluon.tools import fetch\nimport re\nlistf=[]\ncount=0\nbigans=[]\ndef index():\n    form=SQLFORM(db.input)\n    if form.process().accepted:\n        response.flash = \'you entred\'\n        redirect(URL(\'final_ans\'))\n    return dict(form=form)\ndef year_user(index_yr):   #index_yr - only in this code not in main one\n    flag=index_yr\n    redirect(URL(\'final_ans()\'))\n    flag=0\n    #return dict(ans=ll1[0],l_yr=ll1[1])\ndef extract1(url,l1):\n    ret=[]\n    html=fetch(url)\n    html_splitted=html.split("<A HREF=\\"citation.cfm")\n    del html_splitted[0]\n    k=html_splitted[0].split(\'>\')\n    if k[1][:-3]==l1[0]:\n        k=html_splitted[0].find(\'\\"\')\n        s="http://dl.acm.org/citation.cfm"+html_splitted[0][:k]\n        ret.append(s.split(\'&preflayout\')[0]+\'&preflayout=flat\')\n    else:\n        for i in range(0,l1[2]):\n            k=html_splitted[i].find(\'\\"\')\n            s="http://dl.acm.org/citation.cfm"+html_splitted[i][:k]\n            ret.append(s.split(\'&preflayout\')[0]+\'&preflayout=flat\')\n    return ret\n    \n    \ndef final_ans():\n    l1=u_filter() \n    url="http://dl.acm.org/results.cfm?h=1&query="+\'+\'.join(l1[0].split())\n    fst_l=extract1(url,l1)\n    #for l in fst_l:\n     #   listf.append(cite(l))\n    rec(fst_l,l1,bigans)\n    global listf\n    return dict(bigans=bigans,level=l1[1],top=l1[2])\ndef rec(list1,l1,bigans):\n    global count\n    count=count+1\n    global listf\n    listf.append([])\n    for x in list1:\n        if x!=\'\':\n            z=cite(x)\n            #global listf\n            #listf[count-1].append(z)\n            bigans.append(z)\n            if count < l1[1]:\n                rec(z[5],l1,bigans[-1])\n    count=count-1\n    return\ndef cite(url):\n    if url==\'\':\n        return []\n    l1=u_filter()\n    html=fetch(url)\n    temp=[]\n        #temp=[]\n    d=re.search(\'<meta name="citation_title"[\\w\\W]*?>\',html).group()\n    d=bold(d)\n        #temp.append(d.split(\'>\')[0][9:-1])\n    temp.append(d.split(\'=\')[2][1:-2])\n    temp.append(url)\n    c=re.search(\'<meta name="citation_authors"[\\w\\W]*?>\',html).group()\n    c=bold(c)\n    if l1[3]==1:\n        #temp.append(d.split(\'>\')[0][9:-1])\n        temp.append(c.split(\'=\')[2][1:-2])\n    else:\n        temp.append(-1)\n    b=re.search(\'<meta name="citation_date"[\\w\\W]*?>\',html).group()\n    b=bold(b)\n    if l1[5]==1:\n        temp.append(b.split(\'=\')[2][1:-2])\n    else:\n        temp.append(-1)\n    s=re.search(\'CITED BY[\\w\\W]*?INDEX TERMS\',html).group()\n    if \'Citings are not available\' not in s:\n        e=re.search(\'\\d* Citations\',s)\n        if l1[4]!=1:\n            temp.append(-1)\n        elif e!=None:\n            temp.append(e.group().split()[0])\n        else:                                                                            \n            temp.append(1)\n        i=0\n        cit=[]\n        while i < l1[2]:\n            i+=1\n            s1=re.search(\'<a href[\\w\\W]*?</a>\',s)\n            if s1==None:\n                cit.append(\'\')\n            elif s1!=None:\n                k=s.find(s1.group())\n                #k1=s[:k]\n                cit.append(("http://dl.acm.org/"+s1.group().split(\'\\"\')[1]).split(\'&preflayout\')[0]+\'&preflayout=flat\')\n                s=s[k+2:]\n           \n        temp.append(cit)\n    else:\n        if l1[4]==1:\n            temp.append(0)\n        else:\n            temp.append(-1)\n        temp.append([])\n    return temp\ndef u_filter():\n    inpu=db().select(db.input.ALL)\n    for inp in inpu:\n        key=inp.keywords\n        level=inp.level\n        top=inp.top\n        auth=inp.author\n        cited_by=inp.cited_by\n        year=inp.year\n    return [key,level,top,auth,cited_by,year]\ndef bold(d):\n    pre=""\n    while pre!=d:\n        pre=d\n        d=d.replace("<b>","");\n        d=d.replace("</b>","");\n    return d\n\nresponse._vars=response._caller(final_ans)\n'
p7
sS'snapshot'
p8
(dp9
S'exception'
p10
(dp11
S'__module__'
p12
S"'urllib2'"
p13
sS'__getslice__'
p14
S"<method-wrapper '__getslice__' of URLError object>"
p15
sS'__str__'
p16
S"<bound method URLError.__str__ of URLError(gaierror(-2, 'Name or service not known'),)>"
p17
sS'__reduce__'
p18
S'<built-in method __reduce__ of URLError object>'
p19
sS'__dict__'
p20
S"{'reason': gaierror(-2, 'Name or service not known')}"
p21
sS'__sizeof__'
p22
S'<built-in method __sizeof__ of URLError object>'
p23
sS'__weakref__'
p24
S'None'
p25
sS'__init__'
p26
S"<bound method URLError.__init__ of URLError(gaierror(-2, 'Name or service not known'),)>"
p27
sS'__setattr__'
p28
S"<method-wrapper '__setattr__' of URLError object>"
p29
sS'__reduce_ex__'
p30
S'<built-in method __reduce_ex__ of URLError object>'
p31
sS'__new__'
p32
S'<built-in method __new__ of type object>'
p33
sS'errno'
p34
S'None'
p35
sS'__format__'
p36
S'<built-in method __format__ of URLError object>'
p37
sS'__class__'
p38
S"<class 'urllib2.URLError'>"
p39
sS'filename'
p40
S'None'
p41
sS'__doc__'
p42
S'None'
p43
sS'__getitem__'
p44
S"<method-wrapper '__getitem__' of URLError object>"
p45
sS'__setstate__'
p46
S'<built-in method __setstate__ of URLError object>'
p47
sS'__getattribute__'
p48
S"<method-wrapper '__getattribute__' of URLError object>"
p49
sS'args'
p50
S"(gaierror(-2, 'Name or service not known'),)"
p51
sS'reason'
p52
S"gaierror(-2, 'Name or service not known')"
p53
sS'__subclasshook__'
p54
S'<built-in method __subclasshook__ of type object>'
p55
sS'__unicode__'
p56
S'<built-in method __unicode__ of URLError object>'
p57
sS'strerror'
p58
S'None'
p59
sS'__delattr__'
p60
S"<method-wrapper '__delattr__' of URLError object>"
p61
sS'__repr__'
p62
S"<method-wrapper '__repr__' of URLError object>"
p63
sS'__hash__'
p64
S"<method-wrapper '__hash__' of URLError object>"
p65
ssS'evalue'
p66
S'<urlopen error [Errno -2] Name or service not known>'
p67
sS'request'
p68
ccopy_reg
_reconstructor
p69
(cgluon.html
BEAUTIFY
p70
c__builtin__
object
p71
NtRp72
(dp73
S'attributes'
p74
(dp75
sS'components'
p76
(lp77
g69
(cgluon.html
TABLE
p78
g71
NtRp79
(dp80
g74
(dp81
S'level'
p82
I5
ssS'parent'
p83
Nsg76
(lp84
g69
(cgluon.html
TR
p85
g71
NtRp86
(dp87
g74
(dp88
sg83
g79
sg76
(lp89
g69
(cgluon.html
TD
p90
g71
NtRp91
(dp92
g74
(dp93
S'_style'
p94
S'font-weight:bold;vertical-align:top'
p95
ssg83
g86
sg76
(lp96
S'ajax'
p97
asbag69
(g90
g71
NtRp98
(dp99
g74
(dp100
S'_valign'
p101
S'top'
p102
ssg83
g86
sg76
(lp103
S':'
asbag69
(g90
g71
NtRp104
(dp105
g74
(dp106
sg83
g86
sg76
(lp107
g69
(g70
g71
NtRp108
(dp109
g74
(dp110
g82
I5
ssg83
g104
sg76
(lp111
S'False'
p112
asbasbasbag69
(g85
g71
NtRp113
(dp114
g74
(dp115
sg83
g79
sg76
(lp116
g69
(g90
g71
NtRp117
(dp118
g74
(dp119
g94
g95
ssg83
g113
sg76
(lp120
S'application'
p121
asbag69
(g90
g71
NtRp122
(dp123
g74
(dp124
g101
g102
ssg83
g113
sg76
(lp125
S':'
asbag69
(g90
g71
NtRp126
(dp127
g74
(dp128
sg83
g113
sg76
(lp129
g69
(g70
g71
NtRp130
(dp131
g74
(dp132
g82
I5
ssg83
g126
sg76
(lp133
S'ssad3'
p134
asbasbasbag69
(g85
g71
NtRp135
(dp136
g74
(dp137
sg83
g79
sg76
(lp138
g69
(g90
g71
NtRp139
(dp140
g74
(dp141
g94
g95
ssg83
g135
sg76
(lp142
g50
asbag69
(g90
g71
NtRp143
(dp144
g74
(dp145
g101
g102
ssg83
g135
sg76
(lp146
S':'
asbag69
(g90
g71
NtRp147
(dp148
g74
(dp149
sg83
g135
sg76
(lp150
g69
(g70
g71
NtRp151
(dp152
g74
(dp153
g82
I5
ssg83
g147
sg76
(lp154
g69
(g78
g71
NtRp155
(dp156
g74
(dp157
g82
I4
ssg83
Nsg76
(lp158
sbasbasbasbag69
(g85
g71
NtRp159
(dp160
g74
(dp161
sg83
g79
sg76
(lp162
g69
(g90
g71
NtRp163
(dp164
g74
(dp165
g94
g95
ssg83
g159
sg76
(lp166
S'body'
p167
asbag69
(g90
g71
NtRp168
(dp169
g74
(dp170
g101
g102
ssg83
g159
sg76
(lp171
S':'
asbag69
(g90
g71
NtRp172
(dp173
g74
(dp174
sg83
g159
sg76
(lp175
g69
(g70
g71
NtRp176
(dp177
g74
(dp178
g82
I5
ssg83
g172
sg76
(lp179
S'<cStringIO.StringO object at 0x7f4a640f52d0>'
p180
asbasbasbag69
(g85
g71
NtRp181
(dp182
g74
(dp183
sg83
g79
sg76
(lp184
g69
(g90
g71
NtRp185
(dp186
g74
(dp187
g94
g95
ssg83
g181
sg76
(lp188
S'client'
p189
asbag69
(g90
g71
NtRp190
(dp191
g74
(dp192
g101
g102
ssg83
g181
sg76
(lp193
S':'
asbag69
(g90
g71
NtRp194
(dp195
g74
(dp196
sg83
g181
sg76
(lp197
g69
(g70
g71
NtRp198
(dp199
g74
(dp200
g82
I5
ssg83
g194
sg76
(lp201
S'127.0.0.1'
p202
asbasbasbag69
(g85
g71
NtRp203
(dp204
g74
(dp205
sg83
g79
sg76
(lp206
g69
(g90
g71
NtRp207
(dp208
g74
(dp209
g94
g95
ssg83
g203
sg76
(lp210
S'controller'
p211
asbag69
(g90
g71
NtRp212
(dp213
g74
(dp214
g101
g102
ssg83
g203
sg76
(lp215
S':'
asbag69
(g90
g71
NtRp216
(dp217
g74
(dp218
sg83
g203
sg76
(lp219
g69
(g70
g71
NtRp220
(dp221
g74
(dp222
g82
I5
ssg83
g216
sg76
(lp223
S'default'
p224
asbasbasbag69
(g85
g71
NtRp225
(dp226
g74
(dp227
sg83
g79
sg76
(lp228
g69
(g90
g71
NtRp229
(dp230
g74
(dp231
g94
g95
ssg83
g225
sg76
(lp232
S'cookies'
p233
asbag69
(g90
g71
NtRp234
(dp235
g74
(dp236
g101
g102
ssg83
g225
sg76
(lp237
S':'
asbag69
(g90
g71
NtRp238
(dp239
g74
(dp240
sg83
g225
sg76
(lp241
g69
(g70
g71
NtRp242
(dp243
g74
(dp244
g82
I5
ssg83
g238
sg76
(lp245
g69
(g78
g71
NtRp246
(dp247
g74
(dp248
g82
I4
ssg83
Nsg76
(lp249
g69
(g85
g71
NtRp250
(dp251
g74
(dp252
sg83
g246
sg76
(lp253
g69
(g90
g71
NtRp254
(dp255
g74
(dp256
g94
g95
ssg83
g250
sg76
(lp257
S'session_id_admin'
p258
asbag69
(g90
g71
NtRp259
(dp260
g74
(dp261
g101
g102
ssg83
g250
sg76
(lp262
S':'
asbag69
(g90
g71
NtRp263
(dp264
g74
(dp265
sg83
g250
sg76
(lp266
g69
(g70
g71
NtRp267
(dp268
g74
(dp269
g82
I4
ssg83
g263
sg76
(lp270
g69
(g78
g71
NtRp271
(dp272
g74
(dp273
g82
I3
ssg83
Nsg76
(lp274
g69
(g85
g71
NtRp275
(dp276
g74
(dp277
sg83
g271
sg76
(lp278
g69
(g90
g71
NtRp279
(dp280
g74
(dp281
g94
g95
ssg83
g275
sg76
(lp282
S'comment'
p283
asbag69
(g90
g71
NtRp284
(dp285
g74
(dp286
g101
g102
ssg83
g275
sg76
(lp287
S':'
asbag69
(g90
g71
NtRp288
(dp289
g74
(dp290
sg83
g275
sg76
(lp291
g69
(g70
g71
NtRp292
(dp293
g74
(dp294
g82
I3
ssg83
g288
sg76
(lp295
S''
asbasbasbag69
(g85
g71
NtRp296
(dp297
g74
(dp298
sg83
g271
sg76
(lp299
g69
(g90
g71
NtRp300
(dp301
g74
(dp302
g94
g95
ssg83
g296
sg76
(lp303
S'domain'
p304
asbag69
(g90
g71
NtRp305
(dp306
g74
(dp307
g101
g102
ssg83
g296
sg76
(lp308
S':'
asbag69
(g90
g71
NtRp309
(dp310
g74
(dp311
sg83
g296
sg76
(lp312
g69
(g70
g71
NtRp313
(dp314
g74
(dp315
g82
I3
ssg83
g309
sg76
(lp316
S''
asbasbasbag69
(g85
g71
NtRp317
(dp318
g74
(dp319
sg83
g271
sg76
(lp320
g69
(g90
g71
NtRp321
(dp322
g74
(dp323
g94
g95
ssg83
g317
sg76
(lp324
S'expires'
p325
asbag69
(g90
g71
NtRp326
(dp327
g74
(dp328
g101
g102
ssg83
g317
sg76
(lp329
S':'
asbag69
(g90
g71
NtRp330
(dp331
g74
(dp332
sg83
g317
sg76
(lp333
g69
(g70
g71
NtRp334
(dp335
g74
(dp336
g82
I3
ssg83
g330
sg76
(lp337
S''
asbasbasbag69
(g85
g71
NtRp338
(dp339
g74
(dp340
sg83
g271
sg76
(lp341
g69
(g90
g71
NtRp342
(dp343
g74
(dp344
g94
g95
ssg83
g338
sg76
(lp345
S'httponly'
p346
asbag69
(g90
g71
NtRp347
(dp348
g74
(dp349
g101
g102
ssg83
g338
sg76
(lp350
S':'
asbag69
(g90
g71
NtRp351
(dp352
g74
(dp353
sg83
g338
sg76
(lp354
g69
(g70
g71
NtRp355
(dp356
g74
(dp357
g82
I3
ssg83
g351
sg76
(lp358
S''
asbasbasbag69
(g85
g71
NtRp359
(dp360
g74
(dp361
sg83
g271
sg76
(lp362
g69
(g90
g71
NtRp363
(dp364
g74
(dp365
g94
g95
ssg83
g359
sg76
(lp366
S'max-age'
p367
asbag69
(g90
g71
NtRp368
(dp369
g74
(dp370
g101
g102
ssg83
g359
sg76
(lp371
S':'
asbag69
(g90
g71
NtRp372
(dp373
g74
(dp374
sg83
g359
sg76
(lp375
g69
(g70
g71
NtRp376
(dp377
g74
(dp378
g82
I3
ssg83
g372
sg76
(lp379
S''
asbasbasbag69
(g85
g71
NtRp380
(dp381
g74
(dp382
sg83
g271
sg76
(lp383
g69
(g90
g71
NtRp384
(dp385
g74
(dp386
g94
g95
ssg83
g380
sg76
(lp387
S'path'
p388
asbag69
(g90
g71
NtRp389
(dp390
g74
(dp391
g101
g102
ssg83
g380
sg76
(lp392
S':'
asbag69
(g90
g71
NtRp393
(dp394
g74
(dp395
sg83
g380
sg76
(lp396
g69
(g70
g71
NtRp397
(dp398
g74
(dp399
g82
I3
ssg83
g393
sg76
(lp400
S''
asbasbasbag69
(g85
g71
NtRp401
(dp402
g74
(dp403
sg83
g271
sg76
(lp404
g69
(g90
g71
NtRp405
(dp406
g74
(dp407
g94
g95
ssg83
g401
sg76
(lp408
S'secure'
p409
asbag69
(g90
g71
NtRp410
(dp411
g74
(dp412
g101
g102
ssg83
g401
sg76
(lp413
S':'
asbag69
(g90
g71
NtRp414
(dp415
g74
(dp416
sg83
g401
sg76
(lp417
g69
(g70
g71
NtRp418
(dp419
g74
(dp420
g82
I3
ssg83
g414
sg76
(lp421
S''
asbasbasbag69
(g85
g71
NtRp422
(dp423
g74
(dp424
sg83
g271
sg76
(lp425
g69
(g90
g71
NtRp426
(dp427
g74
(dp428
g94
g95
ssg83
g422
sg76
(lp429
S'version'
p430
asbag69
(g90
g71
NtRp431
(dp432
g74
(dp433
g101
g102
ssg83
g422
sg76
(lp434
S':'
asbag69
(g90
g71
NtRp435
(dp436
g74
(dp437
sg83
g422
sg76
(lp438
g69
(g70
g71
NtRp439
(dp440
g74
(dp441
g82
I3
ssg83
g435
sg76
(lp442
S''
asbasbasbasbasbasbasbag69
(g85
g71
NtRp443
(dp444
g74
(dp445
sg83
g246
sg76
(lp446
g69
(g90
g71
NtRp447
(dp448
g74
(dp449
g94
g95
ssg83
g443
sg76
(lp450
S'session_id_ssad3'
p451
asbag69
(g90
g71
NtRp452
(dp453
g74
(dp454
g101
g102
ssg83
g443
sg76
(lp455
S':'
asbag69
(g90
g71
NtRp456
(dp457
g74
(dp458
sg83
g443
sg76
(lp459
g69
(g70
g71
NtRp460
(dp461
g74
(dp462
g82
I4
ssg83
g456
sg76
(lp463
g69
(g78
g71
NtRp464
(dp465
g74
(dp466
g82
I3
ssg83
Nsg76
(lp467
g69
(g85
g71
NtRp468
(dp469
g74
(dp470
sg83
g464
sg76
(lp471
g69
(g90
g71
NtRp472
(dp473
g74
(dp474
g94
g95
ssg83
g468
sg76
(lp475
g283
asbag69
(g90
g71
NtRp476
(dp477
g74
(dp478
g101
g102
ssg83
g468
sg76
(lp479
S':'
asbag69
(g90
g71
NtRp480
(dp481
g74
(dp482
sg83
g468
sg76
(lp483
g69
(g70
g71
NtRp484
(dp485
g74
(dp486
g82
I3
ssg83
g480
sg76
(lp487
S''
asbasbasbag69
(g85
g71
NtRp488
(dp489
g74
(dp490
sg83
g464
sg76
(lp491
g69
(g90
g71
NtRp492
(dp493
g74
(dp494
g94
g95
ssg83
g488
sg76
(lp495
g304
asbag69
(g90
g71
NtRp496
(dp497
g74
(dp498
g101
g102
ssg83
g488
sg76
(lp499
S':'
asbag69
(g90
g71
NtRp500
(dp501
g74
(dp502
sg83
g488
sg76
(lp503
g69
(g70
g71
NtRp504
(dp505
g74
(dp506
g82
I3
ssg83
g500
sg76
(lp507
S''
asbasbasbag69
(g85
g71
NtRp508
(dp509
g74
(dp510
sg83
g464
sg76
(lp511
g69
(g90
g71
NtRp512
(dp513
g74
(dp514
g94
g95
ssg83
g508
sg76
(lp515
g325
asbag69
(g90
g71
NtRp516
(dp517
g74
(dp518
g101
g102
ssg83
g508
sg76
(lp519
S':'
asbag69
(g90
g71
NtRp520
(dp521
g74
(dp522
sg83
g508
sg76
(lp523
g69
(g70
g71
NtRp524
(dp525
g74
(dp526
g82
I3
ssg83
g520
sg76
(lp527
S''
asbasbasbag69
(g85
g71
NtRp528
(dp529
g74
(dp530
sg83
g464
sg76
(lp531
g69
(g90
g71
NtRp532
(dp533
g74
(dp534
g94
g95
ssg83
g528
sg76
(lp535
g346
asbag69
(g90
g71
NtRp536
(dp537
g74
(dp538
g101
g102
ssg83
g528
sg76
(lp539
S':'
asbag69
(g90
g71
NtRp540
(dp541
g74
(dp542
sg83
g528
sg76
(lp543
g69
(g70
g71
NtRp544
(dp545
g74
(dp546
g82
I3
ssg83
g540
sg76
(lp547
S''
asbasbasbag69
(g85
g71
NtRp548
(dp549
g74
(dp550
sg83
g464
sg76
(lp551
g69
(g90
g71
NtRp552
(dp553
g74
(dp554
g94
g95
ssg83
g548
sg76
(lp555
g367
asbag69
(g90
g71
NtRp556
(dp557
g74
(dp558
g101
g102
ssg83
g548
sg76
(lp559
S':'
asbag69
(g90
g71
NtRp560
(dp561
g74
(dp562
sg83
g548
sg76
(lp563
g69
(g70
g71
NtRp564
(dp565
g74
(dp566
g82
I3
ssg83
g560
sg76
(lp567
S''
asbasbasbag69
(g85
g71
NtRp568
(dp569
g74
(dp570
sg83
g464
sg76
(lp571
g69
(g90
g71
NtRp572
(dp573
g74
(dp574
g94
g95
ssg83
g568
sg76
(lp575
g388
asbag69
(g90
g71
NtRp576
(dp577
g74
(dp578
g101
g102
ssg83
g568
sg76
(lp579
S':'
asbag69
(g90
g71
NtRp580
(dp581
g74
(dp582
sg83
g568
sg76
(lp583
g69
(g70
g71
NtRp584
(dp585
g74
(dp586
g82
I3
ssg83
g580
sg76
(lp587
S''
asbasbasbag69
(g85
g71
NtRp588
(dp589
g74
(dp590
sg83
g464
sg76
(lp591
g69
(g90
g71
NtRp592
(dp593
g74
(dp594
g94
g95
ssg83
g588
sg76
(lp595
g409
asbag69
(g90
g71
NtRp596
(dp597
g74
(dp598
g101
g102
ssg83
g588
sg76
(lp599
S':'
asbag69
(g90
g71
NtRp600
(dp601
g74
(dp602
sg83
g588
sg76
(lp603
g69
(g70
g71
NtRp604
(dp605
g74
(dp606
g82
I3
ssg83
g600
sg76
(lp607
S''
asbasbasbag69
(g85
g71
NtRp608
(dp609
g74
(dp610
sg83
g464
sg76
(lp611
g69
(g90
g71
NtRp612
(dp613
g74
(dp614
g94
g95
ssg83
g608
sg76
(lp615
g430
asbag69
(g90
g71
NtRp616
(dp617
g74
(dp618
g101
g102
ssg83
g608
sg76
(lp619
S':'
asbag69
(g90
g71
NtRp620
(dp621
g74
(dp622
sg83
g608
sg76
(lp623
g69
(g70
g71
NtRp624
(dp625
g74
(dp626
g82
I3
ssg83
g620
sg76
(lp627
S''
asbasbasbasbasbasbasbasbasbasbasbag69
(g85
g71
NtRp628
(dp629
g74
(dp630
sg83
g79
sg76
(lp631
g69
(g90
g71
NtRp632
(dp633
g74
(dp634
g94
g95
ssg83
g628
sg76
(lp635
S'env'
p636
asbag69
(g90
g71
NtRp637
(dp638
g74
(dp639
g101
g102
ssg83
g628
sg76
(lp640
S':'
asbag69
(g90
g71
NtRp641
(dp642
g74
(dp643
sg83
g628
sg76
(lp644
g69
(g70
g71
NtRp645
(dp646
g74
(dp647
g82
I5
ssg83
g641
sg76
(lp648
g69
(g78
g71
NtRp649
(dp650
g74
(dp651
g82
I4
ssg83
Nsg76
(lp652
g69
(g85
g71
NtRp653
(dp654
g74
(dp655
sg83
g649
sg76
(lp656
g69
(g90
g71
NtRp657
(dp658
g74
(dp659
g94
g95
ssg83
g653
sg76
(lp660
S'app_folders'
p661
asbag69
(g90
g71
NtRp662
(dp663
g74
(dp664
g101
g102
ssg83
g653
sg76
(lp665
S':'
asbag69
(g90
g71
NtRp666
(dp667
g74
(dp668
sg83
g653
sg76
(lp669
g69
(g70
g71
NtRp670
(dp671
g74
(dp672
g82
I4
ssg83
g666
sg76
(lp673
S"set(['/home/maneesha/Downloads/web2py/applications/welcome/', '/home/maneesha/Downloads/web2py/applications/admin/', '/home/maneesha/Downloads/web2py/applications/ssad3/'])"
p674
asbasbasbag69
(g85
g71
NtRp675
(dp676
g74
(dp677
sg83
g649
sg76
(lp678
g69
(g90
g71
NtRp679
(dp680
g74
(dp681
g94
g95
ssg83
g675
sg76
(lp682
S'applications_parent'
p683
asbag69
(g90
g71
NtRp684
(dp685
g74
(dp686
g101
g102
ssg83
g675
sg76
(lp687
S':'
asbag69
(g90
g71
NtRp688
(dp689
g74
(dp690
sg83
g675
sg76
(lp691
g69
(g70
g71
NtRp692
(dp693
g74
(dp694
g82
I4
ssg83
g688
sg76
(lp695
S'/home/maneesha/Downloads/web2py'
p696
asbasbasbag69
(g85
g71
NtRp697
(dp698
g74
(dp699
sg83
g649
sg76
(lp700
g69
(g90
g71
NtRp701
(dp702
g74
(dp703
g94
g95
ssg83
g697
sg76
(lp704
S'cmd_args'
p705
asbag69
(g90
g71
NtRp706
(dp707
g74
(dp708
g101
g102
ssg83
g697
sg76
(lp709
S':'
asbag69
(g90
g71
NtRp710
(dp711
g74
(dp712
sg83
g697
sg76
(lp713
g69
(g70
g71
NtRp714
(dp715
g74
(dp716
g82
I4
ssg83
g710
sg76
(lp717
g69
(g78
g71
NtRp718
(dp719
g74
(dp720
g82
I3
ssg83
Nsg76
(lp721
sbasbasbasbag69
(g85
g71
NtRp722
(dp723
g74
(dp724
sg83
g649
sg76
(lp725
g69
(g90
g71
NtRp726
(dp727
g74
(dp728
g94
g95
ssg83
g722
sg76
(lp729
S'cmd_options'
p730
asbag69
(g90
g71
NtRp731
(dp732
g74
(dp733
g101
g102
ssg83
g722
sg76
(lp734
S':'
asbag69
(g90
g71
NtRp735
(dp736
g74
(dp737
sg83
g722
sg76
(lp738
g69
(g70
g71
NtRp739
(dp740
g74
(dp741
g82
I4
ssg83
g735
sg76
(lp742
S"<Values at 0x137bb00: {'verbose': False, 'ip': '127.0.0.1', 'shutdown_timeout': 5, 'taskbar': False, 'nocron': False, 'pid_filename': 'httpserver.pid', 'maxthreads': None, 'softcron': False, 'server_name': 'maneesha-Inspiron-N5050', 'bpython': False, 'nogui': False, 'port': 8000, 'extcron': False, 'debuglevel': 30, 'test': None, 'folder': '/home/maneesha/Downloads/web2py', 'config': '', 'import_models': False, 'winservice': '', 'shell': None, 'run': '', 'log_filename': 'httpserver.log', 'args': [''], 'socket_timeout': 5, 'ssl_ca_certificate': None, 'scheduler': None, 'profiler_filename': None, 'ssl_private_key': '', 'password': '<ask>', 'request_queue_size': 5, 'ssl_certificate': '', 'cronjob': False, 'numthreads': None, 'quiet': False, 'interfaces': None, 'minthreads': None, 'timeout': 10, 'plain': False, 'nobanner': False}>"
p743
asbasbasbag69
(g85
g71
NtRp744
(dp745
g74
(dp746
sg83
g649
sg76
(lp747
g69
(g90
g71
NtRp748
(dp749
g74
(dp750
g94
g95
ssg83
g744
sg76
(lp751
S'db_sessions'
p752
asbag69
(g90
g71
NtRp753
(dp754
g74
(dp755
g101
g102
ssg83
g744
sg76
(lp756
S':'
asbag69
(g90
g71
NtRp757
(dp758
g74
(dp759
sg83
g744
sg76
(lp760
g69
(g70
g71
NtRp761
(dp762
g74
(dp763
g82
I4
ssg83
g757
sg76
(lp764
S'set([])'
p765
asbasbasbag69
(g85
g71
NtRp766
(dp767
g74
(dp768
sg83
g649
sg76
(lp769
g69
(g90
g71
NtRp770
(dp771
g74
(dp772
g94
g95
ssg83
g766
sg76
(lp773
S'debugging'
p774
asbag69
(g90
g71
NtRp775
(dp776
g74
(dp777
g101
g102
ssg83
g766
sg76
(lp778
S':'
asbag69
(g90
g71
NtRp779
(dp780
g74
(dp781
sg83
g766
sg76
(lp782
g69
(g70
g71
NtRp783
(dp784
g74
(dp785
g82
I4
ssg83
g779
sg76
(lp786
g112
asbasbasbag69
(g85
g71
NtRp787
(dp788
g74
(dp789
sg83
g649
sg76
(lp790
g69
(g90
g71
NtRp791
(dp792
g74
(dp793
g94
g95
ssg83
g787
sg76
(lp794
S'gluon_parent'
p795
asbag69
(g90
g71
NtRp796
(dp797
g74
(dp798
g101
g102
ssg83
g787
sg76
(lp799
S':'
asbag69
(g90
g71
NtRp800
(dp801
g74
(dp802
sg83
g787
sg76
(lp803
g69
(g70
g71
NtRp804
(dp805
g74
(dp806
g82
I4
ssg83
g800
sg76
(lp807
S'/home/maneesha/Downloads/web2py'
p808
asbasbasbag69
(g85
g71
NtRp809
(dp810
g74
(dp811
sg83
g649
sg76
(lp812
g69
(g90
g71
NtRp813
(dp814
g74
(dp815
g94
g95
ssg83
g809
sg76
(lp816
S'http_accept'
p817
asbag69
(g90
g71
NtRp818
(dp819
g74
(dp820
g101
g102
ssg83
g809
sg76
(lp821
S':'
asbag69
(g90
g71
NtRp822
(dp823
g74
(dp824
sg83
g809
sg76
(lp825
g69
(g70
g71
NtRp826
(dp827
g74
(dp828
g82
I4
ssg83
g822
sg76
(lp829
S'text/html,application/xhtml+xml,application/xml;q=0.9,*/*;q=0.8'
p830
asbasbasbag69
(g85
g71
NtRp831
(dp832
g74
(dp833
sg83
g649
sg76
(lp834
g69
(g90
g71
NtRp835
(dp836
g74
(dp837
g94
g95
ssg83
g831
sg76
(lp838
S'http_accept_encoding'
p839
asbag69
(g90
g71
NtRp840
(dp841
g74
(dp842
g101
g102
ssg83
g831
sg76
(lp843
S':'
asbag69
(g90
g71
NtRp844
(dp845
g74
(dp846
sg83
g831
sg76
(lp847
g69
(g70
g71
NtRp848
(dp849
g74
(dp850
g82
I4
ssg83
g844
sg76
(lp851
S'gzip, deflate'
p852
asbasbasbag69
(g85
g71
NtRp853
(dp854
g74
(dp855
sg83
g649
sg76
(lp856
g69
(g90
g71
NtRp857
(dp858
g74
(dp859
g94
g95
ssg83
g853
sg76
(lp860
S'http_accept_language'
p861
asbag69
(g90
g71
NtRp862
(dp863
g74
(dp864
g101
g102
ssg83
g853
sg76
(lp865
S':'
asbag69
(g90
g71
NtRp866
(dp867
g74
(dp868
sg83
g853
sg76
(lp869
g69
(g70
g71
NtRp870
(dp871
g74
(dp872
g82
I4
ssg83
g866
sg76
(lp873
S'en-us,en;q=0.5'
p874
asbasbasbag69
(g85
g71
NtRp875
(dp876
g74
(dp877
sg83
g649
sg76
(lp878
g69
(g90
g71
NtRp879
(dp880
g74
(dp881
g94
g95
ssg83
g875
sg76
(lp882
S'http_connection'
p883
asbag69
(g90
g71
NtRp884
(dp885
g74
(dp886
g101
g102
ssg83
g875
sg76
(lp887
S':'
asbag69
(g90
g71
NtRp888
(dp889
g74
(dp890
sg83
g875
sg76
(lp891
g69
(g70
g71
NtRp892
(dp893
g74
(dp894
g82
I4
ssg83
g888
sg76
(lp895
S'keep-alive'
p896
asbasbasbag69
(g85
g71
NtRp897
(dp898
g74
(dp899
sg83
g649
sg76
(lp900
g69
(g90
g71
NtRp901
(dp902
g74
(dp903
g94
g95
ssg83
g897
sg76
(lp904
S'http_cookie'
p905
asbag69
(g90
g71
NtRp906
(dp907
g74
(dp908
g101
g102
ssg83
g897
sg76
(lp909
S':'
asbag69
(g90
g71
NtRp910
(dp911
g74
(dp912
sg83
g897
sg76
(lp913
g69
(g70
g71
NtRp914
(dp915
g74
(dp916
g82
I4
ssg83
g910
sg76
(lp917
S'session_id_admin=127.0.0.1-84406fc8-7895-49df-bbfb-fd5cb8e6b109; session_id_ssad3=127.0.0.1-e3a92f58-1ef3-498d-a9bd-a71a58efdf97'
p918
asbasbasbag69
(g85
g71
NtRp919
(dp920
g74
(dp921
sg83
g649
sg76
(lp922
g69
(g90
g71
NtRp923
(dp924
g74
(dp925
g94
g95
ssg83
g919
sg76
(lp926
S'http_host'
p927
asbag69
(g90
g71
NtRp928
(dp929
g74
(dp930
g101
g102
ssg83
g919
sg76
(lp931
S':'
asbag69
(g90
g71
NtRp932
(dp933
g74
(dp934
sg83
g919
sg76
(lp935
g69
(g70
g71
NtRp936
(dp937
g74
(dp938
g82
I4
ssg83
g932
sg76
(lp939
S'127.0.0.1:8000'
p940
asbasbasbag69
(g85
g71
NtRp941
(dp942
g74
(dp943
sg83
g649
sg76
(lp944
g69
(g90
g71
NtRp945
(dp946
g74
(dp947
g94
g95
ssg83
g941
sg76
(lp948
S'http_referer'
p949
asbag69
(g90
g71
NtRp950
(dp951
g74
(dp952
g101
g102
ssg83
g941
sg76
(lp953
S':'
asbag69
(g90
g71
NtRp954
(dp955
g74
(dp956
sg83
g941
sg76
(lp957
g69
(g70
g71
NtRp958
(dp959
g74
(dp960
g82
I4
ssg83
g954
sg76
(lp961
S'http://127.0.0.1:8000/ssad3/default/index'
p962
asbasbasbag69
(g85
g71
NtRp963
(dp964
g74
(dp965
sg83
g649
sg76
(lp966
g69
(g90
g71
NtRp967
(dp968
g74
(dp969
g94
g95
ssg83
g963
sg76
(lp970
S'http_user_agent'
p971
asbag69
(g90
g71
NtRp972
(dp973
g74
(dp974
g101
g102
ssg83
g963
sg76
(lp975
S':'
asbag69
(g90
g71
NtRp976
(dp977
g74
(dp978
sg83
g963
sg76
(lp979
g69
(g70
g71
NtRp980
(dp981
g74
(dp982
g82
I4
ssg83
g976
sg76
(lp983
S'Mozilla/5.0 (X11; Ubuntu; Linux x86_64; rv:15.0) Gecko/20100101 Firefox/15.0.1'
p984
asbasbasbag69
(g85
g71
NtRp985
(dp986
g74
(dp987
sg83
g649
sg76
(lp988
g69
(g90
g71
NtRp989
(dp990
g74
(dp991
g94
g95
ssg83
g985
sg76
(lp992
S'is_jython'
p993
asbag69
(g90
g71
NtRp994
(dp995
g74
(dp996
g101
g102
ssg83
g985
sg76
(lp997
S':'
asbag69
(g90
g71
NtRp998
(dp999
g74
(dp1000
sg83
g985
sg76
(lp1001
g69
(g70
g71
NtRp1002
(dp1003
g74
(dp1004
g82
I4
ssg83
g998
sg76
(lp1005
g112
asbasbasbag69
(g85
g71
NtRp1006
(dp1007
g74
(dp1008
sg83
g649
sg76
(lp1009
g69
(g90
g71
NtRp1010
(dp1011
g74
(dp1012
g94
g95
ssg83
g1006
sg76
(lp1013
S'is_pypy'
p1014
asbag69
(g90
g71
NtRp1015
(dp1016
g74
(dp1017
g101
g102
ssg83
g1006
sg76
(lp1018
S':'
asbag69
(g90
g71
NtRp1019
(dp1020
g74
(dp1021
sg83
g1006
sg76
(lp1022
g69
(g70
g71
NtRp1023
(dp1024
g74
(dp1025
g82
I4
ssg83
g1019
sg76
(lp1026
g112
asbasbasbag69
(g85
g71
NtRp1027
(dp1028
g74
(dp1029
sg83
g649
sg76
(lp1030
g69
(g90
g71
NtRp1031
(dp1032
g74
(dp1033
g94
g95
ssg83
g1027
sg76
(lp1034
S'path_info'
p1035
asbag69
(g90
g71
NtRp1036
(dp1037
g74
(dp1038
g101
g102
ssg83
g1027
sg76
(lp1039
S':'
asbag69
(g90
g71
NtRp1040
(dp1041
g74
(dp1042
sg83
g1027
sg76
(lp1043
g69
(g70
g71
NtRp1044
(dp1045
g74
(dp1046
g82
I4
ssg83
g1040
sg76
(lp1047
S'/ssad3/default/final_ans'
p1048
asbasbasbag69
(g85
g71
NtRp1049
(dp1050
g74
(dp1051
sg83
g649
sg76
(lp1052
g69
(g90
g71
NtRp1053
(dp1054
g74
(dp1055
g94
g95
ssg83
g1049
sg76
(lp1056
S'query_string'
p1057
asbag69
(g90
g71
NtRp1058
(dp1059
g74
(dp1060
g101
g102
ssg83
g1049
sg76
(lp1061
S':'
asbag69
(g90
g71
NtRp1062
(dp1063
g74
(dp1064
sg83
g1049
sg76
(lp1065
g69
(g70
g71
NtRp1066
(dp1067
g74
(dp1068
g82
I4
ssg83
g1062
sg76
(lp1069
S''
asbasbasbag69
(g85
g71
NtRp1070
(dp1071
g74
(dp1072
sg83
g649
sg76
(lp1073
g69
(g90
g71
NtRp1074
(dp1075
g74
(dp1076
g94
g95
ssg83
g1070
sg76
(lp1077
S'remote_addr'
p1078
asbag69
(g90
g71
NtRp1079
(dp1080
g74
(dp1081
g101
g102
ssg83
g1070
sg76
(lp1082
S':'
asbag69
(g90
g71
NtRp1083
(dp1084
g74
(dp1085
sg83
g1070
sg76
(lp1086
g69
(g70
g71
NtRp1087
(dp1088
g74
(dp1089
g82
I4
ssg83
g1083
sg76
(lp1090
g202
asbasbasbag69
(g85
g71
NtRp1091
(dp1092
g74
(dp1093
sg83
g649
sg76
(lp1094
g69
(g90
g71
NtRp1095
(dp1096
g74
(dp1097
g94
g95
ssg83
g1091
sg76
(lp1098
S'remote_port'
p1099
asbag69
(g90
g71
NtRp1100
(dp1101
g74
(dp1102
g101
g102
ssg83
g1091
sg76
(lp1103
S':'
asbag69
(g90
g71
NtRp1104
(dp1105
g74
(dp1106
sg83
g1091
sg76
(lp1107
g69
(g70
g71
NtRp1108
(dp1109
g74
(dp1110
g82
I4
ssg83
g1104
sg76
(lp1111
S'49763'
p1112
asbasbasbag69
(g85
g71
NtRp1113
(dp1114
g74
(dp1115
sg83
g649
sg76
(lp1116
g69
(g90
g71
NtRp1117
(dp1118
g74
(dp1119
g94
g95
ssg83
g1113
sg76
(lp1120
S'request_method'
p1121
asbag69
(g90
g71
NtRp1122
(dp1123
g74
(dp1124
g101
g102
ssg83
g1113
sg76
(lp1125
S':'
asbag69
(g90
g71
NtRp1126
(dp1127
g74
(dp1128
sg83
g1113
sg76
(lp1129
g69
(g70
g71
NtRp1130
(dp1131
g74
(dp1132
g82
I4
ssg83
g1126
sg76
(lp1133
S'GET'
p1134
asbasbasbag69
(g85
g71
NtRp1135
(dp1136
g74
(dp1137
sg83
g649
sg76
(lp1138
g69
(g90
g71
NtRp1139
(dp1140
g74
(dp1141
g94
g95
ssg83
g1135
sg76
(lp1142
S'script_name'
p1143
asbag69
(g90
g71
NtRp1144
(dp1145
g74
(dp1146
g101
g102
ssg83
g1135
sg76
(lp1147
S':'
asbag69
(g90
g71
NtRp1148
(dp1149
g74
(dp1150
sg83
g1135
sg76
(lp1151
g69
(g70
g71
NtRp1152
(dp1153
g74
(dp1154
g82
I4
ssg83
g1148
sg76
(lp1155
S''
asbasbasbag69
(g85
g71
NtRp1156
(dp1157
g74
(dp1158
sg83
g649
sg76
(lp1159
g69
(g90
g71
NtRp1160
(dp1161
g74
(dp1162
g94
g95
ssg83
g1156
sg76
(lp1163
S'server_name'
p1164
asbag69
(g90
g71
NtRp1165
(dp1166
g74
(dp1167
g101
g102
ssg83
g1156
sg76
(lp1168
S':'
asbag69
(g90
g71
NtRp1169
(dp1170
g74
(dp1171
sg83
g1156
sg76
(lp1172
g69
(g70
g71
NtRp1173
(dp1174
g74
(dp1175
g82
I4
ssg83
g1169
sg76
(lp1176
S'maneesha-Inspiron-N5050'
p1177
asbasbasbag69
(g85
g71
NtRp1178
(dp1179
g74
(dp1180
sg83
g649
sg76
(lp1181
g69
(g90
g71
NtRp1182
(dp1183
g74
(dp1184
g94
g95
ssg83
g1178
sg76
(lp1185
S'server_port'
p1186
asbag69
(g90
g71
NtRp1187
(dp1188
g74
(dp1189
g101
g102
ssg83
g1178
sg76
(lp1190
S':'
asbag69
(g90
g71
NtRp1191
(dp1192
g74
(dp1193
sg83
g1178
sg76
(lp1194
g69
(g70
g71
NtRp1195
(dp1196
g74
(dp1197
g82
I4
ssg83
g1191
sg76
(lp1198
S'8000'
p1199
asbasbasbag69
(g85
g71
NtRp1200
(dp1201
g74
(dp1202
sg83
g649
sg76
(lp1203
g69
(g90
g71
NtRp1204
(dp1205
g74
(dp1206
g94
g95
ssg83
g1200
sg76
(lp1207
S'server_protocol'
p1208
asbag69
(g90
g71
NtRp1209
(dp1210
g74
(dp1211
g101
g102
ssg83
g1200
sg76
(lp1212
S':'
asbag69
(g90
g71
NtRp1213
(dp1214
g74
(dp1215
sg83
g1200
sg76
(lp1216
g69
(g70
g71
NtRp1217
(dp1218
g74
(dp1219
g82
I4
ssg83
g1213
sg76
(lp1220
S'HTTP/1.1'
p1221
asbasbasbag69
(g85
g71
NtRp1222
(dp1223
g74
(dp1224
sg83
g649
sg76
(lp1225
g69
(g90
g71
NtRp1226
(dp1227
g74
(dp1228
g94
g95
ssg83
g1222
sg76
(lp1229
S'server_software'
p1230
asbag69
(g90
g71
NtRp1231
(dp1232
g74
(dp1233
g101
g102
ssg83
g1222
sg76
(lp1234
S':'
asbag69
(g90
g71
NtRp1235
(dp1236
g74
(dp1237
sg83
g1222
sg76
(lp1238
g69
(g70
g71
NtRp1239
(dp1240
g74
(dp1241
g82
I4
ssg83
g1235
sg76
(lp1242
S'Rocket 1.2.4'
p1243
asbasbasbag69
(g85
g71
NtRp1244
(dp1245
g74
(dp1246
sg83
g649
sg76
(lp1247
g69
(g90
g71
NtRp1248
(dp1249
g74
(dp1250
g94
g95
ssg83
g1244
sg76
(lp1251
S'web2py_crontype'
p1252
asbag69
(g90
g71
NtRp1253
(dp1254
g74
(dp1255
g101
g102
ssg83
g1244
sg76
(lp1256
S':'
asbag69
(g90
g71
NtRp1257
(dp1258
g74
(dp1259
sg83
g1244
sg76
(lp1260
g69
(g70
g71
NtRp1261
(dp1262
g74
(dp1263
g82
I4
ssg83
g1257
sg76
(lp1264
S'hard'
p1265
asbasbasbag69
(g85
g71
NtRp1266
(dp1267
g74
(dp1268
sg83
g649
sg76
(lp1269
g69
(g90
g71
NtRp1270
(dp1271
g74
(dp1272
g94
g95
ssg83
g1266
sg76
(lp1273
S'web2py_path'
p1274
asbag69
(g90
g71
NtRp1275
(dp1276
g74
(dp1277
g101
g102
ssg83
g1266
sg76
(lp1278
S':'
asbag69
(g90
g71
NtRp1279
(dp1280
g74
(dp1281
sg83
g1266
sg76
(lp1282
g69
(g70
g71
NtRp1283
(dp1284
g74
(dp1285
g82
I4
ssg83
g1279
sg76
(lp1286
g696
asbasbasbag69
(g85
g71
NtRp1287
(dp1288
g74
(dp1289
sg83
g649
sg76
(lp1290
g69
(g90
g71
NtRp1291
(dp1292
g74
(dp1293
g94
g95
ssg83
g1287
sg76
(lp1294
S'web2py_version'
p1295
asbag69
(g90
g71
NtRp1296
(dp1297
g74
(dp1298
g101
g102
ssg83
g1287
sg76
(lp1299
S':'
asbag69
(g90
g71
NtRp1300
(dp1301
g74
(dp1302
sg83
g1287
sg76
(lp1303
g69
(g70
g71
NtRp1304
(dp1305
g74
(dp1306
g82
I4
ssg83
g1300
sg76
(lp1307
g69
(g78
g71
NtRp1308
(dp1309
g74
(dp1310
g82
I3
ssg83
Nsg76
(lp1311
g69
(g85
g71
NtRp1312
(dp1313
g74
(dp1314
sg83
g1308
sg76
(lp1315
g69
(g90
g71
NtRp1316
(dp1317
g74
(dp1318
sg83
g1312
sg76
(lp1319
g69
(g70
g71
NtRp1320
(dp1321
g74
(dp1322
g82
I3
ssg83
g1316
sg76
(lp1323
S'1'
asbasbasbag69
(g85
g71
NtRp1324
(dp1325
g74
(dp1326
sg83
g1308
sg76
(lp1327
g69
(g90
g71
NtRp1328
(dp1329
g74
(dp1330
sg83
g1324
sg76
(lp1331
g69
(g70
g71
NtRp1332
(dp1333
g74
(dp1334
g82
I3
ssg83
g1328
sg76
(lp1335
S'99'
p1336
asbasbasbag69
(g85
g71
NtRp1337
(dp1338
g74
(dp1339
sg83
g1308
sg76
(lp1340
g69
(g90
g71
NtRp1341
(dp1342
g74
(dp1343
sg83
g1337
sg76
(lp1344
g69
(g70
g71
NtRp1345
(dp1346
g74
(dp1347
g82
I3
ssg83
g1341
sg76
(lp1348
S'7'
asbasbasbag69
(g85
g71
NtRp1349
(dp1350
g74
(dp1351
sg83
g1308
sg76
(lp1352
g69
(g90
g71
NtRp1353
(dp1354
g74
(dp1355
sg83
g1349
sg76
(lp1356
g69
(g70
g71
NtRp1357
(dp1358
g74
(dp1359
g82
I3
ssg83
g1353
sg76
(lp1360
S'datetime.datetime(2012, 3, 4, 22, 12, 8)'
p1361
asbasbasbag69
(g85
g71
NtRp1362
(dp1363
g74
(dp1364
sg83
g1308
sg76
(lp1365
g69
(g90
g71
NtRp1366
(dp1367
g74
(dp1368
sg83
g1362
sg76
(lp1369
g69
(g70
g71
NtRp1370
(dp1371
g74
(dp1372
g82
I3
ssg83
g1366
sg76
(lp1373
S'stable'
p1374
asbasbasbasbasbasbasbag69
(g85
g71
NtRp1375
(dp1376
g74
(dp1377
sg83
g649
sg76
(lp1378
g69
(g90
g71
NtRp1379
(dp1380
g74
(dp1381
g94
g95
ssg83
g1375
sg76
(lp1382
S'wsgi_errors'
p1383
asbag69
(g90
g71
NtRp1384
(dp1385
g74
(dp1386
g101
g102
ssg83
g1375
sg76
(lp1387
S':'
asbag69
(g90
g71
NtRp1388
(dp1389
g74
(dp1390
sg83
g1375
sg76
(lp1391
g69
(g70
g71
NtRp1392
(dp1393
g74
(dp1394
g82
I4
ssg83
g1388
sg76
(lp1395
S"<open file '<stderr>', mode 'w' at 0x7f4a89324270>"
p1396
asbasbasbag69
(g85
g71
NtRp1397
(dp1398
g74
(dp1399
sg83
g649
sg76
(lp1400
g69
(g90
g71
NtRp1401
(dp1402
g74
(dp1403
g94
g95
ssg83
g1397
sg76
(lp1404
S'wsgi_file_wrapper'
p1405
asbag69
(g90
g71
NtRp1406
(dp1407
g74
(dp1408
g101
g102
ssg83
g1397
sg76
(lp1409
S':'
asbag69
(g90
g71
NtRp1410
(dp1411
g74
(dp1412
sg83
g1397
sg76
(lp1413
g69
(g70
g71
NtRp1414
(dp1415
g74
(dp1416
g82
I4
ssg83
g1410
sg76
(lp1417
S'<class wsgiref.util.FileWrapper at 0x124fd50>'
p1418
asbasbasbag69
(g85
g71
NtRp1419
(dp1420
g74
(dp1421
sg83
g649
sg76
(lp1422
g69
(g90
g71
NtRp1423
(dp1424
g74
(dp1425
g94
g95
ssg83
g1419
sg76
(lp1426
S'wsgi_input'
p1427
asbag69
(g90
g71
NtRp1428
(dp1429
g74
(dp1430
g101
g102
ssg83
g1419
sg76
(lp1431
S':'
asbag69
(g90
g71
NtRp1432
(dp1433
g74
(dp1434
sg83
g1419
sg76
(lp1435
g69
(g70
g71
NtRp1436
(dp1437
g74
(dp1438
g82
I4
ssg83
g1432
sg76
(lp1439
S'<socket._fileobject object at 0x7f4a640e57d0>'
p1440
asbasbasbag69
(g85
g71
NtRp1441
(dp1442
g74
(dp1443
sg83
g649
sg76
(lp1444
g69
(g90
g71
NtRp1445
(dp1446
g74
(dp1447
g94
g95
ssg83
g1441
sg76
(lp1448
S'wsgi_multiprocess'
p1449
asbag69
(g90
g71
NtRp1450
(dp1451
g74
(dp1452
g101
g102
ssg83
g1441
sg76
(lp1453
S':'
asbag69
(g90
g71
NtRp1454
(dp1455
g74
(dp1456
sg83
g1441
sg76
(lp1457
g69
(g70
g71
NtRp1458
(dp1459
g74
(dp1460
g82
I4
ssg83
g1454
sg76
(lp1461
g112
asbasbasbag69
(g85
g71
NtRp1462
(dp1463
g74
(dp1464
sg83
g649
sg76
(lp1465
g69
(g90
g71
NtRp1466
(dp1467
g74
(dp1468
g94
g95
ssg83
g1462
sg76
(lp1469
S'wsgi_multithread'
p1470
asbag69
(g90
g71
NtRp1471
(dp1472
g74
(dp1473
g101
g102
ssg83
g1462
sg76
(lp1474
S':'
asbag69
(g90
g71
NtRp1475
(dp1476
g74
(dp1477
sg83
g1462
sg76
(lp1478
g69
(g70
g71
NtRp1479
(dp1480
g74
(dp1481
g82
I4
ssg83
g1475
sg76
(lp1482
S'True'
p1483
asbasbasbag69
(g85
g71
NtRp1484
(dp1485
g74
(dp1486
sg83
g649
sg76
(lp1487
g69
(g90
g71
NtRp1488
(dp1489
g74
(dp1490
g94
g95
ssg83
g1484
sg76
(lp1491
S'wsgi_run_once'
p1492
asbag69
(g90
g71
NtRp1493
(dp1494
g74
(dp1495
g101
g102
ssg83
g1484
sg76
(lp1496
S':'
asbag69
(g90
g71
NtRp1497
(dp1498
g74
(dp1499
sg83
g1484
sg76
(lp1500
g69
(g70
g71
NtRp1501
(dp1502
g74
(dp1503
g82
I4
ssg83
g1497
sg76
(lp1504
g112
asbasbasbag69
(g85
g71
NtRp1505
(dp1506
g74
(dp1507
sg83
g649
sg76
(lp1508
g69
(g90
g71
NtRp1509
(dp1510
g74
(dp1511
g94
g95
ssg83
g1505
sg76
(lp1512
S'wsgi_url_scheme'
p1513
asbag69
(g90
g71
NtRp1514
(dp1515
g74
(dp1516
g101
g102
ssg83
g1505
sg76
(lp1517
S':'
asbag69
(g90
g71
NtRp1518
(dp1519
g74
(dp1520
sg83
g1505
sg76
(lp1521
g69
(g70
g71
NtRp1522
(dp1523
g74
(dp1524
g82
I4
ssg83
g1518
sg76
(lp1525
S'http'
p1526
asbasbasbag69
(g85
g71
NtRp1527
(dp1528
g74
(dp1529
sg83
g649
sg76
(lp1530
g69
(g90
g71
NtRp1531
(dp1532
g74
(dp1533
g94
g95
ssg83
g1527
sg76
(lp1534
S'wsgi_version'
p1535
asbag69
(g90
g71
NtRp1536
(dp1537
g74
(dp1538
g101
g102
ssg83
g1527
sg76
(lp1539
S':'
asbag69
(g90
g71
NtRp1540
(dp1541
g74
(dp1542
sg83
g1527
sg76
(lp1543
g69
(g70
g71
NtRp1544
(dp1545
g74
(dp1546
g82
I4
ssg83
g1540
sg76
(lp1547
g69
(g78
g71
NtRp1548
(dp1549
g74
(dp1550
g82
I3
ssg83
Nsg76
(lp1551
g69
(g85
g71
NtRp1552
(dp1553
g74
(dp1554
sg83
g1548
sg76
(lp1555
g69
(g90
g71
NtRp1556
(dp1557
g74
(dp1558
sg83
g1552
sg76
(lp1559
g69
(g70
g71
NtRp1560
(dp1561
g74
(dp1562
g82
I3
ssg83
g1556
sg76
(lp1563
S'1'
asbasbasbag69
(g85
g71
NtRp1564
(dp1565
g74
(dp1566
sg83
g1548
sg76
(lp1567
g69
(g90
g71
NtRp1568
(dp1569
g74
(dp1570
sg83
g1564
sg76
(lp1571
g69
(g70
g71
NtRp1572
(dp1573
g74
(dp1574
g82
I3
ssg83
g1568
sg76
(lp1575
S'0'
asbasbasbasbasbasbasbasbasbasbasbag69
(g85
g71
NtRp1576
(dp1577
g74
(dp1578
sg83
g79
sg76
(lp1579
g69
(g90
g71
NtRp1580
(dp1581
g74
(dp1582
g94
g95
ssg83
g1576
sg76
(lp1583
S'extension'
p1584
asbag69
(g90
g71
NtRp1585
(dp1586
g74
(dp1587
g101
g102
ssg83
g1576
sg76
(lp1588
S':'
asbag69
(g90
g71
NtRp1589
(dp1590
g74
(dp1591
sg83
g1576
sg76
(lp1592
g69
(g70
g71
NtRp1593
(dp1594
g74
(dp1595
g82
I5
ssg83
g1589
sg76
(lp1596
S'html'
p1597
asbasbasbag69
(g85
g71
NtRp1598
(dp1599
g74
(dp1600
sg83
g79
sg76
(lp1601
g69
(g90
g71
NtRp1602
(dp1603
g74
(dp1604
g94
g95
ssg83
g1598
sg76
(lp1605
S'folder'
p1606
asbag69
(g90
g71
NtRp1607
(dp1608
g74
(dp1609
g101
g102
ssg83
g1598
sg76
(lp1610
S':'
asbag69
(g90
g71
NtRp1611
(dp1612
g74
(dp1613
sg83
g1598
sg76
(lp1614
g69
(g70
g71
NtRp1615
(dp1616
g74
(dp1617
g82
I5
ssg83
g1611
sg76
(lp1618
S'/home/maneesha/Downloads/web2py/applications/ssad3/'
p1619
asbasbasbag69
(g85
g71
NtRp1620
(dp1621
g74
(dp1622
sg83
g79
sg76
(lp1623
g69
(g90
g71
NtRp1624
(dp1625
g74
(dp1626
g94
g95
ssg83
g1620
sg76
(lp1627
S'function'
p1628
asbag69
(g90
g71
NtRp1629
(dp1630
g74
(dp1631
g101
g102
ssg83
g1620
sg76
(lp1632
S':'
asbag69
(g90
g71
NtRp1633
(dp1634
g74
(dp1635
sg83
g1620
sg76
(lp1636
g69
(g70
g71
NtRp1637
(dp1638
g74
(dp1639
g82
I5
ssg83
g1633
sg76
(lp1640
S'final_ans'
p1641
asbasbasbag69
(g85
g71
NtRp1642
(dp1643
g74
(dp1644
sg83
g79
sg76
(lp1645
g69
(g90
g71
NtRp1646
(dp1647
g74
(dp1648
g94
g95
ssg83
g1642
sg76
(lp1649
S'get_vars'
p1650
asbag69
(g90
g71
NtRp1651
(dp1652
g74
(dp1653
g101
g102
ssg83
g1642
sg76
(lp1654
S':'
asbag69
(g90
g71
NtRp1655
(dp1656
g74
(dp1657
sg83
g1642
sg76
(lp1658
g69
(g70
g71
NtRp1659
(dp1660
g74
(dp1661
g82
I5
ssg83
g1655
sg76
(lp1662
g69
(g78
g71
NtRp1663
(dp1664
g74
(dp1665
g82
I4
ssg83
Nsg76
(lp1666
sbasbasbasbag69
(g85
g71
NtRp1667
(dp1668
g74
(dp1669
sg83
g79
sg76
(lp1670
g69
(g90
g71
NtRp1671
(dp1672
g74
(dp1673
g94
g95
ssg83
g1667
sg76
(lp1674
S'global_settings'
p1675
asbag69
(g90
g71
NtRp1676
(dp1677
g74
(dp1678
g101
g102
ssg83
g1667
sg76
(lp1679
S':'
asbag69
(g90
g71
NtRp1680
(dp1681
g74
(dp1682
sg83
g1667
sg76
(lp1683
g69
(g70
g71
NtRp1684
(dp1685
g74
(dp1686
g82
I5
ssg83
g1680
sg76
(lp1687
g69
(g78
g71
NtRp1688
(dp1689
g74
(dp1690
g82
I4
ssg83
Nsg76
(lp1691
g69
(g85
g71
NtRp1692
(dp1693
g74
(dp1694
sg83
g1688
sg76
(lp1695
g69
(g90
g71
NtRp1696
(dp1697
g74
(dp1698
g94
g95
ssg83
g1692
sg76
(lp1699
g661
asbag69
(g90
g71
NtRp1700
(dp1701
g74
(dp1702
g101
g102
ssg83
g1692
sg76
(lp1703
S':'
asbag69
(g90
g71
NtRp1704
(dp1705
g74
(dp1706
sg83
g1692
sg76
(lp1707
g69
(g70
g71
NtRp1708
(dp1709
g74
(dp1710
g82
I4
ssg83
g1704
sg76
(lp1711
S"set(['/home/maneesha/Downloads/web2py/applications/welcome/', '/home/maneesha/Downloads/web2py/applications/admin/', '/home/maneesha/Downloads/web2py/applications/ssad3/'])"
p1712
asbasbasbag69
(g85
g71
NtRp1713
(dp1714
g74
(dp1715
sg83
g1688
sg76
(lp1716
g69
(g90
g71
NtRp1717
(dp1718
g74
(dp1719
g94
g95
ssg83
g1713
sg76
(lp1720
g683
asbag69
(g90
g71
NtRp1721
(dp1722
g74
(dp1723
g101
g102
ssg83
g1713
sg76
(lp1724
S':'
asbag69
(g90
g71
NtRp1725
(dp1726
g74
(dp1727
sg83
g1713
sg76
(lp1728
g69
(g70
g71
NtRp1729
(dp1730
g74
(dp1731
g82
I4
ssg83
g1725
sg76
(lp1732
g696
asbasbasbag69
(g85
g71
NtRp1733
(dp1734
g74
(dp1735
sg83
g1688
sg76
(lp1736
g69
(g90
g71
NtRp1737
(dp1738
g74
(dp1739
g94
g95
ssg83
g1733
sg76
(lp1740
g705
asbag69
(g90
g71
NtRp1741
(dp1742
g74
(dp1743
g101
g102
ssg83
g1733
sg76
(lp1744
S':'
asbag69
(g90
g71
NtRp1745
(dp1746
g74
(dp1747
sg83
g1733
sg76
(lp1748
g69
(g70
g71
NtRp1749
(dp1750
g74
(dp1751
g82
I4
ssg83
g1745
sg76
(lp1752
g69
(g78
g71
NtRp1753
(dp1754
g74
(dp1755
g82
I3
ssg83
Nsg76
(lp1756
sbasbasbasbag69
(g85
g71
NtRp1757
(dp1758
g74
(dp1759
sg83
g1688
sg76
(lp1760
g69
(g90
g71
NtRp1761
(dp1762
g74
(dp1763
g94
g95
ssg83
g1757
sg76
(lp1764
g730
asbag69
(g90
g71
NtRp1765
(dp1766
g74
(dp1767
g101
g102
ssg83
g1757
sg76
(lp1768
S':'
asbag69
(g90
g71
NtRp1769
(dp1770
g74
(dp1771
sg83
g1757
sg76
(lp1772
g69
(g70
g71
NtRp1773
(dp1774
g74
(dp1775
g82
I4
ssg83
g1769
sg76
(lp1776
S"<Values at 0x137bb00: {'verbose': False, 'ip': '127.0.0.1', 'shutdown_timeout': 5, 'taskbar': False, 'nocron': False, 'pid_filename': 'httpserver.pid', 'maxthreads': None, 'softcron': False, 'server_name': 'maneesha-Inspiron-N5050', 'bpython': False, 'nogui': False, 'port': 8000, 'extcron': False, 'debuglevel': 30, 'test': None, 'folder': '/home/maneesha/Downloads/web2py', 'config': '', 'import_models': False, 'winservice': '', 'shell': None, 'run': '', 'log_filename': 'httpserver.log', 'args': [''], 'socket_timeout': 5, 'ssl_ca_certificate': None, 'scheduler': None, 'profiler_filename': None, 'ssl_private_key': '', 'password': '<ask>', 'request_queue_size': 5, 'ssl_certificate': '', 'cronjob': False, 'numthreads': None, 'quiet': False, 'interfaces': None, 'minthreads': None, 'timeout': 10, 'plain': False, 'nobanner': False}>"
p1777
asbasbasbag69
(g85
g71
NtRp1778
(dp1779
g74
(dp1780
sg83
g1688
sg76
(lp1781
g69
(g90
g71
NtRp1782
(dp1783
g74
(dp1784
g94
g95
ssg83
g1778
sg76
(lp1785
g752
asbag69
(g90
g71
NtRp1786
(dp1787
g74
(dp1788
g101
g102
ssg83
g1778
sg76
(lp1789
S':'
asbag69
(g90
g71
NtRp1790
(dp1791
g74
(dp1792
sg83
g1778
sg76
(lp1793
g69
(g70
g71
NtRp1794
(dp1795
g74
(dp1796
g82
I4
ssg83
g1790
sg76
(lp1797
S'set([])'
p1798
asbasbasbag69
(g85
g71
NtRp1799
(dp1800
g74
(dp1801
sg83
g1688
sg76
(lp1802
g69
(g90
g71
NtRp1803
(dp1804
g74
(dp1805
g94
g95
ssg83
g1799
sg76
(lp1806
g774
asbag69
(g90
g71
NtRp1807
(dp1808
g74
(dp1809
g101
g102
ssg83
g1799
sg76
(lp1810
S':'
asbag69
(g90
g71
NtRp1811
(dp1812
g74
(dp1813
sg83
g1799
sg76
(lp1814
g69
(g70
g71
NtRp1815
(dp1816
g74
(dp1817
g82
I4
ssg83
g1811
sg76
(lp1818
g112
asbasbasbag69
(g85
g71
NtRp1819
(dp1820
g74
(dp1821
sg83
g1688
sg76
(lp1822
g69
(g90
g71
NtRp1823
(dp1824
g74
(dp1825
g94
g95
ssg83
g1819
sg76
(lp1826
g795
asbag69
(g90
g71
NtRp1827
(dp1828
g74
(dp1829
g101
g102
ssg83
g1819
sg76
(lp1830
S':'
asbag69
(g90
g71
NtRp1831
(dp1832
g74
(dp1833
sg83
g1819
sg76
(lp1834
g69
(g70
g71
NtRp1835
(dp1836
g74
(dp1837
g82
I4
ssg83
g1831
sg76
(lp1838
g808
asbasbasbag69
(g85
g71
NtRp1839
(dp1840
g74
(dp1841
sg83
g1688
sg76
(lp1842
g69
(g90
g71
NtRp1843
(dp1844
g74
(dp1845
g94
g95
ssg83
g1839
sg76
(lp1846
g993
asbag69
(g90
g71
NtRp1847
(dp1848
g74
(dp1849
g101
g102
ssg83
g1839
sg76
(lp1850
S':'
asbag69
(g90
g71
NtRp1851
(dp1852
g74
(dp1853
sg83
g1839
sg76
(lp1854
g69
(g70
g71
NtRp1855
(dp1856
g74
(dp1857
g82
I4
ssg83
g1851
sg76
(lp1858
g112
asbasbasbag69
(g85
g71
NtRp1859
(dp1860
g74
(dp1861
sg83
g1688
sg76
(lp1862
g69
(g90
g71
NtRp1863
(dp1864
g74
(dp1865
g94
g95
ssg83
g1859
sg76
(lp1866
g1014
asbag69
(g90
g71
NtRp1867
(dp1868
g74
(dp1869
g101
g102
ssg83
g1859
sg76
(lp1870
S':'
asbag69
(g90
g71
NtRp1871
(dp1872
g74
(dp1873
sg83
g1859
sg76
(lp1874
g69
(g70
g71
NtRp1875
(dp1876
g74
(dp1877
g82
I4
ssg83
g1871
sg76
(lp1878
g112
asbasbasbag69
(g85
g71
NtRp1879
(dp1880
g74
(dp1881
sg83
g1688
sg76
(lp1882
g69
(g90
g71
NtRp1883
(dp1884
g74
(dp1885
g94
g95
ssg83
g1879
sg76
(lp1886
g1252
asbag69
(g90
g71
NtRp1887
(dp1888
g74
(dp1889
g101
g102
ssg83
g1879
sg76
(lp1890
S':'
asbag69
(g90
g71
NtRp1891
(dp1892
g74
(dp1893
sg83
g1879
sg76
(lp1894
g69
(g70
g71
NtRp1895
(dp1896
g74
(dp1897
g82
I4
ssg83
g1891
sg76
(lp1898
g1265
asbasbasbag69
(g85
g71
NtRp1899
(dp1900
g74
(dp1901
sg83
g1688
sg76
(lp1902
g69
(g90
g71
NtRp1903
(dp1904
g74
(dp1905
g94
g95
ssg83
g1899
sg76
(lp1906
g1295
asbag69
(g90
g71
NtRp1907
(dp1908
g74
(dp1909
g101
g102
ssg83
g1899
sg76
(lp1910
S':'
asbag69
(g90
g71
NtRp1911
(dp1912
g74
(dp1913
sg83
g1899
sg76
(lp1914
g69
(g70
g71
NtRp1915
(dp1916
g74
(dp1917
g82
I4
ssg83
g1911
sg76
(lp1918
g69
(g78
g71
NtRp1919
(dp1920
g74
(dp1921
g82
I3
ssg83
Nsg76
(lp1922
g69
(g85
g71
NtRp1923
(dp1924
g74
(dp1925
sg83
g1919
sg76
(lp1926
g69
(g90
g71
NtRp1927
(dp1928
g74
(dp1929
sg83
g1923
sg76
(lp1930
g69
(g70
g71
NtRp1931
(dp1932
g74
(dp1933
g82
I3
ssg83
g1927
sg76
(lp1934
S'1'
asbasbasbag69
(g85
g71
NtRp1935
(dp1936
g74
(dp1937
sg83
g1919
sg76
(lp1938
g69
(g90
g71
NtRp1939
(dp1940
g74
(dp1941
sg83
g1935
sg76
(lp1942
g69
(g70
g71
NtRp1943
(dp1944
g74
(dp1945
g82
I3
ssg83
g1939
sg76
(lp1946
S'99'
p1947
asbasbasbag69
(g85
g71
NtRp1948
(dp1949
g74
(dp1950
sg83
g1919
sg76
(lp1951
g69
(g90
g71
NtRp1952
(dp1953
g74
(dp1954
sg83
g1948
sg76
(lp1955
g69
(g70
g71
NtRp1956
(dp1957
g74
(dp1958
g82
I3
ssg83
g1952
sg76
(lp1959
S'7'
asbasbasbag69
(g85
g71
NtRp1960
(dp1961
g74
(dp1962
sg83
g1919
sg76
(lp1963
g69
(g90
g71
NtRp1964
(dp1965
g74
(dp1966
sg83
g1960
sg76
(lp1967
g69
(g70
g71
NtRp1968
(dp1969
g74
(dp1970
g82
I3
ssg83
g1964
sg76
(lp1971
S'datetime.datetime(2012, 3, 4, 22, 12, 8)'
p1972
asbasbasbag69
(g85
g71
NtRp1973
(dp1974
g74
(dp1975
sg83
g1919
sg76
(lp1976
g69
(g90
g71
NtRp1977
(dp1978
g74
(dp1979
sg83
g1973
sg76
(lp1980
g69
(g70
g71
NtRp1981
(dp1982
g74
(dp1983
g82
I3
ssg83
g1977
sg76
(lp1984
g1374
asbasbasbasbasbasbasbasbasbasbasbag69
(g85
g71
NtRp1985
(dp1986
g74
(dp1987
sg83
g79
sg76
(lp1988
g69
(g90
g71
NtRp1989
(dp1990
g74
(dp1991
g94
g95
ssg83
g1985
sg76
(lp1992
S'is_https'
p1993
asbag69
(g90
g71
NtRp1994
(dp1995
g74
(dp1996
g101
g102
ssg83
g1985
sg76
(lp1997
S':'
asbag69
(g90
g71
NtRp1998
(dp1999
g74
(dp2000
sg83
g1985
sg76
(lp2001
g69
(g70
g71
NtRp2002
(dp2003
g74
(dp2004
g82
I5
ssg83
g1998
sg76
(lp2005
g112
asbasbasbag69
(g85
g71
NtRp2006
(dp2007
g74
(dp2008
sg83
g79
sg76
(lp2009
g69
(g90
g71
NtRp2010
(dp2011
g74
(dp2012
g94
g95
ssg83
g2006
sg76
(lp2013
S'is_local'
p2014
asbag69
(g90
g71
NtRp2015
(dp2016
g74
(dp2017
g101
g102
ssg83
g2006
sg76
(lp2018
S':'
asbag69
(g90
g71
NtRp2019
(dp2020
g74
(dp2021
sg83
g2006
sg76
(lp2022
g69
(g70
g71
NtRp2023
(dp2024
g74
(dp2025
g82
I5
ssg83
g2019
sg76
(lp2026
g1483
asbasbasbag69
(g85
g71
NtRp2027
(dp2028
g74
(dp2029
sg83
g79
sg76
(lp2030
g69
(g90
g71
NtRp2031
(dp2032
g74
(dp2033
g94
g95
ssg83
g2027
sg76
(lp2034
S'is_restful'
p2035
asbag69
(g90
g71
NtRp2036
(dp2037
g74
(dp2038
g101
g102
ssg83
g2027
sg76
(lp2039
S':'
asbag69
(g90
g71
NtRp2040
(dp2041
g74
(dp2042
sg83
g2027
sg76
(lp2043
g69
(g70
g71
NtRp2044
(dp2045
g74
(dp2046
g82
I5
ssg83
g2040
sg76
(lp2047
g112
asbasbasbag69
(g85
g71
NtRp2048
(dp2049
g74
(dp2050
sg83
g79
sg76
(lp2051
g69
(g90
g71
NtRp2052
(dp2053
g74
(dp2054
g94
g95
ssg83
g2048
sg76
(lp2055
S'now'
p2056
asbag69
(g90
g71
NtRp2057
(dp2058
g74
(dp2059
g101
g102
ssg83
g2048
sg76
(lp2060
S':'
asbag69
(g90
g71
NtRp2061
(dp2062
g74
(dp2063
sg83
g2048
sg76
(lp2064
g69
(g70
g71
NtRp2065
(dp2066
g74
(dp2067
g82
I5
ssg83
g2061
sg76
(lp2068
S'datetime.datetime(2012, 10, 15, 13, 53, 34, 476250)'
p2069
asbasbasbag69
(g85
g71
NtRp2070
(dp2071
g74
(dp2072
sg83
g79
sg76
(lp2073
g69
(g90
g71
NtRp2074
(dp2075
g74
(dp2076
g94
g95
ssg83
g2070
sg76
(lp2077
S'post_vars'
p2078
asbag69
(g90
g71
NtRp2079
(dp2080
g74
(dp2081
g101
g102
ssg83
g2070
sg76
(lp2082
S':'
asbag69
(g90
g71
NtRp2083
(dp2084
g74
(dp2085
sg83
g2070
sg76
(lp2086
g69
(g70
g71
NtRp2087
(dp2088
g74
(dp2089
g82
I5
ssg83
g2083
sg76
(lp2090
g69
(g78
g71
NtRp2091
(dp2092
g74
(dp2093
g82
I4
ssg83
Nsg76
(lp2094
sbasbasbasbag69
(g85
g71
NtRp2095
(dp2096
g74
(dp2097
sg83
g79
sg76
(lp2098
g69
(g90
g71
NtRp2099
(dp2100
g74
(dp2101
g94
g95
ssg83
g2095
sg76
(lp2102
S'url'
p2103
asbag69
(g90
g71
NtRp2104
(dp2105
g74
(dp2106
g101
g102
ssg83
g2095
sg76
(lp2107
S':'
asbag69
(g90
g71
NtRp2108
(dp2109
g74
(dp2110
sg83
g2095
sg76
(lp2111
g69
(g70
g71
NtRp2112
(dp2113
g74
(dp2114
g82
I5
ssg83
g2108
sg76
(lp2115
S'/ssad3/default/final_ans'
p2116
asbasbasbag69
(g85
g71
NtRp2117
(dp2118
g74
(dp2119
sg83
g79
sg76
(lp2120
g69
(g90
g71
NtRp2121
(dp2122
g74
(dp2123
g94
g95
ssg83
g2117
sg76
(lp2124
S'utcnow'
p2125
asbag69
(g90
g71
NtRp2126
(dp2127
g74
(dp2128
g101
g102
ssg83
g2117
sg76
(lp2129
S':'
asbag69
(g90
g71
NtRp2130
(dp2131
g74
(dp2132
sg83
g2117
sg76
(lp2133
g69
(g70
g71
NtRp2134
(dp2135
g74
(dp2136
g82
I5
ssg83
g2130
sg76
(lp2137
S'datetime.datetime(2012, 10, 15, 8, 23, 34, 476274)'
p2138
asbasbasbag69
(g85
g71
NtRp2139
(dp2140
g74
(dp2141
sg83
g79
sg76
(lp2142
g69
(g90
g71
NtRp2143
(dp2144
g74
(dp2145
g94
g95
ssg83
g2139
sg76
(lp2146
S'uuid'
p2147
asbag69
(g90
g71
NtRp2148
(dp2149
g74
(dp2150
g101
g102
ssg83
g2139
sg76
(lp2151
S':'
asbag69
(g90
g71
NtRp2152
(dp2153
g74
(dp2154
sg83
g2139
sg76
(lp2155
g69
(g70
g71
NtRp2156
(dp2157
g74
(dp2158
g82
I5
ssg83
g2152
sg76
(lp2159
S'ssad3/127.0.0.1.2012-10-15.13-53-34.d7497788-e2d1-4588-9729-968fe9b51ac3'
p2160
asbasbasbag69
(g85
g71
NtRp2161
(dp2162
g74
(dp2163
sg83
g79
sg76
(lp2164
g69
(g90
g71
NtRp2165
(dp2166
g74
(dp2167
g94
g95
ssg83
g2161
sg76
(lp2168
S'vars'
p2169
asbag69
(g90
g71
NtRp2170
(dp2171
g74
(dp2172
g101
g102
ssg83
g2161
sg76
(lp2173
S':'
asbag69
(g90
g71
NtRp2174
(dp2175
g74
(dp2176
sg83
g2161
sg76
(lp2177
g69
(g70
g71
NtRp2178
(dp2179
g74
(dp2180
g82
I5
ssg83
g2174
sg76
(lp2181
g69
(g78
g71
NtRp2182
(dp2183
g74
(dp2184
g82
I4
ssg83
Nsg76
(lp2185
sbasbasbasbag69
(g85
g71
NtRp2186
(dp2187
g74
(dp2188
sg83
g79
sg76
(lp2189
g69
(g90
g71
NtRp2190
(dp2191
g74
(dp2192
g94
g95
ssg83
g2186
sg76
(lp2193
S'wsgi'
p2194
asbag69
(g90
g71
NtRp2195
(dp2196
g74
(dp2197
g101
g102
ssg83
g2186
sg76
(lp2198
S':'
asbag69
(g90
g71
NtRp2199
(dp2200
g74
(dp2201
sg83
g2186
sg76
(lp2202
g69
(g70
g71
NtRp2203
(dp2204
g74
(dp2205
g82
I5
ssg83
g2199
sg76
(lp2206
g69
(g78
g71
NtRp2207
(dp2208
g74
(dp2209
g82
I4
ssg83
Nsg76
(lp2210
g69
(g85
g71
NtRp2211
(dp2212
g74
(dp2213
sg83
g2207
sg76
(lp2214
g69
(g90
g71
NtRp2215
(dp2216
g74
(dp2217
g94
g95
ssg83
g2211
sg76
(lp2218
S'environ'
p2219
asbag69
(g90
g71
NtRp2220
(dp2221
g74
(dp2222
g101
g102
ssg83
g2211
sg76
(lp2223
S':'
asbag69
(g90
g71
NtRp2224
(dp2225
g74
(dp2226
sg83
g2211
sg76
(lp2227
g69
(g70
g71
NtRp2228
(dp2229
g74
(dp2230
g82
I4
ssg83
g2224
sg76
(lp2231
g69
(g78
g71
NtRp2232
(dp2233
g74
(dp2234
g82
I3
ssg83
Nsg76
(lp2235
g69
(g85
g71
NtRp2236
(dp2237
g74
(dp2238
sg83
g2232
sg76
(lp2239
g69
(g90
g71
NtRp2240
(dp2241
g74
(dp2242
g94
g95
ssg83
g2236
sg76
(lp2243
S'HTTP_ACCEPT'
p2244
asbag69
(g90
g71
NtRp2245
(dp2246
g74
(dp2247
g101
g102
ssg83
g2236
sg76
(lp2248
S':'
asbag69
(g90
g71
NtRp2249
(dp2250
g74
(dp2251
sg83
g2236
sg76
(lp2252
g69
(g70
g71
NtRp2253
(dp2254
g74
(dp2255
g82
I3
ssg83
g2249
sg76
(lp2256
g830
asbasbasbag69
(g85
g71
NtRp2257
(dp2258
g74
(dp2259
sg83
g2232
sg76
(lp2260
g69
(g90
g71
NtRp2261
(dp2262
g74
(dp2263
g94
g95
ssg83
g2257
sg76
(lp2264
S'HTTP_ACCEPT_ENCODING'
p2265
asbag69
(g90
g71
NtRp2266
(dp2267
g74
(dp2268
g101
g102
ssg83
g2257
sg76
(lp2269
S':'
asbag69
(g90
g71
NtRp2270
(dp2271
g74
(dp2272
sg83
g2257
sg76
(lp2273
g69
(g70
g71
NtRp2274
(dp2275
g74
(dp2276
g82
I3
ssg83
g2270
sg76
(lp2277
g852
asbasbasbag69
(g85
g71
NtRp2278
(dp2279
g74
(dp2280
sg83
g2232
sg76
(lp2281
g69
(g90
g71
NtRp2282
(dp2283
g74
(dp2284
g94
g95
ssg83
g2278
sg76
(lp2285
S'HTTP_ACCEPT_LANGUAGE'
p2286
asbag69
(g90
g71
NtRp2287
(dp2288
g74
(dp2289
g101
g102
ssg83
g2278
sg76
(lp2290
S':'
asbag69
(g90
g71
NtRp2291
(dp2292
g74
(dp2293
sg83
g2278
sg76
(lp2294
g69
(g70
g71
NtRp2295
(dp2296
g74
(dp2297
g82
I3
ssg83
g2291
sg76
(lp2298
g874
asbasbasbag69
(g85
g71
NtRp2299
(dp2300
g74
(dp2301
sg83
g2232
sg76
(lp2302
g69
(g90
g71
NtRp2303
(dp2304
g74
(dp2305
g94
g95
ssg83
g2299
sg76
(lp2306
S'HTTP_CONNECTION'
p2307
asbag69
(g90
g71
NtRp2308
(dp2309
g74
(dp2310
g101
g102
ssg83
g2299
sg76
(lp2311
S':'
asbag69
(g90
g71
NtRp2312
(dp2313
g74
(dp2314
sg83
g2299
sg76
(lp2315
g69
(g70
g71
NtRp2316
(dp2317
g74
(dp2318
g82
I3
ssg83
g2312
sg76
(lp2319
g896
asbasbasbag69
(g85
g71
NtRp2320
(dp2321
g74
(dp2322
sg83
g2232
sg76
(lp2323
g69
(g90
g71
NtRp2324
(dp2325
g74
(dp2326
g94
g95
ssg83
g2320
sg76
(lp2327
S'HTTP_COOKIE'
p2328
asbag69
(g90
g71
NtRp2329
(dp2330
g74
(dp2331
g101
g102
ssg83
g2320
sg76
(lp2332
S':'
asbag69
(g90
g71
NtRp2333
(dp2334
g74
(dp2335
sg83
g2320
sg76
(lp2336
g69
(g70
g71
NtRp2337
(dp2338
g74
(dp2339
g82
I3
ssg83
g2333
sg76
(lp2340
g918
asbasbasbag69
(g85
g71
NtRp2341
(dp2342
g74
(dp2343
sg83
g2232
sg76
(lp2344
g69
(g90
g71
NtRp2345
(dp2346
g74
(dp2347
g94
g95
ssg83
g2341
sg76
(lp2348
S'HTTP_HOST'
p2349
asbag69
(g90
g71
NtRp2350
(dp2351
g74
(dp2352
g101
g102
ssg83
g2341
sg76
(lp2353
S':'
asbag69
(g90
g71
NtRp2354
(dp2355
g74
(dp2356
sg83
g2341
sg76
(lp2357
g69
(g70
g71
NtRp2358
(dp2359
g74
(dp2360
g82
I3
ssg83
g2354
sg76
(lp2361
g940
asbasbasbag69
(g85
g71
NtRp2362
(dp2363
g74
(dp2364
sg83
g2232
sg76
(lp2365
g69
(g90
g71
NtRp2366
(dp2367
g74
(dp2368
g94
g95
ssg83
g2362
sg76
(lp2369
S'HTTP_REFERER'
p2370
asbag69
(g90
g71
NtRp2371
(dp2372
g74
(dp2373
g101
g102
ssg83
g2362
sg76
(lp2374
S':'
asbag69
(g90
g71
NtRp2375
(dp2376
g74
(dp2377
sg83
g2362
sg76
(lp2378
g69
(g70
g71
NtRp2379
(dp2380
g74
(dp2381
g82
I3
ssg83
g2375
sg76
(lp2382
g962
asbasbasbag69
(g85
g71
NtRp2383
(dp2384
g74
(dp2385
sg83
g2232
sg76
(lp2386
g69
(g90
g71
NtRp2387
(dp2388
g74
(dp2389
g94
g95
ssg83
g2383
sg76
(lp2390
S'HTTP_USER_AGENT'
p2391
asbag69
(g90
g71
NtRp2392
(dp2393
g74
(dp2394
g101
g102
ssg83
g2383
sg76
(lp2395
S':'
asbag69
(g90
g71
NtRp2396
(dp2397
g74
(dp2398
sg83
g2383
sg76
(lp2399
g69
(g70
g71
NtRp2400
(dp2401
g74
(dp2402
g82
I3
ssg83
g2396
sg76
(lp2403
g984
asbasbasbag69
(g85
g71
NtRp2404
(dp2405
g74
(dp2406
sg83
g2232
sg76
(lp2407
g69
(g90
g71
NtRp2408
(dp2409
g74
(dp2410
g94
g95
ssg83
g2404
sg76
(lp2411
S'PATH_INFO'
p2412
asbag69
(g90
g71
NtRp2413
(dp2414
g74
(dp2415
g101
g102
ssg83
g2404
sg76
(lp2416
S':'
asbag69
(g90
g71
NtRp2417
(dp2418
g74
(dp2419
sg83
g2404
sg76
(lp2420
g69
(g70
g71
NtRp2421
(dp2422
g74
(dp2423
g82
I3
ssg83
g2417
sg76
(lp2424
g1048
asbasbasbag69
(g85
g71
NtRp2425
(dp2426
g74
(dp2427
sg83
g2232
sg76
(lp2428
g69
(g90
g71
NtRp2429
(dp2430
g74
(dp2431
g94
g95
ssg83
g2425
sg76
(lp2432
S'QUERY_STRING'
p2433
asbag69
(g90
g71
NtRp2434
(dp2435
g74
(dp2436
g101
g102
ssg83
g2425
sg76
(lp2437
S':'
asbag69
(g90
g71
NtRp2438
(dp2439
g74
(dp2440
sg83
g2425
sg76
(lp2441
g69
(g70
g71
NtRp2442
(dp2443
g74
(dp2444
g82
I3
ssg83
g2438
sg76
(lp2445
S''
asbasbasbag69
(g85
g71
NtRp2446
(dp2447
g74
(dp2448
sg83
g2232
sg76
(lp2449
g69
(g90
g71
NtRp2450
(dp2451
g74
(dp2452
g94
g95
ssg83
g2446
sg76
(lp2453
S'REMOTE_ADDR'
p2454
asbag69
(g90
g71
NtRp2455
(dp2456
g74
(dp2457
g101
g102
ssg83
g2446
sg76
(lp2458
S':'
asbag69
(g90
g71
NtRp2459
(dp2460
g74
(dp2461
sg83
g2446
sg76
(lp2462
g69
(g70
g71
NtRp2463
(dp2464
g74
(dp2465
g82
I3
ssg83
g2459
sg76
(lp2466
g202
asbasbasbag69
(g85
g71
NtRp2467
(dp2468
g74
(dp2469
sg83
g2232
sg76
(lp2470
g69
(g90
g71
NtRp2471
(dp2472
g74
(dp2473
g94
g95
ssg83
g2467
sg76
(lp2474
S'REMOTE_PORT'
p2475
asbag69
(g90
g71
NtRp2476
(dp2477
g74
(dp2478
g101
g102
ssg83
g2467
sg76
(lp2479
S':'
asbag69
(g90
g71
NtRp2480
(dp2481
g74
(dp2482
sg83
g2467
sg76
(lp2483
g69
(g70
g71
NtRp2484
(dp2485
g74
(dp2486
g82
I3
ssg83
g2480
sg76
(lp2487
g1112
asbasbasbag69
(g85
g71
NtRp2488
(dp2489
g74
(dp2490
sg83
g2232
sg76
(lp2491
g69
(g90
g71
NtRp2492
(dp2493
g74
(dp2494
g94
g95
ssg83
g2488
sg76
(lp2495
S'REQUEST_METHOD'
p2496
asbag69
(g90
g71
NtRp2497
(dp2498
g74
(dp2499
g101
g102
ssg83
g2488
sg76
(lp2500
S':'
asbag69
(g90
g71
NtRp2501
(dp2502
g74
(dp2503
sg83
g2488
sg76
(lp2504
g69
(g70
g71
NtRp2505
(dp2506
g74
(dp2507
g82
I3
ssg83
g2501
sg76
(lp2508
g1134
asbasbasbag69
(g85
g71
NtRp2509
(dp2510
g74
(dp2511
sg83
g2232
sg76
(lp2512
g69
(g90
g71
NtRp2513
(dp2514
g74
(dp2515
g94
g95
ssg83
g2509
sg76
(lp2516
S'SCRIPT_NAME'
p2517
asbag69
(g90
g71
NtRp2518
(dp2519
g74
(dp2520
g101
g102
ssg83
g2509
sg76
(lp2521
S':'
asbag69
(g90
g71
NtRp2522
(dp2523
g74
(dp2524
sg83
g2509
sg76
(lp2525
g69
(g70
g71
NtRp2526
(dp2527
g74
(dp2528
g82
I3
ssg83
g2522
sg76
(lp2529
S''
asbasbasbag69
(g85
g71
NtRp2530
(dp2531
g74
(dp2532
sg83
g2232
sg76
(lp2533
g69
(g90
g71
NtRp2534
(dp2535
g74
(dp2536
g94
g95
ssg83
g2530
sg76
(lp2537
S'SERVER_NAME'
p2538
asbag69
(g90
g71
NtRp2539
(dp2540
g74
(dp2541
g101
g102
ssg83
g2530
sg76
(lp2542
S':'
asbag69
(g90
g71
NtRp2543
(dp2544
g74
(dp2545
sg83
g2530
sg76
(lp2546
g69
(g70
g71
NtRp2547
(dp2548
g74
(dp2549
g82
I3
ssg83
g2543
sg76
(lp2550
g1177
asbasbasbag69
(g85
g71
NtRp2551
(dp2552
g74
(dp2553
sg83
g2232
sg76
(lp2554
g69
(g90
g71
NtRp2555
(dp2556
g74
(dp2557
g94
g95
ssg83
g2551
sg76
(lp2558
S'SERVER_PORT'
p2559
asbag69
(g90
g71
NtRp2560
(dp2561
g74
(dp2562
g101
g102
ssg83
g2551
sg76
(lp2563
S':'
asbag69
(g90
g71
NtRp2564
(dp2565
g74
(dp2566
sg83
g2551
sg76
(lp2567
g69
(g70
g71
NtRp2568
(dp2569
g74
(dp2570
g82
I3
ssg83
g2564
sg76
(lp2571
g1199
asbasbasbag69
(g85
g71
NtRp2572
(dp2573
g74
(dp2574
sg83
g2232
sg76
(lp2575
g69
(g90
g71
NtRp2576
(dp2577
g74
(dp2578
g94
g95
ssg83
g2572
sg76
(lp2579
S'SERVER_PROTOCOL'
p2580
asbag69
(g90
g71
NtRp2581
(dp2582
g74
(dp2583
g101
g102
ssg83
g2572
sg76
(lp2584
S':'
asbag69
(g90
g71
NtRp2585
(dp2586
g74
(dp2587
sg83
g2572
sg76
(lp2588
g69
(g70
g71
NtRp2589
(dp2590
g74
(dp2591
g82
I3
ssg83
g2585
sg76
(lp2592
g1221
asbasbasbag69
(g85
g71
NtRp2593
(dp2594
g74
(dp2595
sg83
g2232
sg76
(lp2596
g69
(g90
g71
NtRp2597
(dp2598
g74
(dp2599
g94
g95
ssg83
g2593
sg76
(lp2600
S'SERVER_SOFTWARE'
p2601
asbag69
(g90
g71
NtRp2602
(dp2603
g74
(dp2604
g101
g102
ssg83
g2593
sg76
(lp2605
S':'
asbag69
(g90
g71
NtRp2606
(dp2607
g74
(dp2608
sg83
g2593
sg76
(lp2609
g69
(g70
g71
NtRp2610
(dp2611
g74
(dp2612
g82
I3
ssg83
g2606
sg76
(lp2613
g1243
asbasbasbag69
(g85
g71
NtRp2614
(dp2615
g74
(dp2616
sg83
g2232
sg76
(lp2617
g69
(g90
g71
NtRp2618
(dp2619
g74
(dp2620
g94
g95
ssg83
g2614
sg76
(lp2621
S'wsgi.errors'
p2622
asbag69
(g90
g71
NtRp2623
(dp2624
g74
(dp2625
g101
g102
ssg83
g2614
sg76
(lp2626
S':'
asbag69
(g90
g71
NtRp2627
(dp2628
g74
(dp2629
sg83
g2614
sg76
(lp2630
g69
(g70
g71
NtRp2631
(dp2632
g74
(dp2633
g82
I3
ssg83
g2627
sg76
(lp2634
S"<open file '<stderr>', mode 'w' at 0x7f4a89324270>"
p2635
asbasbasbag69
(g85
g71
NtRp2636
(dp2637
g74
(dp2638
sg83
g2232
sg76
(lp2639
g69
(g90
g71
NtRp2640
(dp2641
g74
(dp2642
g94
g95
ssg83
g2636
sg76
(lp2643
S'wsgi.file_wrapper'
p2644
asbag69
(g90
g71
NtRp2645
(dp2646
g74
(dp2647
g101
g102
ssg83
g2636
sg76
(lp2648
S':'
asbag69
(g90
g71
NtRp2649
(dp2650
g74
(dp2651
sg83
g2636
sg76
(lp2652
g69
(g70
g71
NtRp2653
(dp2654
g74
(dp2655
g82
I3
ssg83
g2649
sg76
(lp2656
S'<class wsgiref.util.FileWrapper at 0x124fd50>'
p2657
asbasbasbag69
(g85
g71
NtRp2658
(dp2659
g74
(dp2660
sg83
g2232
sg76
(lp2661
g69
(g90
g71
NtRp2662
(dp2663
g74
(dp2664
g94
g95
ssg83
g2658
sg76
(lp2665
S'wsgi.input'
p2666
asbag69
(g90
g71
NtRp2667
(dp2668
g74
(dp2669
g101
g102
ssg83
g2658
sg76
(lp2670
S':'
asbag69
(g90
g71
NtRp2671
(dp2672
g74
(dp2673
sg83
g2658
sg76
(lp2674
g69
(g70
g71
NtRp2675
(dp2676
g74
(dp2677
g82
I3
ssg83
g2671
sg76
(lp2678
S'<cStringIO.StringO object at 0x7f4a640f52d0>'
p2679
asbasbasbag69
(g85
g71
NtRp2680
(dp2681
g74
(dp2682
sg83
g2232
sg76
(lp2683
g69
(g90
g71
NtRp2684
(dp2685
g74
(dp2686
g94
g95
ssg83
g2680
sg76
(lp2687
S'wsgi.multiprocess'
p2688
asbag69
(g90
g71
NtRp2689
(dp2690
g74
(dp2691
g101
g102
ssg83
g2680
sg76
(lp2692
S':'
asbag69
(g90
g71
NtRp2693
(dp2694
g74
(dp2695
sg83
g2680
sg76
(lp2696
g69
(g70
g71
NtRp2697
(dp2698
g74
(dp2699
g82
I3
ssg83
g2693
sg76
(lp2700
g112
asbasbasbag69
(g85
g71
NtRp2701
(dp2702
g74
(dp2703
sg83
g2232
sg76
(lp2704
g69
(g90
g71
NtRp2705
(dp2706
g74
(dp2707
g94
g95
ssg83
g2701
sg76
(lp2708
S'wsgi.multithread'
p2709
asbag69
(g90
g71
NtRp2710
(dp2711
g74
(dp2712
g101
g102
ssg83
g2701
sg76
(lp2713
S':'
asbag69
(g90
g71
NtRp2714
(dp2715
g74
(dp2716
sg83
g2701
sg76
(lp2717
g69
(g70
g71
NtRp2718
(dp2719
g74
(dp2720
g82
I3
ssg83
g2714
sg76
(lp2721
g1483
asbasbasbag69
(g85
g71
NtRp2722
(dp2723
g74
(dp2724
sg83
g2232
sg76
(lp2725
g69
(g90
g71
NtRp2726
(dp2727
g74
(dp2728
g94
g95
ssg83
g2722
sg76
(lp2729
S'wsgi.run_once'
p2730
asbag69
(g90
g71
NtRp2731
(dp2732
g74
(dp2733
g101
g102
ssg83
g2722
sg76
(lp2734
S':'
asbag69
(g90
g71
NtRp2735
(dp2736
g74
(dp2737
sg83
g2722
sg76
(lp2738
g69
(g70
g71
NtRp2739
(dp2740
g74
(dp2741
g82
I3
ssg83
g2735
sg76
(lp2742
g112
asbasbasbag69
(g85
g71
NtRp2743
(dp2744
g74
(dp2745
sg83
g2232
sg76
(lp2746
g69
(g90
g71
NtRp2747
(dp2748
g74
(dp2749
g94
g95
ssg83
g2743
sg76
(lp2750
S'wsgi.url_scheme'
p2751
asbag69
(g90
g71
NtRp2752
(dp2753
g74
(dp2754
g101
g102
ssg83
g2743
sg76
(lp2755
S':'
asbag69
(g90
g71
NtRp2756
(dp2757
g74
(dp2758
sg83
g2743
sg76
(lp2759
g69
(g70
g71
NtRp2760
(dp2761
g74
(dp2762
g82
I3
ssg83
g2756
sg76
(lp2763
g1526
asbasbasbag69
(g85
g71
NtRp2764
(dp2765
g74
(dp2766
sg83
g2232
sg76
(lp2767
g69
(g90
g71
NtRp2768
(dp2769
g74
(dp2770
g94
g95
ssg83
g2764
sg76
(lp2771
S'wsgi.version'
p2772
asbag69
(g90
g71
NtRp2773
(dp2774
g74
(dp2775
g101
g102
ssg83
g2764
sg76
(lp2776
S':'
asbag69
(g90
g71
NtRp2777
(dp2778
g74
(dp2779
sg83
g2764
sg76
(lp2780
g69
(g70
g71
NtRp2781
(dp2782
g74
(dp2783
g82
I3
ssg83
g2777
sg76
(lp2784
S'1'
asbasbasbasbasbasbasbasbasbasbasbasbasbsS'frames'
p2785
(lp2786
(dp2787
S'file'
p2788
S'/home/maneesha/Downloads/web2py/gluon/restricted.py'
p2789
sS'dump'
p2790
(dp2791
S'environment'
p2792
S"{'A': <class 'gluon.html.A'>, 'Auth': <class 'gluon.tools.Auth'>, 'B': <class 'gluon.html.B'>, 'BEAUTIFY': <class 'gluon.html.BEAUTIFY'>, 'BODY': <class 'gluon.html.BODY'>, 'BR': <class 'gluon.html.BR'>, 'BUTTON': <class 'gluon.html.BUTTON'>, 'CAT': <class 'gluon.html.CAT'>, 'CENTER': <class 'gluon.html.CENTER'>, 'CLEANUP': <class 'gluon.validators.CLEANUP'>, ...}"
p2793
sS'ccode'
p2794
S'<code object <module> at 0x7f4a640e5830, file "/...plications/ssad3/controllers/default.py", line 3>'
p2795
ssS'lnum'
p2796
I205
sS'lines'
p2797
(dp2798
I200
S'    try:'
p2799
sI201
S'        if type(code) == types.CodeType:'
p2800
sI202
S'            ccode = code'
p2801
sI203
S'        else:'
p2802
sI204
S'            ccode = compile2(code,layer)'
p2803
sI205
S'        exec ccode in environment'
p2804
sI206
S'    except HTTP:'
p2805
sI207
S'        raise'
p2806
sI208
S'    except RestrictedError:'
p2807
sI209
S'        # do not encapsulate (obfuscate) the original RestrictedError'
p2808
ssS'call'
p2809
S"(code='# -*- coding: utf-8 -*-\\n### required - do no del...rn d\\n\\nresponse._vars=response._caller(final_ans)\\n', environment={'A': <class 'gluon.html.A'>, 'Auth': <class 'gluon.tools.Auth'>, 'B': <class 'gluon.html.B'>, 'BEAUTIFY': <class 'gluon.html.BEAUTIFY'>, 'BODY': <class 'gluon.html.BODY'>, 'BR': <class 'gluon.html.BR'>, 'BUTTON': <class 'gluon.html.BUTTON'>, 'CAT': <class 'gluon.html.CAT'>, 'CENTER': <class 'gluon.html.CENTER'>, 'CLEANUP': <class 'gluon.validators.CLEANUP'>, ...}, layer='/home/maneesha/Downloads/web2py/applications/ssad3/controllers/default.py')"
p2810
sS'func'
p2811
S'restricted'
p2812
sa(dp2813
g2788
S'/home/maneesha/Downloads/web2py/applications/ssad3/controllers/default.py'
p2814
sg2790
(dp2815
sg2796
I143
sg2797
(dp2816
I132
S'        cited_by=inp.cited_by'
p2817
sI133
S'        year=inp.year'
p2818
sI134
S'    return [key,level,top,auth,cited_by,year]'
p2819
sI135
S'def bold(d):'
p2820
sI136
S'    pre=""'
p2821
sI137
S'    while pre!=d:'
p2822
sI138
S'        pre=d'
p2823
sI139
S'        d=d.replace("<b>","");'
p2824
sI140
S'        d=d.replace("</b>","");'
p2825
sI141
S'    return d'
p2826
ssg2809
S'()'
p2827
sg2811
S'<module>'
p2828
sa(dp2829
g2788
S'/home/maneesha/Downloads/web2py/gluon/globals.py'
p2830
sg2790
(dp2831
S'self'
p2832
S'undefined'
p2833
sS'f'
S'<function final_ans>'
p2834
ssg2796
I173
sg2797
(dp2835
I168
S'        self.menu = []             # used by the default view layout'
p2836
sI169
S'        self.files = []            # used by web2py_ajax.html'
p2837
sI170
S'        self.generic_patterns = [] # patterns to allow generic views'
p2838
sI171
S"        self.delimiters = ('{{','}}')"
p2839
sI172
S'        self._vars = None'
p2840
sI173
S'        self._caller = lambda f: f()'
p2841
sI174
S'        self._view_environment = None'
p2842
sI175
S'        self._custom_commit = None'
p2843
sI176
S'        self._custom_rollback = None'
p2844
sI177
S''
ssg2809
S'(f=<function final_ans>)'
p2845
sg2811
S'<lambda>'
p2846
sa(dp2847
g2788
S'/home/maneesha/Downloads/web2py/applications/ssad3/controllers/default.py'
p2848
sg2790
(dp2849
S'global extract1'
p2850
S'<function extract1>'
p2851
sS'url'
p2852
S"'http://dl.acm.org/results.cfm?h=1&query=distributed+database'"
p2853
sS'l1'
p2854
S"['distributed database', None, None, False, False, False]"
p2855
sS'fst_l'
p2856
g2833
ssg2796
I49
sg2797
(dp2857
I44
S''
sI45
S''
sI46
S'def final_ans():'
p2858
sI47
S'    l1=u_filter()'
p2859
sI48
S'    url="http://dl.acm.org/results.cfm?h=1&query="+\'+\'.join(l1[0].split())'
p2860
sI49
S'    fst_l=extract1(url,l1)'
p2861
sI50
S'    #for l in fst_l:'
p2862
sI51
S'     #   listf.append(cite(l))'
p2863
sI52
S'    rec(fst_l,l1,bigans)'
p2864
sI53
S'    global listf'
p2865
ssg2809
S'()'
p2866
sg2811
S'final_ans'
p2867
sa(dp2868
g2788
S'/home/maneesha/Downloads/web2py/applications/ssad3/controllers/default.py'
p2869
sg2790
(dp2870
S'url'
p2871
S"'http://dl.acm.org/results.cfm?h=1&query=distributed+database'"
p2872
sS'html'
p2873
g2833
sS'global fetch'
p2874
S'<function fetch>'
p2875
ssg2796
I30
sg2797
(dp2876
I32
S'    del html_splitted[0]'
p2877
sI33
S"    k=html_splitted[0].split('>')"
p2878
sI34
S'    if k[1][:-3]==l1[0]:'
p2879
sI25
S"    redirect(URL('final_ans()'))"
p2880
sI26
S'    flag=0'
p2881
sI27
S'    #return dict(ans=ll1[0],l_yr=ll1[1])'
p2882
sI28
S'def extract1(url,l1):'
p2883
sI29
S'    ret=[]'
p2884
sI30
S'    html=fetch(url)'
p2885
sI31
S'    html_splitted=html.split("<A HREF=\\"citation.cfm")'
p2886
ssg2809
S"(url='http://dl.acm.org/results.cfm?h=1&query=distributed+database', l1=['distributed database', None, None, False, False, False])"
p2887
sg2811
S'extract1'
p2888
sa(dp2889
g2788
S'/home/maneesha/Downloads/web2py/gluon/tools.py'
p2890
sg2790
(dp2891
S'urllib2.urlopen'
p2892
S'<function urlopen>'
p2893
sS'global urllib2'
p2894
S"<module 'urllib2' from '/usr/lib/python2.7/urllib2.pyc'>"
p2895
sS'html'
p2896
g2833
sS'req'
p2897
S'<urllib2.Request instance>'
p2898
sS').read'
p2899
g2833
ssg2796
I3424
sg2797
(dp2900
I3424
S'        html = urllib2.urlopen(req).read()'
p2901
sI3425
S'    else:'
p2902
sI3426
S'        method = ((data is None) and urlfetch.GET) or urlfetch.POST'
p2903
sI3427
S'        while url is not None:'
p2904
sI3428
S'            response = urlfetch.fetch(url=url, payload=data,'
p2905
sI3419
S"    headers['Cookie'] = ' '.join(['%s=%s;'%(c.key,c.value) for c in cookie.values()])"
p2906
sI3420
S'    try:'
p2907
sI3421
S'        from google.appengine.api import urlfetch'
p2908
sI3422
S'    except ImportError:'
p2909
sI3423
S'        req = urllib2.Request(url, data, headers)'
p2910
ssg2809
S"(url='http://dl.acm.org/results.cfm?h=1&query=distributed+database', data=None, headers={'Cookie': '', 'User-agent': 'Mozilla/5.0'}, cookie=<SimpleCookie: >, user_agent='Mozilla/5.0')"
p2911
sg2811
S'fetch'
p2912
sa(dp2913
g2788
S'/usr/lib/python2.7/urllib2.py'
p2914
sg2790
(dp2915
S'_opener.open'
p2916
S'<bound method OpenerDirector.open of <urllib2.OpenerDirector instance>>'
p2917
sS'url'
p2918
S'<urllib2.Request instance>'
p2919
sS'data'
p2920
S'None'
p2921
sS'global _opener'
p2922
S'<urllib2.OpenerDirector instance>'
p2923
sS'timeout'
p2924
S'<object object>'
p2925
ssg2796
I126
sg2797
(dp2926
I128
S'def install_opener(opener):'
p2927
sI129
S'    global _opener'
p2928
sI130
S'    _opener = opener'
p2929
sI121
S'_opener = None'
p2930
sI122
S'def urlopen(url, data=None, timeout=socket._GLOBAL_DEFAULT_TIMEOUT):'
p2931
sI123
S'    global _opener'
p2932
sI124
S'    if _opener is None:'
p2933
sI125
S'        _opener = build_opener()'
p2934
sI126
S'    return _opener.open(url, data, timeout)'
p2935
sI127
S''
ssg2809
S'(url=<urllib2.Request instance>, data=None, timeout=<object object>)'
p2936
sg2811
S'urlopen'
p2937
sa(dp2938
g2788
S'/usr/lib/python2.7/urllib2.py'
p2939
sg2790
(dp2940
S'self'
p2941
S'<urllib2.OpenerDirector instance>'
p2942
sS'req'
p2943
S'<urllib2.Request instance>'
p2944
sS'data'
p2945
S'None'
p2946
sS'response'
p2947
g2833
sS'self._open'
p2948
S'<bound method OpenerDirector._open of <urllib2.OpenerDirector instance>>'
p2949
ssg2796
I400
sg2797
(dp2950
I395
S'        meth_name = protocol+"_request"'
p2951
sI396
S'        for processor in self.process_request.get(protocol, []):'
p2952
sI397
S'            meth = getattr(processor, meth_name)'
p2953
sI398
S'            req = meth(req)'
p2954
sI399
S''
sI400
S'        response = self._open(req, data)'
p2955
sI401
S''
sI402
S'        # post-process response'
p2956
sI403
S'        meth_name = protocol+"_response"'
p2957
sI404
S'        for processor in self.process_response.get(protocol, []):'
p2958
ssg2809
S'(self=<urllib2.OpenerDirector instance>, fullurl=<urllib2.Request instance>, data=None, timeout=<object object>)'
p2959
sg2811
S'open'
p2960
sa(dp2961
g2788
S'/usr/lib/python2.7/urllib2.py'
p2962
sg2790
(dp2963
S'req'
p2964
S'<urllib2.Request instance>'
p2965
ssg2796
I418
sg2797
(dp2966
I416
S'        protocol = req.get_type()'
p2967
sI417
S'        result = self._call_chain(self.handle_open, protocol, protocol +'
p2968
sI418
S"                                  '_open', req)"
p2969
sI419
S'        if result:'
p2970
sI420
S'            return result'
p2971
sI421
S''
sI422
S"        return self._call_chain(self.handle_open, 'unknown',"
p2972
sI413
S'        if result:'
p2973
sI414
S'            return result'
p2974
sI415
S''
ssg2809
S'(self=<urllib2.OpenerDirector instance>, req=<urllib2.Request instance>, data=None)'
p2975
sg2811
S'_open'
p2976
sa(dp2977
g2788
S'/usr/lib/python2.7/urllib2.py'
p2978
sg2790
(dp2979
S'args'
p2980
S'(<urllib2.Request instance>,)'
p2981
sS'result'
p2982
S'None'
p2983
sS'func'
p2984
S'<bound method HTTPHandler.http_open of <urllib2.HTTPHandler instance>>'
p2985
ssg2796
I378
sg2797
(dp2986
I373
S'        # could.  Otherwise, they return the response.'
p2987
sI374
S'        handlers = chain.get(kind, ())'
p2988
sI375
S'        for handler in handlers:'
p2989
sI376
S'            func = getattr(handler, meth_name)'
p2990
sI377
S''
sI378
S'            result = func(*args)'
p2991
sI379
S'            if result is not None:'
p2992
sI380
S'                return result'
p2993
sI381
S''
sI382
S'    def open(self, fullurl, data=None, timeout=socket._GLOBAL_DEFAULT_TIMEOUT):'
p2994
ssg2809
S"(self=<urllib2.OpenerDirector instance>, chain={'all': [<urllib2.ProxyHandler instance>], 'file': [<urllib2.FileHandler instance>], 'ftp': [<urllib2.ProxyHandler instance>, <urllib2.FTPHandler instance>], 'http': [<urllib2.ProxyHandler instance>, <urllib2.HTTPHandler instance>], 'https': [<urllib2.ProxyHandler instance>, <urllib2.HTTPSHandler instance>], 'no': [<urllib2.ProxyHandler instance>], 'socks': [<urllib2.ProxyHandler instance>], 'unknown': [<urllib2.UnknownHandler instance>]}, kind='http', meth_name='http_open', *args=(<urllib2.Request instance>,))"
p2995
sg2811
S'_call_chain'
p2996
sa(dp2997
g2788
S'/usr/lib/python2.7/urllib2.py'
p2998
sg2790
(dp2999
S'self'
p3000
S'<urllib2.HTTPHandler instance>'
p3001
sS'req'
p3002
S'<urllib2.Request instance>'
p3003
sS'global httplib'
p3004
S"<module 'httplib' from '/usr/lib/python2.7/httplib.pyc'>"
p3005
sS'self.do_open'
p3006
S'<bound method HTTPHandler.do_open of <urllib2.HTTPHandler instance>>'
p3007
sS'httplib.HTTPConnection'
p3008
S'<class httplib.HTTPConnection>'
p3009
ssg2796
I1207
sg2797
(dp3010
I1202
S''
sI1203
S''
sI1204
S'class HTTPHandler(AbstractHTTPHandler):'
p3011
sI1205
S''
sI1206
S'    def http_open(self, req):'
p3012
sI1207
S'        return self.do_open(httplib.HTTPConnection, req)'
p3013
sI1208
S''
sI1209
S'    http_request = AbstractHTTPHandler.do_request_'
p3014
sI1210
S''
sI1211
S"if hasattr(httplib, 'HTTPS'):"
p3015
ssg2809
S'(self=<urllib2.HTTPHandler instance>, req=<urllib2.Request instance>)'
p3016
sg2811
S'http_open'
p3017
sa(dp3018
g2788
S'/usr/lib/python2.7/urllib2.py'
p3019
sg2790
(dp3020
S'err'
p3021
S"gaierror(-2, 'Name or service not known')"
p3022
sS'global URLError'
p3023
S"<class 'urllib2.URLError'>"
p3024
ssg2796
I1177
sg2797
(dp3025
I1172
S''
sI1173
S'        try:'
p3026
sI1174
S'            h.request(req.get_method(), req.get_selector(), req.data, headers)'
p3027
sI1175
S'        except socket.error, err: # XXX what error?'
p3028
sI1176
S'            h.close()'
p3029
sI1177
S'            raise URLError(err)'
p3030
sI1178
S'        else:'
p3031
sI1179
S'            try:'
p3032
sI1180
S'                r = h.getresponse(buffering=True)'
p3033
sI1181
S'            except TypeError: # buffering kw not supported'
p3034
ssg2809
S'(self=<urllib2.HTTPHandler instance>, http_class=<class httplib.HTTPConnection>, req=<urllib2.Request instance>)'
p3035
sg2811
S'do_open'
p3036
sasS'pyver'
p3037
S'Python 2.7.3: /usr/bin/python'
p3038
sS'session'
p3039
g69
(g70
g71
NtRp3040
(dp3041
g74
(dp3042
sg76
(lp3043
g69
(g78
g71
NtRp3044
(dp3045
g74
(dp3046
g82
I5
ssg83
Nsg76
(lp3047
sbasbsS'etype'
p3048
S"<class 'urllib2.URLError'>"
p3049
sS'date'
p3050
S'Mon Oct 15 13:53:34 2012'
p3051
sS'response'
p3052
g69
(g70
g71
NtRp3053
(dp3054
g74
(dp3055
sg76
(lp3056
g69
(g78
g71
NtRp3057
(dp3058
g74
(dp3059
g82
I5
ssg83
Nsg76
(lp3060
g69
(g85
g71
NtRp3061
(dp3062
g74
(dp3063
sg83
g3057
sg76
(lp3064
g69
(g90
g71
NtRp3065
(dp3066
g74
(dp3067
g94
g95
ssg83
g3061
sg76
(lp3068
g167
asbag69
(g90
g71
NtRp3069
(dp3070
g74
(dp3071
g101
g102
ssg83
g3061
sg76
(lp3072
S':'
asbag69
(g90
g71
NtRp3073
(dp3074
g74
(dp3075
sg83
g3061
sg76
(lp3076
g69
(g70
g71
NtRp3077
(dp3078
g74
(dp3079
g82
I5
ssg83
g3073
sg76
(lp3080
S'<cStringIO.StringO object at 0x7f4a640eaf10>'
p3081
asbasbasbag69
(g85
g71
NtRp3082
(dp3083
g74
(dp3084
sg83
g3057
sg76
(lp3085
g69
(g90
g71
NtRp3086
(dp3087
g74
(dp3088
g94
g95
ssg83
g3082
sg76
(lp3089
g233
asbag69
(g90
g71
NtRp3090
(dp3091
g74
(dp3092
g101
g102
ssg83
g3082
sg76
(lp3093
S':'
asbag69
(g90
g71
NtRp3094
(dp3095
g74
(dp3096
sg83
g3082
sg76
(lp3097
g69
(g70
g71
NtRp3098
(dp3099
g74
(dp3100
g82
I5
ssg83
g3094
sg76
(lp3101
g69
(g78
g71
NtRp3102
(dp3103
g74
(dp3104
g82
I4
ssg83
Nsg76
(lp3105
g69
(g85
g71
NtRp3106
(dp3107
g74
(dp3108
sg83
g3102
sg76
(lp3109
g69
(g90
g71
NtRp3110
(dp3111
g74
(dp3112
g94
g95
ssg83
g3106
sg76
(lp3113
S'session_id_ssad3'
p3114
asbag69
(g90
g71
NtRp3115
(dp3116
g74
(dp3117
g101
g102
ssg83
g3106
sg76
(lp3118
S':'
asbag69
(g90
g71
NtRp3119
(dp3120
g74
(dp3121
sg83
g3106
sg76
(lp3122
g69
(g70
g71
NtRp3123
(dp3124
g74
(dp3125
g82
I4
ssg83
g3119
sg76
(lp3126
g69
(g78
g71
NtRp3127
(dp3128
g74
(dp3129
g82
I3
ssg83
Nsg76
(lp3130
g69
(g85
g71
NtRp3131
(dp3132
g74
(dp3133
sg83
g3127
sg76
(lp3134
g69
(g90
g71
NtRp3135
(dp3136
g74
(dp3137
g94
g95
ssg83
g3131
sg76
(lp3138
g283
asbag69
(g90
g71
NtRp3139
(dp3140
g74
(dp3141
g101
g102
ssg83
g3131
sg76
(lp3142
S':'
asbag69
(g90
g71
NtRp3143
(dp3144
g74
(dp3145
sg83
g3131
sg76
(lp3146
g69
(g70
g71
NtRp3147
(dp3148
g74
(dp3149
g82
I3
ssg83
g3143
sg76
(lp3150
S''
asbasbasbag69
(g85
g71
NtRp3151
(dp3152
g74
(dp3153
sg83
g3127
sg76
(lp3154
g69
(g90
g71
NtRp3155
(dp3156
g74
(dp3157
g94
g95
ssg83
g3151
sg76
(lp3158
g304
asbag69
(g90
g71
NtRp3159
(dp3160
g74
(dp3161
g101
g102
ssg83
g3151
sg76
(lp3162
S':'
asbag69
(g90
g71
NtRp3163
(dp3164
g74
(dp3165
sg83
g3151
sg76
(lp3166
g69
(g70
g71
NtRp3167
(dp3168
g74
(dp3169
g82
I3
ssg83
g3163
sg76
(lp3170
S''
asbasbasbag69
(g85
g71
NtRp3171
(dp3172
g74
(dp3173
sg83
g3127
sg76
(lp3174
g69
(g90
g71
NtRp3175
(dp3176
g74
(dp3177
g94
g95
ssg83
g3171
sg76
(lp3178
g325
asbag69
(g90
g71
NtRp3179
(dp3180
g74
(dp3181
g101
g102
ssg83
g3171
sg76
(lp3182
S':'
asbag69
(g90
g71
NtRp3183
(dp3184
g74
(dp3185
sg83
g3171
sg76
(lp3186
g69
(g70
g71
NtRp3187
(dp3188
g74
(dp3189
g82
I3
ssg83
g3183
sg76
(lp3190
S''
asbasbasbag69
(g85
g71
NtRp3191
(dp3192
g74
(dp3193
sg83
g3127
sg76
(lp3194
g69
(g90
g71
NtRp3195
(dp3196
g74
(dp3197
g94
g95
ssg83
g3191
sg76
(lp3198
g346
asbag69
(g90
g71
NtRp3199
(dp3200
g74
(dp3201
g101
g102
ssg83
g3191
sg76
(lp3202
S':'
asbag69
(g90
g71
NtRp3203
(dp3204
g74
(dp3205
sg83
g3191
sg76
(lp3206
g69
(g70
g71
NtRp3207
(dp3208
g74
(dp3209
g82
I3
ssg83
g3203
sg76
(lp3210
S''
asbasbasbag69
(g85
g71
NtRp3211
(dp3212
g74
(dp3213
sg83
g3127
sg76
(lp3214
g69
(g90
g71
NtRp3215
(dp3216
g74
(dp3217
g94
g95
ssg83
g3211
sg76
(lp3218
g367
asbag69
(g90
g71
NtRp3219
(dp3220
g74
(dp3221
g101
g102
ssg83
g3211
sg76
(lp3222
S':'
asbag69
(g90
g71
NtRp3223
(dp3224
g74
(dp3225
sg83
g3211
sg76
(lp3226
g69
(g70
g71
NtRp3227
(dp3228
g74
(dp3229
g82
I3
ssg83
g3223
sg76
(lp3230
S''
asbasbasbag69
(g85
g71
NtRp3231
(dp3232
g74
(dp3233
sg83
g3127
sg76
(lp3234
g69
(g90
g71
NtRp3235
(dp3236
g74
(dp3237
g94
g95
ssg83
g3231
sg76
(lp3238
g388
asbag69
(g90
g71
NtRp3239
(dp3240
g74
(dp3241
g101
g102
ssg83
g3231
sg76
(lp3242
S':'
asbag69
(g90
g71
NtRp3243
(dp3244
g74
(dp3245
sg83
g3231
sg76
(lp3246
g69
(g70
g71
NtRp3247
(dp3248
g74
(dp3249
g82
I3
ssg83
g3243
sg76
(lp3250
S'/'
asbasbasbag69
(g85
g71
NtRp3251
(dp3252
g74
(dp3253
sg83
g3127
sg76
(lp3254
g69
(g90
g71
NtRp3255
(dp3256
g74
(dp3257
g94
g95
ssg83
g3251
sg76
(lp3258
g409
asbag69
(g90
g71
NtRp3259
(dp3260
g74
(dp3261
g101
g102
ssg83
g3251
sg76
(lp3262
S':'
asbag69
(g90
g71
NtRp3263
(dp3264
g74
(dp3265
sg83
g3251
sg76
(lp3266
g69
(g70
g71
NtRp3267
(dp3268
g74
(dp3269
g82
I3
ssg83
g3263
sg76
(lp3270
S''
asbasbasbag69
(g85
g71
NtRp3271
(dp3272
g74
(dp3273
sg83
g3127
sg76
(lp3274
g69
(g90
g71
NtRp3275
(dp3276
g74
(dp3277
g94
g95
ssg83
g3271
sg76
(lp3278
g430
asbag69
(g90
g71
NtRp3279
(dp3280
g74
(dp3281
g101
g102
ssg83
g3271
sg76
(lp3282
S':'
asbag69
(g90
g71
NtRp3283
(dp3284
g74
(dp3285
sg83
g3271
sg76
(lp3286
g69
(g70
g71
NtRp3287
(dp3288
g74
(dp3289
g82
I3
ssg83
g3283
sg76
(lp3290
S''
asbasbasbasbasbasbasbasbasbasbasbag69
(g85
g71
NtRp3291
(dp3292
g74
(dp3293
sg83
g3057
sg76
(lp3294
g69
(g90
g71
NtRp3295
(dp3296
g74
(dp3297
g94
g95
ssg83
g3291
sg76
(lp3298
S'delimiters'
p3299
asbag69
(g90
g71
NtRp3300
(dp3301
g74
(dp3302
g101
g102
ssg83
g3291
sg76
(lp3303
S':'
asbag69
(g90
g71
NtRp3304
(dp3305
g74
(dp3306
sg83
g3291
sg76
(lp3307
g69
(g70
g71
NtRp3308
(dp3309
g74
(dp3310
g82
I5
ssg83
g3304
sg76
(lp3311
g69
(g78
g71
NtRp3312
(dp3313
g74
(dp3314
g82
I4
ssg83
Nsg76
(lp3315
g69
(g85
g71
NtRp3316
(dp3317
g74
(dp3318
sg83
g3312
sg76
(lp3319
g69
(g90
g71
NtRp3320
(dp3321
g74
(dp3322
sg83
g3316
sg76
(lp3323
g69
(g70
g71
NtRp3324
(dp3325
g74
(dp3326
g82
I4
ssg83
g3320
sg76
(lp3327
S'{{'
p3328
asbasbasbag69
(g85
g71
NtRp3329
(dp3330
g74
(dp3331
sg83
g3312
sg76
(lp3332
g69
(g90
g71
NtRp3333
(dp3334
g74
(dp3335
sg83
g3329
sg76
(lp3336
g69
(g70
g71
NtRp3337
(dp3338
g74
(dp3339
g82
I4
ssg83
g3333
sg76
(lp3340
S'}}'
p3341
asbasbasbasbasbasbasbag69
(g85
g71
NtRp3342
(dp3343
g74
(dp3344
sg83
g3057
sg76
(lp3345
g69
(g90
g71
NtRp3346
(dp3347
g74
(dp3348
g94
g95
ssg83
g3342
sg76
(lp3349
S'files'
p3350
asbag69
(g90
g71
NtRp3351
(dp3352
g74
(dp3353
g101
g102
ssg83
g3342
sg76
(lp3354
S':'
asbag69
(g90
g71
NtRp3355
(dp3356
g74
(dp3357
sg83
g3342
sg76
(lp3358
g69
(g70
g71
NtRp3359
(dp3360
g74
(dp3361
g82
I5
ssg83
g3355
sg76
(lp3362
g69
(g78
g71
NtRp3363
(dp3364
g74
(dp3365
g82
I4
ssg83
Nsg76
(lp3366
sbasbasbasbag69
(g85
g71
NtRp3367
(dp3368
g74
(dp3369
sg83
g3057
sg76
(lp3370
g69
(g90
g71
NtRp3371
(dp3372
g74
(dp3373
g94
g95
ssg83
g3367
sg76
(lp3374
S'flash'
p3375
asbag69
(g90
g71
NtRp3376
(dp3377
g74
(dp3378
g101
g102
ssg83
g3367
sg76
(lp3379
S':'
asbag69
(g90
g71
NtRp3380
(dp3381
g74
(dp3382
sg83
g3367
sg76
(lp3383
g69
(g70
g71
NtRp3384
(dp3385
g74
(dp3386
g82
I5
ssg83
g3380
sg76
(lp3387
S''
asbasbasbag69
(g85
g71
NtRp3388
(dp3389
g74
(dp3390
sg83
g3057
sg76
(lp3391
g69
(g90
g71
NtRp3392
(dp3393
g74
(dp3394
g94
g95
ssg83
g3388
sg76
(lp3395
S'generic_patterns'
p3396
asbag69
(g90
g71
NtRp3397
(dp3398
g74
(dp3399
g101
g102
ssg83
g3388
sg76
(lp3400
S':'
asbag69
(g90
g71
NtRp3401
(dp3402
g74
(dp3403
sg83
g3388
sg76
(lp3404
g69
(g70
g71
NtRp3405
(dp3406
g74
(dp3407
g82
I5
ssg83
g3401
sg76
(lp3408
g69
(g78
g71
NtRp3409
(dp3410
g74
(dp3411
g82
I4
ssg83
Nsg76
(lp3412
g69
(g85
g71
NtRp3413
(dp3414
g74
(dp3415
sg83
g3409
sg76
(lp3416
g69
(g90
g71
NtRp3417
(dp3418
g74
(dp3419
sg83
g3413
sg76
(lp3420
g69
(g70
g71
NtRp3421
(dp3422
g74
(dp3423
g82
I4
ssg83
g3417
sg76
(lp3424
S'*'
asbasbasbasbasbasbasbag69
(g85
g71
NtRp3425
(dp3426
g74
(dp3427
sg83
g3057
sg76
(lp3428
g69
(g90
g71
NtRp3429
(dp3430
g74
(dp3431
g94
g95
ssg83
g3425
sg76
(lp3432
S'headers'
p3433
asbag69
(g90
g71
NtRp3434
(dp3435
g74
(dp3436
g101
g102
ssg83
g3425
sg76
(lp3437
S':'
asbag69
(g90
g71
NtRp3438
(dp3439
g74
(dp3440
sg83
g3425
sg76
(lp3441
g69
(g70
g71
NtRp3442
(dp3443
g74
(dp3444
g82
I5
ssg83
g3438
sg76
(lp3445
g69
(g78
g71
NtRp3446
(dp3447
g74
(dp3448
g82
I4
ssg83
Nsg76
(lp3449
g69
(g85
g71
NtRp3450
(dp3451
g74
(dp3452
sg83
g3446
sg76
(lp3453
g69
(g90
g71
NtRp3454
(dp3455
g74
(dp3456
g94
g95
ssg83
g3450
sg76
(lp3457
S'Cache-Control'
p3458
asbag69
(g90
g71
NtRp3459
(dp3460
g74
(dp3461
g101
g102
ssg83
g3450
sg76
(lp3462
S':'
asbag69
(g90
g71
NtRp3463
(dp3464
g74
(dp3465
sg83
g3450
sg76
(lp3466
g69
(g70
g71
NtRp3467
(dp3468
g74
(dp3469
g82
I4
ssg83
g3463
sg76
(lp3470
S'no-store, no-cache, must-revalidate, post-check=0, pre-check=0'
p3471
asbasbasbag69
(g85
g71
NtRp3472
(dp3473
g74
(dp3474
sg83
g3446
sg76
(lp3475
g69
(g90
g71
NtRp3476
(dp3477
g74
(dp3478
g94
g95
ssg83
g3472
sg76
(lp3479
S'Content-Type'
p3480
asbag69
(g90
g71
NtRp3481
(dp3482
g74
(dp3483
g101
g102
ssg83
g3472
sg76
(lp3484
S':'
asbag69
(g90
g71
NtRp3485
(dp3486
g74
(dp3487
sg83
g3472
sg76
(lp3488
g69
(g70
g71
NtRp3489
(dp3490
g74
(dp3491
g82
I4
ssg83
g3485
sg76
(lp3492
S'text/html; charset=utf-8'
p3493
asbasbasbag69
(g85
g71
NtRp3494
(dp3495
g74
(dp3496
sg83
g3446
sg76
(lp3497
g69
(g90
g71
NtRp3498
(dp3499
g74
(dp3500
g94
g95
ssg83
g3494
sg76
(lp3501
S'Expires'
p3502
asbag69
(g90
g71
NtRp3503
(dp3504
g74
(dp3505
g101
g102
ssg83
g3494
sg76
(lp3506
S':'
asbag69
(g90
g71
NtRp3507
(dp3508
g74
(dp3509
sg83
g3494
sg76
(lp3510
g69
(g70
g71
NtRp3511
(dp3512
g74
(dp3513
g82
I4
ssg83
g3507
sg76
(lp3514
S'Mon, 15 Oct 2012 08:23:34 GMT'
p3515
asbasbasbag69
(g85
g71
NtRp3516
(dp3517
g74
(dp3518
sg83
g3446
sg76
(lp3519
g69
(g90
g71
NtRp3520
(dp3521
g74
(dp3522
g94
g95
ssg83
g3516
sg76
(lp3523
S'Pragma'
p3524
asbag69
(g90
g71
NtRp3525
(dp3526
g74
(dp3527
g101
g102
ssg83
g3516
sg76
(lp3528
S':'
asbag69
(g90
g71
NtRp3529
(dp3530
g74
(dp3531
sg83
g3516
sg76
(lp3532
g69
(g70
g71
NtRp3533
(dp3534
g74
(dp3535
g82
I4
ssg83
g3529
sg76
(lp3536
S'no-cache'
p3537
asbasbasbag69
(g85
g71
NtRp3538
(dp3539
g74
(dp3540
sg83
g3446
sg76
(lp3541
g69
(g90
g71
NtRp3542
(dp3543
g74
(dp3544
g94
g95
ssg83
g3538
sg76
(lp3545
S'X-Powered-By'
p3546
asbag69
(g90
g71
NtRp3547
(dp3548
g74
(dp3549
g101
g102
ssg83
g3538
sg76
(lp3550
S':'
asbag69
(g90
g71
NtRp3551
(dp3552
g74
(dp3553
sg83
g3538
sg76
(lp3554
g69
(g70
g71
NtRp3555
(dp3556
g74
(dp3557
g82
I4
ssg83
g3551
sg76
(lp3558
S'web2py'
p3559
asbasbasbasbasbasbasbag69
(g85
g71
NtRp3560
(dp3561
g74
(dp3562
sg83
g3057
sg76
(lp3563
g69
(g90
g71
NtRp3564
(dp3565
g74
(dp3566
g94
g95
ssg83
g3560
sg76
(lp3567
S'menu'
p3568
asbag69
(g90
g71
NtRp3569
(dp3570
g74
(dp3571
g101
g102
ssg83
g3560
sg76
(lp3572
S':'
asbag69
(g90
g71
NtRp3573
(dp3574
g74
(dp3575
sg83
g3560
sg76
(lp3576
g69
(g70
g71
NtRp3577
(dp3578
g74
(dp3579
g82
I5
ssg83
g3573
sg76
(lp3580
g69
(g78
g71
NtRp3581
(dp3582
g74
(dp3583
g82
I4
ssg83
Nsg76
(lp3584
g69
(g85
g71
NtRp3585
(dp3586
g74
(dp3587
sg83
g3581
sg76
(lp3588
g69
(g90
g71
NtRp3589
(dp3590
g74
(dp3591
sg83
g3585
sg76
(lp3592
g69
(g70
g71
NtRp3593
(dp3594
g74
(dp3595
g82
I4
ssg83
g3589
sg76
(lp3596
g69
(g78
g71
NtRp3597
(dp3598
g74
(dp3599
g82
I3
ssg83
Nsg76
(lp3600
g69
(g85
g71
NtRp3601
(dp3602
g74
(dp3603
sg83
g3597
sg76
(lp3604
g69
(g90
g71
NtRp3605
(dp3606
g74
(dp3607
sg83
g3601
sg76
(lp3608
g69
(g70
g71
NtRp3609
(dp3610
g74
(dp3611
g82
I3
ssg83
g3605
sg76
(lp3612
cgluon.languages
lazyT_unpickle
p3613
(S't\x05\x00\x00\x00Index'
tRp3614
asbasbasbag69
(g85
g71
NtRp3615
(dp3616
g74
(dp3617
sg83
g3597
sg76
(lp3618
g69
(g90
g71
NtRp3619
(dp3620
g74
(dp3621
sg83
g3615
sg76
(lp3622
g69
(g70
g71
NtRp3623
(dp3624
g74
(dp3625
g82
I3
ssg83
g3619
sg76
(lp3626
g112
asbasbasbag69
(g85
g71
NtRp3627
(dp3628
g74
(dp3629
sg83
g3597
sg76
(lp3630
g69
(g90
g71
NtRp3631
(dp3632
g74
(dp3633
sg83
g3627
sg76
(lp3634
g69
(g70
g71
NtRp3635
(dp3636
g74
(dp3637
g82
I3
ssg83
g3631
sg76
(lp3638
S'/ssad3/default/index'
p3639
asbasbasbag69
(g85
g71
NtRp3640
(dp3641
g74
(dp3642
sg83
g3597
sg76
(lp3643
g69
(g90
g71
NtRp3644
(dp3645
g74
(dp3646
sg83
g3640
sg76
(lp3647
g69
(g70
g71
NtRp3648
(dp3649
g74
(dp3650
g82
I3
ssg83
g3644
sg76
(lp3651
g69
(g78
g71
NtRp3652
(dp3653
g74
(dp3654
g82
I2
ssg83
Nsg76
(lp3655
sbasbasbasbasbasbasbasbasbasbasbasbag69
(g85
g71
NtRp3656
(dp3657
g74
(dp3658
sg83
g3057
sg76
(lp3659
g69
(g90
g71
NtRp3660
(dp3661
g74
(dp3662
g94
g95
ssg83
g3656
sg76
(lp3663
S'meta'
p3664
asbag69
(g90
g71
NtRp3665
(dp3666
g74
(dp3667
g101
g102
ssg83
g3656
sg76
(lp3668
S':'
asbag69
(g90
g71
NtRp3669
(dp3670
g74
(dp3671
sg83
g3656
sg76
(lp3672
g69
(g70
g71
NtRp3673
(dp3674
g74
(dp3675
g82
I5
ssg83
g3669
sg76
(lp3676
g69
(g78
g71
NtRp3677
(dp3678
g74
(dp3679
g82
I4
ssg83
Nsg76
(lp3680
g69
(g85
g71
NtRp3681
(dp3682
g74
(dp3683
sg83
g3677
sg76
(lp3684
g69
(g90
g71
NtRp3685
(dp3686
g74
(dp3687
g94
g95
ssg83
g3681
sg76
(lp3688
S'author'
p3689
asbag69
(g90
g71
NtRp3690
(dp3691
g74
(dp3692
g101
g102
ssg83
g3681
sg76
(lp3693
S':'
asbag69
(g90
g71
NtRp3694
(dp3695
g74
(dp3696
sg83
g3681
sg76
(lp3697
g69
(g70
g71
NtRp3698
(dp3699
g74
(dp3700
g82
I4
ssg83
g3694
sg76
(lp3701
S'you <you@example.com>'
p3702
asbasbasbag69
(g85
g71
NtRp3703
(dp3704
g74
(dp3705
sg83
g3677
sg76
(lp3706
g69
(g90
g71
NtRp3707
(dp3708
g74
(dp3709
g94
g95
ssg83
g3703
sg76
(lp3710
S'description'
p3711
asbag69
(g90
g71
NtRp3712
(dp3713
g74
(dp3714
g101
g102
ssg83
g3703
sg76
(lp3715
S':'
asbag69
(g90
g71
NtRp3716
(dp3717
g74
(dp3718
sg83
g3703
sg76
(lp3719
g69
(g70
g71
NtRp3720
(dp3721
g74
(dp3722
g82
I4
ssg83
g3716
sg76
(lp3723
S''
asbasbasbag69
(g85
g71
NtRp3724
(dp3725
g74
(dp3726
sg83
g3677
sg76
(lp3727
g69
(g90
g71
NtRp3728
(dp3729
g74
(dp3730
g94
g95
ssg83
g3724
sg76
(lp3731
S'keywords'
p3732
asbag69
(g90
g71
NtRp3733
(dp3734
g74
(dp3735
g101
g102
ssg83
g3724
sg76
(lp3736
S':'
asbag69
(g90
g71
NtRp3737
(dp3738
g74
(dp3739
sg83
g3724
sg76
(lp3740
g69
(g70
g71
NtRp3741
(dp3742
g74
(dp3743
g82
I4
ssg83
g3737
sg76
(lp3744
S''
asbasbasbasbasbasbasbag69
(g85
g71
NtRp3745
(dp3746
g74
(dp3747
sg83
g3057
sg76
(lp3748
g69
(g90
g71
NtRp3749
(dp3750
g74
(dp3751
g94
g95
ssg83
g3745
sg76
(lp3752
S'postprocessing'
p3753
asbag69
(g90
g71
NtRp3754
(dp3755
g74
(dp3756
g101
g102
ssg83
g3745
sg76
(lp3757
S':'
asbag69
(g90
g71
NtRp3758
(dp3759
g74
(dp3760
sg83
g3745
sg76
(lp3761
g69
(g70
g71
NtRp3762
(dp3763
g74
(dp3764
g82
I5
ssg83
g3758
sg76
(lp3765
g69
(g78
g71
NtRp3766
(dp3767
g74
(dp3768
g82
I4
ssg83
Nsg76
(lp3769
sbasbasbasbag69
(g85
g71
NtRp3770
(dp3771
g74
(dp3772
sg83
g3057
sg76
(lp3773
g69
(g90
g71
NtRp3774
(dp3775
g74
(dp3776
g94
g95
ssg83
g3770
sg76
(lp3777
S'session_file'
p3778
asbag69
(g90
g71
NtRp3779
(dp3780
g74
(dp3781
g101
g102
ssg83
g3770
sg76
(lp3782
S':'
asbag69
(g90
g71
NtRp3783
(dp3784
g74
(dp3785
sg83
g3770
sg76
(lp3786
g69
(g70
g71
NtRp3787
(dp3788
g74
(dp3789
g82
I5
ssg83
g3783
sg76
(lp3790
S"<open file '/home/maneesha/Downloads/web2py/applications/ssad3/sessions/127.0.0.1-e3a92f58-1ef3-498d-a9bd-a71a58efdf97', mode 'rb+' at 0x7f4a640cfdb0>"
p3791
asbasbasbag69
(g85
g71
NtRp3792
(dp3793
g74
(dp3794
sg83
g3057
sg76
(lp3795
g69
(g90
g71
NtRp3796
(dp3797
g74
(dp3798
g94
g95
ssg83
g3792
sg76
(lp3799
S'session_filename'
p3800
asbag69
(g90
g71
NtRp3801
(dp3802
g74
(dp3803
g101
g102
ssg83
g3792
sg76
(lp3804
S':'
asbag69
(g90
g71
NtRp3805
(dp3806
g74
(dp3807
sg83
g3792
sg76
(lp3808
g69
(g70
g71
NtRp3809
(dp3810
g74
(dp3811
g82
I5
ssg83
g3805
sg76
(lp3812
S'/home/maneesha/Downloads/web2py/applications/ssad3/sessions/127.0.0.1-e3a92f58-1ef3-498d-a9bd-a71a58efdf97'
p3813
asbasbasbag69
(g85
g71
NtRp3814
(dp3815
g74
(dp3816
sg83
g3057
sg76
(lp3817
g69
(g90
g71
NtRp3818
(dp3819
g74
(dp3820
g94
g95
ssg83
g3814
sg76
(lp3821
S'session_id'
p3822
asbag69
(g90
g71
NtRp3823
(dp3824
g74
(dp3825
g101
g102
ssg83
g3814
sg76
(lp3826
S':'
asbag69
(g90
g71
NtRp3827
(dp3828
g74
(dp3829
sg83
g3814
sg76
(lp3830
g69
(g70
g71
NtRp3831
(dp3832
g74
(dp3833
g82
I5
ssg83
g3827
sg76
(lp3834
S'127.0.0.1-e3a92f58-1ef3-498d-a9bd-a71a58efdf97'
p3835
asbasbasbag69
(g85
g71
NtRp3836
(dp3837
g74
(dp3838
sg83
g3057
sg76
(lp3839
g69
(g90
g71
NtRp3840
(dp3841
g74
(dp3842
g94
g95
ssg83
g3836
sg76
(lp3843
S'session_id_name'
p3844
asbag69
(g90
g71
NtRp3845
(dp3846
g74
(dp3847
g101
g102
ssg83
g3836
sg76
(lp3848
S':'
asbag69
(g90
g71
NtRp3849
(dp3850
g74
(dp3851
sg83
g3836
sg76
(lp3852
g69
(g70
g71
NtRp3853
(dp3854
g74
(dp3855
g82
I5
ssg83
g3849
sg76
(lp3856
g3114
asbasbasbag69
(g85
g71
NtRp3857
(dp3858
g74
(dp3859
sg83
g3057
sg76
(lp3860
g69
(g90
g71
NtRp3861
(dp3862
g74
(dp3863
g94
g95
ssg83
g3857
sg76
(lp3864
S'session_locked'
p3865
asbag69
(g90
g71
NtRp3866
(dp3867
g74
(dp3868
g101
g102
ssg83
g3857
sg76
(lp3869
S':'
asbag69
(g90
g71
NtRp3870
(dp3871
g74
(dp3872
sg83
g3857
sg76
(lp3873
g69
(g70
g71
NtRp3874
(dp3875
g74
(dp3876
g82
I5
ssg83
g3870
sg76
(lp3877
g1483
asbasbasbag69
(g85
g71
NtRp3878
(dp3879
g74
(dp3880
sg83
g3057
sg76
(lp3881
g69
(g90
g71
NtRp3882
(dp3883
g74
(dp3884
g94
g95
ssg83
g3878
sg76
(lp3885
S'session_new'
p3886
asbag69
(g90
g71
NtRp3887
(dp3888
g74
(dp3889
g101
g102
ssg83
g3878
sg76
(lp3890
S':'
asbag69
(g90
g71
NtRp3891
(dp3892
g74
(dp3893
sg83
g3878
sg76
(lp3894
g69
(g70
g71
NtRp3895
(dp3896
g74
(dp3897
g82
I5
ssg83
g3891
sg76
(lp3898
g112
asbasbasbag69
(g85
g71
NtRp3899
(dp3900
g74
(dp3901
sg83
g3057
sg76
(lp3902
g69
(g90
g71
NtRp3903
(dp3904
g74
(dp3905
g94
g95
ssg83
g3899
sg76
(lp3906
S'status'
p3907
asbag69
(g90
g71
NtRp3908
(dp3909
g74
(dp3910
g101
g102
ssg83
g3899
sg76
(lp3911
S':'
asbag69
(g90
g71
NtRp3912
(dp3913
g74
(dp3914
sg83
g3899
sg76
(lp3915
g69
(g70
g71
NtRp3916
(dp3917
g74
(dp3918
g82
I5
ssg83
g3912
sg76
(lp3919
S'200'
p3920
asbasbasbag69
(g85
g71
NtRp3921
(dp3922
g74
(dp3923
sg83
g3057
sg76
(lp3924
g69
(g90
g71
NtRp3925
(dp3926
g74
(dp3927
g94
g95
ssg83
g3921
sg76
(lp3928
S'subtitle'
p3929
asbag69
(g90
g71
NtRp3930
(dp3931
g74
(dp3932
g101
g102
ssg83
g3921
sg76
(lp3933
S':'
asbag69
(g90
g71
NtRp3934
(dp3935
g74
(dp3936
sg83
g3921
sg76
(lp3937
g69
(g70
g71
NtRp3938
(dp3939
g74
(dp3940
g82
I5
ssg83
g3934
sg76
(lp3941
S'powered by web2py'
p3942
asbasbasbag69
(g85
g71
NtRp3943
(dp3944
g74
(dp3945
sg83
g3057
sg76
(lp3946
g69
(g90
g71
NtRp3947
(dp3948
g74
(dp3949
g94
g95
ssg83
g3943
sg76
(lp3950
S'title'
p3951
asbag69
(g90
g71
NtRp3952
(dp3953
g74
(dp3954
g101
g102
ssg83
g3943
sg76
(lp3955
S':'
asbag69
(g90
g71
NtRp3956
(dp3957
g74
(dp3958
sg83
g3943
sg76
(lp3959
g69
(g70
g71
NtRp3960
(dp3961
g74
(dp3962
g82
I5
ssg83
g3956
sg76
(lp3963
S'My New App'
p3964
asbasbasbag69
(g85
g71
NtRp3965
(dp3966
g74
(dp3967
sg83
g3057
sg76
(lp3968
g69
(g90
g71
NtRp3969
(dp3970
g74
(dp3971
g94
g95
ssg83
g3965
sg76
(lp3972
g2147
asbag69
(g90
g71
NtRp3973
(dp3974
g74
(dp3975
g101
g102
ssg83
g3965
sg76
(lp3976
S':'
asbag69
(g90
g71
NtRp3977
(dp3978
g74
(dp3979
sg83
g3965
sg76
(lp3980
g69
(g70
g71
NtRp3981
(dp3982
g74
(dp3983
g82
I5
ssg83
g3977
sg76
(lp3984
g2160
asbasbasbag69
(g85
g71
NtRp3985
(dp3986
g74
(dp3987
sg83
g3057
sg76
(lp3988
g69
(g90
g71
NtRp3989
(dp3990
g74
(dp3991
g94
g95
ssg83
g3985
sg76
(lp3992
S'view'
p3993
asbag69
(g90
g71
NtRp3994
(dp3995
g74
(dp3996
g101
g102
ssg83
g3985
sg76
(lp3997
S':'
asbag69
(g90
g71
NtRp3998
(dp3999
g74
(dp4000
sg83
g3985
sg76
(lp4001
g69
(g70
g71
NtRp4002
(dp4003
g74
(dp4004
g82
I5
ssg83
g3998
sg76
(lp4005
S'default/final_ans.html'
p4006
asbasbasbasbasbsS'locals'
p4007
(dp4008
S'err'
p4009
S"gaierror(-2, 'Name or service not known')"
p4010
sS'h'
S'<httplib.HTTPConnection instance>'
p4011
sS'self'
p4012
S'<urllib2.HTTPHandler instance>'
p4013
sS'req'
p4014
S'<urllib2.Request instance>'
p4015
sg3433
S"{'Connection': 'close', 'Cookie': '', 'Host': 'dl.acm.org', 'User-Agent': 'Mozilla/5.0'}"
p4016
sS'host'
p4017
S"'proxy.iiit.ac.in:8080'"
p4018
sS'http_class'
p4019
S'<class httplib.HTTPConnection>'
p4020
sssS'traceback'
p4021
S'Traceback (most recent call last):\n  File "/home/maneesha/Downloads/web2py/gluon/restricted.py", line 205, in restricted\n    exec ccode in environment\n  File "/home/maneesha/Downloads/web2py/applications/ssad3/controllers/default.py", line 143, in <module>\n  File "/home/maneesha/Downloads/web2py/gluon/globals.py", line 173, in <lambda>\n    self._caller = lambda f: f()\n  File "/home/maneesha/Downloads/web2py/applications/ssad3/controllers/default.py", line 49, in final_ans\n    fst_l=extract1(url,l1)\n  File "/home/maneesha/Downloads/web2py/applications/ssad3/controllers/default.py", line 30, in extract1\n    html=fetch(url)\n  File "/home/maneesha/Downloads/web2py/gluon/tools.py", line 3424, in fetch\n    html = urllib2.urlopen(req).read()\n  File "/usr/lib/python2.7/urllib2.py", line 126, in urlopen\n    return _opener.open(url, data, timeout)\n  File "/usr/lib/python2.7/urllib2.py", line 400, in open\n    response = self._open(req, data)\n  File "/usr/lib/python2.7/urllib2.py", line 418, in _open\n    \'_open\', req)\n  File "/usr/lib/python2.7/urllib2.py", line 378, in _call_chain\n    result = func(*args)\n  File "/usr/lib/python2.7/urllib2.py", line 1207, in http_open\n    return self.do_open(httplib.HTTPConnection, req)\n  File "/usr/lib/python2.7/urllib2.py", line 1177, in do_open\n    raise URLError(err)\nURLError: <urlopen error [Errno -2] Name or service not known>\n'
p4022
s.