(dp1
S'output'
p2
S"<type 'exceptions.NameError'> global name 'url' is not defined"
p3
sS'layer'
p4
S'/home/maneesha/Downloads/web2py/applications/ssad3b/controllers/default.py'
p5
sS'code'
p6
S'# -*- coding: utf-8 -*-\n### required - do no delete\n#def user(): return dict(form=auth())\n#def download(): return response.download(request,db)\n#def call(): return service()\n### end requires\n#def index():\n #   return dict()\n\n#def error():\n #   return dict()\nfrom gluon.tools import fetch\nimport re\nlistf=[]\n#ret1=[]\ncount=0\nbigans=[]\ndef index():\n    form=SQLFORM(db.input)\n    if form.process().accepted:\n        response.flash = \'you entred\'\n        redirect(URL(\'final_ans\'))\n    return dict(form=form)\ndef year_user(index_yr):   #index_yr - only in this code not in main one\n    flag=index_yr\n    redirect(URL(\'final_ans()\'))\n    flag=0\n    #return dict(ans=ll1[0],l_yr=ll1[1])\ndef extract1(url,l1):\n    ret=[]\n    ret1=[]\n    html=fetch(url)\n    html_splitted=html.split("<A HREF=\\"citation.cfm")\n    ht=html_splitted[0]\n    del html_splitted[0]\n    k=html_splitted[0].split(\'>\')\n    if k[1][:-3]==l1[0]:\n        k=html_splitted[0].find(\'\\"\')\n        s="http://dl.acm.org/citation.cfm"+html_splitted[0][:k]\n        ret.append(s.split(\'&preflayout\')[0]+\'&preflayout=flat\')\n        ret1.append(\'0\')\n        ret1.append(\'0\')\n    else:\n       # ht=ht.split(\'Sort by\')[1]\n        #htm=ht.split(\'<option value=\\"\')\n        #ret1.append(\'http://dl.acm.org/\'+htm[1].split("\\"")[0])\n        #ret1.append(\'http://dl.acm.org/\'+htm[4].split("\\"")[0])\n        ret1=[\'0\',\'1\']\n        for i in range(0,l1[2]):\n            k=html_splitted[i].find(\'\\"\')\n            s="http://dl.acm.org/citation.cfm"+html_splitted[i][:k]\n            ret.append(s.split(\'&preflayout\')[0]+\'&preflayout=flat\')\n    return ret,ret1\ndef sorting():\n    l1=u_filter()\n    #ret1=eval(request.args(0)[1])\n    #url=ret1[eval(request.args(0)[0])]\n    #url1="http://dl.acm.org/results.cfm?h=1&query="+\'+\'.join(l1[0].split())\n    if request.args(0)==\'0\':\n        url1="http://dl.acm.org/results.cfm?h=1&query="+\'+\'.join(l1[0].split())\n    else:\n        url1="http://dl.acm.org/results.cfm?query="+l1[0]+"&querydisp="+l1[0]+"&srt=meta_published_date dsc&short=0&coll=DL&dl=ACM&source_disp=&source_query=Owner%3AACM&since_month=&since_year=&before_month=&before_year=&termshow=matchall&range_query=&CFID=127637614&CFTOKEN=56646685"\n    fst_l,ret1=extract1(url1,l1)\n    #for l in fst_l:\n     #   listf.append(cite(l))\n    rec(fst_l,l1,bigans)\n    global listf\n    return dict(bigans=bigans,level=l1[1],top=l1[2],ret1=ret1,url=url)\ndef final_ans():\n    l1=u_filter() \n    url="http://dl.acm.org/results.cfm?h=1&query="+\'+\'.join(l1[0].split())\n    fst_l,ret1=extract1(url,l1)\n    #for l in fst_l:\n     #   listf.append(cite(l))\n    rec(fst_l,l1,bigans)\n    global listf\n    return dict(bigans=bigans,level=l1[1],top=l1[2],ret1=ret1,url=url)\ndef rec(list1,l1,bigans):\n    global count\n    count=count+1\n    global listf\n    listf.append([])\n    for x in list1:\n        if x!=\'\':\n            z=cite(x)\n            #global listf\n            #listf[count-1].append(z)\n            bigans.append(z)\n            if count < l1[1]:\n                rec(z[5],l1,bigans[-1])\n    count=count-1\n    return\ndef cite(url):\n    if url==\'\':\n        return []\n    l1=u_filter()\n    html=fetch(url)\n    temp=[]\n        #temp=[]\n    d=re.search(\'<meta name="citation_title"[\\w\\W]*?>\',html).group()\n    d=bold(d)\n        #temp.append(d.split(\'>\')[0][9:-1])\n    temp.append(d.split(\'=\')[2][1:-2])\n    temp.append(url)\n    c=re.search(\'<meta name="citation_authors"[\\w\\W]*?>\',html).group()\n    c=bold(c)\n    if l1[3]==1:\n       #temp.append(d.split(\'>\')[0][9:-1])\n        temp.append(c.split(\'=\')[2][1:-2])\n    else:\n        temp.append(-1)\n    b=re.search(\'<meta name="citation_date"[\\w\\W]*?>\',html).group()\n    b=bold(b)\n    if l1[5]==1:\n        temp.append(b.split(\'=\')[2][1:-2])\n    else:\n        temp.append(-1)\n    s=re.search(\'CITED BY[\\w\\W]*?INDEX TERMS\',html).group()\n    if \'Citings are not available\' not in s:\n        e=re.search(\'\\d* Citations\',s)\n        if l1[4]!=1:\n            temp.append(-1)\n        elif e!=None:\n            temp.append(e.group().split()[0])\n        else:                                                                            \n            temp.append(1)\n        i=0\n        cit=[]\n        while i < l1[2]:\n            i+=1\n            s1=re.search(\'<a href[\\w\\W]*?</a>\',s)\n            if s1==None:\n                cit.append(\'\')\n            elif s1!=None:\n                k=s.find(s1.group())\n                #k1=s[:k]\n                cit.append(("http://dl.acm.org/"+s1.group().split(\'\\"\')[1]).split(\'&preflayout\')[0]+\'&preflayout=flat\')\n                s=s[k+2:]\n           \n        temp.append(cit)\n    else:\n        if l1[4]==1:\n            temp.append(0)\n        else:\n            temp.append(-1)\n        temp.append([])\n    return temp\ndef u_filter():\n    inpu=db().select(db.input.ALL)\n    for inp in inpu:\n        key=inp.keywords\n        level=inp.level\n        top=inp.top\n        auth=inp.author\n        cited_by=inp.cited_by\n        year=inp.year\n    return [key,level,top,auth,cited_by,year]\ndef bold(d):\n    pre=""\n    while pre!=d:\n        pre=d\n        d=d.replace("<b>","");\n        d=d.replace("</b>","");\n    return d\n\nresponse._vars=response._caller(sorting)\n'
p7
sS'snapshot'
p8
(dp9
S'exception'
p10
(dp11
S'__hash__'
p12
S"<method-wrapper '__hash__' of exceptions.NameError object>"
p13
sS'__setattr__'
p14
S"<method-wrapper '__setattr__' of exceptions.NameError object>"
p15
sS'__reduce_ex__'
p16
S'<built-in method __reduce_ex__ of exceptions.NameError object>'
p17
sS'__getslice__'
p18
S"<method-wrapper '__getslice__' of exceptions.NameError object>"
p19
sS'__getitem__'
p20
S"<method-wrapper '__getitem__' of exceptions.NameError object>"
p21
sS'__setstate__'
p22
S'<built-in method __setstate__ of exceptions.NameError object>'
p23
sS'args'
p24
S'("global name \'url\' is not defined",)'
p25
sS'__reduce__'
p26
S'<built-in method __reduce__ of exceptions.NameError object>'
p27
sS'__str__'
p28
S"<method-wrapper '__str__' of exceptions.NameError object>"
p29
sS'__format__'
p30
S'<built-in method __format__ of exceptions.NameError object>'
p31
sS'__getattribute__'
p32
S"<method-wrapper '__getattribute__' of exceptions.NameError object>"
p33
sS'__class__'
p34
S"<type 'exceptions.NameError'>"
p35
sS'__unicode__'
p36
S'<built-in method __unicode__ of exceptions.NameError object>'
p37
sS'__delattr__'
p38
S"<method-wrapper '__delattr__' of exceptions.NameError object>"
p39
sS'__subclasshook__'
p40
S'<built-in method __subclasshook__ of type object>'
p41
sS'__repr__'
p42
S"<method-wrapper '__repr__' of exceptions.NameError object>"
p43
sS'__dict__'
p44
S'{}'
p45
sS'__sizeof__'
p46
S'<built-in method __sizeof__ of exceptions.NameError object>'
p47
sS'__doc__'
p48
S"'Name not found globally.'"
p49
sS'__init__'
p50
S"<method-wrapper '__init__' of exceptions.NameError object>"
p51
sS'__new__'
p52
S'<built-in method __new__ of type object>'
p53
ssS'evalue'
p54
S"global name 'url' is not defined"
p55
sS'request'
p56
ccopy_reg
_reconstructor
p57
(cgluon.html
BEAUTIFY
p58
c__builtin__
object
p59
NtRp60
(dp61
S'attributes'
p62
(dp63
sS'components'
p64
(lp65
g57
(cgluon.html
TABLE
p66
g59
NtRp67
(dp68
g62
(dp69
S'level'
p70
I5
ssS'parent'
p71
Nsg64
(lp72
g57
(cgluon.html
TR
p73
g59
NtRp74
(dp75
g62
(dp76
sg71
g67
sg64
(lp77
g57
(cgluon.html
TD
p78
g59
NtRp79
(dp80
g62
(dp81
S'_style'
p82
S'font-weight:bold;vertical-align:top'
p83
ssg71
g74
sg64
(lp84
S'ajax'
p85
asbag57
(g78
g59
NtRp86
(dp87
g62
(dp88
S'_valign'
p89
S'top'
p90
ssg71
g74
sg64
(lp91
S':'
asbag57
(g78
g59
NtRp92
(dp93
g62
(dp94
sg71
g74
sg64
(lp95
g57
(g58
g59
NtRp96
(dp97
g62
(dp98
g70
I5
ssg71
g92
sg64
(lp99
S'False'
p100
asbasbasbag57
(g73
g59
NtRp101
(dp102
g62
(dp103
sg71
g67
sg64
(lp104
g57
(g78
g59
NtRp105
(dp106
g62
(dp107
g82
g83
ssg71
g101
sg64
(lp108
S'application'
p109
asbag57
(g78
g59
NtRp110
(dp111
g62
(dp112
g89
g90
ssg71
g101
sg64
(lp113
S':'
asbag57
(g78
g59
NtRp114
(dp115
g62
(dp116
sg71
g101
sg64
(lp117
g57
(g58
g59
NtRp118
(dp119
g62
(dp120
g70
I5
ssg71
g114
sg64
(lp121
S'ssad3b'
p122
asbasbasbag57
(g73
g59
NtRp123
(dp124
g62
(dp125
sg71
g67
sg64
(lp126
g57
(g78
g59
NtRp127
(dp128
g62
(dp129
g82
g83
ssg71
g123
sg64
(lp130
g24
asbag57
(g78
g59
NtRp131
(dp132
g62
(dp133
g89
g90
ssg71
g123
sg64
(lp134
S':'
asbag57
(g78
g59
NtRp135
(dp136
g62
(dp137
sg71
g123
sg64
(lp138
g57
(g58
g59
NtRp139
(dp140
g62
(dp141
g70
I5
ssg71
g135
sg64
(lp142
g57
(g66
g59
NtRp143
(dp144
g62
(dp145
g70
I4
ssg71
Nsg64
(lp146
g57
(g73
g59
NtRp147
(dp148
g62
(dp149
sg71
g143
sg64
(lp150
g57
(g78
g59
NtRp151
(dp152
g62
(dp153
sg71
g147
sg64
(lp154
g57
(g58
g59
NtRp155
(dp156
g62
(dp157
g70
I4
ssg71
g151
sg64
(lp158
S'1'
asbasbasbasbasbasbasbag57
(g73
g59
NtRp159
(dp160
g62
(dp161
sg71
g67
sg64
(lp162
g57
(g78
g59
NtRp163
(dp164
g62
(dp165
g82
g83
ssg71
g159
sg64
(lp166
S'body'
p167
asbag57
(g78
g59
NtRp168
(dp169
g62
(dp170
g89
g90
ssg71
g159
sg64
(lp171
S':'
asbag57
(g78
g59
NtRp172
(dp173
g62
(dp174
sg71
g159
sg64
(lp175
g57
(g58
g59
NtRp176
(dp177
g62
(dp178
g70
I5
ssg71
g172
sg64
(lp179
S'<cStringIO.StringO object at 0x7f8f082e3b58>'
p180
asbasbasbag57
(g73
g59
NtRp181
(dp182
g62
(dp183
sg71
g67
sg64
(lp184
g57
(g78
g59
NtRp185
(dp186
g62
(dp187
g82
g83
ssg71
g181
sg64
(lp188
S'client'
p189
asbag57
(g78
g59
NtRp190
(dp191
g62
(dp192
g89
g90
ssg71
g181
sg64
(lp193
S':'
asbag57
(g78
g59
NtRp194
(dp195
g62
(dp196
sg71
g181
sg64
(lp197
g57
(g58
g59
NtRp198
(dp199
g62
(dp200
g70
I5
ssg71
g194
sg64
(lp201
S'127.0.0.1'
p202
asbasbasbag57
(g73
g59
NtRp203
(dp204
g62
(dp205
sg71
g67
sg64
(lp206
g57
(g78
g59
NtRp207
(dp208
g62
(dp209
g82
g83
ssg71
g203
sg64
(lp210
S'controller'
p211
asbag57
(g78
g59
NtRp212
(dp213
g62
(dp214
g89
g90
ssg71
g203
sg64
(lp215
S':'
asbag57
(g78
g59
NtRp216
(dp217
g62
(dp218
sg71
g203
sg64
(lp219
g57
(g58
g59
NtRp220
(dp221
g62
(dp222
g70
I5
ssg71
g216
sg64
(lp223
S'default'
p224
asbasbasbag57
(g73
g59
NtRp225
(dp226
g62
(dp227
sg71
g67
sg64
(lp228
g57
(g78
g59
NtRp229
(dp230
g62
(dp231
g82
g83
ssg71
g225
sg64
(lp232
S'cookies'
p233
asbag57
(g78
g59
NtRp234
(dp235
g62
(dp236
g89
g90
ssg71
g225
sg64
(lp237
S':'
asbag57
(g78
g59
NtRp238
(dp239
g62
(dp240
sg71
g225
sg64
(lp241
g57
(g58
g59
NtRp242
(dp243
g62
(dp244
g70
I5
ssg71
g238
sg64
(lp245
g57
(g66
g59
NtRp246
(dp247
g62
(dp248
g70
I4
ssg71
Nsg64
(lp249
g57
(g73
g59
NtRp250
(dp251
g62
(dp252
sg71
g246
sg64
(lp253
g57
(g78
g59
NtRp254
(dp255
g62
(dp256
g82
g83
ssg71
g250
sg64
(lp257
S'session_id_admin'
p258
asbag57
(g78
g59
NtRp259
(dp260
g62
(dp261
g89
g90
ssg71
g250
sg64
(lp262
S':'
asbag57
(g78
g59
NtRp263
(dp264
g62
(dp265
sg71
g250
sg64
(lp266
g57
(g58
g59
NtRp267
(dp268
g62
(dp269
g70
I4
ssg71
g263
sg64
(lp270
g57
(g66
g59
NtRp271
(dp272
g62
(dp273
g70
I3
ssg71
Nsg64
(lp274
g57
(g73
g59
NtRp275
(dp276
g62
(dp277
sg71
g271
sg64
(lp278
g57
(g78
g59
NtRp279
(dp280
g62
(dp281
g82
g83
ssg71
g275
sg64
(lp282
S'comment'
p283
asbag57
(g78
g59
NtRp284
(dp285
g62
(dp286
g89
g90
ssg71
g275
sg64
(lp287
S':'
asbag57
(g78
g59
NtRp288
(dp289
g62
(dp290
sg71
g275
sg64
(lp291
g57
(g58
g59
NtRp292
(dp293
g62
(dp294
g70
I3
ssg71
g288
sg64
(lp295
S''
asbasbasbag57
(g73
g59
NtRp296
(dp297
g62
(dp298
sg71
g271
sg64
(lp299
g57
(g78
g59
NtRp300
(dp301
g62
(dp302
g82
g83
ssg71
g296
sg64
(lp303
S'domain'
p304
asbag57
(g78
g59
NtRp305
(dp306
g62
(dp307
g89
g90
ssg71
g296
sg64
(lp308
S':'
asbag57
(g78
g59
NtRp309
(dp310
g62
(dp311
sg71
g296
sg64
(lp312
g57
(g58
g59
NtRp313
(dp314
g62
(dp315
g70
I3
ssg71
g309
sg64
(lp316
S''
asbasbasbag57
(g73
g59
NtRp317
(dp318
g62
(dp319
sg71
g271
sg64
(lp320
g57
(g78
g59
NtRp321
(dp322
g62
(dp323
g82
g83
ssg71
g317
sg64
(lp324
S'expires'
p325
asbag57
(g78
g59
NtRp326
(dp327
g62
(dp328
g89
g90
ssg71
g317
sg64
(lp329
S':'
asbag57
(g78
g59
NtRp330
(dp331
g62
(dp332
sg71
g317
sg64
(lp333
g57
(g58
g59
NtRp334
(dp335
g62
(dp336
g70
I3
ssg71
g330
sg64
(lp337
S''
asbasbasbag57
(g73
g59
NtRp338
(dp339
g62
(dp340
sg71
g271
sg64
(lp341
g57
(g78
g59
NtRp342
(dp343
g62
(dp344
g82
g83
ssg71
g338
sg64
(lp345
S'httponly'
p346
asbag57
(g78
g59
NtRp347
(dp348
g62
(dp349
g89
g90
ssg71
g338
sg64
(lp350
S':'
asbag57
(g78
g59
NtRp351
(dp352
g62
(dp353
sg71
g338
sg64
(lp354
g57
(g58
g59
NtRp355
(dp356
g62
(dp357
g70
I3
ssg71
g351
sg64
(lp358
S''
asbasbasbag57
(g73
g59
NtRp359
(dp360
g62
(dp361
sg71
g271
sg64
(lp362
g57
(g78
g59
NtRp363
(dp364
g62
(dp365
g82
g83
ssg71
g359
sg64
(lp366
S'max-age'
p367
asbag57
(g78
g59
NtRp368
(dp369
g62
(dp370
g89
g90
ssg71
g359
sg64
(lp371
S':'
asbag57
(g78
g59
NtRp372
(dp373
g62
(dp374
sg71
g359
sg64
(lp375
g57
(g58
g59
NtRp376
(dp377
g62
(dp378
g70
I3
ssg71
g372
sg64
(lp379
S''
asbasbasbag57
(g73
g59
NtRp380
(dp381
g62
(dp382
sg71
g271
sg64
(lp383
g57
(g78
g59
NtRp384
(dp385
g62
(dp386
g82
g83
ssg71
g380
sg64
(lp387
S'path'
p388
asbag57
(g78
g59
NtRp389
(dp390
g62
(dp391
g89
g90
ssg71
g380
sg64
(lp392
S':'
asbag57
(g78
g59
NtRp393
(dp394
g62
(dp395
sg71
g380
sg64
(lp396
g57
(g58
g59
NtRp397
(dp398
g62
(dp399
g70
I3
ssg71
g393
sg64
(lp400
S''
asbasbasbag57
(g73
g59
NtRp401
(dp402
g62
(dp403
sg71
g271
sg64
(lp404
g57
(g78
g59
NtRp405
(dp406
g62
(dp407
g82
g83
ssg71
g401
sg64
(lp408
S'secure'
p409
asbag57
(g78
g59
NtRp410
(dp411
g62
(dp412
g89
g90
ssg71
g401
sg64
(lp413
S':'
asbag57
(g78
g59
NtRp414
(dp415
g62
(dp416
sg71
g401
sg64
(lp417
g57
(g58
g59
NtRp418
(dp419
g62
(dp420
g70
I3
ssg71
g414
sg64
(lp421
S''
asbasbasbag57
(g73
g59
NtRp422
(dp423
g62
(dp424
sg71
g271
sg64
(lp425
g57
(g78
g59
NtRp426
(dp427
g62
(dp428
g82
g83
ssg71
g422
sg64
(lp429
S'version'
p430
asbag57
(g78
g59
NtRp431
(dp432
g62
(dp433
g89
g90
ssg71
g422
sg64
(lp434
S':'
asbag57
(g78
g59
NtRp435
(dp436
g62
(dp437
sg71
g422
sg64
(lp438
g57
(g58
g59
NtRp439
(dp440
g62
(dp441
g70
I3
ssg71
g435
sg64
(lp442
S''
asbasbasbasbasbasbasbag57
(g73
g59
NtRp443
(dp444
g62
(dp445
sg71
g246
sg64
(lp446
g57
(g78
g59
NtRp447
(dp448
g62
(dp449
g82
g83
ssg71
g443
sg64
(lp450
S'session_id_photo'
p451
asbag57
(g78
g59
NtRp452
(dp453
g62
(dp454
g89
g90
ssg71
g443
sg64
(lp455
S':'
asbag57
(g78
g59
NtRp456
(dp457
g62
(dp458
sg71
g443
sg64
(lp459
g57
(g58
g59
NtRp460
(dp461
g62
(dp462
g70
I4
ssg71
g456
sg64
(lp463
g57
(g66
g59
NtRp464
(dp465
g62
(dp466
g70
I3
ssg71
Nsg64
(lp467
g57
(g73
g59
NtRp468
(dp469
g62
(dp470
sg71
g464
sg64
(lp471
g57
(g78
g59
NtRp472
(dp473
g62
(dp474
g82
g83
ssg71
g468
sg64
(lp475
g283
asbag57
(g78
g59
NtRp476
(dp477
g62
(dp478
g89
g90
ssg71
g468
sg64
(lp479
S':'
asbag57
(g78
g59
NtRp480
(dp481
g62
(dp482
sg71
g468
sg64
(lp483
g57
(g58
g59
NtRp484
(dp485
g62
(dp486
g70
I3
ssg71
g480
sg64
(lp487
S''
asbasbasbag57
(g73
g59
NtRp488
(dp489
g62
(dp490
sg71
g464
sg64
(lp491
g57
(g78
g59
NtRp492
(dp493
g62
(dp494
g82
g83
ssg71
g488
sg64
(lp495
g304
asbag57
(g78
g59
NtRp496
(dp497
g62
(dp498
g89
g90
ssg71
g488
sg64
(lp499
S':'
asbag57
(g78
g59
NtRp500
(dp501
g62
(dp502
sg71
g488
sg64
(lp503
g57
(g58
g59
NtRp504
(dp505
g62
(dp506
g70
I3
ssg71
g500
sg64
(lp507
S''
asbasbasbag57
(g73
g59
NtRp508
(dp509
g62
(dp510
sg71
g464
sg64
(lp511
g57
(g78
g59
NtRp512
(dp513
g62
(dp514
g82
g83
ssg71
g508
sg64
(lp515
g325
asbag57
(g78
g59
NtRp516
(dp517
g62
(dp518
g89
g90
ssg71
g508
sg64
(lp519
S':'
asbag57
(g78
g59
NtRp520
(dp521
g62
(dp522
sg71
g508
sg64
(lp523
g57
(g58
g59
NtRp524
(dp525
g62
(dp526
g70
I3
ssg71
g520
sg64
(lp527
S''
asbasbasbag57
(g73
g59
NtRp528
(dp529
g62
(dp530
sg71
g464
sg64
(lp531
g57
(g78
g59
NtRp532
(dp533
g62
(dp534
g82
g83
ssg71
g528
sg64
(lp535
g346
asbag57
(g78
g59
NtRp536
(dp537
g62
(dp538
g89
g90
ssg71
g528
sg64
(lp539
S':'
asbag57
(g78
g59
NtRp540
(dp541
g62
(dp542
sg71
g528
sg64
(lp543
g57
(g58
g59
NtRp544
(dp545
g62
(dp546
g70
I3
ssg71
g540
sg64
(lp547
S''
asbasbasbag57
(g73
g59
NtRp548
(dp549
g62
(dp550
sg71
g464
sg64
(lp551
g57
(g78
g59
NtRp552
(dp553
g62
(dp554
g82
g83
ssg71
g548
sg64
(lp555
g367
asbag57
(g78
g59
NtRp556
(dp557
g62
(dp558
g89
g90
ssg71
g548
sg64
(lp559
S':'
asbag57
(g78
g59
NtRp560
(dp561
g62
(dp562
sg71
g548
sg64
(lp563
g57
(g58
g59
NtRp564
(dp565
g62
(dp566
g70
I3
ssg71
g560
sg64
(lp567
S''
asbasbasbag57
(g73
g59
NtRp568
(dp569
g62
(dp570
sg71
g464
sg64
(lp571
g57
(g78
g59
NtRp572
(dp573
g62
(dp574
g82
g83
ssg71
g568
sg64
(lp575
g388
asbag57
(g78
g59
NtRp576
(dp577
g62
(dp578
g89
g90
ssg71
g568
sg64
(lp579
S':'
asbag57
(g78
g59
NtRp580
(dp581
g62
(dp582
sg71
g568
sg64
(lp583
g57
(g58
g59
NtRp584
(dp585
g62
(dp586
g70
I3
ssg71
g580
sg64
(lp587
S''
asbasbasbag57
(g73
g59
NtRp588
(dp589
g62
(dp590
sg71
g464
sg64
(lp591
g57
(g78
g59
NtRp592
(dp593
g62
(dp594
g82
g83
ssg71
g588
sg64
(lp595
g409
asbag57
(g78
g59
NtRp596
(dp597
g62
(dp598
g89
g90
ssg71
g588
sg64
(lp599
S':'
asbag57
(g78
g59
NtRp600
(dp601
g62
(dp602
sg71
g588
sg64
(lp603
g57
(g58
g59
NtRp604
(dp605
g62
(dp606
g70
I3
ssg71
g600
sg64
(lp607
S''
asbasbasbag57
(g73
g59
NtRp608
(dp609
g62
(dp610
sg71
g464
sg64
(lp611
g57
(g78
g59
NtRp612
(dp613
g62
(dp614
g82
g83
ssg71
g608
sg64
(lp615
g430
asbag57
(g78
g59
NtRp616
(dp617
g62
(dp618
g89
g90
ssg71
g608
sg64
(lp619
S':'
asbag57
(g78
g59
NtRp620
(dp621
g62
(dp622
sg71
g608
sg64
(lp623
g57
(g58
g59
NtRp624
(dp625
g62
(dp626
g70
I3
ssg71
g620
sg64
(lp627
S''
asbasbasbasbasbasbasbag57
(g73
g59
NtRp628
(dp629
g62
(dp630
sg71
g246
sg64
(lp631
g57
(g78
g59
NtRp632
(dp633
g62
(dp634
g82
g83
ssg71
g628
sg64
(lp635
S'session_id_proj_rough'
p636
asbag57
(g78
g59
NtRp637
(dp638
g62
(dp639
g89
g90
ssg71
g628
sg64
(lp640
S':'
asbag57
(g78
g59
NtRp641
(dp642
g62
(dp643
sg71
g628
sg64
(lp644
g57
(g58
g59
NtRp645
(dp646
g62
(dp647
g70
I4
ssg71
g641
sg64
(lp648
g57
(g66
g59
NtRp649
(dp650
g62
(dp651
g70
I3
ssg71
Nsg64
(lp652
g57
(g73
g59
NtRp653
(dp654
g62
(dp655
sg71
g649
sg64
(lp656
g57
(g78
g59
NtRp657
(dp658
g62
(dp659
g82
g83
ssg71
g653
sg64
(lp660
g283
asbag57
(g78
g59
NtRp661
(dp662
g62
(dp663
g89
g90
ssg71
g653
sg64
(lp664
S':'
asbag57
(g78
g59
NtRp665
(dp666
g62
(dp667
sg71
g653
sg64
(lp668
g57
(g58
g59
NtRp669
(dp670
g62
(dp671
g70
I3
ssg71
g665
sg64
(lp672
S''
asbasbasbag57
(g73
g59
NtRp673
(dp674
g62
(dp675
sg71
g649
sg64
(lp676
g57
(g78
g59
NtRp677
(dp678
g62
(dp679
g82
g83
ssg71
g673
sg64
(lp680
g304
asbag57
(g78
g59
NtRp681
(dp682
g62
(dp683
g89
g90
ssg71
g673
sg64
(lp684
S':'
asbag57
(g78
g59
NtRp685
(dp686
g62
(dp687
sg71
g673
sg64
(lp688
g57
(g58
g59
NtRp689
(dp690
g62
(dp691
g70
I3
ssg71
g685
sg64
(lp692
S''
asbasbasbag57
(g73
g59
NtRp693
(dp694
g62
(dp695
sg71
g649
sg64
(lp696
g57
(g78
g59
NtRp697
(dp698
g62
(dp699
g82
g83
ssg71
g693
sg64
(lp700
g325
asbag57
(g78
g59
NtRp701
(dp702
g62
(dp703
g89
g90
ssg71
g693
sg64
(lp704
S':'
asbag57
(g78
g59
NtRp705
(dp706
g62
(dp707
sg71
g693
sg64
(lp708
g57
(g58
g59
NtRp709
(dp710
g62
(dp711
g70
I3
ssg71
g705
sg64
(lp712
S''
asbasbasbag57
(g73
g59
NtRp713
(dp714
g62
(dp715
sg71
g649
sg64
(lp716
g57
(g78
g59
NtRp717
(dp718
g62
(dp719
g82
g83
ssg71
g713
sg64
(lp720
g346
asbag57
(g78
g59
NtRp721
(dp722
g62
(dp723
g89
g90
ssg71
g713
sg64
(lp724
S':'
asbag57
(g78
g59
NtRp725
(dp726
g62
(dp727
sg71
g713
sg64
(lp728
g57
(g58
g59
NtRp729
(dp730
g62
(dp731
g70
I3
ssg71
g725
sg64
(lp732
S''
asbasbasbag57
(g73
g59
NtRp733
(dp734
g62
(dp735
sg71
g649
sg64
(lp736
g57
(g78
g59
NtRp737
(dp738
g62
(dp739
g82
g83
ssg71
g733
sg64
(lp740
g367
asbag57
(g78
g59
NtRp741
(dp742
g62
(dp743
g89
g90
ssg71
g733
sg64
(lp744
S':'
asbag57
(g78
g59
NtRp745
(dp746
g62
(dp747
sg71
g733
sg64
(lp748
g57
(g58
g59
NtRp749
(dp750
g62
(dp751
g70
I3
ssg71
g745
sg64
(lp752
S''
asbasbasbag57
(g73
g59
NtRp753
(dp754
g62
(dp755
sg71
g649
sg64
(lp756
g57
(g78
g59
NtRp757
(dp758
g62
(dp759
g82
g83
ssg71
g753
sg64
(lp760
g388
asbag57
(g78
g59
NtRp761
(dp762
g62
(dp763
g89
g90
ssg71
g753
sg64
(lp764
S':'
asbag57
(g78
g59
NtRp765
(dp766
g62
(dp767
sg71
g753
sg64
(lp768
g57
(g58
g59
NtRp769
(dp770
g62
(dp771
g70
I3
ssg71
g765
sg64
(lp772
S''
asbasbasbag57
(g73
g59
NtRp773
(dp774
g62
(dp775
sg71
g649
sg64
(lp776
g57
(g78
g59
NtRp777
(dp778
g62
(dp779
g82
g83
ssg71
g773
sg64
(lp780
g409
asbag57
(g78
g59
NtRp781
(dp782
g62
(dp783
g89
g90
ssg71
g773
sg64
(lp784
S':'
asbag57
(g78
g59
NtRp785
(dp786
g62
(dp787
sg71
g773
sg64
(lp788
g57
(g58
g59
NtRp789
(dp790
g62
(dp791
g70
I3
ssg71
g785
sg64
(lp792
S''
asbasbasbag57
(g73
g59
NtRp793
(dp794
g62
(dp795
sg71
g649
sg64
(lp796
g57
(g78
g59
NtRp797
(dp798
g62
(dp799
g82
g83
ssg71
g793
sg64
(lp800
g430
asbag57
(g78
g59
NtRp801
(dp802
g62
(dp803
g89
g90
ssg71
g793
sg64
(lp804
S':'
asbag57
(g78
g59
NtRp805
(dp806
g62
(dp807
sg71
g793
sg64
(lp808
g57
(g58
g59
NtRp809
(dp810
g62
(dp811
g70
I3
ssg71
g805
sg64
(lp812
S''
asbasbasbasbasbasbasbag57
(g73
g59
NtRp813
(dp814
g62
(dp815
sg71
g246
sg64
(lp816
g57
(g78
g59
NtRp817
(dp818
g62
(dp819
g82
g83
ssg71
g813
sg64
(lp820
S'session_id_ssad3a'
p821
asbag57
(g78
g59
NtRp822
(dp823
g62
(dp824
g89
g90
ssg71
g813
sg64
(lp825
S':'
asbag57
(g78
g59
NtRp826
(dp827
g62
(dp828
sg71
g813
sg64
(lp829
g57
(g58
g59
NtRp830
(dp831
g62
(dp832
g70
I4
ssg71
g826
sg64
(lp833
g57
(g66
g59
NtRp834
(dp835
g62
(dp836
g70
I3
ssg71
Nsg64
(lp837
g57
(g73
g59
NtRp838
(dp839
g62
(dp840
sg71
g834
sg64
(lp841
g57
(g78
g59
NtRp842
(dp843
g62
(dp844
g82
g83
ssg71
g838
sg64
(lp845
g283
asbag57
(g78
g59
NtRp846
(dp847
g62
(dp848
g89
g90
ssg71
g838
sg64
(lp849
S':'
asbag57
(g78
g59
NtRp850
(dp851
g62
(dp852
sg71
g838
sg64
(lp853
g57
(g58
g59
NtRp854
(dp855
g62
(dp856
g70
I3
ssg71
g850
sg64
(lp857
S''
asbasbasbag57
(g73
g59
NtRp858
(dp859
g62
(dp860
sg71
g834
sg64
(lp861
g57
(g78
g59
NtRp862
(dp863
g62
(dp864
g82
g83
ssg71
g858
sg64
(lp865
g304
asbag57
(g78
g59
NtRp866
(dp867
g62
(dp868
g89
g90
ssg71
g858
sg64
(lp869
S':'
asbag57
(g78
g59
NtRp870
(dp871
g62
(dp872
sg71
g858
sg64
(lp873
g57
(g58
g59
NtRp874
(dp875
g62
(dp876
g70
I3
ssg71
g870
sg64
(lp877
S''
asbasbasbag57
(g73
g59
NtRp878
(dp879
g62
(dp880
sg71
g834
sg64
(lp881
g57
(g78
g59
NtRp882
(dp883
g62
(dp884
g82
g83
ssg71
g878
sg64
(lp885
g325
asbag57
(g78
g59
NtRp886
(dp887
g62
(dp888
g89
g90
ssg71
g878
sg64
(lp889
S':'
asbag57
(g78
g59
NtRp890
(dp891
g62
(dp892
sg71
g878
sg64
(lp893
g57
(g58
g59
NtRp894
(dp895
g62
(dp896
g70
I3
ssg71
g890
sg64
(lp897
S''
asbasbasbag57
(g73
g59
NtRp898
(dp899
g62
(dp900
sg71
g834
sg64
(lp901
g57
(g78
g59
NtRp902
(dp903
g62
(dp904
g82
g83
ssg71
g898
sg64
(lp905
g346
asbag57
(g78
g59
NtRp906
(dp907
g62
(dp908
g89
g90
ssg71
g898
sg64
(lp909
S':'
asbag57
(g78
g59
NtRp910
(dp911
g62
(dp912
sg71
g898
sg64
(lp913
g57
(g58
g59
NtRp914
(dp915
g62
(dp916
g70
I3
ssg71
g910
sg64
(lp917
S''
asbasbasbag57
(g73
g59
NtRp918
(dp919
g62
(dp920
sg71
g834
sg64
(lp921
g57
(g78
g59
NtRp922
(dp923
g62
(dp924
g82
g83
ssg71
g918
sg64
(lp925
g367
asbag57
(g78
g59
NtRp926
(dp927
g62
(dp928
g89
g90
ssg71
g918
sg64
(lp929
S':'
asbag57
(g78
g59
NtRp930
(dp931
g62
(dp932
sg71
g918
sg64
(lp933
g57
(g58
g59
NtRp934
(dp935
g62
(dp936
g70
I3
ssg71
g930
sg64
(lp937
S''
asbasbasbag57
(g73
g59
NtRp938
(dp939
g62
(dp940
sg71
g834
sg64
(lp941
g57
(g78
g59
NtRp942
(dp943
g62
(dp944
g82
g83
ssg71
g938
sg64
(lp945
g388
asbag57
(g78
g59
NtRp946
(dp947
g62
(dp948
g89
g90
ssg71
g938
sg64
(lp949
S':'
asbag57
(g78
g59
NtRp950
(dp951
g62
(dp952
sg71
g938
sg64
(lp953
g57
(g58
g59
NtRp954
(dp955
g62
(dp956
g70
I3
ssg71
g950
sg64
(lp957
S''
asbasbasbag57
(g73
g59
NtRp958
(dp959
g62
(dp960
sg71
g834
sg64
(lp961
g57
(g78
g59
NtRp962
(dp963
g62
(dp964
g82
g83
ssg71
g958
sg64
(lp965
g409
asbag57
(g78
g59
NtRp966
(dp967
g62
(dp968
g89
g90
ssg71
g958
sg64
(lp969
S':'
asbag57
(g78
g59
NtRp970
(dp971
g62
(dp972
sg71
g958
sg64
(lp973
g57
(g58
g59
NtRp974
(dp975
g62
(dp976
g70
I3
ssg71
g970
sg64
(lp977
S''
asbasbasbag57
(g73
g59
NtRp978
(dp979
g62
(dp980
sg71
g834
sg64
(lp981
g57
(g78
g59
NtRp982
(dp983
g62
(dp984
g82
g83
ssg71
g978
sg64
(lp985
g430
asbag57
(g78
g59
NtRp986
(dp987
g62
(dp988
g89
g90
ssg71
g978
sg64
(lp989
S':'
asbag57
(g78
g59
NtRp990
(dp991
g62
(dp992
sg71
g978
sg64
(lp993
g57
(g58
g59
NtRp994
(dp995
g62
(dp996
g70
I3
ssg71
g990
sg64
(lp997
S''
asbasbasbasbasbasbasbag57
(g73
g59
NtRp998
(dp999
g62
(dp1000
sg71
g246
sg64
(lp1001
g57
(g78
g59
NtRp1002
(dp1003
g62
(dp1004
g82
g83
ssg71
g998
sg64
(lp1005
S'session_id_ssad3b'
p1006
asbag57
(g78
g59
NtRp1007
(dp1008
g62
(dp1009
g89
g90
ssg71
g998
sg64
(lp1010
S':'
asbag57
(g78
g59
NtRp1011
(dp1012
g62
(dp1013
sg71
g998
sg64
(lp1014
g57
(g58
g59
NtRp1015
(dp1016
g62
(dp1017
g70
I4
ssg71
g1011
sg64
(lp1018
g57
(g66
g59
NtRp1019
(dp1020
g62
(dp1021
g70
I3
ssg71
Nsg64
(lp1022
g57
(g73
g59
NtRp1023
(dp1024
g62
(dp1025
sg71
g1019
sg64
(lp1026
g57
(g78
g59
NtRp1027
(dp1028
g62
(dp1029
g82
g83
ssg71
g1023
sg64
(lp1030
g283
asbag57
(g78
g59
NtRp1031
(dp1032
g62
(dp1033
g89
g90
ssg71
g1023
sg64
(lp1034
S':'
asbag57
(g78
g59
NtRp1035
(dp1036
g62
(dp1037
sg71
g1023
sg64
(lp1038
g57
(g58
g59
NtRp1039
(dp1040
g62
(dp1041
g70
I3
ssg71
g1035
sg64
(lp1042
S''
asbasbasbag57
(g73
g59
NtRp1043
(dp1044
g62
(dp1045
sg71
g1019
sg64
(lp1046
g57
(g78
g59
NtRp1047
(dp1048
g62
(dp1049
g82
g83
ssg71
g1043
sg64
(lp1050
g304
asbag57
(g78
g59
NtRp1051
(dp1052
g62
(dp1053
g89
g90
ssg71
g1043
sg64
(lp1054
S':'
asbag57
(g78
g59
NtRp1055
(dp1056
g62
(dp1057
sg71
g1043
sg64
(lp1058
g57
(g58
g59
NtRp1059
(dp1060
g62
(dp1061
g70
I3
ssg71
g1055
sg64
(lp1062
S''
asbasbasbag57
(g73
g59
NtRp1063
(dp1064
g62
(dp1065
sg71
g1019
sg64
(lp1066
g57
(g78
g59
NtRp1067
(dp1068
g62
(dp1069
g82
g83
ssg71
g1063
sg64
(lp1070
g325
asbag57
(g78
g59
NtRp1071
(dp1072
g62
(dp1073
g89
g90
ssg71
g1063
sg64
(lp1074
S':'
asbag57
(g78
g59
NtRp1075
(dp1076
g62
(dp1077
sg71
g1063
sg64
(lp1078
g57
(g58
g59
NtRp1079
(dp1080
g62
(dp1081
g70
I3
ssg71
g1075
sg64
(lp1082
S''
asbasbasbag57
(g73
g59
NtRp1083
(dp1084
g62
(dp1085
sg71
g1019
sg64
(lp1086
g57
(g78
g59
NtRp1087
(dp1088
g62
(dp1089
g82
g83
ssg71
g1083
sg64
(lp1090
g346
asbag57
(g78
g59
NtRp1091
(dp1092
g62
(dp1093
g89
g90
ssg71
g1083
sg64
(lp1094
S':'
asbag57
(g78
g59
NtRp1095
(dp1096
g62
(dp1097
sg71
g1083
sg64
(lp1098
g57
(g58
g59
NtRp1099
(dp1100
g62
(dp1101
g70
I3
ssg71
g1095
sg64
(lp1102
S''
asbasbasbag57
(g73
g59
NtRp1103
(dp1104
g62
(dp1105
sg71
g1019
sg64
(lp1106
g57
(g78
g59
NtRp1107
(dp1108
g62
(dp1109
g82
g83
ssg71
g1103
sg64
(lp1110
g367
asbag57
(g78
g59
NtRp1111
(dp1112
g62
(dp1113
g89
g90
ssg71
g1103
sg64
(lp1114
S':'
asbag57
(g78
g59
NtRp1115
(dp1116
g62
(dp1117
sg71
g1103
sg64
(lp1118
g57
(g58
g59
NtRp1119
(dp1120
g62
(dp1121
g70
I3
ssg71
g1115
sg64
(lp1122
S''
asbasbasbag57
(g73
g59
NtRp1123
(dp1124
g62
(dp1125
sg71
g1019
sg64
(lp1126
g57
(g78
g59
NtRp1127
(dp1128
g62
(dp1129
g82
g83
ssg71
g1123
sg64
(lp1130
g388
asbag57
(g78
g59
NtRp1131
(dp1132
g62
(dp1133
g89
g90
ssg71
g1123
sg64
(lp1134
S':'
asbag57
(g78
g59
NtRp1135
(dp1136
g62
(dp1137
sg71
g1123
sg64
(lp1138
g57
(g58
g59
NtRp1139
(dp1140
g62
(dp1141
g70
I3
ssg71
g1135
sg64
(lp1142
S''
asbasbasbag57
(g73
g59
NtRp1143
(dp1144
g62
(dp1145
sg71
g1019
sg64
(lp1146
g57
(g78
g59
NtRp1147
(dp1148
g62
(dp1149
g82
g83
ssg71
g1143
sg64
(lp1150
g409
asbag57
(g78
g59
NtRp1151
(dp1152
g62
(dp1153
g89
g90
ssg71
g1143
sg64
(lp1154
S':'
asbag57
(g78
g59
NtRp1155
(dp1156
g62
(dp1157
sg71
g1143
sg64
(lp1158
g57
(g58
g59
NtRp1159
(dp1160
g62
(dp1161
g70
I3
ssg71
g1155
sg64
(lp1162
S''
asbasbasbag57
(g73
g59
NtRp1163
(dp1164
g62
(dp1165
sg71
g1019
sg64
(lp1166
g57
(g78
g59
NtRp1167
(dp1168
g62
(dp1169
g82
g83
ssg71
g1163
sg64
(lp1170
g430
asbag57
(g78
g59
NtRp1171
(dp1172
g62
(dp1173
g89
g90
ssg71
g1163
sg64
(lp1174
S':'
asbag57
(g78
g59
NtRp1175
(dp1176
g62
(dp1177
sg71
g1163
sg64
(lp1178
g57
(g58
g59
NtRp1179
(dp1180
g62
(dp1181
g70
I3
ssg71
g1175
sg64
(lp1182
S''
asbasbasbasbasbasbasbag57
(g73
g59
NtRp1183
(dp1184
g62
(dp1185
sg71
g246
sg64
(lp1186
g57
(g78
g59
NtRp1187
(dp1188
g62
(dp1189
g82
g83
ssg71
g1183
sg64
(lp1190
S'session_id_welcome'
p1191
asbag57
(g78
g59
NtRp1192
(dp1193
g62
(dp1194
g89
g90
ssg71
g1183
sg64
(lp1195
S':'
asbag57
(g78
g59
NtRp1196
(dp1197
g62
(dp1198
sg71
g1183
sg64
(lp1199
g57
(g58
g59
NtRp1200
(dp1201
g62
(dp1202
g70
I4
ssg71
g1196
sg64
(lp1203
g57
(g66
g59
NtRp1204
(dp1205
g62
(dp1206
g70
I3
ssg71
Nsg64
(lp1207
g57
(g73
g59
NtRp1208
(dp1209
g62
(dp1210
sg71
g1204
sg64
(lp1211
g57
(g78
g59
NtRp1212
(dp1213
g62
(dp1214
g82
g83
ssg71
g1208
sg64
(lp1215
g283
asbag57
(g78
g59
NtRp1216
(dp1217
g62
(dp1218
g89
g90
ssg71
g1208
sg64
(lp1219
S':'
asbag57
(g78
g59
NtRp1220
(dp1221
g62
(dp1222
sg71
g1208
sg64
(lp1223
g57
(g58
g59
NtRp1224
(dp1225
g62
(dp1226
g70
I3
ssg71
g1220
sg64
(lp1227
S''
asbasbasbag57
(g73
g59
NtRp1228
(dp1229
g62
(dp1230
sg71
g1204
sg64
(lp1231
g57
(g78
g59
NtRp1232
(dp1233
g62
(dp1234
g82
g83
ssg71
g1228
sg64
(lp1235
g304
asbag57
(g78
g59
NtRp1236
(dp1237
g62
(dp1238
g89
g90
ssg71
g1228
sg64
(lp1239
S':'
asbag57
(g78
g59
NtRp1240
(dp1241
g62
(dp1242
sg71
g1228
sg64
(lp1243
g57
(g58
g59
NtRp1244
(dp1245
g62
(dp1246
g70
I3
ssg71
g1240
sg64
(lp1247
S''
asbasbasbag57
(g73
g59
NtRp1248
(dp1249
g62
(dp1250
sg71
g1204
sg64
(lp1251
g57
(g78
g59
NtRp1252
(dp1253
g62
(dp1254
g82
g83
ssg71
g1248
sg64
(lp1255
g325
asbag57
(g78
g59
NtRp1256
(dp1257
g62
(dp1258
g89
g90
ssg71
g1248
sg64
(lp1259
S':'
asbag57
(g78
g59
NtRp1260
(dp1261
g62
(dp1262
sg71
g1248
sg64
(lp1263
g57
(g58
g59
NtRp1264
(dp1265
g62
(dp1266
g70
I3
ssg71
g1260
sg64
(lp1267
S''
asbasbasbag57
(g73
g59
NtRp1268
(dp1269
g62
(dp1270
sg71
g1204
sg64
(lp1271
g57
(g78
g59
NtRp1272
(dp1273
g62
(dp1274
g82
g83
ssg71
g1268
sg64
(lp1275
g346
asbag57
(g78
g59
NtRp1276
(dp1277
g62
(dp1278
g89
g90
ssg71
g1268
sg64
(lp1279
S':'
asbag57
(g78
g59
NtRp1280
(dp1281
g62
(dp1282
sg71
g1268
sg64
(lp1283
g57
(g58
g59
NtRp1284
(dp1285
g62
(dp1286
g70
I3
ssg71
g1280
sg64
(lp1287
S''
asbasbasbag57
(g73
g59
NtRp1288
(dp1289
g62
(dp1290
sg71
g1204
sg64
(lp1291
g57
(g78
g59
NtRp1292
(dp1293
g62
(dp1294
g82
g83
ssg71
g1288
sg64
(lp1295
g367
asbag57
(g78
g59
NtRp1296
(dp1297
g62
(dp1298
g89
g90
ssg71
g1288
sg64
(lp1299
S':'
asbag57
(g78
g59
NtRp1300
(dp1301
g62
(dp1302
sg71
g1288
sg64
(lp1303
g57
(g58
g59
NtRp1304
(dp1305
g62
(dp1306
g70
I3
ssg71
g1300
sg64
(lp1307
S''
asbasbasbag57
(g73
g59
NtRp1308
(dp1309
g62
(dp1310
sg71
g1204
sg64
(lp1311
g57
(g78
g59
NtRp1312
(dp1313
g62
(dp1314
g82
g83
ssg71
g1308
sg64
(lp1315
g388
asbag57
(g78
g59
NtRp1316
(dp1317
g62
(dp1318
g89
g90
ssg71
g1308
sg64
(lp1319
S':'
asbag57
(g78
g59
NtRp1320
(dp1321
g62
(dp1322
sg71
g1308
sg64
(lp1323
g57
(g58
g59
NtRp1324
(dp1325
g62
(dp1326
g70
I3
ssg71
g1320
sg64
(lp1327
S''
asbasbasbag57
(g73
g59
NtRp1328
(dp1329
g62
(dp1330
sg71
g1204
sg64
(lp1331
g57
(g78
g59
NtRp1332
(dp1333
g62
(dp1334
g82
g83
ssg71
g1328
sg64
(lp1335
g409
asbag57
(g78
g59
NtRp1336
(dp1337
g62
(dp1338
g89
g90
ssg71
g1328
sg64
(lp1339
S':'
asbag57
(g78
g59
NtRp1340
(dp1341
g62
(dp1342
sg71
g1328
sg64
(lp1343
g57
(g58
g59
NtRp1344
(dp1345
g62
(dp1346
g70
I3
ssg71
g1340
sg64
(lp1347
S''
asbasbasbag57
(g73
g59
NtRp1348
(dp1349
g62
(dp1350
sg71
g1204
sg64
(lp1351
g57
(g78
g59
NtRp1352
(dp1353
g62
(dp1354
g82
g83
ssg71
g1348
sg64
(lp1355
g430
asbag57
(g78
g59
NtRp1356
(dp1357
g62
(dp1358
g89
g90
ssg71
g1348
sg64
(lp1359
S':'
asbag57
(g78
g59
NtRp1360
(dp1361
g62
(dp1362
sg71
g1348
sg64
(lp1363
g57
(g58
g59
NtRp1364
(dp1365
g62
(dp1366
g70
I3
ssg71
g1360
sg64
(lp1367
S''
asbasbasbasbasbasbasbasbasbasbasbag57
(g73
g59
NtRp1368
(dp1369
g62
(dp1370
sg71
g67
sg64
(lp1371
g57
(g78
g59
NtRp1372
(dp1373
g62
(dp1374
g82
g83
ssg71
g1368
sg64
(lp1375
S'env'
p1376
asbag57
(g78
g59
NtRp1377
(dp1378
g62
(dp1379
g89
g90
ssg71
g1368
sg64
(lp1380
S':'
asbag57
(g78
g59
NtRp1381
(dp1382
g62
(dp1383
sg71
g1368
sg64
(lp1384
g57
(g58
g59
NtRp1385
(dp1386
g62
(dp1387
g70
I5
ssg71
g1381
sg64
(lp1388
g57
(g66
g59
NtRp1389
(dp1390
g62
(dp1391
g70
I4
ssg71
Nsg64
(lp1392
g57
(g73
g59
NtRp1393
(dp1394
g62
(dp1395
sg71
g1389
sg64
(lp1396
g57
(g78
g59
NtRp1397
(dp1398
g62
(dp1399
g82
g83
ssg71
g1393
sg64
(lp1400
S'app_folders'
p1401
asbag57
(g78
g59
NtRp1402
(dp1403
g62
(dp1404
g89
g90
ssg71
g1393
sg64
(lp1405
S':'
asbag57
(g78
g59
NtRp1406
(dp1407
g62
(dp1408
sg71
g1393
sg64
(lp1409
g57
(g58
g59
NtRp1410
(dp1411
g62
(dp1412
g70
I4
ssg71
g1406
sg64
(lp1413
S"set(['/home/maneesha/Downloads/web2py/applications/photo/', '/home/maneesha/Downloads/web2py/applications/welcome/', '/home/maneesha/Downloads/web2py/applications/admin/', '/home/maneesha/Downloads/web2py/applications/ssad3a/', '/home/maneesha/Downloads/web2py/applications/ssad3b/', '/home/maneesha/Downloads/web2py/applications/proj_rough/'])"
p1414
asbasbasbag57
(g73
g59
NtRp1415
(dp1416
g62
(dp1417
sg71
g1389
sg64
(lp1418
g57
(g78
g59
NtRp1419
(dp1420
g62
(dp1421
g82
g83
ssg71
g1415
sg64
(lp1422
S'applications_parent'
p1423
asbag57
(g78
g59
NtRp1424
(dp1425
g62
(dp1426
g89
g90
ssg71
g1415
sg64
(lp1427
S':'
asbag57
(g78
g59
NtRp1428
(dp1429
g62
(dp1430
sg71
g1415
sg64
(lp1431
g57
(g58
g59
NtRp1432
(dp1433
g62
(dp1434
g70
I4
ssg71
g1428
sg64
(lp1435
S'/home/maneesha/Downloads/web2py'
p1436
asbasbasbag57
(g73
g59
NtRp1437
(dp1438
g62
(dp1439
sg71
g1389
sg64
(lp1440
g57
(g78
g59
NtRp1441
(dp1442
g62
(dp1443
g82
g83
ssg71
g1437
sg64
(lp1444
S'cmd_args'
p1445
asbag57
(g78
g59
NtRp1446
(dp1447
g62
(dp1448
g89
g90
ssg71
g1437
sg64
(lp1449
S':'
asbag57
(g78
g59
NtRp1450
(dp1451
g62
(dp1452
sg71
g1437
sg64
(lp1453
g57
(g58
g59
NtRp1454
(dp1455
g62
(dp1456
g70
I4
ssg71
g1450
sg64
(lp1457
g57
(g66
g59
NtRp1458
(dp1459
g62
(dp1460
g70
I3
ssg71
Nsg64
(lp1461
sbasbasbasbag57
(g73
g59
NtRp1462
(dp1463
g62
(dp1464
sg71
g1389
sg64
(lp1465
g57
(g78
g59
NtRp1466
(dp1467
g62
(dp1468
g82
g83
ssg71
g1462
sg64
(lp1469
S'cmd_options'
p1470
asbag57
(g78
g59
NtRp1471
(dp1472
g62
(dp1473
g89
g90
ssg71
g1462
sg64
(lp1474
S':'
asbag57
(g78
g59
NtRp1475
(dp1476
g62
(dp1477
sg71
g1462
sg64
(lp1478
g57
(g58
g59
NtRp1479
(dp1480
g62
(dp1481
g70
I4
ssg71
g1475
sg64
(lp1482
S"<Values at 0x2c89b00: {'verbose': False, 'ip': '127.0.0.1', 'shutdown_timeout': 5, 'taskbar': False, 'nocron': False, 'pid_filename': 'httpserver.pid', 'maxthreads': None, 'softcron': False, 'server_name': 'maneesha-Inspiron-N5050', 'bpython': False, 'nogui': False, 'port': 8000, 'extcron': False, 'debuglevel': 30, 'test': None, 'folder': '/home/maneesha/Downloads/web2py', 'config': '', 'import_models': False, 'winservice': '', 'shell': None, 'run': '', 'log_filename': 'httpserver.log', 'args': [''], 'socket_timeout': 5, 'ssl_ca_certificate': None, 'scheduler': None, 'profiler_filename': None, 'ssl_private_key': '', 'password': '<ask>', 'request_queue_size': 5, 'ssl_certificate': '', 'cronjob': False, 'numthreads': None, 'quiet': False, 'interfaces': None, 'minthreads': None, 'timeout': 10, 'plain': False, 'nobanner': False}>"
p1483
asbasbasbag57
(g73
g59
NtRp1484
(dp1485
g62
(dp1486
sg71
g1389
sg64
(lp1487
g57
(g78
g59
NtRp1488
(dp1489
g62
(dp1490
g82
g83
ssg71
g1484
sg64
(lp1491
S'db_sessions'
p1492
asbag57
(g78
g59
NtRp1493
(dp1494
g62
(dp1495
g89
g90
ssg71
g1484
sg64
(lp1496
S':'
asbag57
(g78
g59
NtRp1497
(dp1498
g62
(dp1499
sg71
g1484
sg64
(lp1500
g57
(g58
g59
NtRp1501
(dp1502
g62
(dp1503
g70
I4
ssg71
g1497
sg64
(lp1504
S'set([])'
p1505
asbasbasbag57
(g73
g59
NtRp1506
(dp1507
g62
(dp1508
sg71
g1389
sg64
(lp1509
g57
(g78
g59
NtRp1510
(dp1511
g62
(dp1512
g82
g83
ssg71
g1506
sg64
(lp1513
S'debugging'
p1514
asbag57
(g78
g59
NtRp1515
(dp1516
g62
(dp1517
g89
g90
ssg71
g1506
sg64
(lp1518
S':'
asbag57
(g78
g59
NtRp1519
(dp1520
g62
(dp1521
sg71
g1506
sg64
(lp1522
g57
(g58
g59
NtRp1523
(dp1524
g62
(dp1525
g70
I4
ssg71
g1519
sg64
(lp1526
g100
asbasbasbag57
(g73
g59
NtRp1527
(dp1528
g62
(dp1529
sg71
g1389
sg64
(lp1530
g57
(g78
g59
NtRp1531
(dp1532
g62
(dp1533
g82
g83
ssg71
g1527
sg64
(lp1534
S'gluon_parent'
p1535
asbag57
(g78
g59
NtRp1536
(dp1537
g62
(dp1538
g89
g90
ssg71
g1527
sg64
(lp1539
S':'
asbag57
(g78
g59
NtRp1540
(dp1541
g62
(dp1542
sg71
g1527
sg64
(lp1543
g57
(g58
g59
NtRp1544
(dp1545
g62
(dp1546
g70
I4
ssg71
g1540
sg64
(lp1547
S'/home/maneesha/Downloads/web2py'
p1548
asbasbasbag57
(g73
g59
NtRp1549
(dp1550
g62
(dp1551
sg71
g1389
sg64
(lp1552
g57
(g78
g59
NtRp1553
(dp1554
g62
(dp1555
g82
g83
ssg71
g1549
sg64
(lp1556
S'http_accept'
p1557
asbag57
(g78
g59
NtRp1558
(dp1559
g62
(dp1560
g89
g90
ssg71
g1549
sg64
(lp1561
S':'
asbag57
(g78
g59
NtRp1562
(dp1563
g62
(dp1564
sg71
g1549
sg64
(lp1565
g57
(g58
g59
NtRp1566
(dp1567
g62
(dp1568
g70
I4
ssg71
g1562
sg64
(lp1569
S'text/html,application/xhtml+xml,application/xml;q=0.9,*/*;q=0.8'
p1570
asbasbasbag57
(g73
g59
NtRp1571
(dp1572
g62
(dp1573
sg71
g1389
sg64
(lp1574
g57
(g78
g59
NtRp1575
(dp1576
g62
(dp1577
g82
g83
ssg71
g1571
sg64
(lp1578
S'http_accept_encoding'
p1579
asbag57
(g78
g59
NtRp1580
(dp1581
g62
(dp1582
g89
g90
ssg71
g1571
sg64
(lp1583
S':'
asbag57
(g78
g59
NtRp1584
(dp1585
g62
(dp1586
sg71
g1571
sg64
(lp1587
g57
(g58
g59
NtRp1588
(dp1589
g62
(dp1590
g70
I4
ssg71
g1584
sg64
(lp1591
S'gzip, deflate'
p1592
asbasbasbag57
(g73
g59
NtRp1593
(dp1594
g62
(dp1595
sg71
g1389
sg64
(lp1596
g57
(g78
g59
NtRp1597
(dp1598
g62
(dp1599
g82
g83
ssg71
g1593
sg64
(lp1600
S'http_accept_language'
p1601
asbag57
(g78
g59
NtRp1602
(dp1603
g62
(dp1604
g89
g90
ssg71
g1593
sg64
(lp1605
S':'
asbag57
(g78
g59
NtRp1606
(dp1607
g62
(dp1608
sg71
g1593
sg64
(lp1609
g57
(g58
g59
NtRp1610
(dp1611
g62
(dp1612
g70
I4
ssg71
g1606
sg64
(lp1613
S'en-us,en;q=0.5'
p1614
asbasbasbag57
(g73
g59
NtRp1615
(dp1616
g62
(dp1617
sg71
g1389
sg64
(lp1618
g57
(g78
g59
NtRp1619
(dp1620
g62
(dp1621
g82
g83
ssg71
g1615
sg64
(lp1622
S'http_connection'
p1623
asbag57
(g78
g59
NtRp1624
(dp1625
g62
(dp1626
g89
g90
ssg71
g1615
sg64
(lp1627
S':'
asbag57
(g78
g59
NtRp1628
(dp1629
g62
(dp1630
sg71
g1615
sg64
(lp1631
g57
(g58
g59
NtRp1632
(dp1633
g62
(dp1634
g70
I4
ssg71
g1628
sg64
(lp1635
S'keep-alive'
p1636
asbasbasbag57
(g73
g59
NtRp1637
(dp1638
g62
(dp1639
sg71
g1389
sg64
(lp1640
g57
(g78
g59
NtRp1641
(dp1642
g62
(dp1643
g82
g83
ssg71
g1637
sg64
(lp1644
S'http_cookie'
p1645
asbag57
(g78
g59
NtRp1646
(dp1647
g62
(dp1648
g89
g90
ssg71
g1637
sg64
(lp1649
S':'
asbag57
(g78
g59
NtRp1650
(dp1651
g62
(dp1652
sg71
g1637
sg64
(lp1653
g57
(g58
g59
NtRp1654
(dp1655
g62
(dp1656
g70
I4
ssg71
g1650
sg64
(lp1657
S'session_id_welcome=127.0.0.1-2e765136-2cee-482e-9926-98f15c2e804b; session_id_admin=127.0.0.1-b3b1ac7e-10ee-447e-9052-36a1f7c81d9c; session_id_ssad3a=127.0.0.1-6ed7d82a-b24f-449d-a6cd-700fcc760505; session_id_proj_rough=127.0.0.1-d7f775d6-7537-42c8-b8a2-c10514936328; session_id_ssad3b=127.0.0.1-982660c5-8ae7-4e4f-8e62-f7eea1e9a385; session_id_photo=127.0.0.1-56718ee4-26d3-4417-9716-30b16371856c'
p1658
asbasbasbag57
(g73
g59
NtRp1659
(dp1660
g62
(dp1661
sg71
g1389
sg64
(lp1662
g57
(g78
g59
NtRp1663
(dp1664
g62
(dp1665
g82
g83
ssg71
g1659
sg64
(lp1666
S'http_host'
p1667
asbag57
(g78
g59
NtRp1668
(dp1669
g62
(dp1670
g89
g90
ssg71
g1659
sg64
(lp1671
S':'
asbag57
(g78
g59
NtRp1672
(dp1673
g62
(dp1674
sg71
g1659
sg64
(lp1675
g57
(g58
g59
NtRp1676
(dp1677
g62
(dp1678
g70
I4
ssg71
g1672
sg64
(lp1679
S'127.0.0.1:8000'
p1680
asbasbasbag57
(g73
g59
NtRp1681
(dp1682
g62
(dp1683
sg71
g1389
sg64
(lp1684
g57
(g78
g59
NtRp1685
(dp1686
g62
(dp1687
g82
g83
ssg71
g1681
sg64
(lp1688
S'http_user_agent'
p1689
asbag57
(g78
g59
NtRp1690
(dp1691
g62
(dp1692
g89
g90
ssg71
g1681
sg64
(lp1693
S':'
asbag57
(g78
g59
NtRp1694
(dp1695
g62
(dp1696
sg71
g1681
sg64
(lp1697
g57
(g58
g59
NtRp1698
(dp1699
g62
(dp1700
g70
I4
ssg71
g1694
sg64
(lp1701
S'Mozilla/5.0 (X11; Ubuntu; Linux x86_64; rv:15.0) Gecko/20100101 Firefox/15.0.1'
p1702
asbasbasbag57
(g73
g59
NtRp1703
(dp1704
g62
(dp1705
sg71
g1389
sg64
(lp1706
g57
(g78
g59
NtRp1707
(dp1708
g62
(dp1709
g82
g83
ssg71
g1703
sg64
(lp1710
S'is_jython'
p1711
asbag57
(g78
g59
NtRp1712
(dp1713
g62
(dp1714
g89
g90
ssg71
g1703
sg64
(lp1715
S':'
asbag57
(g78
g59
NtRp1716
(dp1717
g62
(dp1718
sg71
g1703
sg64
(lp1719
g57
(g58
g59
NtRp1720
(dp1721
g62
(dp1722
g70
I4
ssg71
g1716
sg64
(lp1723
g100
asbasbasbag57
(g73
g59
NtRp1724
(dp1725
g62
(dp1726
sg71
g1389
sg64
(lp1727
g57
(g78
g59
NtRp1728
(dp1729
g62
(dp1730
g82
g83
ssg71
g1724
sg64
(lp1731
S'is_pypy'
p1732
asbag57
(g78
g59
NtRp1733
(dp1734
g62
(dp1735
g89
g90
ssg71
g1724
sg64
(lp1736
S':'
asbag57
(g78
g59
NtRp1737
(dp1738
g62
(dp1739
sg71
g1724
sg64
(lp1740
g57
(g58
g59
NtRp1741
(dp1742
g62
(dp1743
g70
I4
ssg71
g1737
sg64
(lp1744
g100
asbasbasbag57
(g73
g59
NtRp1745
(dp1746
g62
(dp1747
sg71
g1389
sg64
(lp1748
g57
(g78
g59
NtRp1749
(dp1750
g62
(dp1751
g82
g83
ssg71
g1745
sg64
(lp1752
S'path_info'
p1753
asbag57
(g78
g59
NtRp1754
(dp1755
g62
(dp1756
g89
g90
ssg71
g1745
sg64
(lp1757
S':'
asbag57
(g78
g59
NtRp1758
(dp1759
g62
(dp1760
sg71
g1745
sg64
(lp1761
g57
(g58
g59
NtRp1762
(dp1763
g62
(dp1764
g70
I4
ssg71
g1758
sg64
(lp1765
S'/ssad3b/default/sorting/1'
p1766
asbasbasbag57
(g73
g59
NtRp1767
(dp1768
g62
(dp1769
sg71
g1389
sg64
(lp1770
g57
(g78
g59
NtRp1771
(dp1772
g62
(dp1773
g82
g83
ssg71
g1767
sg64
(lp1774
S'query_string'
p1775
asbag57
(g78
g59
NtRp1776
(dp1777
g62
(dp1778
g89
g90
ssg71
g1767
sg64
(lp1779
S':'
asbag57
(g78
g59
NtRp1780
(dp1781
g62
(dp1782
sg71
g1767
sg64
(lp1783
g57
(g58
g59
NtRp1784
(dp1785
g62
(dp1786
g70
I4
ssg71
g1780
sg64
(lp1787
S''
asbasbasbag57
(g73
g59
NtRp1788
(dp1789
g62
(dp1790
sg71
g1389
sg64
(lp1791
g57
(g78
g59
NtRp1792
(dp1793
g62
(dp1794
g82
g83
ssg71
g1788
sg64
(lp1795
S'remote_addr'
p1796
asbag57
(g78
g59
NtRp1797
(dp1798
g62
(dp1799
g89
g90
ssg71
g1788
sg64
(lp1800
S':'
asbag57
(g78
g59
NtRp1801
(dp1802
g62
(dp1803
sg71
g1788
sg64
(lp1804
g57
(g58
g59
NtRp1805
(dp1806
g62
(dp1807
g70
I4
ssg71
g1801
sg64
(lp1808
g202
asbasbasbag57
(g73
g59
NtRp1809
(dp1810
g62
(dp1811
sg71
g1389
sg64
(lp1812
g57
(g78
g59
NtRp1813
(dp1814
g62
(dp1815
g82
g83
ssg71
g1809
sg64
(lp1816
S'remote_port'
p1817
asbag57
(g78
g59
NtRp1818
(dp1819
g62
(dp1820
g89
g90
ssg71
g1809
sg64
(lp1821
S':'
asbag57
(g78
g59
NtRp1822
(dp1823
g62
(dp1824
sg71
g1809
sg64
(lp1825
g57
(g58
g59
NtRp1826
(dp1827
g62
(dp1828
g70
I4
ssg71
g1822
sg64
(lp1829
S'36089'
p1830
asbasbasbag57
(g73
g59
NtRp1831
(dp1832
g62
(dp1833
sg71
g1389
sg64
(lp1834
g57
(g78
g59
NtRp1835
(dp1836
g62
(dp1837
g82
g83
ssg71
g1831
sg64
(lp1838
S'request_method'
p1839
asbag57
(g78
g59
NtRp1840
(dp1841
g62
(dp1842
g89
g90
ssg71
g1831
sg64
(lp1843
S':'
asbag57
(g78
g59
NtRp1844
(dp1845
g62
(dp1846
sg71
g1831
sg64
(lp1847
g57
(g58
g59
NtRp1848
(dp1849
g62
(dp1850
g70
I4
ssg71
g1844
sg64
(lp1851
S'GET'
p1852
asbasbasbag57
(g73
g59
NtRp1853
(dp1854
g62
(dp1855
sg71
g1389
sg64
(lp1856
g57
(g78
g59
NtRp1857
(dp1858
g62
(dp1859
g82
g83
ssg71
g1853
sg64
(lp1860
S'script_name'
p1861
asbag57
(g78
g59
NtRp1862
(dp1863
g62
(dp1864
g89
g90
ssg71
g1853
sg64
(lp1865
S':'
asbag57
(g78
g59
NtRp1866
(dp1867
g62
(dp1868
sg71
g1853
sg64
(lp1869
g57
(g58
g59
NtRp1870
(dp1871
g62
(dp1872
g70
I4
ssg71
g1866
sg64
(lp1873
S''
asbasbasbag57
(g73
g59
NtRp1874
(dp1875
g62
(dp1876
sg71
g1389
sg64
(lp1877
g57
(g78
g59
NtRp1878
(dp1879
g62
(dp1880
g82
g83
ssg71
g1874
sg64
(lp1881
S'server_name'
p1882
asbag57
(g78
g59
NtRp1883
(dp1884
g62
(dp1885
g89
g90
ssg71
g1874
sg64
(lp1886
S':'
asbag57
(g78
g59
NtRp1887
(dp1888
g62
(dp1889
sg71
g1874
sg64
(lp1890
g57
(g58
g59
NtRp1891
(dp1892
g62
(dp1893
g70
I4
ssg71
g1887
sg64
(lp1894
S'maneesha-Inspiron-N5050'
p1895
asbasbasbag57
(g73
g59
NtRp1896
(dp1897
g62
(dp1898
sg71
g1389
sg64
(lp1899
g57
(g78
g59
NtRp1900
(dp1901
g62
(dp1902
g82
g83
ssg71
g1896
sg64
(lp1903
S'server_port'
p1904
asbag57
(g78
g59
NtRp1905
(dp1906
g62
(dp1907
g89
g90
ssg71
g1896
sg64
(lp1908
S':'
asbag57
(g78
g59
NtRp1909
(dp1910
g62
(dp1911
sg71
g1896
sg64
(lp1912
g57
(g58
g59
NtRp1913
(dp1914
g62
(dp1915
g70
I4
ssg71
g1909
sg64
(lp1916
S'8000'
p1917
asbasbasbag57
(g73
g59
NtRp1918
(dp1919
g62
(dp1920
sg71
g1389
sg64
(lp1921
g57
(g78
g59
NtRp1922
(dp1923
g62
(dp1924
g82
g83
ssg71
g1918
sg64
(lp1925
S'server_protocol'
p1926
asbag57
(g78
g59
NtRp1927
(dp1928
g62
(dp1929
g89
g90
ssg71
g1918
sg64
(lp1930
S':'
asbag57
(g78
g59
NtRp1931
(dp1932
g62
(dp1933
sg71
g1918
sg64
(lp1934
g57
(g58
g59
NtRp1935
(dp1936
g62
(dp1937
g70
I4
ssg71
g1931
sg64
(lp1938
S'HTTP/1.1'
p1939
asbasbasbag57
(g73
g59
NtRp1940
(dp1941
g62
(dp1942
sg71
g1389
sg64
(lp1943
g57
(g78
g59
NtRp1944
(dp1945
g62
(dp1946
g82
g83
ssg71
g1940
sg64
(lp1947
S'server_software'
p1948
asbag57
(g78
g59
NtRp1949
(dp1950
g62
(dp1951
g89
g90
ssg71
g1940
sg64
(lp1952
S':'
asbag57
(g78
g59
NtRp1953
(dp1954
g62
(dp1955
sg71
g1940
sg64
(lp1956
g57
(g58
g59
NtRp1957
(dp1958
g62
(dp1959
g70
I4
ssg71
g1953
sg64
(lp1960
S'Rocket 1.2.4'
p1961
asbasbasbag57
(g73
g59
NtRp1962
(dp1963
g62
(dp1964
sg71
g1389
sg64
(lp1965
g57
(g78
g59
NtRp1966
(dp1967
g62
(dp1968
g82
g83
ssg71
g1962
sg64
(lp1969
S'web2py_crontype'
p1970
asbag57
(g78
g59
NtRp1971
(dp1972
g62
(dp1973
g89
g90
ssg71
g1962
sg64
(lp1974
S':'
asbag57
(g78
g59
NtRp1975
(dp1976
g62
(dp1977
sg71
g1962
sg64
(lp1978
g57
(g58
g59
NtRp1979
(dp1980
g62
(dp1981
g70
I4
ssg71
g1975
sg64
(lp1982
S'hard'
p1983
asbasbasbag57
(g73
g59
NtRp1984
(dp1985
g62
(dp1986
sg71
g1389
sg64
(lp1987
g57
(g78
g59
NtRp1988
(dp1989
g62
(dp1990
g82
g83
ssg71
g1984
sg64
(lp1991
S'web2py_path'
p1992
asbag57
(g78
g59
NtRp1993
(dp1994
g62
(dp1995
g89
g90
ssg71
g1984
sg64
(lp1996
S':'
asbag57
(g78
g59
NtRp1997
(dp1998
g62
(dp1999
sg71
g1984
sg64
(lp2000
g57
(g58
g59
NtRp2001
(dp2002
g62
(dp2003
g70
I4
ssg71
g1997
sg64
(lp2004
g1436
asbasbasbag57
(g73
g59
NtRp2005
(dp2006
g62
(dp2007
sg71
g1389
sg64
(lp2008
g57
(g78
g59
NtRp2009
(dp2010
g62
(dp2011
g82
g83
ssg71
g2005
sg64
(lp2012
S'web2py_version'
p2013
asbag57
(g78
g59
NtRp2014
(dp2015
g62
(dp2016
g89
g90
ssg71
g2005
sg64
(lp2017
S':'
asbag57
(g78
g59
NtRp2018
(dp2019
g62
(dp2020
sg71
g2005
sg64
(lp2021
g57
(g58
g59
NtRp2022
(dp2023
g62
(dp2024
g70
I4
ssg71
g2018
sg64
(lp2025
g57
(g66
g59
NtRp2026
(dp2027
g62
(dp2028
g70
I3
ssg71
Nsg64
(lp2029
g57
(g73
g59
NtRp2030
(dp2031
g62
(dp2032
sg71
g2026
sg64
(lp2033
g57
(g78
g59
NtRp2034
(dp2035
g62
(dp2036
sg71
g2030
sg64
(lp2037
g57
(g58
g59
NtRp2038
(dp2039
g62
(dp2040
g70
I3
ssg71
g2034
sg64
(lp2041
S'1'
asbasbasbag57
(g73
g59
NtRp2042
(dp2043
g62
(dp2044
sg71
g2026
sg64
(lp2045
g57
(g78
g59
NtRp2046
(dp2047
g62
(dp2048
sg71
g2042
sg64
(lp2049
g57
(g58
g59
NtRp2050
(dp2051
g62
(dp2052
g70
I3
ssg71
g2046
sg64
(lp2053
S'99'
p2054
asbasbasbag57
(g73
g59
NtRp2055
(dp2056
g62
(dp2057
sg71
g2026
sg64
(lp2058
g57
(g78
g59
NtRp2059
(dp2060
g62
(dp2061
sg71
g2055
sg64
(lp2062
g57
(g58
g59
NtRp2063
(dp2064
g62
(dp2065
g70
I3
ssg71
g2059
sg64
(lp2066
S'7'
asbasbasbag57
(g73
g59
NtRp2067
(dp2068
g62
(dp2069
sg71
g2026
sg64
(lp2070
g57
(g78
g59
NtRp2071
(dp2072
g62
(dp2073
sg71
g2067
sg64
(lp2074
g57
(g58
g59
NtRp2075
(dp2076
g62
(dp2077
g70
I3
ssg71
g2071
sg64
(lp2078
S'datetime.datetime(2012, 3, 4, 22, 12, 8)'
p2079
asbasbasbag57
(g73
g59
NtRp2080
(dp2081
g62
(dp2082
sg71
g2026
sg64
(lp2083
g57
(g78
g59
NtRp2084
(dp2085
g62
(dp2086
sg71
g2080
sg64
(lp2087
g57
(g58
g59
NtRp2088
(dp2089
g62
(dp2090
g70
I3
ssg71
g2084
sg64
(lp2091
S'stable'
p2092
asbasbasbasbasbasbasbag57
(g73
g59
NtRp2093
(dp2094
g62
(dp2095
sg71
g1389
sg64
(lp2096
g57
(g78
g59
NtRp2097
(dp2098
g62
(dp2099
g82
g83
ssg71
g2093
sg64
(lp2100
S'wsgi_errors'
p2101
asbag57
(g78
g59
NtRp2102
(dp2103
g62
(dp2104
g89
g90
ssg71
g2093
sg64
(lp2105
S':'
asbag57
(g78
g59
NtRp2106
(dp2107
g62
(dp2108
sg71
g2093
sg64
(lp2109
g57
(g58
g59
NtRp2110
(dp2111
g62
(dp2112
g70
I4
ssg71
g2106
sg64
(lp2113
S"<open file '<stderr>', mode 'w' at 0x7f8f2c0b0270>"
p2114
asbasbasbag57
(g73
g59
NtRp2115
(dp2116
g62
(dp2117
sg71
g1389
sg64
(lp2118
g57
(g78
g59
NtRp2119
(dp2120
g62
(dp2121
g82
g83
ssg71
g2115
sg64
(lp2122
S'wsgi_file_wrapper'
p2123
asbag57
(g78
g59
NtRp2124
(dp2125
g62
(dp2126
g89
g90
ssg71
g2115
sg64
(lp2127
S':'
asbag57
(g78
g59
NtRp2128
(dp2129
g62
(dp2130
sg71
g2115
sg64
(lp2131
g57
(g58
g59
NtRp2132
(dp2133
g62
(dp2134
g70
I4
ssg71
g2128
sg64
(lp2135
S'<class wsgiref.util.FileWrapper at 0x2b5dd50>'
p2136
asbasbasbag57
(g73
g59
NtRp2137
(dp2138
g62
(dp2139
sg71
g1389
sg64
(lp2140
g57
(g78
g59
NtRp2141
(dp2142
g62
(dp2143
g82
g83
ssg71
g2137
sg64
(lp2144
S'wsgi_input'
p2145
asbag57
(g78
g59
NtRp2146
(dp2147
g62
(dp2148
g89
g90
ssg71
g2137
sg64
(lp2149
S':'
asbag57
(g78
g59
NtRp2150
(dp2151
g62
(dp2152
sg71
g2137
sg64
(lp2153
g57
(g58
g59
NtRp2154
(dp2155
g62
(dp2156
g70
I4
ssg71
g2150
sg64
(lp2157
S'<socket._fileobject object at 0x7f8ef08d8dd0>'
p2158
asbasbasbag57
(g73
g59
NtRp2159
(dp2160
g62
(dp2161
sg71
g1389
sg64
(lp2162
g57
(g78
g59
NtRp2163
(dp2164
g62
(dp2165
g82
g83
ssg71
g2159
sg64
(lp2166
S'wsgi_multiprocess'
p2167
asbag57
(g78
g59
NtRp2168
(dp2169
g62
(dp2170
g89
g90
ssg71
g2159
sg64
(lp2171
S':'
asbag57
(g78
g59
NtRp2172
(dp2173
g62
(dp2174
sg71
g2159
sg64
(lp2175
g57
(g58
g59
NtRp2176
(dp2177
g62
(dp2178
g70
I4
ssg71
g2172
sg64
(lp2179
g100
asbasbasbag57
(g73
g59
NtRp2180
(dp2181
g62
(dp2182
sg71
g1389
sg64
(lp2183
g57
(g78
g59
NtRp2184
(dp2185
g62
(dp2186
g82
g83
ssg71
g2180
sg64
(lp2187
S'wsgi_multithread'
p2188
asbag57
(g78
g59
NtRp2189
(dp2190
g62
(dp2191
g89
g90
ssg71
g2180
sg64
(lp2192
S':'
asbag57
(g78
g59
NtRp2193
(dp2194
g62
(dp2195
sg71
g2180
sg64
(lp2196
g57
(g58
g59
NtRp2197
(dp2198
g62
(dp2199
g70
I4
ssg71
g2193
sg64
(lp2200
S'True'
p2201
asbasbasbag57
(g73
g59
NtRp2202
(dp2203
g62
(dp2204
sg71
g1389
sg64
(lp2205
g57
(g78
g59
NtRp2206
(dp2207
g62
(dp2208
g82
g83
ssg71
g2202
sg64
(lp2209
S'wsgi_run_once'
p2210
asbag57
(g78
g59
NtRp2211
(dp2212
g62
(dp2213
g89
g90
ssg71
g2202
sg64
(lp2214
S':'
asbag57
(g78
g59
NtRp2215
(dp2216
g62
(dp2217
sg71
g2202
sg64
(lp2218
g57
(g58
g59
NtRp2219
(dp2220
g62
(dp2221
g70
I4
ssg71
g2215
sg64
(lp2222
g100
asbasbasbag57
(g73
g59
NtRp2223
(dp2224
g62
(dp2225
sg71
g1389
sg64
(lp2226
g57
(g78
g59
NtRp2227
(dp2228
g62
(dp2229
g82
g83
ssg71
g2223
sg64
(lp2230
S'wsgi_url_scheme'
p2231
asbag57
(g78
g59
NtRp2232
(dp2233
g62
(dp2234
g89
g90
ssg71
g2223
sg64
(lp2235
S':'
asbag57
(g78
g59
NtRp2236
(dp2237
g62
(dp2238
sg71
g2223
sg64
(lp2239
g57
(g58
g59
NtRp2240
(dp2241
g62
(dp2242
g70
I4
ssg71
g2236
sg64
(lp2243
S'http'
p2244
asbasbasbag57
(g73
g59
NtRp2245
(dp2246
g62
(dp2247
sg71
g1389
sg64
(lp2248
g57
(g78
g59
NtRp2249
(dp2250
g62
(dp2251
g82
g83
ssg71
g2245
sg64
(lp2252
S'wsgi_version'
p2253
asbag57
(g78
g59
NtRp2254
(dp2255
g62
(dp2256
g89
g90
ssg71
g2245
sg64
(lp2257
S':'
asbag57
(g78
g59
NtRp2258
(dp2259
g62
(dp2260
sg71
g2245
sg64
(lp2261
g57
(g58
g59
NtRp2262
(dp2263
g62
(dp2264
g70
I4
ssg71
g2258
sg64
(lp2265
g57
(g66
g59
NtRp2266
(dp2267
g62
(dp2268
g70
I3
ssg71
Nsg64
(lp2269
g57
(g73
g59
NtRp2270
(dp2271
g62
(dp2272
sg71
g2266
sg64
(lp2273
g57
(g78
g59
NtRp2274
(dp2275
g62
(dp2276
sg71
g2270
sg64
(lp2277
g57
(g58
g59
NtRp2278
(dp2279
g62
(dp2280
g70
I3
ssg71
g2274
sg64
(lp2281
S'1'
asbasbasbag57
(g73
g59
NtRp2282
(dp2283
g62
(dp2284
sg71
g2266
sg64
(lp2285
g57
(g78
g59
NtRp2286
(dp2287
g62
(dp2288
sg71
g2282
sg64
(lp2289
g57
(g58
g59
NtRp2290
(dp2291
g62
(dp2292
g70
I3
ssg71
g2286
sg64
(lp2293
S'0'
asbasbasbasbasbasbasbasbasbasbasbag57
(g73
g59
NtRp2294
(dp2295
g62
(dp2296
sg71
g67
sg64
(lp2297
g57
(g78
g59
NtRp2298
(dp2299
g62
(dp2300
g82
g83
ssg71
g2294
sg64
(lp2301
S'extension'
p2302
asbag57
(g78
g59
NtRp2303
(dp2304
g62
(dp2305
g89
g90
ssg71
g2294
sg64
(lp2306
S':'
asbag57
(g78
g59
NtRp2307
(dp2308
g62
(dp2309
sg71
g2294
sg64
(lp2310
g57
(g58
g59
NtRp2311
(dp2312
g62
(dp2313
g70
I5
ssg71
g2307
sg64
(lp2314
S'html'
p2315
asbasbasbag57
(g73
g59
NtRp2316
(dp2317
g62
(dp2318
sg71
g67
sg64
(lp2319
g57
(g78
g59
NtRp2320
(dp2321
g62
(dp2322
g82
g83
ssg71
g2316
sg64
(lp2323
S'folder'
p2324
asbag57
(g78
g59
NtRp2325
(dp2326
g62
(dp2327
g89
g90
ssg71
g2316
sg64
(lp2328
S':'
asbag57
(g78
g59
NtRp2329
(dp2330
g62
(dp2331
sg71
g2316
sg64
(lp2332
g57
(g58
g59
NtRp2333
(dp2334
g62
(dp2335
g70
I5
ssg71
g2329
sg64
(lp2336
S'/home/maneesha/Downloads/web2py/applications/ssad3b/'
p2337
asbasbasbag57
(g73
g59
NtRp2338
(dp2339
g62
(dp2340
sg71
g67
sg64
(lp2341
g57
(g78
g59
NtRp2342
(dp2343
g62
(dp2344
g82
g83
ssg71
g2338
sg64
(lp2345
S'function'
p2346
asbag57
(g78
g59
NtRp2347
(dp2348
g62
(dp2349
g89
g90
ssg71
g2338
sg64
(lp2350
S':'
asbag57
(g78
g59
NtRp2351
(dp2352
g62
(dp2353
sg71
g2338
sg64
(lp2354
g57
(g58
g59
NtRp2355
(dp2356
g62
(dp2357
g70
I5
ssg71
g2351
sg64
(lp2358
S'sorting'
p2359
asbasbasbag57
(g73
g59
NtRp2360
(dp2361
g62
(dp2362
sg71
g67
sg64
(lp2363
g57
(g78
g59
NtRp2364
(dp2365
g62
(dp2366
g82
g83
ssg71
g2360
sg64
(lp2367
S'get_vars'
p2368
asbag57
(g78
g59
NtRp2369
(dp2370
g62
(dp2371
g89
g90
ssg71
g2360
sg64
(lp2372
S':'
asbag57
(g78
g59
NtRp2373
(dp2374
g62
(dp2375
sg71
g2360
sg64
(lp2376
g57
(g58
g59
NtRp2377
(dp2378
g62
(dp2379
g70
I5
ssg71
g2373
sg64
(lp2380
g57
(g66
g59
NtRp2381
(dp2382
g62
(dp2383
g70
I4
ssg71
Nsg64
(lp2384
sbasbasbasbag57
(g73
g59
NtRp2385
(dp2386
g62
(dp2387
sg71
g67
sg64
(lp2388
g57
(g78
g59
NtRp2389
(dp2390
g62
(dp2391
g82
g83
ssg71
g2385
sg64
(lp2392
S'global_settings'
p2393
asbag57
(g78
g59
NtRp2394
(dp2395
g62
(dp2396
g89
g90
ssg71
g2385
sg64
(lp2397
S':'
asbag57
(g78
g59
NtRp2398
(dp2399
g62
(dp2400
sg71
g2385
sg64
(lp2401
g57
(g58
g59
NtRp2402
(dp2403
g62
(dp2404
g70
I5
ssg71
g2398
sg64
(lp2405
g57
(g66
g59
NtRp2406
(dp2407
g62
(dp2408
g70
I4
ssg71
Nsg64
(lp2409
g57
(g73
g59
NtRp2410
(dp2411
g62
(dp2412
sg71
g2406
sg64
(lp2413
g57
(g78
g59
NtRp2414
(dp2415
g62
(dp2416
g82
g83
ssg71
g2410
sg64
(lp2417
g1401
asbag57
(g78
g59
NtRp2418
(dp2419
g62
(dp2420
g89
g90
ssg71
g2410
sg64
(lp2421
S':'
asbag57
(g78
g59
NtRp2422
(dp2423
g62
(dp2424
sg71
g2410
sg64
(lp2425
g57
(g58
g59
NtRp2426
(dp2427
g62
(dp2428
g70
I4
ssg71
g2422
sg64
(lp2429
S"set(['/home/maneesha/Downloads/web2py/applications/photo/', '/home/maneesha/Downloads/web2py/applications/welcome/', '/home/maneesha/Downloads/web2py/applications/admin/', '/home/maneesha/Downloads/web2py/applications/ssad3a/', '/home/maneesha/Downloads/web2py/applications/ssad3b/', '/home/maneesha/Downloads/web2py/applications/proj_rough/'])"
p2430
asbasbasbag57
(g73
g59
NtRp2431
(dp2432
g62
(dp2433
sg71
g2406
sg64
(lp2434
g57
(g78
g59
NtRp2435
(dp2436
g62
(dp2437
g82
g83
ssg71
g2431
sg64
(lp2438
g1423
asbag57
(g78
g59
NtRp2439
(dp2440
g62
(dp2441
g89
g90
ssg71
g2431
sg64
(lp2442
S':'
asbag57
(g78
g59
NtRp2443
(dp2444
g62
(dp2445
sg71
g2431
sg64
(lp2446
g57
(g58
g59
NtRp2447
(dp2448
g62
(dp2449
g70
I4
ssg71
g2443
sg64
(lp2450
g1436
asbasbasbag57
(g73
g59
NtRp2451
(dp2452
g62
(dp2453
sg71
g2406
sg64
(lp2454
g57
(g78
g59
NtRp2455
(dp2456
g62
(dp2457
g82
g83
ssg71
g2451
sg64
(lp2458
g1445
asbag57
(g78
g59
NtRp2459
(dp2460
g62
(dp2461
g89
g90
ssg71
g2451
sg64
(lp2462
S':'
asbag57
(g78
g59
NtRp2463
(dp2464
g62
(dp2465
sg71
g2451
sg64
(lp2466
g57
(g58
g59
NtRp2467
(dp2468
g62
(dp2469
g70
I4
ssg71
g2463
sg64
(lp2470
g57
(g66
g59
NtRp2471
(dp2472
g62
(dp2473
g70
I3
ssg71
Nsg64
(lp2474
sbasbasbasbag57
(g73
g59
NtRp2475
(dp2476
g62
(dp2477
sg71
g2406
sg64
(lp2478
g57
(g78
g59
NtRp2479
(dp2480
g62
(dp2481
g82
g83
ssg71
g2475
sg64
(lp2482
g1470
asbag57
(g78
g59
NtRp2483
(dp2484
g62
(dp2485
g89
g90
ssg71
g2475
sg64
(lp2486
S':'
asbag57
(g78
g59
NtRp2487
(dp2488
g62
(dp2489
sg71
g2475
sg64
(lp2490
g57
(g58
g59
NtRp2491
(dp2492
g62
(dp2493
g70
I4
ssg71
g2487
sg64
(lp2494
S"<Values at 0x2c89b00: {'verbose': False, 'ip': '127.0.0.1', 'shutdown_timeout': 5, 'taskbar': False, 'nocron': False, 'pid_filename': 'httpserver.pid', 'maxthreads': None, 'softcron': False, 'server_name': 'maneesha-Inspiron-N5050', 'bpython': False, 'nogui': False, 'port': 8000, 'extcron': False, 'debuglevel': 30, 'test': None, 'folder': '/home/maneesha/Downloads/web2py', 'config': '', 'import_models': False, 'winservice': '', 'shell': None, 'run': '', 'log_filename': 'httpserver.log', 'args': [''], 'socket_timeout': 5, 'ssl_ca_certificate': None, 'scheduler': None, 'profiler_filename': None, 'ssl_private_key': '', 'password': '<ask>', 'request_queue_size': 5, 'ssl_certificate': '', 'cronjob': False, 'numthreads': None, 'quiet': False, 'interfaces': None, 'minthreads': None, 'timeout': 10, 'plain': False, 'nobanner': False}>"
p2495
asbasbasbag57
(g73
g59
NtRp2496
(dp2497
g62
(dp2498
sg71
g2406
sg64
(lp2499
g57
(g78
g59
NtRp2500
(dp2501
g62
(dp2502
g82
g83
ssg71
g2496
sg64
(lp2503
g1492
asbag57
(g78
g59
NtRp2504
(dp2505
g62
(dp2506
g89
g90
ssg71
g2496
sg64
(lp2507
S':'
asbag57
(g78
g59
NtRp2508
(dp2509
g62
(dp2510
sg71
g2496
sg64
(lp2511
g57
(g58
g59
NtRp2512
(dp2513
g62
(dp2514
g70
I4
ssg71
g2508
sg64
(lp2515
S'set([])'
p2516
asbasbasbag57
(g73
g59
NtRp2517
(dp2518
g62
(dp2519
sg71
g2406
sg64
(lp2520
g57
(g78
g59
NtRp2521
(dp2522
g62
(dp2523
g82
g83
ssg71
g2517
sg64
(lp2524
g1514
asbag57
(g78
g59
NtRp2525
(dp2526
g62
(dp2527
g89
g90
ssg71
g2517
sg64
(lp2528
S':'
asbag57
(g78
g59
NtRp2529
(dp2530
g62
(dp2531
sg71
g2517
sg64
(lp2532
g57
(g58
g59
NtRp2533
(dp2534
g62
(dp2535
g70
I4
ssg71
g2529
sg64
(lp2536
g100
asbasbasbag57
(g73
g59
NtRp2537
(dp2538
g62
(dp2539
sg71
g2406
sg64
(lp2540
g57
(g78
g59
NtRp2541
(dp2542
g62
(dp2543
g82
g83
ssg71
g2537
sg64
(lp2544
g1535
asbag57
(g78
g59
NtRp2545
(dp2546
g62
(dp2547
g89
g90
ssg71
g2537
sg64
(lp2548
S':'
asbag57
(g78
g59
NtRp2549
(dp2550
g62
(dp2551
sg71
g2537
sg64
(lp2552
g57
(g58
g59
NtRp2553
(dp2554
g62
(dp2555
g70
I4
ssg71
g2549
sg64
(lp2556
g1548
asbasbasbag57
(g73
g59
NtRp2557
(dp2558
g62
(dp2559
sg71
g2406
sg64
(lp2560
g57
(g78
g59
NtRp2561
(dp2562
g62
(dp2563
g82
g83
ssg71
g2557
sg64
(lp2564
g1711
asbag57
(g78
g59
NtRp2565
(dp2566
g62
(dp2567
g89
g90
ssg71
g2557
sg64
(lp2568
S':'
asbag57
(g78
g59
NtRp2569
(dp2570
g62
(dp2571
sg71
g2557
sg64
(lp2572
g57
(g58
g59
NtRp2573
(dp2574
g62
(dp2575
g70
I4
ssg71
g2569
sg64
(lp2576
g100
asbasbasbag57
(g73
g59
NtRp2577
(dp2578
g62
(dp2579
sg71
g2406
sg64
(lp2580
g57
(g78
g59
NtRp2581
(dp2582
g62
(dp2583
g82
g83
ssg71
g2577
sg64
(lp2584
g1732
asbag57
(g78
g59
NtRp2585
(dp2586
g62
(dp2587
g89
g90
ssg71
g2577
sg64
(lp2588
S':'
asbag57
(g78
g59
NtRp2589
(dp2590
g62
(dp2591
sg71
g2577
sg64
(lp2592
g57
(g58
g59
NtRp2593
(dp2594
g62
(dp2595
g70
I4
ssg71
g2589
sg64
(lp2596
g100
asbasbasbag57
(g73
g59
NtRp2597
(dp2598
g62
(dp2599
sg71
g2406
sg64
(lp2600
g57
(g78
g59
NtRp2601
(dp2602
g62
(dp2603
g82
g83
ssg71
g2597
sg64
(lp2604
g1970
asbag57
(g78
g59
NtRp2605
(dp2606
g62
(dp2607
g89
g90
ssg71
g2597
sg64
(lp2608
S':'
asbag57
(g78
g59
NtRp2609
(dp2610
g62
(dp2611
sg71
g2597
sg64
(lp2612
g57
(g58
g59
NtRp2613
(dp2614
g62
(dp2615
g70
I4
ssg71
g2609
sg64
(lp2616
g1983
asbasbasbag57
(g73
g59
NtRp2617
(dp2618
g62
(dp2619
sg71
g2406
sg64
(lp2620
g57
(g78
g59
NtRp2621
(dp2622
g62
(dp2623
g82
g83
ssg71
g2617
sg64
(lp2624
g2013
asbag57
(g78
g59
NtRp2625
(dp2626
g62
(dp2627
g89
g90
ssg71
g2617
sg64
(lp2628
S':'
asbag57
(g78
g59
NtRp2629
(dp2630
g62
(dp2631
sg71
g2617
sg64
(lp2632
g57
(g58
g59
NtRp2633
(dp2634
g62
(dp2635
g70
I4
ssg71
g2629
sg64
(lp2636
g57
(g66
g59
NtRp2637
(dp2638
g62
(dp2639
g70
I3
ssg71
Nsg64
(lp2640
g57
(g73
g59
NtRp2641
(dp2642
g62
(dp2643
sg71
g2637
sg64
(lp2644
g57
(g78
g59
NtRp2645
(dp2646
g62
(dp2647
sg71
g2641
sg64
(lp2648
g57
(g58
g59
NtRp2649
(dp2650
g62
(dp2651
g70
I3
ssg71
g2645
sg64
(lp2652
S'1'
asbasbasbag57
(g73
g59
NtRp2653
(dp2654
g62
(dp2655
sg71
g2637
sg64
(lp2656
g57
(g78
g59
NtRp2657
(dp2658
g62
(dp2659
sg71
g2653
sg64
(lp2660
g57
(g58
g59
NtRp2661
(dp2662
g62
(dp2663
g70
I3
ssg71
g2657
sg64
(lp2664
S'99'
p2665
asbasbasbag57
(g73
g59
NtRp2666
(dp2667
g62
(dp2668
sg71
g2637
sg64
(lp2669
g57
(g78
g59
NtRp2670
(dp2671
g62
(dp2672
sg71
g2666
sg64
(lp2673
g57
(g58
g59
NtRp2674
(dp2675
g62
(dp2676
g70
I3
ssg71
g2670
sg64
(lp2677
S'7'
asbasbasbag57
(g73
g59
NtRp2678
(dp2679
g62
(dp2680
sg71
g2637
sg64
(lp2681
g57
(g78
g59
NtRp2682
(dp2683
g62
(dp2684
sg71
g2678
sg64
(lp2685
g57
(g58
g59
NtRp2686
(dp2687
g62
(dp2688
g70
I3
ssg71
g2682
sg64
(lp2689
S'datetime.datetime(2012, 3, 4, 22, 12, 8)'
p2690
asbasbasbag57
(g73
g59
NtRp2691
(dp2692
g62
(dp2693
sg71
g2637
sg64
(lp2694
g57
(g78
g59
NtRp2695
(dp2696
g62
(dp2697
sg71
g2691
sg64
(lp2698
g57
(g58
g59
NtRp2699
(dp2700
g62
(dp2701
g70
I3
ssg71
g2695
sg64
(lp2702
g2092
asbasbasbasbasbasbasbasbasbasbasbag57
(g73
g59
NtRp2703
(dp2704
g62
(dp2705
sg71
g67
sg64
(lp2706
g57
(g78
g59
NtRp2707
(dp2708
g62
(dp2709
g82
g83
ssg71
g2703
sg64
(lp2710
S'is_https'
p2711
asbag57
(g78
g59
NtRp2712
(dp2713
g62
(dp2714
g89
g90
ssg71
g2703
sg64
(lp2715
S':'
asbag57
(g78
g59
NtRp2716
(dp2717
g62
(dp2718
sg71
g2703
sg64
(lp2719
g57
(g58
g59
NtRp2720
(dp2721
g62
(dp2722
g70
I5
ssg71
g2716
sg64
(lp2723
g100
asbasbasbag57
(g73
g59
NtRp2724
(dp2725
g62
(dp2726
sg71
g67
sg64
(lp2727
g57
(g78
g59
NtRp2728
(dp2729
g62
(dp2730
g82
g83
ssg71
g2724
sg64
(lp2731
S'is_local'
p2732
asbag57
(g78
g59
NtRp2733
(dp2734
g62
(dp2735
g89
g90
ssg71
g2724
sg64
(lp2736
S':'
asbag57
(g78
g59
NtRp2737
(dp2738
g62
(dp2739
sg71
g2724
sg64
(lp2740
g57
(g58
g59
NtRp2741
(dp2742
g62
(dp2743
g70
I5
ssg71
g2737
sg64
(lp2744
g2201
asbasbasbag57
(g73
g59
NtRp2745
(dp2746
g62
(dp2747
sg71
g67
sg64
(lp2748
g57
(g78
g59
NtRp2749
(dp2750
g62
(dp2751
g82
g83
ssg71
g2745
sg64
(lp2752
S'is_restful'
p2753
asbag57
(g78
g59
NtRp2754
(dp2755
g62
(dp2756
g89
g90
ssg71
g2745
sg64
(lp2757
S':'
asbag57
(g78
g59
NtRp2758
(dp2759
g62
(dp2760
sg71
g2745
sg64
(lp2761
g57
(g58
g59
NtRp2762
(dp2763
g62
(dp2764
g70
I5
ssg71
g2758
sg64
(lp2765
g100
asbasbasbag57
(g73
g59
NtRp2766
(dp2767
g62
(dp2768
sg71
g67
sg64
(lp2769
g57
(g78
g59
NtRp2770
(dp2771
g62
(dp2772
g82
g83
ssg71
g2766
sg64
(lp2773
S'now'
p2774
asbag57
(g78
g59
NtRp2775
(dp2776
g62
(dp2777
g89
g90
ssg71
g2766
sg64
(lp2778
S':'
asbag57
(g78
g59
NtRp2779
(dp2780
g62
(dp2781
sg71
g2766
sg64
(lp2782
g57
(g58
g59
NtRp2783
(dp2784
g62
(dp2785
g70
I5
ssg71
g2779
sg64
(lp2786
S'datetime.datetime(2012, 10, 16, 2, 0, 24, 509449)'
p2787
asbasbasbag57
(g73
g59
NtRp2788
(dp2789
g62
(dp2790
sg71
g67
sg64
(lp2791
g57
(g78
g59
NtRp2792
(dp2793
g62
(dp2794
g82
g83
ssg71
g2788
sg64
(lp2795
S'post_vars'
p2796
asbag57
(g78
g59
NtRp2797
(dp2798
g62
(dp2799
g89
g90
ssg71
g2788
sg64
(lp2800
S':'
asbag57
(g78
g59
NtRp2801
(dp2802
g62
(dp2803
sg71
g2788
sg64
(lp2804
g57
(g58
g59
NtRp2805
(dp2806
g62
(dp2807
g70
I5
ssg71
g2801
sg64
(lp2808
g57
(g66
g59
NtRp2809
(dp2810
g62
(dp2811
g70
I4
ssg71
Nsg64
(lp2812
sbasbasbasbag57
(g73
g59
NtRp2813
(dp2814
g62
(dp2815
sg71
g67
sg64
(lp2816
g57
(g78
g59
NtRp2817
(dp2818
g62
(dp2819
g82
g83
ssg71
g2813
sg64
(lp2820
S'raw_args'
p2821
asbag57
(g78
g59
NtRp2822
(dp2823
g62
(dp2824
g89
g90
ssg71
g2813
sg64
(lp2825
S':'
asbag57
(g78
g59
NtRp2826
(dp2827
g62
(dp2828
sg71
g2813
sg64
(lp2829
g57
(g58
g59
NtRp2830
(dp2831
g62
(dp2832
g70
I5
ssg71
g2826
sg64
(lp2833
S'1'
asbasbasbag57
(g73
g59
NtRp2834
(dp2835
g62
(dp2836
sg71
g67
sg64
(lp2837
g57
(g78
g59
NtRp2838
(dp2839
g62
(dp2840
g82
g83
ssg71
g2834
sg64
(lp2841
S'url'
p2842
asbag57
(g78
g59
NtRp2843
(dp2844
g62
(dp2845
g89
g90
ssg71
g2834
sg64
(lp2846
S':'
asbag57
(g78
g59
NtRp2847
(dp2848
g62
(dp2849
sg71
g2834
sg64
(lp2850
g57
(g58
g59
NtRp2851
(dp2852
g62
(dp2853
g70
I5
ssg71
g2847
sg64
(lp2854
S'/ssad3b/default/sorting/1'
p2855
asbasbasbag57
(g73
g59
NtRp2856
(dp2857
g62
(dp2858
sg71
g67
sg64
(lp2859
g57
(g78
g59
NtRp2860
(dp2861
g62
(dp2862
g82
g83
ssg71
g2856
sg64
(lp2863
S'utcnow'
p2864
asbag57
(g78
g59
NtRp2865
(dp2866
g62
(dp2867
g89
g90
ssg71
g2856
sg64
(lp2868
S':'
asbag57
(g78
g59
NtRp2869
(dp2870
g62
(dp2871
sg71
g2856
sg64
(lp2872
g57
(g58
g59
NtRp2873
(dp2874
g62
(dp2875
g70
I5
ssg71
g2869
sg64
(lp2876
S'datetime.datetime(2012, 10, 15, 20, 30, 24, 509481)'
p2877
asbasbasbag57
(g73
g59
NtRp2878
(dp2879
g62
(dp2880
sg71
g67
sg64
(lp2881
g57
(g78
g59
NtRp2882
(dp2883
g62
(dp2884
g82
g83
ssg71
g2878
sg64
(lp2885
S'uuid'
p2886
asbag57
(g78
g59
NtRp2887
(dp2888
g62
(dp2889
g89
g90
ssg71
g2878
sg64
(lp2890
S':'
asbag57
(g78
g59
NtRp2891
(dp2892
g62
(dp2893
sg71
g2878
sg64
(lp2894
g57
(g58
g59
NtRp2895
(dp2896
g62
(dp2897
g70
I5
ssg71
g2891
sg64
(lp2898
S'ssad3b/127.0.0.1.2012-10-16.02-00-24.56022e80-c51d-436f-8661-aea08bbffce3'
p2899
asbasbasbag57
(g73
g59
NtRp2900
(dp2901
g62
(dp2902
sg71
g67
sg64
(lp2903
g57
(g78
g59
NtRp2904
(dp2905
g62
(dp2906
g82
g83
ssg71
g2900
sg64
(lp2907
S'vars'
p2908
asbag57
(g78
g59
NtRp2909
(dp2910
g62
(dp2911
g89
g90
ssg71
g2900
sg64
(lp2912
S':'
asbag57
(g78
g59
NtRp2913
(dp2914
g62
(dp2915
sg71
g2900
sg64
(lp2916
g57
(g58
g59
NtRp2917
(dp2918
g62
(dp2919
g70
I5
ssg71
g2913
sg64
(lp2920
g57
(g66
g59
NtRp2921
(dp2922
g62
(dp2923
g70
I4
ssg71
Nsg64
(lp2924
sbasbasbasbag57
(g73
g59
NtRp2925
(dp2926
g62
(dp2927
sg71
g67
sg64
(lp2928
g57
(g78
g59
NtRp2929
(dp2930
g62
(dp2931
g82
g83
ssg71
g2925
sg64
(lp2932
S'wsgi'
p2933
asbag57
(g78
g59
NtRp2934
(dp2935
g62
(dp2936
g89
g90
ssg71
g2925
sg64
(lp2937
S':'
asbag57
(g78
g59
NtRp2938
(dp2939
g62
(dp2940
sg71
g2925
sg64
(lp2941
g57
(g58
g59
NtRp2942
(dp2943
g62
(dp2944
g70
I5
ssg71
g2938
sg64
(lp2945
g57
(g66
g59
NtRp2946
(dp2947
g62
(dp2948
g70
I4
ssg71
Nsg64
(lp2949
g57
(g73
g59
NtRp2950
(dp2951
g62
(dp2952
sg71
g2946
sg64
(lp2953
g57
(g78
g59
NtRp2954
(dp2955
g62
(dp2956
g82
g83
ssg71
g2950
sg64
(lp2957
S'environ'
p2958
asbag57
(g78
g59
NtRp2959
(dp2960
g62
(dp2961
g89
g90
ssg71
g2950
sg64
(lp2962
S':'
asbag57
(g78
g59
NtRp2963
(dp2964
g62
(dp2965
sg71
g2950
sg64
(lp2966
g57
(g58
g59
NtRp2967
(dp2968
g62
(dp2969
g70
I4
ssg71
g2963
sg64
(lp2970
g57
(g66
g59
NtRp2971
(dp2972
g62
(dp2973
g70
I3
ssg71
Nsg64
(lp2974
g57
(g73
g59
NtRp2975
(dp2976
g62
(dp2977
sg71
g2971
sg64
(lp2978
g57
(g78
g59
NtRp2979
(dp2980
g62
(dp2981
g82
g83
ssg71
g2975
sg64
(lp2982
S'HTTP_ACCEPT'
p2983
asbag57
(g78
g59
NtRp2984
(dp2985
g62
(dp2986
g89
g90
ssg71
g2975
sg64
(lp2987
S':'
asbag57
(g78
g59
NtRp2988
(dp2989
g62
(dp2990
sg71
g2975
sg64
(lp2991
g57
(g58
g59
NtRp2992
(dp2993
g62
(dp2994
g70
I3
ssg71
g2988
sg64
(lp2995
g1570
asbasbasbag57
(g73
g59
NtRp2996
(dp2997
g62
(dp2998
sg71
g2971
sg64
(lp2999
g57
(g78
g59
NtRp3000
(dp3001
g62
(dp3002
g82
g83
ssg71
g2996
sg64
(lp3003
S'HTTP_ACCEPT_ENCODING'
p3004
asbag57
(g78
g59
NtRp3005
(dp3006
g62
(dp3007
g89
g90
ssg71
g2996
sg64
(lp3008
S':'
asbag57
(g78
g59
NtRp3009
(dp3010
g62
(dp3011
sg71
g2996
sg64
(lp3012
g57
(g58
g59
NtRp3013
(dp3014
g62
(dp3015
g70
I3
ssg71
g3009
sg64
(lp3016
g1592
asbasbasbag57
(g73
g59
NtRp3017
(dp3018
g62
(dp3019
sg71
g2971
sg64
(lp3020
g57
(g78
g59
NtRp3021
(dp3022
g62
(dp3023
g82
g83
ssg71
g3017
sg64
(lp3024
S'HTTP_ACCEPT_LANGUAGE'
p3025
asbag57
(g78
g59
NtRp3026
(dp3027
g62
(dp3028
g89
g90
ssg71
g3017
sg64
(lp3029
S':'
asbag57
(g78
g59
NtRp3030
(dp3031
g62
(dp3032
sg71
g3017
sg64
(lp3033
g57
(g58
g59
NtRp3034
(dp3035
g62
(dp3036
g70
I3
ssg71
g3030
sg64
(lp3037
g1614
asbasbasbag57
(g73
g59
NtRp3038
(dp3039
g62
(dp3040
sg71
g2971
sg64
(lp3041
g57
(g78
g59
NtRp3042
(dp3043
g62
(dp3044
g82
g83
ssg71
g3038
sg64
(lp3045
S'HTTP_CONNECTION'
p3046
asbag57
(g78
g59
NtRp3047
(dp3048
g62
(dp3049
g89
g90
ssg71
g3038
sg64
(lp3050
S':'
asbag57
(g78
g59
NtRp3051
(dp3052
g62
(dp3053
sg71
g3038
sg64
(lp3054
g57
(g58
g59
NtRp3055
(dp3056
g62
(dp3057
g70
I3
ssg71
g3051
sg64
(lp3058
g1636
asbasbasbag57
(g73
g59
NtRp3059
(dp3060
g62
(dp3061
sg71
g2971
sg64
(lp3062
g57
(g78
g59
NtRp3063
(dp3064
g62
(dp3065
g82
g83
ssg71
g3059
sg64
(lp3066
S'HTTP_COOKIE'
p3067
asbag57
(g78
g59
NtRp3068
(dp3069
g62
(dp3070
g89
g90
ssg71
g3059
sg64
(lp3071
S':'
asbag57
(g78
g59
NtRp3072
(dp3073
g62
(dp3074
sg71
g3059
sg64
(lp3075
g57
(g58
g59
NtRp3076
(dp3077
g62
(dp3078
g70
I3
ssg71
g3072
sg64
(lp3079
g1658
asbasbasbag57
(g73
g59
NtRp3080
(dp3081
g62
(dp3082
sg71
g2971
sg64
(lp3083
g57
(g78
g59
NtRp3084
(dp3085
g62
(dp3086
g82
g83
ssg71
g3080
sg64
(lp3087
S'HTTP_HOST'
p3088
asbag57
(g78
g59
NtRp3089
(dp3090
g62
(dp3091
g89
g90
ssg71
g3080
sg64
(lp3092
S':'
asbag57
(g78
g59
NtRp3093
(dp3094
g62
(dp3095
sg71
g3080
sg64
(lp3096
g57
(g58
g59
NtRp3097
(dp3098
g62
(dp3099
g70
I3
ssg71
g3093
sg64
(lp3100
g1680
asbasbasbag57
(g73
g59
NtRp3101
(dp3102
g62
(dp3103
sg71
g2971
sg64
(lp3104
g57
(g78
g59
NtRp3105
(dp3106
g62
(dp3107
g82
g83
ssg71
g3101
sg64
(lp3108
S'HTTP_USER_AGENT'
p3109
asbag57
(g78
g59
NtRp3110
(dp3111
g62
(dp3112
g89
g90
ssg71
g3101
sg64
(lp3113
S':'
asbag57
(g78
g59
NtRp3114
(dp3115
g62
(dp3116
sg71
g3101
sg64
(lp3117
g57
(g58
g59
NtRp3118
(dp3119
g62
(dp3120
g70
I3
ssg71
g3114
sg64
(lp3121
g1702
asbasbasbag57
(g73
g59
NtRp3122
(dp3123
g62
(dp3124
sg71
g2971
sg64
(lp3125
g57
(g78
g59
NtRp3126
(dp3127
g62
(dp3128
g82
g83
ssg71
g3122
sg64
(lp3129
S'PATH_INFO'
p3130
asbag57
(g78
g59
NtRp3131
(dp3132
g62
(dp3133
g89
g90
ssg71
g3122
sg64
(lp3134
S':'
asbag57
(g78
g59
NtRp3135
(dp3136
g62
(dp3137
sg71
g3122
sg64
(lp3138
g57
(g58
g59
NtRp3139
(dp3140
g62
(dp3141
g70
I3
ssg71
g3135
sg64
(lp3142
g1766
asbasbasbag57
(g73
g59
NtRp3143
(dp3144
g62
(dp3145
sg71
g2971
sg64
(lp3146
g57
(g78
g59
NtRp3147
(dp3148
g62
(dp3149
g82
g83
ssg71
g3143
sg64
(lp3150
S'QUERY_STRING'
p3151
asbag57
(g78
g59
NtRp3152
(dp3153
g62
(dp3154
g89
g90
ssg71
g3143
sg64
(lp3155
S':'
asbag57
(g78
g59
NtRp3156
(dp3157
g62
(dp3158
sg71
g3143
sg64
(lp3159
g57
(g58
g59
NtRp3160
(dp3161
g62
(dp3162
g70
I3
ssg71
g3156
sg64
(lp3163
S''
asbasbasbag57
(g73
g59
NtRp3164
(dp3165
g62
(dp3166
sg71
g2971
sg64
(lp3167
g57
(g78
g59
NtRp3168
(dp3169
g62
(dp3170
g82
g83
ssg71
g3164
sg64
(lp3171
S'REMOTE_ADDR'
p3172
asbag57
(g78
g59
NtRp3173
(dp3174
g62
(dp3175
g89
g90
ssg71
g3164
sg64
(lp3176
S':'
asbag57
(g78
g59
NtRp3177
(dp3178
g62
(dp3179
sg71
g3164
sg64
(lp3180
g57
(g58
g59
NtRp3181
(dp3182
g62
(dp3183
g70
I3
ssg71
g3177
sg64
(lp3184
g202
asbasbasbag57
(g73
g59
NtRp3185
(dp3186
g62
(dp3187
sg71
g2971
sg64
(lp3188
g57
(g78
g59
NtRp3189
(dp3190
g62
(dp3191
g82
g83
ssg71
g3185
sg64
(lp3192
S'REMOTE_PORT'
p3193
asbag57
(g78
g59
NtRp3194
(dp3195
g62
(dp3196
g89
g90
ssg71
g3185
sg64
(lp3197
S':'
asbag57
(g78
g59
NtRp3198
(dp3199
g62
(dp3200
sg71
g3185
sg64
(lp3201
g57
(g58
g59
NtRp3202
(dp3203
g62
(dp3204
g70
I3
ssg71
g3198
sg64
(lp3205
g1830
asbasbasbag57
(g73
g59
NtRp3206
(dp3207
g62
(dp3208
sg71
g2971
sg64
(lp3209
g57
(g78
g59
NtRp3210
(dp3211
g62
(dp3212
g82
g83
ssg71
g3206
sg64
(lp3213
S'REQUEST_METHOD'
p3214
asbag57
(g78
g59
NtRp3215
(dp3216
g62
(dp3217
g89
g90
ssg71
g3206
sg64
(lp3218
S':'
asbag57
(g78
g59
NtRp3219
(dp3220
g62
(dp3221
sg71
g3206
sg64
(lp3222
g57
(g58
g59
NtRp3223
(dp3224
g62
(dp3225
g70
I3
ssg71
g3219
sg64
(lp3226
g1852
asbasbasbag57
(g73
g59
NtRp3227
(dp3228
g62
(dp3229
sg71
g2971
sg64
(lp3230
g57
(g78
g59
NtRp3231
(dp3232
g62
(dp3233
g82
g83
ssg71
g3227
sg64
(lp3234
S'SCRIPT_NAME'
p3235
asbag57
(g78
g59
NtRp3236
(dp3237
g62
(dp3238
g89
g90
ssg71
g3227
sg64
(lp3239
S':'
asbag57
(g78
g59
NtRp3240
(dp3241
g62
(dp3242
sg71
g3227
sg64
(lp3243
g57
(g58
g59
NtRp3244
(dp3245
g62
(dp3246
g70
I3
ssg71
g3240
sg64
(lp3247
S''
asbasbasbag57
(g73
g59
NtRp3248
(dp3249
g62
(dp3250
sg71
g2971
sg64
(lp3251
g57
(g78
g59
NtRp3252
(dp3253
g62
(dp3254
g82
g83
ssg71
g3248
sg64
(lp3255
S'SERVER_NAME'
p3256
asbag57
(g78
g59
NtRp3257
(dp3258
g62
(dp3259
g89
g90
ssg71
g3248
sg64
(lp3260
S':'
asbag57
(g78
g59
NtRp3261
(dp3262
g62
(dp3263
sg71
g3248
sg64
(lp3264
g57
(g58
g59
NtRp3265
(dp3266
g62
(dp3267
g70
I3
ssg71
g3261
sg64
(lp3268
g1895
asbasbasbag57
(g73
g59
NtRp3269
(dp3270
g62
(dp3271
sg71
g2971
sg64
(lp3272
g57
(g78
g59
NtRp3273
(dp3274
g62
(dp3275
g82
g83
ssg71
g3269
sg64
(lp3276
S'SERVER_PORT'
p3277
asbag57
(g78
g59
NtRp3278
(dp3279
g62
(dp3280
g89
g90
ssg71
g3269
sg64
(lp3281
S':'
asbag57
(g78
g59
NtRp3282
(dp3283
g62
(dp3284
sg71
g3269
sg64
(lp3285
g57
(g58
g59
NtRp3286
(dp3287
g62
(dp3288
g70
I3
ssg71
g3282
sg64
(lp3289
g1917
asbasbasbag57
(g73
g59
NtRp3290
(dp3291
g62
(dp3292
sg71
g2971
sg64
(lp3293
g57
(g78
g59
NtRp3294
(dp3295
g62
(dp3296
g82
g83
ssg71
g3290
sg64
(lp3297
S'SERVER_PROTOCOL'
p3298
asbag57
(g78
g59
NtRp3299
(dp3300
g62
(dp3301
g89
g90
ssg71
g3290
sg64
(lp3302
S':'
asbag57
(g78
g59
NtRp3303
(dp3304
g62
(dp3305
sg71
g3290
sg64
(lp3306
g57
(g58
g59
NtRp3307
(dp3308
g62
(dp3309
g70
I3
ssg71
g3303
sg64
(lp3310
g1939
asbasbasbag57
(g73
g59
NtRp3311
(dp3312
g62
(dp3313
sg71
g2971
sg64
(lp3314
g57
(g78
g59
NtRp3315
(dp3316
g62
(dp3317
g82
g83
ssg71
g3311
sg64
(lp3318
S'SERVER_SOFTWARE'
p3319
asbag57
(g78
g59
NtRp3320
(dp3321
g62
(dp3322
g89
g90
ssg71
g3311
sg64
(lp3323
S':'
asbag57
(g78
g59
NtRp3324
(dp3325
g62
(dp3326
sg71
g3311
sg64
(lp3327
g57
(g58
g59
NtRp3328
(dp3329
g62
(dp3330
g70
I3
ssg71
g3324
sg64
(lp3331
g1961
asbasbasbag57
(g73
g59
NtRp3332
(dp3333
g62
(dp3334
sg71
g2971
sg64
(lp3335
g57
(g78
g59
NtRp3336
(dp3337
g62
(dp3338
g82
g83
ssg71
g3332
sg64
(lp3339
S'wsgi.errors'
p3340
asbag57
(g78
g59
NtRp3341
(dp3342
g62
(dp3343
g89
g90
ssg71
g3332
sg64
(lp3344
S':'
asbag57
(g78
g59
NtRp3345
(dp3346
g62
(dp3347
sg71
g3332
sg64
(lp3348
g57
(g58
g59
NtRp3349
(dp3350
g62
(dp3351
g70
I3
ssg71
g3345
sg64
(lp3352
S"<open file '<stderr>', mode 'w' at 0x7f8f2c0b0270>"
p3353
asbasbasbag57
(g73
g59
NtRp3354
(dp3355
g62
(dp3356
sg71
g2971
sg64
(lp3357
g57
(g78
g59
NtRp3358
(dp3359
g62
(dp3360
g82
g83
ssg71
g3354
sg64
(lp3361
S'wsgi.file_wrapper'
p3362
asbag57
(g78
g59
NtRp3363
(dp3364
g62
(dp3365
g89
g90
ssg71
g3354
sg64
(lp3366
S':'
asbag57
(g78
g59
NtRp3367
(dp3368
g62
(dp3369
sg71
g3354
sg64
(lp3370
g57
(g58
g59
NtRp3371
(dp3372
g62
(dp3373
g70
I3
ssg71
g3367
sg64
(lp3374
S'<class wsgiref.util.FileWrapper at 0x2b5dd50>'
p3375
asbasbasbag57
(g73
g59
NtRp3376
(dp3377
g62
(dp3378
sg71
g2971
sg64
(lp3379
g57
(g78
g59
NtRp3380
(dp3381
g62
(dp3382
g82
g83
ssg71
g3376
sg64
(lp3383
S'wsgi.input'
p3384
asbag57
(g78
g59
NtRp3385
(dp3386
g62
(dp3387
g89
g90
ssg71
g3376
sg64
(lp3388
S':'
asbag57
(g78
g59
NtRp3389
(dp3390
g62
(dp3391
sg71
g3376
sg64
(lp3392
g57
(g58
g59
NtRp3393
(dp3394
g62
(dp3395
g70
I3
ssg71
g3389
sg64
(lp3396
S'<cStringIO.StringO object at 0x7f8f082e3b58>'
p3397
asbasbasbag57
(g73
g59
NtRp3398
(dp3399
g62
(dp3400
sg71
g2971
sg64
(lp3401
g57
(g78
g59
NtRp3402
(dp3403
g62
(dp3404
g82
g83
ssg71
g3398
sg64
(lp3405
S'wsgi.multiprocess'
p3406
asbag57
(g78
g59
NtRp3407
(dp3408
g62
(dp3409
g89
g90
ssg71
g3398
sg64
(lp3410
S':'
asbag57
(g78
g59
NtRp3411
(dp3412
g62
(dp3413
sg71
g3398
sg64
(lp3414
g57
(g58
g59
NtRp3415
(dp3416
g62
(dp3417
g70
I3
ssg71
g3411
sg64
(lp3418
g100
asbasbasbag57
(g73
g59
NtRp3419
(dp3420
g62
(dp3421
sg71
g2971
sg64
(lp3422
g57
(g78
g59
NtRp3423
(dp3424
g62
(dp3425
g82
g83
ssg71
g3419
sg64
(lp3426
S'wsgi.multithread'
p3427
asbag57
(g78
g59
NtRp3428
(dp3429
g62
(dp3430
g89
g90
ssg71
g3419
sg64
(lp3431
S':'
asbag57
(g78
g59
NtRp3432
(dp3433
g62
(dp3434
sg71
g3419
sg64
(lp3435
g57
(g58
g59
NtRp3436
(dp3437
g62
(dp3438
g70
I3
ssg71
g3432
sg64
(lp3439
g2201
asbasbasbag57
(g73
g59
NtRp3440
(dp3441
g62
(dp3442
sg71
g2971
sg64
(lp3443
g57
(g78
g59
NtRp3444
(dp3445
g62
(dp3446
g82
g83
ssg71
g3440
sg64
(lp3447
S'wsgi.run_once'
p3448
asbag57
(g78
g59
NtRp3449
(dp3450
g62
(dp3451
g89
g90
ssg71
g3440
sg64
(lp3452
S':'
asbag57
(g78
g59
NtRp3453
(dp3454
g62
(dp3455
sg71
g3440
sg64
(lp3456
g57
(g58
g59
NtRp3457
(dp3458
g62
(dp3459
g70
I3
ssg71
g3453
sg64
(lp3460
g100
asbasbasbag57
(g73
g59
NtRp3461
(dp3462
g62
(dp3463
sg71
g2971
sg64
(lp3464
g57
(g78
g59
NtRp3465
(dp3466
g62
(dp3467
g82
g83
ssg71
g3461
sg64
(lp3468
S'wsgi.url_scheme'
p3469
asbag57
(g78
g59
NtRp3470
(dp3471
g62
(dp3472
g89
g90
ssg71
g3461
sg64
(lp3473
S':'
asbag57
(g78
g59
NtRp3474
(dp3475
g62
(dp3476
sg71
g3461
sg64
(lp3477
g57
(g58
g59
NtRp3478
(dp3479
g62
(dp3480
g70
I3
ssg71
g3474
sg64
(lp3481
g2244
asbasbasbag57
(g73
g59
NtRp3482
(dp3483
g62
(dp3484
sg71
g2971
sg64
(lp3485
g57
(g78
g59
NtRp3486
(dp3487
g62
(dp3488
g82
g83
ssg71
g3482
sg64
(lp3489
S'wsgi.version'
p3490
asbag57
(g78
g59
NtRp3491
(dp3492
g62
(dp3493
g89
g90
ssg71
g3482
sg64
(lp3494
S':'
asbag57
(g78
g59
NtRp3495
(dp3496
g62
(dp3497
sg71
g3482
sg64
(lp3498
g57
(g58
g59
NtRp3499
(dp3500
g62
(dp3501
g70
I3
ssg71
g3495
sg64
(lp3502
S'1'
asbasbasbasbasbasbasbasbasbasbasbasbasbsS'frames'
p3503
(lp3504
(dp3505
S'file'
p3506
S'/home/maneesha/Downloads/web2py/gluon/restricted.py'
p3507
sS'dump'
p3508
(dp3509
S'environment'
p3510
S"{'A': <class 'gluon.html.A'>, 'Auth': <class 'gluon.tools.Auth'>, 'B': <class 'gluon.html.B'>, 'BEAUTIFY': <class 'gluon.html.BEAUTIFY'>, 'BODY': <class 'gluon.html.BODY'>, 'BR': <class 'gluon.html.BR'>, 'BUTTON': <class 'gluon.html.BUTTON'>, 'CAT': <class 'gluon.html.CAT'>, 'CENTER': <class 'gluon.html.CENTER'>, 'CLEANUP': <class 'gluon.validators.CLEANUP'>, ...}"
p3511
sS'ccode'
p3512
S'<code object <module> at 0x7f8f082ef030, file "/...ications/ssad3b/controllers/default.py", line 12>'
p3513
ssS'lnum'
p3514
I205
sS'lines'
p3515
(dp3516
I200
S'    try:'
p3517
sI201
S'        if type(code) == types.CodeType:'
p3518
sI202
S'            ccode = code'
p3519
sI203
S'        else:'
p3520
sI204
S'            ccode = compile2(code,layer)'
p3521
sI205
S'        exec ccode in environment'
p3522
sI206
S'    except HTTP:'
p3523
sI207
S'        raise'
p3524
sI208
S'    except RestrictedError:'
p3525
sI209
S'        # do not encapsulate (obfuscate) the original RestrictedError'
p3526
ssS'call'
p3527
S"(code='# -*- coding: utf-8 -*-\\n### required - do no del...turn d\\n\\nresponse._vars=response._caller(sorting)\\n', environment={'A': <class 'gluon.html.A'>, 'Auth': <class 'gluon.tools.Auth'>, 'B': <class 'gluon.html.B'>, 'BEAUTIFY': <class 'gluon.html.BEAUTIFY'>, 'BODY': <class 'gluon.html.BODY'>, 'BR': <class 'gluon.html.BR'>, 'BUTTON': <class 'gluon.html.BUTTON'>, 'CAT': <class 'gluon.html.CAT'>, 'CENTER': <class 'gluon.html.CENTER'>, 'CLEANUP': <class 'gluon.validators.CLEANUP'>, ...}, layer='/home/maneesha/Downloads/web2py/applications/ssad3b/controllers/default.py')"
p3528
sS'func'
p3529
S'restricted'
p3530
sa(dp3531
g3506
S'/home/maneesha/Downloads/web2py/applications/ssad3b/controllers/default.py'
p3532
sg3508
(dp3533
sg3514
I166
sg3515
(dp3534
I160
S'    while pre!=d:'
p3535
sI161
S'        pre=d'
p3536
sI162
S'        d=d.replace("<b>","");'
p3537
sI163
S'        d=d.replace("</b>","");'
p3538
sI164
S'    return d'
p3539
sI155
S'        cited_by=inp.cited_by'
p3540
sI156
S'        year=inp.year'
p3541
sI157
S'    return [key,level,top,auth,cited_by,year]'
p3542
sI158
S'def bold(d):'
p3543
sI159
S'    pre=""'
p3544
ssg3527
S'()'
p3545
sg3529
S'<module>'
p3546
sa(dp3547
g3506
S'/home/maneesha/Downloads/web2py/gluon/globals.py'
p3548
sg3508
(dp3549
S'self'
p3550
S'undefined'
p3551
sS'f'
S'<function sorting>'
p3552
ssg3514
I173
sg3515
(dp3553
I168
S'        self.menu = []             # used by the default view layout'
p3554
sI169
S'        self.files = []            # used by web2py_ajax.html'
p3555
sI170
S'        self.generic_patterns = [] # patterns to allow generic views'
p3556
sI171
S"        self.delimiters = ('{{','}}')"
p3557
sI172
S'        self._vars = None'
p3558
sI173
S'        self._caller = lambda f: f()'
p3559
sI174
S'        self._view_environment = None'
p3560
sI175
S'        self._custom_commit = None'
p3561
sI176
S'        self._custom_rollback = None'
p3562
sI177
S''
ssg3527
S'(f=<function sorting>)'
p3563
sg3529
S'<lambda>'
p3564
sa(dp3565
g3506
S'/home/maneesha/Downloads/web2py/applications/ssad3b/controllers/default.py'
p3566
sg3508
(dp3567
S'level'
p3568
g3551
sS'url'
p3569
g3551
sS'top'
p3570
g3551
sS'ret1'
p3571
S"['0', '1']"
p3572
sS'l1'
p3573
S"['database design', 3, 3, False, True, True]"
p3574
sS'global bigans'
p3575
S"[['Re-optimizing data-parallel computing', 'http://dl.acm.org/citation.cfm?id=2228298.222832...M&CFID=127637614&CFTOKEN=56646685&preflayout=flat', -1, '04/25/2012', 1, ['http://dl.acm.org/citation.cfm?id=2342397&CFID=127637614&CFTOKEN=56646685&preflayout=flat', '', ''], ['The only constant is change: incorporating time-varying network reservations in data centers', 'http://dl.acm.org/citation.cfm?id=2342397&CFID=127637614&CFTOKEN=56646685&preflayout=flat', -1, '08/13/2012', 0, []]], ['Implementing mapping composition', 'http://dl.acm.org/citation.cfm?id=1342411.134242...M&CFID=127637614&CFTOKEN=56646685&preflayout=flat', -1, '03/01/2008', '17', ['http://dl.acm.org/citation.cfm?id=1693908&CFID=127637614&CFTOKEN=56646685&preflayout=flat', 'http://dl.acm.org/citation.cfm?id=2366589&CFID=127637614&CFTOKEN=56646685&preflayout=flat', 'http://dl.acm.org/citation.cfm?id=1483186&CFID=127637614&CFTOKEN=56646685&preflayout=flat'], ['Ontology and Schema Evolution in Data Integration: Review and Assessment', 'http://dl.acm.org/citation.cfm?id=1693908&CFID=127637614&CFTOKEN=56646685&preflayout=flat', -1, '11/07/2009', '3', ['http://dl.acm.org/citation.cfm?id=1989477&CFID=127637614&CFTOKEN=56646685&preflayout=flat', 'http://dl.acm.org/citation.cfm?id=2363489&CFID=127637614&CFTOKEN=56646685&preflayout=flat', 'http://dl.acm.org/citation.cfm?id=2075183&CFID=127637614&CFTOKEN=56646685&preflayout=flat'], ['Exelixis: evolving ontology-based data integration system', 'http://dl.acm.org/citation.cfm?id=1989477&CFID=127637614&CFTOKEN=56646685&preflayout=flat', -1, '06/12/2011', '2', ['http://dl.acm.org/citation.cfm?id=2363489&CFID=127637614&CFTOKEN=56646685&preflayout=flat', 'http://dl.acm.org/citation.cfm?id=2075183&CFID=127637614&CFTOKEN=56646685&preflayout=flat', '']], ['OtO matching system: a multi-strategy approach to instance matching', 'http://dl.acm.org/citation.cfm?id=2363489&CFID=127637614&CFTOKEN=56646685&preflayout=flat', -1, '06/25/2012', 0, []], ['Ontology evolution in data integration: query rewriting to the rescue', 'http://dl.acm.org/citation.cfm?id=2075183&CFID=127637614&CFTOKEN=56646685&preflayout=flat', -1, '10/31/2011', 0, []]], ['Semantic flow networks: semantic interoperability in networks of ontologies', 'http://dl.acm.org/citation.cfm?id=2366589&CFID=127637614&CFTOKEN=56646685&preflayout=flat', -1, '12/04/2011', 0, []], ['Collecting Community-Based Mappings in an Ontology Repository', 'http://dl.acm.org/citation.cfm?id=1483186&CFID=127637614&CFTOKEN=56646685&preflayout=flat', -1, '10/26/2008', '11', ['http://dl.acm.org/citation.cfm?id=1936270&CFID=127637614&CFTOKEN=56646685&preflayout=flat', 'http://dl.acm.org/citation.cfm?id=1693700&CFID=127637614&CFTOKEN=56646685&preflayout=flat', 'http://dl.acm.org/citation.cfm?id=1561555&CFID=127637614&CFTOKEN=56646685&preflayout=flat'], ['Design, redesign and publication of linked schema repositories in the large', 'http://dl.acm.org/citation.cfm?id=1936270&CFID=127637614&CFTOKEN=56646685&preflayout=flat', -1, '10/26/2010', 0, []], ['What Four Million Mappings Can Tell You about Two Hundred Ontologies', 'http://dl.acm.org/citation.cfm?id=1693700&CFID=127637614&CFTOKEN=56646685&preflayout=flat', -1, '11/06/2009', '6', ['http://dl.acm.org/citation.cfm?id=1861223&CFID=127637614&CFTOKEN=56646685&preflayout=flat', 'http://dl.acm.org/citation.cfm?id=1999684&CFID=127637614&CFTOKEN=56646685&preflayout=flat', 'http://dl.acm.org/citation.cfm?id=2063027&CFID=127637614&CFTOKEN=56646685&preflayout=flat']], ['Using Partial Reference Alignments to Align Ontologies', 'http://dl.acm.org/citation.cfm?id=1561555&CFID=127637614&CFTOKEN=56646685&preflayout=flat', -1, '05/31/2009', '5', ['http://dl.acm.org/citation.cfm?id=1697931&CFID=127637614&CFTOKEN=56646685&preflayout=flat', 'http://dl.acm.org/citation.cfm?id=1948527&CFID=127637614&CFTOKEN=56646685&preflayout=flat', 'http://dl.acm.org/citation.cfm?id=2155330&CFID=127637614&CFTOKEN=56646685&preflayout=flat']]]], ['FAS: a freshness-sensitive coordination middleware for a cluster of OLAP components', 'http://dl.acm.org/citation.cfm?id=1287369.128743...M&CFID=127637614&CFTOKEN=56646685&preflayout=flat', -1, '08/20/2002', '26', ['http://dl.acm.org/citation.cfm?id=1531789&CFID=127637614&CFTOKEN=56646685&preflayout=flat', 'http://dl.acm.org/citation.cfm?id=1609933&CFID=127637614&CFTOKEN=56646685&preflayout=flat', 'http://dl.acm.org/citation.cfm?id=1647592&CFID=127637614&CFTOKEN=56646685&preflayout=flat'], ['Replicated data management in the grid: the Re:GRIDiT approach', 'http://dl.acm.org/citation.cfm?id=1531789&CFID=127637614&CFTOKEN=56646685&preflayout=flat', -1, '05/18/2009', '3', ['http://dl.acm.org/citation.cfm?id=1651272&CFID=127637614&CFTOKEN=56646685&preflayout=flat', 'http://dl.acm.org/citation.cfm?id=2247010&CFID=127637614&CFTOKEN=56646685&preflayout=flat', 'http://dl.acm.org/citation.cfm?id=1693829&CFID=127637614&CFTOKEN=56646685&preflayout=flat'], ['How replicated data management in the cloud can ...from a data grid protocol: the Re:GRIDiT Approach', 'http://dl.acm.org/citation.cfm?id=1651272&CFID=127637614&CFTOKEN=56646685&preflayout=flat', -1, '11/02/2009', 1, ['http://dl.acm.org/citation.cfm?id=1985507&CFID=127637614&CFTOKEN=56646685&preflayout=flat', '', '']], ['Replication techniques in data grid environments', 'http://dl.acm.org/citation.cfm?id=2247010&CFID=127637614&CFTOKEN=56646685&preflayout=flat', -1, '03/19/2012', 0, []], ['Load-Aware Dynamic Replication Management in a Data Grid', 'http://dl.acm.org/citation.cfm?id=1693829&CFID=127637614&CFTOKEN=56646685&preflayout=flat', -1, '11/07/2009', 0, []]], ['Materialized aR-Tree in Distributed Spatial Data Warehouse', 'http://dl.acm.org/citation.cfm?id=1609933&CFID=127637614&CFTOKEN=56646685&preflayout=flat', -1, '12/01/2006', '3', ['http://dl.acm.org/citation.cfm?id=1882813&CFID=127637614&CFTOKEN=56646685&preflayout=flat', 'http://dl.acm.org/citation.cfm?id=1789607&CFID=127637614&CFTOKEN=56646685&preflayout=flat', 'http://dl.acm.org/citation.cfm?id=1786219&CFID=127637614&CFTOKEN=56646685&preflayout=flat'], ['Extended cascaded star schema for distributed spatial data warehouse', 'http://dl.acm.org/citation.cfm?id=1882813&CFID=127637614&CFTOKEN=56646685&preflayout=flat', -1, '09/13/2009', 0, []], ['Extended cascaded star schema and ECOLAP operations for spatial data warehouse', 'http://dl.acm.org/citation.cfm?id=1789607&CFID=127637614&CFTOKEN=56646685&preflayout=flat', -1, '09/23/2009', '2', ['http://dl.acm.org/citation.cfm?id=1882813&CFID=127637614&CFTOKEN=56646685&preflayout=flat', 'http://dl.acm.org/citation.cfm?id=2175040&CFID=127637614&CFTOKEN=56646685&preflayout=flat', '']], ['Modified R-MVB tree and BTV algorithm used in a distributed spatio-temporal data warehouse', 'http://dl.acm.org/citation.cfm?id=1786219&CFID=127637614&CFTOKEN=56646685&preflayout=flat', -1, '09/09/2007', '2', ['http://dl.acm.org/citation.cfm?id=1882813&CFID=127637614&CFTOKEN=56646685&preflayout=flat', 'http://dl.acm.org/citation.cfm?id=1884535&CFID=127637614&CFTOKEN=56646685&preflayout=flat', '']]], ['HyperDB: a PC-based database cluster system for efficient OLAP query processing', 'http://dl.acm.org/citation.cfm?id=1647592&CFID=127637614&CFTOKEN=56646685&preflayout=flat', -1, '11/06/2007', '2', ['http://dl.acm.org/citation.cfm?id=2045045&CFID=127637614&CFTOKEN=56646685&preflayout=flat', 'http://dl.acm.org/citation.cfm?id=2001174&CFID=127637614&CFTOKEN=56646685&preflayout=flat', ''], ['Private cloud computing techniques for inter-processing bioinformatics tools', 'http://dl.acm.org/citation.cfm?id=2045045&CFID=127637614&CFTOKEN=56646685&preflayout=flat', -1, '09/22/2011', 0, []], ['Performance evaluation of distributed database on PC cluster computers', 'http://dl.acm.org/citation.cfm?id=2001174&CFID=127637614&CFTOKEN=56646685&preflayout=flat', -1, '01/01/2011', 0, []]]]]"
p3576
sS'builtindict'
p3577
S"<type 'dict'>"
p3578
ssg3514
I68
sg3515
(dp3579
I64
S'    #for l in fst_l:'
p3580
sI65
S'     #   listf.append(cite(l))'
p3581
sI66
S'    rec(fst_l,l1,bigans)'
p3582
sI67
S'    global listf'
p3583
sI68
S'    return dict(bigans=bigans,level=l1[1],top=l1[2],ret1=ret1,url=url)'
p3584
sI69
S'def final_ans():'
p3585
sI70
S'    l1=u_filter()'
p3586
sI71
S'    url="http://dl.acm.org/results.cfm?h=1&query="+\'+\'.join(l1[0].split())'
p3587
sI72
S'    fst_l,ret1=extract1(url,l1)'
p3588
sI63
S'    fst_l,ret1=extract1(url1,l1)'
p3589
ssg3527
S'()'
p3590
sg3529
S'sorting'
p3591
sasS'pyver'
p3592
S'Python 2.7.3: /usr/bin/python'
p3593
sS'session'
p3594
g57
(g58
g59
NtRp3595
(dp3596
g62
(dp3597
sg64
(lp3598
g57
(g66
g59
NtRp3599
(dp3600
g62
(dp3601
g70
I5
ssg71
Nsg64
(lp3602
sbasbsS'etype'
p3603
S"<type 'exceptions.NameError'>"
p3604
sS'date'
p3605
S'Tue Oct 16 02:01:45 2012'
p3606
sS'response'
p3607
g57
(g58
g59
NtRp3608
(dp3609
g62
(dp3610
sg64
(lp3611
g57
(g66
g59
NtRp3612
(dp3613
g62
(dp3614
g70
I5
ssg71
Nsg64
(lp3615
g57
(g73
g59
NtRp3616
(dp3617
g62
(dp3618
sg71
g3612
sg64
(lp3619
g57
(g78
g59
NtRp3620
(dp3621
g62
(dp3622
g82
g83
ssg71
g3616
sg64
(lp3623
g167
asbag57
(g78
g59
NtRp3624
(dp3625
g62
(dp3626
g89
g90
ssg71
g3616
sg64
(lp3627
S':'
asbag57
(g78
g59
NtRp3628
(dp3629
g62
(dp3630
sg71
g3616
sg64
(lp3631
g57
(g58
g59
NtRp3632
(dp3633
g62
(dp3634
g70
I5
ssg71
g3628
sg64
(lp3635
S'<cStringIO.StringO object at 0x7f8f082e3180>'
p3636
asbasbasbag57
(g73
g59
NtRp3637
(dp3638
g62
(dp3639
sg71
g3612
sg64
(lp3640
g57
(g78
g59
NtRp3641
(dp3642
g62
(dp3643
g82
g83
ssg71
g3637
sg64
(lp3644
g233
asbag57
(g78
g59
NtRp3645
(dp3646
g62
(dp3647
g89
g90
ssg71
g3637
sg64
(lp3648
S':'
asbag57
(g78
g59
NtRp3649
(dp3650
g62
(dp3651
sg71
g3637
sg64
(lp3652
g57
(g58
g59
NtRp3653
(dp3654
g62
(dp3655
g70
I5
ssg71
g3649
sg64
(lp3656
g57
(g66
g59
NtRp3657
(dp3658
g62
(dp3659
g70
I4
ssg71
Nsg64
(lp3660
g57
(g73
g59
NtRp3661
(dp3662
g62
(dp3663
sg71
g3657
sg64
(lp3664
g57
(g78
g59
NtRp3665
(dp3666
g62
(dp3667
g82
g83
ssg71
g3661
sg64
(lp3668
S'session_id_ssad3b'
p3669
asbag57
(g78
g59
NtRp3670
(dp3671
g62
(dp3672
g89
g90
ssg71
g3661
sg64
(lp3673
S':'
asbag57
(g78
g59
NtRp3674
(dp3675
g62
(dp3676
sg71
g3661
sg64
(lp3677
g57
(g58
g59
NtRp3678
(dp3679
g62
(dp3680
g70
I4
ssg71
g3674
sg64
(lp3681
g57
(g66
g59
NtRp3682
(dp3683
g62
(dp3684
g70
I3
ssg71
Nsg64
(lp3685
g57
(g73
g59
NtRp3686
(dp3687
g62
(dp3688
sg71
g3682
sg64
(lp3689
g57
(g78
g59
NtRp3690
(dp3691
g62
(dp3692
g82
g83
ssg71
g3686
sg64
(lp3693
g283
asbag57
(g78
g59
NtRp3694
(dp3695
g62
(dp3696
g89
g90
ssg71
g3686
sg64
(lp3697
S':'
asbag57
(g78
g59
NtRp3698
(dp3699
g62
(dp3700
sg71
g3686
sg64
(lp3701
g57
(g58
g59
NtRp3702
(dp3703
g62
(dp3704
g70
I3
ssg71
g3698
sg64
(lp3705
S''
asbasbasbag57
(g73
g59
NtRp3706
(dp3707
g62
(dp3708
sg71
g3682
sg64
(lp3709
g57
(g78
g59
NtRp3710
(dp3711
g62
(dp3712
g82
g83
ssg71
g3706
sg64
(lp3713
g304
asbag57
(g78
g59
NtRp3714
(dp3715
g62
(dp3716
g89
g90
ssg71
g3706
sg64
(lp3717
S':'
asbag57
(g78
g59
NtRp3718
(dp3719
g62
(dp3720
sg71
g3706
sg64
(lp3721
g57
(g58
g59
NtRp3722
(dp3723
g62
(dp3724
g70
I3
ssg71
g3718
sg64
(lp3725
S''
asbasbasbag57
(g73
g59
NtRp3726
(dp3727
g62
(dp3728
sg71
g3682
sg64
(lp3729
g57
(g78
g59
NtRp3730
(dp3731
g62
(dp3732
g82
g83
ssg71
g3726
sg64
(lp3733
g325
asbag57
(g78
g59
NtRp3734
(dp3735
g62
(dp3736
g89
g90
ssg71
g3726
sg64
(lp3737
S':'
asbag57
(g78
g59
NtRp3738
(dp3739
g62
(dp3740
sg71
g3726
sg64
(lp3741
g57
(g58
g59
NtRp3742
(dp3743
g62
(dp3744
g70
I3
ssg71
g3738
sg64
(lp3745
S''
asbasbasbag57
(g73
g59
NtRp3746
(dp3747
g62
(dp3748
sg71
g3682
sg64
(lp3749
g57
(g78
g59
NtRp3750
(dp3751
g62
(dp3752
g82
g83
ssg71
g3746
sg64
(lp3753
g346
asbag57
(g78
g59
NtRp3754
(dp3755
g62
(dp3756
g89
g90
ssg71
g3746
sg64
(lp3757
S':'
asbag57
(g78
g59
NtRp3758
(dp3759
g62
(dp3760
sg71
g3746
sg64
(lp3761
g57
(g58
g59
NtRp3762
(dp3763
g62
(dp3764
g70
I3
ssg71
g3758
sg64
(lp3765
S''
asbasbasbag57
(g73
g59
NtRp3766
(dp3767
g62
(dp3768
sg71
g3682
sg64
(lp3769
g57
(g78
g59
NtRp3770
(dp3771
g62
(dp3772
g82
g83
ssg71
g3766
sg64
(lp3773
g367
asbag57
(g78
g59
NtRp3774
(dp3775
g62
(dp3776
g89
g90
ssg71
g3766
sg64
(lp3777
S':'
asbag57
(g78
g59
NtRp3778
(dp3779
g62
(dp3780
sg71
g3766
sg64
(lp3781
g57
(g58
g59
NtRp3782
(dp3783
g62
(dp3784
g70
I3
ssg71
g3778
sg64
(lp3785
S''
asbasbasbag57
(g73
g59
NtRp3786
(dp3787
g62
(dp3788
sg71
g3682
sg64
(lp3789
g57
(g78
g59
NtRp3790
(dp3791
g62
(dp3792
g82
g83
ssg71
g3786
sg64
(lp3793
g388
asbag57
(g78
g59
NtRp3794
(dp3795
g62
(dp3796
g89
g90
ssg71
g3786
sg64
(lp3797
S':'
asbag57
(g78
g59
NtRp3798
(dp3799
g62
(dp3800
sg71
g3786
sg64
(lp3801
g57
(g58
g59
NtRp3802
(dp3803
g62
(dp3804
g70
I3
ssg71
g3798
sg64
(lp3805
S'/'
asbasbasbag57
(g73
g59
NtRp3806
(dp3807
g62
(dp3808
sg71
g3682
sg64
(lp3809
g57
(g78
g59
NtRp3810
(dp3811
g62
(dp3812
g82
g83
ssg71
g3806
sg64
(lp3813
g409
asbag57
(g78
g59
NtRp3814
(dp3815
g62
(dp3816
g89
g90
ssg71
g3806
sg64
(lp3817
S':'
asbag57
(g78
g59
NtRp3818
(dp3819
g62
(dp3820
sg71
g3806
sg64
(lp3821
g57
(g58
g59
NtRp3822
(dp3823
g62
(dp3824
g70
I3
ssg71
g3818
sg64
(lp3825
S''
asbasbasbag57
(g73
g59
NtRp3826
(dp3827
g62
(dp3828
sg71
g3682
sg64
(lp3829
g57
(g78
g59
NtRp3830
(dp3831
g62
(dp3832
g82
g83
ssg71
g3826
sg64
(lp3833
g430
asbag57
(g78
g59
NtRp3834
(dp3835
g62
(dp3836
g89
g90
ssg71
g3826
sg64
(lp3837
S':'
asbag57
(g78
g59
NtRp3838
(dp3839
g62
(dp3840
sg71
g3826
sg64
(lp3841
g57
(g58
g59
NtRp3842
(dp3843
g62
(dp3844
g70
I3
ssg71
g3838
sg64
(lp3845
S''
asbasbasbasbasbasbasbasbasbasbasbag57
(g73
g59
NtRp3846
(dp3847
g62
(dp3848
sg71
g3612
sg64
(lp3849
g57
(g78
g59
NtRp3850
(dp3851
g62
(dp3852
g82
g83
ssg71
g3846
sg64
(lp3853
S'delimiters'
p3854
asbag57
(g78
g59
NtRp3855
(dp3856
g62
(dp3857
g89
g90
ssg71
g3846
sg64
(lp3858
S':'
asbag57
(g78
g59
NtRp3859
(dp3860
g62
(dp3861
sg71
g3846
sg64
(lp3862
g57
(g58
g59
NtRp3863
(dp3864
g62
(dp3865
g70
I5
ssg71
g3859
sg64
(lp3866
g57
(g66
g59
NtRp3867
(dp3868
g62
(dp3869
g70
I4
ssg71
Nsg64
(lp3870
g57
(g73
g59
NtRp3871
(dp3872
g62
(dp3873
sg71
g3867
sg64
(lp3874
g57
(g78
g59
NtRp3875
(dp3876
g62
(dp3877
sg71
g3871
sg64
(lp3878
g57
(g58
g59
NtRp3879
(dp3880
g62
(dp3881
g70
I4
ssg71
g3875
sg64
(lp3882
S'{{'
p3883
asbasbasbag57
(g73
g59
NtRp3884
(dp3885
g62
(dp3886
sg71
g3867
sg64
(lp3887
g57
(g78
g59
NtRp3888
(dp3889
g62
(dp3890
sg71
g3884
sg64
(lp3891
g57
(g58
g59
NtRp3892
(dp3893
g62
(dp3894
g70
I4
ssg71
g3888
sg64
(lp3895
S'}}'
p3896
asbasbasbasbasbasbasbag57
(g73
g59
NtRp3897
(dp3898
g62
(dp3899
sg71
g3612
sg64
(lp3900
g57
(g78
g59
NtRp3901
(dp3902
g62
(dp3903
g82
g83
ssg71
g3897
sg64
(lp3904
S'files'
p3905
asbag57
(g78
g59
NtRp3906
(dp3907
g62
(dp3908
g89
g90
ssg71
g3897
sg64
(lp3909
S':'
asbag57
(g78
g59
NtRp3910
(dp3911
g62
(dp3912
sg71
g3897
sg64
(lp3913
g57
(g58
g59
NtRp3914
(dp3915
g62
(dp3916
g70
I5
ssg71
g3910
sg64
(lp3917
g57
(g66
g59
NtRp3918
(dp3919
g62
(dp3920
g70
I4
ssg71
Nsg64
(lp3921
sbasbasbasbag57
(g73
g59
NtRp3922
(dp3923
g62
(dp3924
sg71
g3612
sg64
(lp3925
g57
(g78
g59
NtRp3926
(dp3927
g62
(dp3928
g82
g83
ssg71
g3922
sg64
(lp3929
S'flash'
p3930
asbag57
(g78
g59
NtRp3931
(dp3932
g62
(dp3933
g89
g90
ssg71
g3922
sg64
(lp3934
S':'
asbag57
(g78
g59
NtRp3935
(dp3936
g62
(dp3937
sg71
g3922
sg64
(lp3938
g57
(g58
g59
NtRp3939
(dp3940
g62
(dp3941
g70
I5
ssg71
g3935
sg64
(lp3942
S''
asbasbasbag57
(g73
g59
NtRp3943
(dp3944
g62
(dp3945
sg71
g3612
sg64
(lp3946
g57
(g78
g59
NtRp3947
(dp3948
g62
(dp3949
g82
g83
ssg71
g3943
sg64
(lp3950
S'generic_patterns'
p3951
asbag57
(g78
g59
NtRp3952
(dp3953
g62
(dp3954
g89
g90
ssg71
g3943
sg64
(lp3955
S':'
asbag57
(g78
g59
NtRp3956
(dp3957
g62
(dp3958
sg71
g3943
sg64
(lp3959
g57
(g58
g59
NtRp3960
(dp3961
g62
(dp3962
g70
I5
ssg71
g3956
sg64
(lp3963
g57
(g66
g59
NtRp3964
(dp3965
g62
(dp3966
g70
I4
ssg71
Nsg64
(lp3967
g57
(g73
g59
NtRp3968
(dp3969
g62
(dp3970
sg71
g3964
sg64
(lp3971
g57
(g78
g59
NtRp3972
(dp3973
g62
(dp3974
sg71
g3968
sg64
(lp3975
g57
(g58
g59
NtRp3976
(dp3977
g62
(dp3978
g70
I4
ssg71
g3972
sg64
(lp3979
S'*'
asbasbasbasbasbasbasbag57
(g73
g59
NtRp3980
(dp3981
g62
(dp3982
sg71
g3612
sg64
(lp3983
g57
(g78
g59
NtRp3984
(dp3985
g62
(dp3986
g82
g83
ssg71
g3980
sg64
(lp3987
S'headers'
p3988
asbag57
(g78
g59
NtRp3989
(dp3990
g62
(dp3991
g89
g90
ssg71
g3980
sg64
(lp3992
S':'
asbag57
(g78
g59
NtRp3993
(dp3994
g62
(dp3995
sg71
g3980
sg64
(lp3996
g57
(g58
g59
NtRp3997
(dp3998
g62
(dp3999
g70
I5
ssg71
g3993
sg64
(lp4000
g57
(g66
g59
NtRp4001
(dp4002
g62
(dp4003
g70
I4
ssg71
Nsg64
(lp4004
g57
(g73
g59
NtRp4005
(dp4006
g62
(dp4007
sg71
g4001
sg64
(lp4008
g57
(g78
g59
NtRp4009
(dp4010
g62
(dp4011
g82
g83
ssg71
g4005
sg64
(lp4012
S'Cache-Control'
p4013
asbag57
(g78
g59
NtRp4014
(dp4015
g62
(dp4016
g89
g90
ssg71
g4005
sg64
(lp4017
S':'
asbag57
(g78
g59
NtRp4018
(dp4019
g62
(dp4020
sg71
g4005
sg64
(lp4021
g57
(g58
g59
NtRp4022
(dp4023
g62
(dp4024
g70
I4
ssg71
g4018
sg64
(lp4025
S'no-store, no-cache, must-revalidate, post-check=0, pre-check=0'
p4026
asbasbasbag57
(g73
g59
NtRp4027
(dp4028
g62
(dp4029
sg71
g4001
sg64
(lp4030
g57
(g78
g59
NtRp4031
(dp4032
g62
(dp4033
g82
g83
ssg71
g4027
sg64
(lp4034
S'Content-Type'
p4035
asbag57
(g78
g59
NtRp4036
(dp4037
g62
(dp4038
g89
g90
ssg71
g4027
sg64
(lp4039
S':'
asbag57
(g78
g59
NtRp4040
(dp4041
g62
(dp4042
sg71
g4027
sg64
(lp4043
g57
(g58
g59
NtRp4044
(dp4045
g62
(dp4046
g70
I4
ssg71
g4040
sg64
(lp4047
S'text/html; charset=utf-8'
p4048
asbasbasbag57
(g73
g59
NtRp4049
(dp4050
g62
(dp4051
sg71
g4001
sg64
(lp4052
g57
(g78
g59
NtRp4053
(dp4054
g62
(dp4055
g82
g83
ssg71
g4049
sg64
(lp4056
S'Expires'
p4057
asbag57
(g78
g59
NtRp4058
(dp4059
g62
(dp4060
g89
g90
ssg71
g4049
sg64
(lp4061
S':'
asbag57
(g78
g59
NtRp4062
(dp4063
g62
(dp4064
sg71
g4049
sg64
(lp4065
g57
(g58
g59
NtRp4066
(dp4067
g62
(dp4068
g70
I4
ssg71
g4062
sg64
(lp4069
S'Mon, 15 Oct 2012 20:30:24 GMT'
p4070
asbasbasbag57
(g73
g59
NtRp4071
(dp4072
g62
(dp4073
sg71
g4001
sg64
(lp4074
g57
(g78
g59
NtRp4075
(dp4076
g62
(dp4077
g82
g83
ssg71
g4071
sg64
(lp4078
S'Pragma'
p4079
asbag57
(g78
g59
NtRp4080
(dp4081
g62
(dp4082
g89
g90
ssg71
g4071
sg64
(lp4083
S':'
asbag57
(g78
g59
NtRp4084
(dp4085
g62
(dp4086
sg71
g4071
sg64
(lp4087
g57
(g58
g59
NtRp4088
(dp4089
g62
(dp4090
g70
I4
ssg71
g4084
sg64
(lp4091
S'no-cache'
p4092
asbasbasbag57
(g73
g59
NtRp4093
(dp4094
g62
(dp4095
sg71
g4001
sg64
(lp4096
g57
(g78
g59
NtRp4097
(dp4098
g62
(dp4099
g82
g83
ssg71
g4093
sg64
(lp4100
S'X-Powered-By'
p4101
asbag57
(g78
g59
NtRp4102
(dp4103
g62
(dp4104
g89
g90
ssg71
g4093
sg64
(lp4105
S':'
asbag57
(g78
g59
NtRp4106
(dp4107
g62
(dp4108
sg71
g4093
sg64
(lp4109
g57
(g58
g59
NtRp4110
(dp4111
g62
(dp4112
g70
I4
ssg71
g4106
sg64
(lp4113
S'web2py'
p4114
asbasbasbasbasbasbasbag57
(g73
g59
NtRp4115
(dp4116
g62
(dp4117
sg71
g3612
sg64
(lp4118
g57
(g78
g59
NtRp4119
(dp4120
g62
(dp4121
g82
g83
ssg71
g4115
sg64
(lp4122
S'menu'
p4123
asbag57
(g78
g59
NtRp4124
(dp4125
g62
(dp4126
g89
g90
ssg71
g4115
sg64
(lp4127
S':'
asbag57
(g78
g59
NtRp4128
(dp4129
g62
(dp4130
sg71
g4115
sg64
(lp4131
g57
(g58
g59
NtRp4132
(dp4133
g62
(dp4134
g70
I5
ssg71
g4128
sg64
(lp4135
g57
(g66
g59
NtRp4136
(dp4137
g62
(dp4138
g70
I4
ssg71
Nsg64
(lp4139
g57
(g73
g59
NtRp4140
(dp4141
g62
(dp4142
sg71
g4136
sg64
(lp4143
g57
(g78
g59
NtRp4144
(dp4145
g62
(dp4146
sg71
g4140
sg64
(lp4147
g57
(g58
g59
NtRp4148
(dp4149
g62
(dp4150
g70
I4
ssg71
g4144
sg64
(lp4151
g57
(g66
g59
NtRp4152
(dp4153
g62
(dp4154
g70
I3
ssg71
Nsg64
(lp4155
g57
(g73
g59
NtRp4156
(dp4157
g62
(dp4158
sg71
g4152
sg64
(lp4159
g57
(g78
g59
NtRp4160
(dp4161
g62
(dp4162
sg71
g4156
sg64
(lp4163
g57
(g58
g59
NtRp4164
(dp4165
g62
(dp4166
g70
I3
ssg71
g4160
sg64
(lp4167
cgluon.languages
lazyT_unpickle
p4168
(S't\x05\x00\x00\x00Index'
tRp4169
asbasbasbag57
(g73
g59
NtRp4170
(dp4171
g62
(dp4172
sg71
g4152
sg64
(lp4173
g57
(g78
g59
NtRp4174
(dp4175
g62
(dp4176
sg71
g4170
sg64
(lp4177
g57
(g58
g59
NtRp4178
(dp4179
g62
(dp4180
g70
I3
ssg71
g4174
sg64
(lp4181
g100
asbasbasbag57
(g73
g59
NtRp4182
(dp4183
g62
(dp4184
sg71
g4152
sg64
(lp4185
g57
(g78
g59
NtRp4186
(dp4187
g62
(dp4188
sg71
g4182
sg64
(lp4189
g57
(g58
g59
NtRp4190
(dp4191
g62
(dp4192
g70
I3
ssg71
g4186
sg64
(lp4193
S'/ssad3b/default/index'
p4194
asbasbasbag57
(g73
g59
NtRp4195
(dp4196
g62
(dp4197
sg71
g4152
sg64
(lp4198
g57
(g78
g59
NtRp4199
(dp4200
g62
(dp4201
sg71
g4195
sg64
(lp4202
g57
(g58
g59
NtRp4203
(dp4204
g62
(dp4205
g70
I3
ssg71
g4199
sg64
(lp4206
g57
(g66
g59
NtRp4207
(dp4208
g62
(dp4209
g70
I2
ssg71
Nsg64
(lp4210
sbasbasbasbasbasbasbasbasbasbasbasbag57
(g73
g59
NtRp4211
(dp4212
g62
(dp4213
sg71
g3612
sg64
(lp4214
g57
(g78
g59
NtRp4215
(dp4216
g62
(dp4217
g82
g83
ssg71
g4211
sg64
(lp4218
S'meta'
p4219
asbag57
(g78
g59
NtRp4220
(dp4221
g62
(dp4222
g89
g90
ssg71
g4211
sg64
(lp4223
S':'
asbag57
(g78
g59
NtRp4224
(dp4225
g62
(dp4226
sg71
g4211
sg64
(lp4227
g57
(g58
g59
NtRp4228
(dp4229
g62
(dp4230
g70
I5
ssg71
g4224
sg64
(lp4231
g57
(g66
g59
NtRp4232
(dp4233
g62
(dp4234
g70
I4
ssg71
Nsg64
(lp4235
g57
(g73
g59
NtRp4236
(dp4237
g62
(dp4238
sg71
g4232
sg64
(lp4239
g57
(g78
g59
NtRp4240
(dp4241
g62
(dp4242
g82
g83
ssg71
g4236
sg64
(lp4243
S'author'
p4244
asbag57
(g78
g59
NtRp4245
(dp4246
g62
(dp4247
g89
g90
ssg71
g4236
sg64
(lp4248
S':'
asbag57
(g78
g59
NtRp4249
(dp4250
g62
(dp4251
sg71
g4236
sg64
(lp4252
g57
(g58
g59
NtRp4253
(dp4254
g62
(dp4255
g70
I4
ssg71
g4249
sg64
(lp4256
S'you <you@example.com>'
p4257
asbasbasbag57
(g73
g59
NtRp4258
(dp4259
g62
(dp4260
sg71
g4232
sg64
(lp4261
g57
(g78
g59
NtRp4262
(dp4263
g62
(dp4264
g82
g83
ssg71
g4258
sg64
(lp4265
S'description'
p4266
asbag57
(g78
g59
NtRp4267
(dp4268
g62
(dp4269
g89
g90
ssg71
g4258
sg64
(lp4270
S':'
asbag57
(g78
g59
NtRp4271
(dp4272
g62
(dp4273
sg71
g4258
sg64
(lp4274
g57
(g58
g59
NtRp4275
(dp4276
g62
(dp4277
g70
I4
ssg71
g4271
sg64
(lp4278
S''
asbasbasbag57
(g73
g59
NtRp4279
(dp4280
g62
(dp4281
sg71
g4232
sg64
(lp4282
g57
(g78
g59
NtRp4283
(dp4284
g62
(dp4285
g82
g83
ssg71
g4279
sg64
(lp4286
S'keywords'
p4287
asbag57
(g78
g59
NtRp4288
(dp4289
g62
(dp4290
g89
g90
ssg71
g4279
sg64
(lp4291
S':'
asbag57
(g78
g59
NtRp4292
(dp4293
g62
(dp4294
sg71
g4279
sg64
(lp4295
g57
(g58
g59
NtRp4296
(dp4297
g62
(dp4298
g70
I4
ssg71
g4292
sg64
(lp4299
S''
asbasbasbasbasbasbasbag57
(g73
g59
NtRp4300
(dp4301
g62
(dp4302
sg71
g3612
sg64
(lp4303
g57
(g78
g59
NtRp4304
(dp4305
g62
(dp4306
g82
g83
ssg71
g4300
sg64
(lp4307
S'postprocessing'
p4308
asbag57
(g78
g59
NtRp4309
(dp4310
g62
(dp4311
g89
g90
ssg71
g4300
sg64
(lp4312
S':'
asbag57
(g78
g59
NtRp4313
(dp4314
g62
(dp4315
sg71
g4300
sg64
(lp4316
g57
(g58
g59
NtRp4317
(dp4318
g62
(dp4319
g70
I5
ssg71
g4313
sg64
(lp4320
g57
(g66
g59
NtRp4321
(dp4322
g62
(dp4323
g70
I4
ssg71
Nsg64
(lp4324
sbasbasbasbag57
(g73
g59
NtRp4325
(dp4326
g62
(dp4327
sg71
g3612
sg64
(lp4328
g57
(g78
g59
NtRp4329
(dp4330
g62
(dp4331
g82
g83
ssg71
g4325
sg64
(lp4332
S'session_file'
p4333
asbag57
(g78
g59
NtRp4334
(dp4335
g62
(dp4336
g89
g90
ssg71
g4325
sg64
(lp4337
S':'
asbag57
(g78
g59
NtRp4338
(dp4339
g62
(dp4340
sg71
g4325
sg64
(lp4341
g57
(g58
g59
NtRp4342
(dp4343
g62
(dp4344
g70
I5
ssg71
g4338
sg64
(lp4345
S"<open file '/home/maneesha/Downloads/web2py/applications/ssad3b/sessions/127.0.0.1-982660c5-8ae7-4e4f-8e62-f7eea1e9a385', mode 'rb+' at 0x7f8ef08148a0>"
p4346
asbasbasbag57
(g73
g59
NtRp4347
(dp4348
g62
(dp4349
sg71
g3612
sg64
(lp4350
g57
(g78
g59
NtRp4351
(dp4352
g62
(dp4353
g82
g83
ssg71
g4347
sg64
(lp4354
S'session_filename'
p4355
asbag57
(g78
g59
NtRp4356
(dp4357
g62
(dp4358
g89
g90
ssg71
g4347
sg64
(lp4359
S':'
asbag57
(g78
g59
NtRp4360
(dp4361
g62
(dp4362
sg71
g4347
sg64
(lp4363
g57
(g58
g59
NtRp4364
(dp4365
g62
(dp4366
g70
I5
ssg71
g4360
sg64
(lp4367
S'/home/maneesha/Downloads/web2py/applications/ssad3b/sessions/127.0.0.1-982660c5-8ae7-4e4f-8e62-f7eea1e9a385'
p4368
asbasbasbag57
(g73
g59
NtRp4369
(dp4370
g62
(dp4371
sg71
g3612
sg64
(lp4372
g57
(g78
g59
NtRp4373
(dp4374
g62
(dp4375
g82
g83
ssg71
g4369
sg64
(lp4376
S'session_id'
p4377
asbag57
(g78
g59
NtRp4378
(dp4379
g62
(dp4380
g89
g90
ssg71
g4369
sg64
(lp4381
S':'
asbag57
(g78
g59
NtRp4382
(dp4383
g62
(dp4384
sg71
g4369
sg64
(lp4385
g57
(g58
g59
NtRp4386
(dp4387
g62
(dp4388
g70
I5
ssg71
g4382
sg64
(lp4389
S'127.0.0.1-982660c5-8ae7-4e4f-8e62-f7eea1e9a385'
p4390
asbasbasbag57
(g73
g59
NtRp4391
(dp4392
g62
(dp4393
sg71
g3612
sg64
(lp4394
g57
(g78
g59
NtRp4395
(dp4396
g62
(dp4397
g82
g83
ssg71
g4391
sg64
(lp4398
S'session_id_name'
p4399
asbag57
(g78
g59
NtRp4400
(dp4401
g62
(dp4402
g89
g90
ssg71
g4391
sg64
(lp4403
S':'
asbag57
(g78
g59
NtRp4404
(dp4405
g62
(dp4406
sg71
g4391
sg64
(lp4407
g57
(g58
g59
NtRp4408
(dp4409
g62
(dp4410
g70
I5
ssg71
g4404
sg64
(lp4411
g3669
asbasbasbag57
(g73
g59
NtRp4412
(dp4413
g62
(dp4414
sg71
g3612
sg64
(lp4415
g57
(g78
g59
NtRp4416
(dp4417
g62
(dp4418
g82
g83
ssg71
g4412
sg64
(lp4419
S'session_locked'
p4420
asbag57
(g78
g59
NtRp4421
(dp4422
g62
(dp4423
g89
g90
ssg71
g4412
sg64
(lp4424
S':'
asbag57
(g78
g59
NtRp4425
(dp4426
g62
(dp4427
sg71
g4412
sg64
(lp4428
g57
(g58
g59
NtRp4429
(dp4430
g62
(dp4431
g70
I5
ssg71
g4425
sg64
(lp4432
g2201
asbasbasbag57
(g73
g59
NtRp4433
(dp4434
g62
(dp4435
sg71
g3612
sg64
(lp4436
g57
(g78
g59
NtRp4437
(dp4438
g62
(dp4439
g82
g83
ssg71
g4433
sg64
(lp4440
S'session_new'
p4441
asbag57
(g78
g59
NtRp4442
(dp4443
g62
(dp4444
g89
g90
ssg71
g4433
sg64
(lp4445
S':'
asbag57
(g78
g59
NtRp4446
(dp4447
g62
(dp4448
sg71
g4433
sg64
(lp4449
g57
(g58
g59
NtRp4450
(dp4451
g62
(dp4452
g70
I5
ssg71
g4446
sg64
(lp4453
g100
asbasbasbag57
(g73
g59
NtRp4454
(dp4455
g62
(dp4456
sg71
g3612
sg64
(lp4457
g57
(g78
g59
NtRp4458
(dp4459
g62
(dp4460
g82
g83
ssg71
g4454
sg64
(lp4461
S'status'
p4462
asbag57
(g78
g59
NtRp4463
(dp4464
g62
(dp4465
g89
g90
ssg71
g4454
sg64
(lp4466
S':'
asbag57
(g78
g59
NtRp4467
(dp4468
g62
(dp4469
sg71
g4454
sg64
(lp4470
g57
(g58
g59
NtRp4471
(dp4472
g62
(dp4473
g70
I5
ssg71
g4467
sg64
(lp4474
S'200'
p4475
asbasbasbag57
(g73
g59
NtRp4476
(dp4477
g62
(dp4478
sg71
g3612
sg64
(lp4479
g57
(g78
g59
NtRp4480
(dp4481
g62
(dp4482
g82
g83
ssg71
g4476
sg64
(lp4483
S'subtitle'
p4484
asbag57
(g78
g59
NtRp4485
(dp4486
g62
(dp4487
g89
g90
ssg71
g4476
sg64
(lp4488
S':'
asbag57
(g78
g59
NtRp4489
(dp4490
g62
(dp4491
sg71
g4476
sg64
(lp4492
g57
(g58
g59
NtRp4493
(dp4494
g62
(dp4495
g70
I5
ssg71
g4489
sg64
(lp4496
S'powered by web2py'
p4497
asbasbasbag57
(g73
g59
NtRp4498
(dp4499
g62
(dp4500
sg71
g3612
sg64
(lp4501
g57
(g78
g59
NtRp4502
(dp4503
g62
(dp4504
g82
g83
ssg71
g4498
sg64
(lp4505
S'title'
p4506
asbag57
(g78
g59
NtRp4507
(dp4508
g62
(dp4509
g89
g90
ssg71
g4498
sg64
(lp4510
S':'
asbag57
(g78
g59
NtRp4511
(dp4512
g62
(dp4513
sg71
g4498
sg64
(lp4514
g57
(g58
g59
NtRp4515
(dp4516
g62
(dp4517
g70
I5
ssg71
g4511
sg64
(lp4518
S'My New App'
p4519
asbasbasbag57
(g73
g59
NtRp4520
(dp4521
g62
(dp4522
sg71
g3612
sg64
(lp4523
g57
(g78
g59
NtRp4524
(dp4525
g62
(dp4526
g82
g83
ssg71
g4520
sg64
(lp4527
g2886
asbag57
(g78
g59
NtRp4528
(dp4529
g62
(dp4530
g89
g90
ssg71
g4520
sg64
(lp4531
S':'
asbag57
(g78
g59
NtRp4532
(dp4533
g62
(dp4534
sg71
g4520
sg64
(lp4535
g57
(g58
g59
NtRp4536
(dp4537
g62
(dp4538
g70
I5
ssg71
g4532
sg64
(lp4539
g2899
asbasbasbag57
(g73
g59
NtRp4540
(dp4541
g62
(dp4542
sg71
g3612
sg64
(lp4543
g57
(g78
g59
NtRp4544
(dp4545
g62
(dp4546
g82
g83
ssg71
g4540
sg64
(lp4547
S'view'
p4548
asbag57
(g78
g59
NtRp4549
(dp4550
g62
(dp4551
g89
g90
ssg71
g4540
sg64
(lp4552
S':'
asbag57
(g78
g59
NtRp4553
(dp4554
g62
(dp4555
sg71
g4540
sg64
(lp4556
g57
(g58
g59
NtRp4557
(dp4558
g62
(dp4559
g70
I5
ssg71
g4553
sg64
(lp4560
S'default/sorting.html'
p4561
asbasbasbasbasbsS'locals'
p4562
(dp4563
S'ret1'
p4564
S"['0', '1']"
p4565
sS'fst_l'
p4566
S"['http://dl.acm.org/citation.cfm?id=2228298.222832...M&CFID=127637614&CFTOKEN=56646685&preflayout=flat', 'http://dl.acm.org/citation.cfm?id=1342411.134242...M&CFID=127637614&CFTOKEN=56646685&preflayout=flat', 'http://dl.acm.org/citation.cfm?id=1287369.128743...M&CFID=127637614&CFTOKEN=56646685&preflayout=flat']"
p4567
sS'url1'
p4568
S"'http://dl.acm.org/results.cfm?query=database des...hall&range_query=&CFID=127637614&CFTOKEN=56646685'"
p4569
sS'l1'
p4570
S"['database design', 3, 3, False, True, True]"
p4571
sssS'traceback'
p4572
S'Traceback (most recent call last):\n  File "/home/maneesha/Downloads/web2py/gluon/restricted.py", line 205, in restricted\n    exec ccode in environment\n  File "/home/maneesha/Downloads/web2py/applications/ssad3b/controllers/default.py", line 166, in <module>\n  File "/home/maneesha/Downloads/web2py/gluon/globals.py", line 173, in <lambda>\n    self._caller = lambda f: f()\n  File "/home/maneesha/Downloads/web2py/applications/ssad3b/controllers/default.py", line 68, in sorting\n    return dict(bigans=bigans,level=l1[1],top=l1[2],ret1=ret1,url=url)\nNameError: global name \'url\' is not defined\n'
p4573
s.