(dp1
S'output'
p2
S"<class 'urllib2.URLError'> <urlopen error [Errno -2] Name or service not known>"
p3
sS'layer'
p4
S'/home/chitra/courses/SSAD/web2py/applications/ssad2/controllers/default.py'
p5
sS'code'
p6
S'# -*- coding: utf-8 -*-\n### required - do no delete\ndef user(): return dict(form=auth())\ndef download(): return response.download(request,db)\ndef call(): return service()\n### end requires\n#def index():\n #   return dict()\n\n#def error():\n #   return dict()\nfrom gluon.tools import fetch\nimport re\nlistf=[]\ncount=0\nbigans=[]\ndef index():\n    form=SQLFORM(db.input)\n    if form.process().accepted:\n        response.flash = \'you entred\'\n        redirect(URL(\'final_ans\'))\n    return dict(form=form)\ndef year_user(index_yr):   #index_yr - only in this code not in main one\n    flag=index_yr\n    redirect(URL(\'final_ans()\'))\n    flag=0\n    #return dict(ans=ll1[0],l_yr=ll1[1])\ndef extract1(url,l1):\n    ret=[]\n    html=fetch(url)\n    html_splitted=html.split("<A HREF=\\"citation.cfm")\n    del html_splitted[0]\n    for i in range(0,l1[2]):\n        k=html_splitted[i].find(\'\\"\')\n        s="http://dl.acm.org/citation.cfm"+html_splitted[i][:k]\n        ret.append(s.split(\'&preflayout\')[0]+\'&preflayout=flat\')\n    return ret  \n    \n    \ndef final_ans():\n    l1=u_filter() \n    url="http://dl.acm.org/results.cfm?h=1&query="+\'+\'.join(l1[0].split())\n    fst_l=extract1(url,l1)\n    #for l in fst_l:\n     #   listf.append(cite(l))\n    rec(fst_l,l1,bigans)\n    global listf\n    return dict(bigans=bigans,level=l1[1],top=l1[2])\ndef rec(list1,l1,bigans):\n    global count\n    count=count+1\n    global listf\n    listf.append([])\n    for x in list1:\n        if x!=\'\':\n            z=cite(x)\n            #global listf\n            #listf[count-1].append(z)\n            bigans.append(z)\n            if count < l1[1]:\n                rec(z[5],l1,bigans[-1])\n    count=count-1\n    return\ndef cite(url):\n    if url==\'\':\n        return []\n    l1=u_filter()\n    html=fetch(url)\n    temp=[]\n        #temp=[]\n    d=re.search(\'<meta name="citation_title"[\\w\\W]*?>\',html).group()\n    d=bold(d)\n        #temp.append(d.split(\'>\')[0][9:-1])\n    temp.append(d.split(\'=\')[2][1:-2])\n    temp.append(url)\n    c=re.search(\'<meta name="citation_authors"[\\w\\W]*?>\',html).group()\n    c=bold(c)\n    if l1[3]==1:\n        #temp.append(d.split(\'>\')[0][9:-1])\n        temp.append(c.split(\'=\')[2][1:-2])\n    else:\n        temp.append(-1)\n    b=re.search(\'<meta name="citation_date"[\\w\\W]*?>\',html).group()\n    b=bold(b)\n    if l1[5]==1:\n        temp.append(b.split(\'=\')[2][1:-2])\n    else:\n        temp.append(-1)\n    s=re.search(\'CITED BY[\\w\\W]*?INDEX TERMS\',html).group()\n    if \'Citings are not available\' not in s:\n        e=re.search(\'\\d* Citations\',s)\n        if l1[4]!=1:\n            temp.append(-1)\n        elif e!=None:\n            temp.append(e.group().split()[0])\n        else:                                                                            \n            temp.append(1)\n        i=0\n        cit=[]\n        while i < l1[2]:\n            i+=1\n            s1=re.search(\'<a href[\\w\\W]*?</a>\',s)\n            if s1==None:\n                cit.append(\'\')\n            elif s1!=None:\n                k=s.find(s1.group())\n                #k1=s[:k]\n                cit.append(("http://dl.acm.org/"+s1.group().split(\'\\"\')[1]).split(\'&preflayout\')[0]+\'&preflayout=flat\')\n                s=s[k+2:]\n           \n        temp.append(cit)\n    else:\n        if l1[4]==1:\n            temp.append(0)\n        else:\n            temp.append(-1)\n        temp.append([])\n    return temp\ndef u_filter():\n    inpu=db().select(db.input.ALL)\n    for inp in inpu:\n        key=inp.keywords\n        level=inp.level\n        top=inp.top\n        auth=inp.author\n        cited_by=inp.cited_by\n        year=inp.year\n    return [key,level,top,auth,cited_by,year]\ndef bold(d):\n    pre=""\n    while pre!=d:\n        pre=d\n        d=d.replace("<b>","");\n        d=d.replace("</b>","");\n    return d\n\nresponse._vars=response._caller(final_ans)\n'
p7
sS'snapshot'
p8
(dp9
S'exception'
p10
(dp11
S'__module__'
p12
S"'urllib2'"
p13
sS'__getslice__'
p14
S"<method-wrapper '__getslice__' of URLError object>"
p15
sS'__str__'
p16
S"<bound method URLError.__str__ of URLError(gaierror(-2, 'Name or service not known'),)>"
p17
sS'__reduce__'
p18
S'<built-in method __reduce__ of URLError object>'
p19
sS'__dict__'
p20
S"{'reason': gaierror(-2, 'Name or service not known')}"
p21
sS'__sizeof__'
p22
S'<built-in method __sizeof__ of URLError object>'
p23
sS'__weakref__'
p24
S'None'
p25
sS'__init__'
p26
S"<bound method URLError.__init__ of URLError(gaierror(-2, 'Name or service not known'),)>"
p27
sS'__setattr__'
p28
S"<method-wrapper '__setattr__' of URLError object>"
p29
sS'__reduce_ex__'
p30
S'<built-in method __reduce_ex__ of URLError object>'
p31
sS'__new__'
p32
S'<built-in method __new__ of type object>'
p33
sS'errno'
p34
S'None'
p35
sS'__format__'
p36
S'<built-in method __format__ of URLError object>'
p37
sS'__class__'
p38
S"<class 'urllib2.URLError'>"
p39
sS'filename'
p40
S'None'
p41
sS'__doc__'
p42
S'None'
p43
sS'__getitem__'
p44
S"<method-wrapper '__getitem__' of URLError object>"
p45
sS'__setstate__'
p46
S'<built-in method __setstate__ of URLError object>'
p47
sS'__getattribute__'
p48
S"<method-wrapper '__getattribute__' of URLError object>"
p49
sS'args'
p50
S"(gaierror(-2, 'Name or service not known'),)"
p51
sS'reason'
p52
S"gaierror(-2, 'Name or service not known')"
p53
sS'__subclasshook__'
p54
S'<built-in method __subclasshook__ of type object>'
p55
sS'__unicode__'
p56
S'<built-in method __unicode__ of URLError object>'
p57
sS'strerror'
p58
S'None'
p59
sS'__delattr__'
p60
S"<method-wrapper '__delattr__' of URLError object>"
p61
sS'__repr__'
p62
S"<method-wrapper '__repr__' of URLError object>"
p63
sS'__hash__'
p64
S"<method-wrapper '__hash__' of URLError object>"
p65
ssS'evalue'
p66
S'<urlopen error [Errno -2] Name or service not known>'
p67
sS'request'
p68
ccopy_reg
_reconstructor
p69
(cgluon.html
BEAUTIFY
p70
c__builtin__
object
p71
NtRp72
(dp73
S'attributes'
p74
(dp75
sS'components'
p76
(lp77
g69
(cgluon.html
TABLE
p78
g71
NtRp79
(dp80
g74
(dp81
S'level'
p82
I5
ssS'parent'
p83
Nsg76
(lp84
g69
(cgluon.html
TR
p85
g71
NtRp86
(dp87
g74
(dp88
sg83
g79
sg76
(lp89
g69
(cgluon.html
TD
p90
g71
NtRp91
(dp92
g74
(dp93
S'_style'
p94
S'font-weight:bold;vertical-align:top'
p95
ssg83
g86
sg76
(lp96
S'ajax'
p97
asbag69
(g90
g71
NtRp98
(dp99
g74
(dp100
S'_valign'
p101
S'top'
p102
ssg83
g86
sg76
(lp103
S':'
asbag69
(g90
g71
NtRp104
(dp105
g74
(dp106
sg83
g86
sg76
(lp107
g69
(g70
g71
NtRp108
(dp109
g74
(dp110
g82
I5
ssg83
g104
sg76
(lp111
S'False'
p112
asbasbasbag69
(g85
g71
NtRp113
(dp114
g74
(dp115
sg83
g79
sg76
(lp116
g69
(g90
g71
NtRp117
(dp118
g74
(dp119
g94
g95
ssg83
g113
sg76
(lp120
S'application'
p121
asbag69
(g90
g71
NtRp122
(dp123
g74
(dp124
g101
g102
ssg83
g113
sg76
(lp125
S':'
asbag69
(g90
g71
NtRp126
(dp127
g74
(dp128
sg83
g113
sg76
(lp129
g69
(g70
g71
NtRp130
(dp131
g74
(dp132
g82
I5
ssg83
g126
sg76
(lp133
S'ssad2'
p134
asbasbasbag69
(g85
g71
NtRp135
(dp136
g74
(dp137
sg83
g79
sg76
(lp138
g69
(g90
g71
NtRp139
(dp140
g74
(dp141
g94
g95
ssg83
g135
sg76
(lp142
g50
asbag69
(g90
g71
NtRp143
(dp144
g74
(dp145
g101
g102
ssg83
g135
sg76
(lp146
S':'
asbag69
(g90
g71
NtRp147
(dp148
g74
(dp149
sg83
g135
sg76
(lp150
g69
(g70
g71
NtRp151
(dp152
g74
(dp153
g82
I5
ssg83
g147
sg76
(lp154
g69
(g78
g71
NtRp155
(dp156
g74
(dp157
g82
I4
ssg83
Nsg76
(lp158
sbasbasbasbag69
(g85
g71
NtRp159
(dp160
g74
(dp161
sg83
g79
sg76
(lp162
g69
(g90
g71
NtRp163
(dp164
g74
(dp165
g94
g95
ssg83
g159
sg76
(lp166
S'body'
p167
asbag69
(g90
g71
NtRp168
(dp169
g74
(dp170
g101
g102
ssg83
g159
sg76
(lp171
S':'
asbag69
(g90
g71
NtRp172
(dp173
g74
(dp174
sg83
g159
sg76
(lp175
g69
(g70
g71
NtRp176
(dp177
g74
(dp178
g82
I5
ssg83
g172
sg76
(lp179
S'<cStringIO.StringO object at 0x7fb534092f48>'
p180
asbasbasbag69
(g85
g71
NtRp181
(dp182
g74
(dp183
sg83
g79
sg76
(lp184
g69
(g90
g71
NtRp185
(dp186
g74
(dp187
g94
g95
ssg83
g181
sg76
(lp188
S'client'
p189
asbag69
(g90
g71
NtRp190
(dp191
g74
(dp192
g101
g102
ssg83
g181
sg76
(lp193
S':'
asbag69
(g90
g71
NtRp194
(dp195
g74
(dp196
sg83
g181
sg76
(lp197
g69
(g70
g71
NtRp198
(dp199
g74
(dp200
g82
I5
ssg83
g194
sg76
(lp201
S'127.0.0.1'
p202
asbasbasbag69
(g85
g71
NtRp203
(dp204
g74
(dp205
sg83
g79
sg76
(lp206
g69
(g90
g71
NtRp207
(dp208
g74
(dp209
g94
g95
ssg83
g203
sg76
(lp210
S'controller'
p211
asbag69
(g90
g71
NtRp212
(dp213
g74
(dp214
g101
g102
ssg83
g203
sg76
(lp215
S':'
asbag69
(g90
g71
NtRp216
(dp217
g74
(dp218
sg83
g203
sg76
(lp219
g69
(g70
g71
NtRp220
(dp221
g74
(dp222
g82
I5
ssg83
g216
sg76
(lp223
S'default'
p224
asbasbasbag69
(g85
g71
NtRp225
(dp226
g74
(dp227
sg83
g79
sg76
(lp228
g69
(g90
g71
NtRp229
(dp230
g74
(dp231
g94
g95
ssg83
g225
sg76
(lp232
S'cookies'
p233
asbag69
(g90
g71
NtRp234
(dp235
g74
(dp236
g101
g102
ssg83
g225
sg76
(lp237
S':'
asbag69
(g90
g71
NtRp238
(dp239
g74
(dp240
sg83
g225
sg76
(lp241
g69
(g70
g71
NtRp242
(dp243
g74
(dp244
g82
I5
ssg83
g238
sg76
(lp245
g69
(g78
g71
NtRp246
(dp247
g74
(dp248
g82
I4
ssg83
Nsg76
(lp249
g69
(g85
g71
NtRp250
(dp251
g74
(dp252
sg83
g246
sg76
(lp253
g69
(g90
g71
NtRp254
(dp255
g74
(dp256
g94
g95
ssg83
g250
sg76
(lp257
S'session_id_admin'
p258
asbag69
(g90
g71
NtRp259
(dp260
g74
(dp261
g101
g102
ssg83
g250
sg76
(lp262
S':'
asbag69
(g90
g71
NtRp263
(dp264
g74
(dp265
sg83
g250
sg76
(lp266
g69
(g70
g71
NtRp267
(dp268
g74
(dp269
g82
I4
ssg83
g263
sg76
(lp270
g69
(g78
g71
NtRp271
(dp272
g74
(dp273
g82
I3
ssg83
Nsg76
(lp274
g69
(g85
g71
NtRp275
(dp276
g74
(dp277
sg83
g271
sg76
(lp278
g69
(g90
g71
NtRp279
(dp280
g74
(dp281
g94
g95
ssg83
g275
sg76
(lp282
S'comment'
p283
asbag69
(g90
g71
NtRp284
(dp285
g74
(dp286
g101
g102
ssg83
g275
sg76
(lp287
S':'
asbag69
(g90
g71
NtRp288
(dp289
g74
(dp290
sg83
g275
sg76
(lp291
g69
(g70
g71
NtRp292
(dp293
g74
(dp294
g82
I3
ssg83
g288
sg76
(lp295
S''
asbasbasbag69
(g85
g71
NtRp296
(dp297
g74
(dp298
sg83
g271
sg76
(lp299
g69
(g90
g71
NtRp300
(dp301
g74
(dp302
g94
g95
ssg83
g296
sg76
(lp303
S'domain'
p304
asbag69
(g90
g71
NtRp305
(dp306
g74
(dp307
g101
g102
ssg83
g296
sg76
(lp308
S':'
asbag69
(g90
g71
NtRp309
(dp310
g74
(dp311
sg83
g296
sg76
(lp312
g69
(g70
g71
NtRp313
(dp314
g74
(dp315
g82
I3
ssg83
g309
sg76
(lp316
S''
asbasbasbag69
(g85
g71
NtRp317
(dp318
g74
(dp319
sg83
g271
sg76
(lp320
g69
(g90
g71
NtRp321
(dp322
g74
(dp323
g94
g95
ssg83
g317
sg76
(lp324
S'expires'
p325
asbag69
(g90
g71
NtRp326
(dp327
g74
(dp328
g101
g102
ssg83
g317
sg76
(lp329
S':'
asbag69
(g90
g71
NtRp330
(dp331
g74
(dp332
sg83
g317
sg76
(lp333
g69
(g70
g71
NtRp334
(dp335
g74
(dp336
g82
I3
ssg83
g330
sg76
(lp337
S''
asbasbasbag69
(g85
g71
NtRp338
(dp339
g74
(dp340
sg83
g271
sg76
(lp341
g69
(g90
g71
NtRp342
(dp343
g74
(dp344
g94
g95
ssg83
g338
sg76
(lp345
S'httponly'
p346
asbag69
(g90
g71
NtRp347
(dp348
g74
(dp349
g101
g102
ssg83
g338
sg76
(lp350
S':'
asbag69
(g90
g71
NtRp351
(dp352
g74
(dp353
sg83
g338
sg76
(lp354
g69
(g70
g71
NtRp355
(dp356
g74
(dp357
g82
I3
ssg83
g351
sg76
(lp358
S''
asbasbasbag69
(g85
g71
NtRp359
(dp360
g74
(dp361
sg83
g271
sg76
(lp362
g69
(g90
g71
NtRp363
(dp364
g74
(dp365
g94
g95
ssg83
g359
sg76
(lp366
S'max-age'
p367
asbag69
(g90
g71
NtRp368
(dp369
g74
(dp370
g101
g102
ssg83
g359
sg76
(lp371
S':'
asbag69
(g90
g71
NtRp372
(dp373
g74
(dp374
sg83
g359
sg76
(lp375
g69
(g70
g71
NtRp376
(dp377
g74
(dp378
g82
I3
ssg83
g372
sg76
(lp379
S''
asbasbasbag69
(g85
g71
NtRp380
(dp381
g74
(dp382
sg83
g271
sg76
(lp383
g69
(g90
g71
NtRp384
(dp385
g74
(dp386
g94
g95
ssg83
g380
sg76
(lp387
S'path'
p388
asbag69
(g90
g71
NtRp389
(dp390
g74
(dp391
g101
g102
ssg83
g380
sg76
(lp392
S':'
asbag69
(g90
g71
NtRp393
(dp394
g74
(dp395
sg83
g380
sg76
(lp396
g69
(g70
g71
NtRp397
(dp398
g74
(dp399
g82
I3
ssg83
g393
sg76
(lp400
S''
asbasbasbag69
(g85
g71
NtRp401
(dp402
g74
(dp403
sg83
g271
sg76
(lp404
g69
(g90
g71
NtRp405
(dp406
g74
(dp407
g94
g95
ssg83
g401
sg76
(lp408
S'secure'
p409
asbag69
(g90
g71
NtRp410
(dp411
g74
(dp412
g101
g102
ssg83
g401
sg76
(lp413
S':'
asbag69
(g90
g71
NtRp414
(dp415
g74
(dp416
sg83
g401
sg76
(lp417
g69
(g70
g71
NtRp418
(dp419
g74
(dp420
g82
I3
ssg83
g414
sg76
(lp421
S''
asbasbasbag69
(g85
g71
NtRp422
(dp423
g74
(dp424
sg83
g271
sg76
(lp425
g69
(g90
g71
NtRp426
(dp427
g74
(dp428
g94
g95
ssg83
g422
sg76
(lp429
S'version'
p430
asbag69
(g90
g71
NtRp431
(dp432
g74
(dp433
g101
g102
ssg83
g422
sg76
(lp434
S':'
asbag69
(g90
g71
NtRp435
(dp436
g74
(dp437
sg83
g422
sg76
(lp438
g69
(g70
g71
NtRp439
(dp440
g74
(dp441
g82
I3
ssg83
g435
sg76
(lp442
S''
asbasbasbasbasbasbasbag69
(g85
g71
NtRp443
(dp444
g74
(dp445
sg83
g246
sg76
(lp446
g69
(g90
g71
NtRp447
(dp448
g74
(dp449
g94
g95
ssg83
g443
sg76
(lp450
S'session_id_proj2'
p451
asbag69
(g90
g71
NtRp452
(dp453
g74
(dp454
g101
g102
ssg83
g443
sg76
(lp455
S':'
asbag69
(g90
g71
NtRp456
(dp457
g74
(dp458
sg83
g443
sg76
(lp459
g69
(g70
g71
NtRp460
(dp461
g74
(dp462
g82
I4
ssg83
g456
sg76
(lp463
g69
(g78
g71
NtRp464
(dp465
g74
(dp466
g82
I3
ssg83
Nsg76
(lp467
g69
(g85
g71
NtRp468
(dp469
g74
(dp470
sg83
g464
sg76
(lp471
g69
(g90
g71
NtRp472
(dp473
g74
(dp474
g94
g95
ssg83
g468
sg76
(lp475
g283
asbag69
(g90
g71
NtRp476
(dp477
g74
(dp478
g101
g102
ssg83
g468
sg76
(lp479
S':'
asbag69
(g90
g71
NtRp480
(dp481
g74
(dp482
sg83
g468
sg76
(lp483
g69
(g70
g71
NtRp484
(dp485
g74
(dp486
g82
I3
ssg83
g480
sg76
(lp487
S''
asbasbasbag69
(g85
g71
NtRp488
(dp489
g74
(dp490
sg83
g464
sg76
(lp491
g69
(g90
g71
NtRp492
(dp493
g74
(dp494
g94
g95
ssg83
g488
sg76
(lp495
g304
asbag69
(g90
g71
NtRp496
(dp497
g74
(dp498
g101
g102
ssg83
g488
sg76
(lp499
S':'
asbag69
(g90
g71
NtRp500
(dp501
g74
(dp502
sg83
g488
sg76
(lp503
g69
(g70
g71
NtRp504
(dp505
g74
(dp506
g82
I3
ssg83
g500
sg76
(lp507
S''
asbasbasbag69
(g85
g71
NtRp508
(dp509
g74
(dp510
sg83
g464
sg76
(lp511
g69
(g90
g71
NtRp512
(dp513
g74
(dp514
g94
g95
ssg83
g508
sg76
(lp515
g325
asbag69
(g90
g71
NtRp516
(dp517
g74
(dp518
g101
g102
ssg83
g508
sg76
(lp519
S':'
asbag69
(g90
g71
NtRp520
(dp521
g74
(dp522
sg83
g508
sg76
(lp523
g69
(g70
g71
NtRp524
(dp525
g74
(dp526
g82
I3
ssg83
g520
sg76
(lp527
S''
asbasbasbag69
(g85
g71
NtRp528
(dp529
g74
(dp530
sg83
g464
sg76
(lp531
g69
(g90
g71
NtRp532
(dp533
g74
(dp534
g94
g95
ssg83
g528
sg76
(lp535
g346
asbag69
(g90
g71
NtRp536
(dp537
g74
(dp538
g101
g102
ssg83
g528
sg76
(lp539
S':'
asbag69
(g90
g71
NtRp540
(dp541
g74
(dp542
sg83
g528
sg76
(lp543
g69
(g70
g71
NtRp544
(dp545
g74
(dp546
g82
I3
ssg83
g540
sg76
(lp547
S''
asbasbasbag69
(g85
g71
NtRp548
(dp549
g74
(dp550
sg83
g464
sg76
(lp551
g69
(g90
g71
NtRp552
(dp553
g74
(dp554
g94
g95
ssg83
g548
sg76
(lp555
g367
asbag69
(g90
g71
NtRp556
(dp557
g74
(dp558
g101
g102
ssg83
g548
sg76
(lp559
S':'
asbag69
(g90
g71
NtRp560
(dp561
g74
(dp562
sg83
g548
sg76
(lp563
g69
(g70
g71
NtRp564
(dp565
g74
(dp566
g82
I3
ssg83
g560
sg76
(lp567
S''
asbasbasbag69
(g85
g71
NtRp568
(dp569
g74
(dp570
sg83
g464
sg76
(lp571
g69
(g90
g71
NtRp572
(dp573
g74
(dp574
g94
g95
ssg83
g568
sg76
(lp575
g388
asbag69
(g90
g71
NtRp576
(dp577
g74
(dp578
g101
g102
ssg83
g568
sg76
(lp579
S':'
asbag69
(g90
g71
NtRp580
(dp581
g74
(dp582
sg83
g568
sg76
(lp583
g69
(g70
g71
NtRp584
(dp585
g74
(dp586
g82
I3
ssg83
g580
sg76
(lp587
S''
asbasbasbag69
(g85
g71
NtRp588
(dp589
g74
(dp590
sg83
g464
sg76
(lp591
g69
(g90
g71
NtRp592
(dp593
g74
(dp594
g94
g95
ssg83
g588
sg76
(lp595
g409
asbag69
(g90
g71
NtRp596
(dp597
g74
(dp598
g101
g102
ssg83
g588
sg76
(lp599
S':'
asbag69
(g90
g71
NtRp600
(dp601
g74
(dp602
sg83
g588
sg76
(lp603
g69
(g70
g71
NtRp604
(dp605
g74
(dp606
g82
I3
ssg83
g600
sg76
(lp607
S''
asbasbasbag69
(g85
g71
NtRp608
(dp609
g74
(dp610
sg83
g464
sg76
(lp611
g69
(g90
g71
NtRp612
(dp613
g74
(dp614
g94
g95
ssg83
g608
sg76
(lp615
g430
asbag69
(g90
g71
NtRp616
(dp617
g74
(dp618
g101
g102
ssg83
g608
sg76
(lp619
S':'
asbag69
(g90
g71
NtRp620
(dp621
g74
(dp622
sg83
g608
sg76
(lp623
g69
(g70
g71
NtRp624
(dp625
g74
(dp626
g82
I3
ssg83
g620
sg76
(lp627
S''
asbasbasbasbasbasbasbag69
(g85
g71
NtRp628
(dp629
g74
(dp630
sg83
g246
sg76
(lp631
g69
(g90
g71
NtRp632
(dp633
g74
(dp634
g94
g95
ssg83
g628
sg76
(lp635
S'session_id_proj3'
p636
asbag69
(g90
g71
NtRp637
(dp638
g74
(dp639
g101
g102
ssg83
g628
sg76
(lp640
S':'
asbag69
(g90
g71
NtRp641
(dp642
g74
(dp643
sg83
g628
sg76
(lp644
g69
(g70
g71
NtRp645
(dp646
g74
(dp647
g82
I4
ssg83
g641
sg76
(lp648
g69
(g78
g71
NtRp649
(dp650
g74
(dp651
g82
I3
ssg83
Nsg76
(lp652
g69
(g85
g71
NtRp653
(dp654
g74
(dp655
sg83
g649
sg76
(lp656
g69
(g90
g71
NtRp657
(dp658
g74
(dp659
g94
g95
ssg83
g653
sg76
(lp660
g283
asbag69
(g90
g71
NtRp661
(dp662
g74
(dp663
g101
g102
ssg83
g653
sg76
(lp664
S':'
asbag69
(g90
g71
NtRp665
(dp666
g74
(dp667
sg83
g653
sg76
(lp668
g69
(g70
g71
NtRp669
(dp670
g74
(dp671
g82
I3
ssg83
g665
sg76
(lp672
S''
asbasbasbag69
(g85
g71
NtRp673
(dp674
g74
(dp675
sg83
g649
sg76
(lp676
g69
(g90
g71
NtRp677
(dp678
g74
(dp679
g94
g95
ssg83
g673
sg76
(lp680
g304
asbag69
(g90
g71
NtRp681
(dp682
g74
(dp683
g101
g102
ssg83
g673
sg76
(lp684
S':'
asbag69
(g90
g71
NtRp685
(dp686
g74
(dp687
sg83
g673
sg76
(lp688
g69
(g70
g71
NtRp689
(dp690
g74
(dp691
g82
I3
ssg83
g685
sg76
(lp692
S''
asbasbasbag69
(g85
g71
NtRp693
(dp694
g74
(dp695
sg83
g649
sg76
(lp696
g69
(g90
g71
NtRp697
(dp698
g74
(dp699
g94
g95
ssg83
g693
sg76
(lp700
g325
asbag69
(g90
g71
NtRp701
(dp702
g74
(dp703
g101
g102
ssg83
g693
sg76
(lp704
S':'
asbag69
(g90
g71
NtRp705
(dp706
g74
(dp707
sg83
g693
sg76
(lp708
g69
(g70
g71
NtRp709
(dp710
g74
(dp711
g82
I3
ssg83
g705
sg76
(lp712
S''
asbasbasbag69
(g85
g71
NtRp713
(dp714
g74
(dp715
sg83
g649
sg76
(lp716
g69
(g90
g71
NtRp717
(dp718
g74
(dp719
g94
g95
ssg83
g713
sg76
(lp720
g346
asbag69
(g90
g71
NtRp721
(dp722
g74
(dp723
g101
g102
ssg83
g713
sg76
(lp724
S':'
asbag69
(g90
g71
NtRp725
(dp726
g74
(dp727
sg83
g713
sg76
(lp728
g69
(g70
g71
NtRp729
(dp730
g74
(dp731
g82
I3
ssg83
g725
sg76
(lp732
S''
asbasbasbag69
(g85
g71
NtRp733
(dp734
g74
(dp735
sg83
g649
sg76
(lp736
g69
(g90
g71
NtRp737
(dp738
g74
(dp739
g94
g95
ssg83
g733
sg76
(lp740
g367
asbag69
(g90
g71
NtRp741
(dp742
g74
(dp743
g101
g102
ssg83
g733
sg76
(lp744
S':'
asbag69
(g90
g71
NtRp745
(dp746
g74
(dp747
sg83
g733
sg76
(lp748
g69
(g70
g71
NtRp749
(dp750
g74
(dp751
g82
I3
ssg83
g745
sg76
(lp752
S''
asbasbasbag69
(g85
g71
NtRp753
(dp754
g74
(dp755
sg83
g649
sg76
(lp756
g69
(g90
g71
NtRp757
(dp758
g74
(dp759
g94
g95
ssg83
g753
sg76
(lp760
g388
asbag69
(g90
g71
NtRp761
(dp762
g74
(dp763
g101
g102
ssg83
g753
sg76
(lp764
S':'
asbag69
(g90
g71
NtRp765
(dp766
g74
(dp767
sg83
g753
sg76
(lp768
g69
(g70
g71
NtRp769
(dp770
g74
(dp771
g82
I3
ssg83
g765
sg76
(lp772
S''
asbasbasbag69
(g85
g71
NtRp773
(dp774
g74
(dp775
sg83
g649
sg76
(lp776
g69
(g90
g71
NtRp777
(dp778
g74
(dp779
g94
g95
ssg83
g773
sg76
(lp780
g409
asbag69
(g90
g71
NtRp781
(dp782
g74
(dp783
g101
g102
ssg83
g773
sg76
(lp784
S':'
asbag69
(g90
g71
NtRp785
(dp786
g74
(dp787
sg83
g773
sg76
(lp788
g69
(g70
g71
NtRp789
(dp790
g74
(dp791
g82
I3
ssg83
g785
sg76
(lp792
S''
asbasbasbag69
(g85
g71
NtRp793
(dp794
g74
(dp795
sg83
g649
sg76
(lp796
g69
(g90
g71
NtRp797
(dp798
g74
(dp799
g94
g95
ssg83
g793
sg76
(lp800
g430
asbag69
(g90
g71
NtRp801
(dp802
g74
(dp803
g101
g102
ssg83
g793
sg76
(lp804
S':'
asbag69
(g90
g71
NtRp805
(dp806
g74
(dp807
sg83
g793
sg76
(lp808
g69
(g70
g71
NtRp809
(dp810
g74
(dp811
g82
I3
ssg83
g805
sg76
(lp812
S''
asbasbasbasbasbasbasbag69
(g85
g71
NtRp813
(dp814
g74
(dp815
sg83
g246
sg76
(lp816
g69
(g90
g71
NtRp817
(dp818
g74
(dp819
g94
g95
ssg83
g813
sg76
(lp820
S'session_id_rough'
p821
asbag69
(g90
g71
NtRp822
(dp823
g74
(dp824
g101
g102
ssg83
g813
sg76
(lp825
S':'
asbag69
(g90
g71
NtRp826
(dp827
g74
(dp828
sg83
g813
sg76
(lp829
g69
(g70
g71
NtRp830
(dp831
g74
(dp832
g82
I4
ssg83
g826
sg76
(lp833
g69
(g78
g71
NtRp834
(dp835
g74
(dp836
g82
I3
ssg83
Nsg76
(lp837
g69
(g85
g71
NtRp838
(dp839
g74
(dp840
sg83
g834
sg76
(lp841
g69
(g90
g71
NtRp842
(dp843
g74
(dp844
g94
g95
ssg83
g838
sg76
(lp845
g283
asbag69
(g90
g71
NtRp846
(dp847
g74
(dp848
g101
g102
ssg83
g838
sg76
(lp849
S':'
asbag69
(g90
g71
NtRp850
(dp851
g74
(dp852
sg83
g838
sg76
(lp853
g69
(g70
g71
NtRp854
(dp855
g74
(dp856
g82
I3
ssg83
g850
sg76
(lp857
S''
asbasbasbag69
(g85
g71
NtRp858
(dp859
g74
(dp860
sg83
g834
sg76
(lp861
g69
(g90
g71
NtRp862
(dp863
g74
(dp864
g94
g95
ssg83
g858
sg76
(lp865
g304
asbag69
(g90
g71
NtRp866
(dp867
g74
(dp868
g101
g102
ssg83
g858
sg76
(lp869
S':'
asbag69
(g90
g71
NtRp870
(dp871
g74
(dp872
sg83
g858
sg76
(lp873
g69
(g70
g71
NtRp874
(dp875
g74
(dp876
g82
I3
ssg83
g870
sg76
(lp877
S''
asbasbasbag69
(g85
g71
NtRp878
(dp879
g74
(dp880
sg83
g834
sg76
(lp881
g69
(g90
g71
NtRp882
(dp883
g74
(dp884
g94
g95
ssg83
g878
sg76
(lp885
g325
asbag69
(g90
g71
NtRp886
(dp887
g74
(dp888
g101
g102
ssg83
g878
sg76
(lp889
S':'
asbag69
(g90
g71
NtRp890
(dp891
g74
(dp892
sg83
g878
sg76
(lp893
g69
(g70
g71
NtRp894
(dp895
g74
(dp896
g82
I3
ssg83
g890
sg76
(lp897
S''
asbasbasbag69
(g85
g71
NtRp898
(dp899
g74
(dp900
sg83
g834
sg76
(lp901
g69
(g90
g71
NtRp902
(dp903
g74
(dp904
g94
g95
ssg83
g898
sg76
(lp905
g346
asbag69
(g90
g71
NtRp906
(dp907
g74
(dp908
g101
g102
ssg83
g898
sg76
(lp909
S':'
asbag69
(g90
g71
NtRp910
(dp911
g74
(dp912
sg83
g898
sg76
(lp913
g69
(g70
g71
NtRp914
(dp915
g74
(dp916
g82
I3
ssg83
g910
sg76
(lp917
S''
asbasbasbag69
(g85
g71
NtRp918
(dp919
g74
(dp920
sg83
g834
sg76
(lp921
g69
(g90
g71
NtRp922
(dp923
g74
(dp924
g94
g95
ssg83
g918
sg76
(lp925
g367
asbag69
(g90
g71
NtRp926
(dp927
g74
(dp928
g101
g102
ssg83
g918
sg76
(lp929
S':'
asbag69
(g90
g71
NtRp930
(dp931
g74
(dp932
sg83
g918
sg76
(lp933
g69
(g70
g71
NtRp934
(dp935
g74
(dp936
g82
I3
ssg83
g930
sg76
(lp937
S''
asbasbasbag69
(g85
g71
NtRp938
(dp939
g74
(dp940
sg83
g834
sg76
(lp941
g69
(g90
g71
NtRp942
(dp943
g74
(dp944
g94
g95
ssg83
g938
sg76
(lp945
g388
asbag69
(g90
g71
NtRp946
(dp947
g74
(dp948
g101
g102
ssg83
g938
sg76
(lp949
S':'
asbag69
(g90
g71
NtRp950
(dp951
g74
(dp952
sg83
g938
sg76
(lp953
g69
(g70
g71
NtRp954
(dp955
g74
(dp956
g82
I3
ssg83
g950
sg76
(lp957
S''
asbasbasbag69
(g85
g71
NtRp958
(dp959
g74
(dp960
sg83
g834
sg76
(lp961
g69
(g90
g71
NtRp962
(dp963
g74
(dp964
g94
g95
ssg83
g958
sg76
(lp965
g409
asbag69
(g90
g71
NtRp966
(dp967
g74
(dp968
g101
g102
ssg83
g958
sg76
(lp969
S':'
asbag69
(g90
g71
NtRp970
(dp971
g74
(dp972
sg83
g958
sg76
(lp973
g69
(g70
g71
NtRp974
(dp975
g74
(dp976
g82
I3
ssg83
g970
sg76
(lp977
S''
asbasbasbag69
(g85
g71
NtRp978
(dp979
g74
(dp980
sg83
g834
sg76
(lp981
g69
(g90
g71
NtRp982
(dp983
g74
(dp984
g94
g95
ssg83
g978
sg76
(lp985
g430
asbag69
(g90
g71
NtRp986
(dp987
g74
(dp988
g101
g102
ssg83
g978
sg76
(lp989
S':'
asbag69
(g90
g71
NtRp990
(dp991
g74
(dp992
sg83
g978
sg76
(lp993
g69
(g70
g71
NtRp994
(dp995
g74
(dp996
g82
I3
ssg83
g990
sg76
(lp997
S''
asbasbasbasbasbasbasbag69
(g85
g71
NtRp998
(dp999
g74
(dp1000
sg83
g246
sg76
(lp1001
g69
(g90
g71
NtRp1002
(dp1003
g74
(dp1004
g94
g95
ssg83
g998
sg76
(lp1005
S'session_id_ssad1'
p1006
asbag69
(g90
g71
NtRp1007
(dp1008
g74
(dp1009
g101
g102
ssg83
g998
sg76
(lp1010
S':'
asbag69
(g90
g71
NtRp1011
(dp1012
g74
(dp1013
sg83
g998
sg76
(lp1014
g69
(g70
g71
NtRp1015
(dp1016
g74
(dp1017
g82
I4
ssg83
g1011
sg76
(lp1018
g69
(g78
g71
NtRp1019
(dp1020
g74
(dp1021
g82
I3
ssg83
Nsg76
(lp1022
g69
(g85
g71
NtRp1023
(dp1024
g74
(dp1025
sg83
g1019
sg76
(lp1026
g69
(g90
g71
NtRp1027
(dp1028
g74
(dp1029
g94
g95
ssg83
g1023
sg76
(lp1030
g283
asbag69
(g90
g71
NtRp1031
(dp1032
g74
(dp1033
g101
g102
ssg83
g1023
sg76
(lp1034
S':'
asbag69
(g90
g71
NtRp1035
(dp1036
g74
(dp1037
sg83
g1023
sg76
(lp1038
g69
(g70
g71
NtRp1039
(dp1040
g74
(dp1041
g82
I3
ssg83
g1035
sg76
(lp1042
S''
asbasbasbag69
(g85
g71
NtRp1043
(dp1044
g74
(dp1045
sg83
g1019
sg76
(lp1046
g69
(g90
g71
NtRp1047
(dp1048
g74
(dp1049
g94
g95
ssg83
g1043
sg76
(lp1050
g304
asbag69
(g90
g71
NtRp1051
(dp1052
g74
(dp1053
g101
g102
ssg83
g1043
sg76
(lp1054
S':'
asbag69
(g90
g71
NtRp1055
(dp1056
g74
(dp1057
sg83
g1043
sg76
(lp1058
g69
(g70
g71
NtRp1059
(dp1060
g74
(dp1061
g82
I3
ssg83
g1055
sg76
(lp1062
S''
asbasbasbag69
(g85
g71
NtRp1063
(dp1064
g74
(dp1065
sg83
g1019
sg76
(lp1066
g69
(g90
g71
NtRp1067
(dp1068
g74
(dp1069
g94
g95
ssg83
g1063
sg76
(lp1070
g325
asbag69
(g90
g71
NtRp1071
(dp1072
g74
(dp1073
g101
g102
ssg83
g1063
sg76
(lp1074
S':'
asbag69
(g90
g71
NtRp1075
(dp1076
g74
(dp1077
sg83
g1063
sg76
(lp1078
g69
(g70
g71
NtRp1079
(dp1080
g74
(dp1081
g82
I3
ssg83
g1075
sg76
(lp1082
S''
asbasbasbag69
(g85
g71
NtRp1083
(dp1084
g74
(dp1085
sg83
g1019
sg76
(lp1086
g69
(g90
g71
NtRp1087
(dp1088
g74
(dp1089
g94
g95
ssg83
g1083
sg76
(lp1090
g346
asbag69
(g90
g71
NtRp1091
(dp1092
g74
(dp1093
g101
g102
ssg83
g1083
sg76
(lp1094
S':'
asbag69
(g90
g71
NtRp1095
(dp1096
g74
(dp1097
sg83
g1083
sg76
(lp1098
g69
(g70
g71
NtRp1099
(dp1100
g74
(dp1101
g82
I3
ssg83
g1095
sg76
(lp1102
S''
asbasbasbag69
(g85
g71
NtRp1103
(dp1104
g74
(dp1105
sg83
g1019
sg76
(lp1106
g69
(g90
g71
NtRp1107
(dp1108
g74
(dp1109
g94
g95
ssg83
g1103
sg76
(lp1110
g367
asbag69
(g90
g71
NtRp1111
(dp1112
g74
(dp1113
g101
g102
ssg83
g1103
sg76
(lp1114
S':'
asbag69
(g90
g71
NtRp1115
(dp1116
g74
(dp1117
sg83
g1103
sg76
(lp1118
g69
(g70
g71
NtRp1119
(dp1120
g74
(dp1121
g82
I3
ssg83
g1115
sg76
(lp1122
S''
asbasbasbag69
(g85
g71
NtRp1123
(dp1124
g74
(dp1125
sg83
g1019
sg76
(lp1126
g69
(g90
g71
NtRp1127
(dp1128
g74
(dp1129
g94
g95
ssg83
g1123
sg76
(lp1130
g388
asbag69
(g90
g71
NtRp1131
(dp1132
g74
(dp1133
g101
g102
ssg83
g1123
sg76
(lp1134
S':'
asbag69
(g90
g71
NtRp1135
(dp1136
g74
(dp1137
sg83
g1123
sg76
(lp1138
g69
(g70
g71
NtRp1139
(dp1140
g74
(dp1141
g82
I3
ssg83
g1135
sg76
(lp1142
S''
asbasbasbag69
(g85
g71
NtRp1143
(dp1144
g74
(dp1145
sg83
g1019
sg76
(lp1146
g69
(g90
g71
NtRp1147
(dp1148
g74
(dp1149
g94
g95
ssg83
g1143
sg76
(lp1150
g409
asbag69
(g90
g71
NtRp1151
(dp1152
g74
(dp1153
g101
g102
ssg83
g1143
sg76
(lp1154
S':'
asbag69
(g90
g71
NtRp1155
(dp1156
g74
(dp1157
sg83
g1143
sg76
(lp1158
g69
(g70
g71
NtRp1159
(dp1160
g74
(dp1161
g82
I3
ssg83
g1155
sg76
(lp1162
S''
asbasbasbag69
(g85
g71
NtRp1163
(dp1164
g74
(dp1165
sg83
g1019
sg76
(lp1166
g69
(g90
g71
NtRp1167
(dp1168
g74
(dp1169
g94
g95
ssg83
g1163
sg76
(lp1170
g430
asbag69
(g90
g71
NtRp1171
(dp1172
g74
(dp1173
g101
g102
ssg83
g1163
sg76
(lp1174
S':'
asbag69
(g90
g71
NtRp1175
(dp1176
g74
(dp1177
sg83
g1163
sg76
(lp1178
g69
(g70
g71
NtRp1179
(dp1180
g74
(dp1181
g82
I3
ssg83
g1175
sg76
(lp1182
S''
asbasbasbasbasbasbasbag69
(g85
g71
NtRp1183
(dp1184
g74
(dp1185
sg83
g246
sg76
(lp1186
g69
(g90
g71
NtRp1187
(dp1188
g74
(dp1189
g94
g95
ssg83
g1183
sg76
(lp1190
S'session_id_ssad2'
p1191
asbag69
(g90
g71
NtRp1192
(dp1193
g74
(dp1194
g101
g102
ssg83
g1183
sg76
(lp1195
S':'
asbag69
(g90
g71
NtRp1196
(dp1197
g74
(dp1198
sg83
g1183
sg76
(lp1199
g69
(g70
g71
NtRp1200
(dp1201
g74
(dp1202
g82
I4
ssg83
g1196
sg76
(lp1203
g69
(g78
g71
NtRp1204
(dp1205
g74
(dp1206
g82
I3
ssg83
Nsg76
(lp1207
g69
(g85
g71
NtRp1208
(dp1209
g74
(dp1210
sg83
g1204
sg76
(lp1211
g69
(g90
g71
NtRp1212
(dp1213
g74
(dp1214
g94
g95
ssg83
g1208
sg76
(lp1215
g283
asbag69
(g90
g71
NtRp1216
(dp1217
g74
(dp1218
g101
g102
ssg83
g1208
sg76
(lp1219
S':'
asbag69
(g90
g71
NtRp1220
(dp1221
g74
(dp1222
sg83
g1208
sg76
(lp1223
g69
(g70
g71
NtRp1224
(dp1225
g74
(dp1226
g82
I3
ssg83
g1220
sg76
(lp1227
S''
asbasbasbag69
(g85
g71
NtRp1228
(dp1229
g74
(dp1230
sg83
g1204
sg76
(lp1231
g69
(g90
g71
NtRp1232
(dp1233
g74
(dp1234
g94
g95
ssg83
g1228
sg76
(lp1235
g304
asbag69
(g90
g71
NtRp1236
(dp1237
g74
(dp1238
g101
g102
ssg83
g1228
sg76
(lp1239
S':'
asbag69
(g90
g71
NtRp1240
(dp1241
g74
(dp1242
sg83
g1228
sg76
(lp1243
g69
(g70
g71
NtRp1244
(dp1245
g74
(dp1246
g82
I3
ssg83
g1240
sg76
(lp1247
S''
asbasbasbag69
(g85
g71
NtRp1248
(dp1249
g74
(dp1250
sg83
g1204
sg76
(lp1251
g69
(g90
g71
NtRp1252
(dp1253
g74
(dp1254
g94
g95
ssg83
g1248
sg76
(lp1255
g325
asbag69
(g90
g71
NtRp1256
(dp1257
g74
(dp1258
g101
g102
ssg83
g1248
sg76
(lp1259
S':'
asbag69
(g90
g71
NtRp1260
(dp1261
g74
(dp1262
sg83
g1248
sg76
(lp1263
g69
(g70
g71
NtRp1264
(dp1265
g74
(dp1266
g82
I3
ssg83
g1260
sg76
(lp1267
S''
asbasbasbag69
(g85
g71
NtRp1268
(dp1269
g74
(dp1270
sg83
g1204
sg76
(lp1271
g69
(g90
g71
NtRp1272
(dp1273
g74
(dp1274
g94
g95
ssg83
g1268
sg76
(lp1275
g346
asbag69
(g90
g71
NtRp1276
(dp1277
g74
(dp1278
g101
g102
ssg83
g1268
sg76
(lp1279
S':'
asbag69
(g90
g71
NtRp1280
(dp1281
g74
(dp1282
sg83
g1268
sg76
(lp1283
g69
(g70
g71
NtRp1284
(dp1285
g74
(dp1286
g82
I3
ssg83
g1280
sg76
(lp1287
S''
asbasbasbag69
(g85
g71
NtRp1288
(dp1289
g74
(dp1290
sg83
g1204
sg76
(lp1291
g69
(g90
g71
NtRp1292
(dp1293
g74
(dp1294
g94
g95
ssg83
g1288
sg76
(lp1295
g367
asbag69
(g90
g71
NtRp1296
(dp1297
g74
(dp1298
g101
g102
ssg83
g1288
sg76
(lp1299
S':'
asbag69
(g90
g71
NtRp1300
(dp1301
g74
(dp1302
sg83
g1288
sg76
(lp1303
g69
(g70
g71
NtRp1304
(dp1305
g74
(dp1306
g82
I3
ssg83
g1300
sg76
(lp1307
S''
asbasbasbag69
(g85
g71
NtRp1308
(dp1309
g74
(dp1310
sg83
g1204
sg76
(lp1311
g69
(g90
g71
NtRp1312
(dp1313
g74
(dp1314
g94
g95
ssg83
g1308
sg76
(lp1315
g388
asbag69
(g90
g71
NtRp1316
(dp1317
g74
(dp1318
g101
g102
ssg83
g1308
sg76
(lp1319
S':'
asbag69
(g90
g71
NtRp1320
(dp1321
g74
(dp1322
sg83
g1308
sg76
(lp1323
g69
(g70
g71
NtRp1324
(dp1325
g74
(dp1326
g82
I3
ssg83
g1320
sg76
(lp1327
S''
asbasbasbag69
(g85
g71
NtRp1328
(dp1329
g74
(dp1330
sg83
g1204
sg76
(lp1331
g69
(g90
g71
NtRp1332
(dp1333
g74
(dp1334
g94
g95
ssg83
g1328
sg76
(lp1335
g409
asbag69
(g90
g71
NtRp1336
(dp1337
g74
(dp1338
g101
g102
ssg83
g1328
sg76
(lp1339
S':'
asbag69
(g90
g71
NtRp1340
(dp1341
g74
(dp1342
sg83
g1328
sg76
(lp1343
g69
(g70
g71
NtRp1344
(dp1345
g74
(dp1346
g82
I3
ssg83
g1340
sg76
(lp1347
S''
asbasbasbag69
(g85
g71
NtRp1348
(dp1349
g74
(dp1350
sg83
g1204
sg76
(lp1351
g69
(g90
g71
NtRp1352
(dp1353
g74
(dp1354
g94
g95
ssg83
g1348
sg76
(lp1355
g430
asbag69
(g90
g71
NtRp1356
(dp1357
g74
(dp1358
g101
g102
ssg83
g1348
sg76
(lp1359
S':'
asbag69
(g90
g71
NtRp1360
(dp1361
g74
(dp1362
sg83
g1348
sg76
(lp1363
g69
(g70
g71
NtRp1364
(dp1365
g74
(dp1366
g82
I3
ssg83
g1360
sg76
(lp1367
S''
asbasbasbasbasbasbasbag69
(g85
g71
NtRp1368
(dp1369
g74
(dp1370
sg83
g246
sg76
(lp1371
g69
(g90
g71
NtRp1372
(dp1373
g74
(dp1374
g94
g95
ssg83
g1368
sg76
(lp1375
S'session_id_welcome'
p1376
asbag69
(g90
g71
NtRp1377
(dp1378
g74
(dp1379
g101
g102
ssg83
g1368
sg76
(lp1380
S':'
asbag69
(g90
g71
NtRp1381
(dp1382
g74
(dp1383
sg83
g1368
sg76
(lp1384
g69
(g70
g71
NtRp1385
(dp1386
g74
(dp1387
g82
I4
ssg83
g1381
sg76
(lp1388
g69
(g78
g71
NtRp1389
(dp1390
g74
(dp1391
g82
I3
ssg83
Nsg76
(lp1392
g69
(g85
g71
NtRp1393
(dp1394
g74
(dp1395
sg83
g1389
sg76
(lp1396
g69
(g90
g71
NtRp1397
(dp1398
g74
(dp1399
g94
g95
ssg83
g1393
sg76
(lp1400
g283
asbag69
(g90
g71
NtRp1401
(dp1402
g74
(dp1403
g101
g102
ssg83
g1393
sg76
(lp1404
S':'
asbag69
(g90
g71
NtRp1405
(dp1406
g74
(dp1407
sg83
g1393
sg76
(lp1408
g69
(g70
g71
NtRp1409
(dp1410
g74
(dp1411
g82
I3
ssg83
g1405
sg76
(lp1412
S''
asbasbasbag69
(g85
g71
NtRp1413
(dp1414
g74
(dp1415
sg83
g1389
sg76
(lp1416
g69
(g90
g71
NtRp1417
(dp1418
g74
(dp1419
g94
g95
ssg83
g1413
sg76
(lp1420
g304
asbag69
(g90
g71
NtRp1421
(dp1422
g74
(dp1423
g101
g102
ssg83
g1413
sg76
(lp1424
S':'
asbag69
(g90
g71
NtRp1425
(dp1426
g74
(dp1427
sg83
g1413
sg76
(lp1428
g69
(g70
g71
NtRp1429
(dp1430
g74
(dp1431
g82
I3
ssg83
g1425
sg76
(lp1432
S''
asbasbasbag69
(g85
g71
NtRp1433
(dp1434
g74
(dp1435
sg83
g1389
sg76
(lp1436
g69
(g90
g71
NtRp1437
(dp1438
g74
(dp1439
g94
g95
ssg83
g1433
sg76
(lp1440
g325
asbag69
(g90
g71
NtRp1441
(dp1442
g74
(dp1443
g101
g102
ssg83
g1433
sg76
(lp1444
S':'
asbag69
(g90
g71
NtRp1445
(dp1446
g74
(dp1447
sg83
g1433
sg76
(lp1448
g69
(g70
g71
NtRp1449
(dp1450
g74
(dp1451
g82
I3
ssg83
g1445
sg76
(lp1452
S''
asbasbasbag69
(g85
g71
NtRp1453
(dp1454
g74
(dp1455
sg83
g1389
sg76
(lp1456
g69
(g90
g71
NtRp1457
(dp1458
g74
(dp1459
g94
g95
ssg83
g1453
sg76
(lp1460
g346
asbag69
(g90
g71
NtRp1461
(dp1462
g74
(dp1463
g101
g102
ssg83
g1453
sg76
(lp1464
S':'
asbag69
(g90
g71
NtRp1465
(dp1466
g74
(dp1467
sg83
g1453
sg76
(lp1468
g69
(g70
g71
NtRp1469
(dp1470
g74
(dp1471
g82
I3
ssg83
g1465
sg76
(lp1472
S''
asbasbasbag69
(g85
g71
NtRp1473
(dp1474
g74
(dp1475
sg83
g1389
sg76
(lp1476
g69
(g90
g71
NtRp1477
(dp1478
g74
(dp1479
g94
g95
ssg83
g1473
sg76
(lp1480
g367
asbag69
(g90
g71
NtRp1481
(dp1482
g74
(dp1483
g101
g102
ssg83
g1473
sg76
(lp1484
S':'
asbag69
(g90
g71
NtRp1485
(dp1486
g74
(dp1487
sg83
g1473
sg76
(lp1488
g69
(g70
g71
NtRp1489
(dp1490
g74
(dp1491
g82
I3
ssg83
g1485
sg76
(lp1492
S''
asbasbasbag69
(g85
g71
NtRp1493
(dp1494
g74
(dp1495
sg83
g1389
sg76
(lp1496
g69
(g90
g71
NtRp1497
(dp1498
g74
(dp1499
g94
g95
ssg83
g1493
sg76
(lp1500
g388
asbag69
(g90
g71
NtRp1501
(dp1502
g74
(dp1503
g101
g102
ssg83
g1493
sg76
(lp1504
S':'
asbag69
(g90
g71
NtRp1505
(dp1506
g74
(dp1507
sg83
g1493
sg76
(lp1508
g69
(g70
g71
NtRp1509
(dp1510
g74
(dp1511
g82
I3
ssg83
g1505
sg76
(lp1512
S''
asbasbasbag69
(g85
g71
NtRp1513
(dp1514
g74
(dp1515
sg83
g1389
sg76
(lp1516
g69
(g90
g71
NtRp1517
(dp1518
g74
(dp1519
g94
g95
ssg83
g1513
sg76
(lp1520
g409
asbag69
(g90
g71
NtRp1521
(dp1522
g74
(dp1523
g101
g102
ssg83
g1513
sg76
(lp1524
S':'
asbag69
(g90
g71
NtRp1525
(dp1526
g74
(dp1527
sg83
g1513
sg76
(lp1528
g69
(g70
g71
NtRp1529
(dp1530
g74
(dp1531
g82
I3
ssg83
g1525
sg76
(lp1532
S''
asbasbasbag69
(g85
g71
NtRp1533
(dp1534
g74
(dp1535
sg83
g1389
sg76
(lp1536
g69
(g90
g71
NtRp1537
(dp1538
g74
(dp1539
g94
g95
ssg83
g1533
sg76
(lp1540
g430
asbag69
(g90
g71
NtRp1541
(dp1542
g74
(dp1543
g101
g102
ssg83
g1533
sg76
(lp1544
S':'
asbag69
(g90
g71
NtRp1545
(dp1546
g74
(dp1547
sg83
g1533
sg76
(lp1548
g69
(g70
g71
NtRp1549
(dp1550
g74
(dp1551
g82
I3
ssg83
g1545
sg76
(lp1552
S''
asbasbasbasbasbasbasbasbasbasbasbag69
(g85
g71
NtRp1553
(dp1554
g74
(dp1555
sg83
g79
sg76
(lp1556
g69
(g90
g71
NtRp1557
(dp1558
g74
(dp1559
g94
g95
ssg83
g1553
sg76
(lp1560
S'env'
p1561
asbag69
(g90
g71
NtRp1562
(dp1563
g74
(dp1564
g101
g102
ssg83
g1553
sg76
(lp1565
S':'
asbag69
(g90
g71
NtRp1566
(dp1567
g74
(dp1568
sg83
g1553
sg76
(lp1569
g69
(g70
g71
NtRp1570
(dp1571
g74
(dp1572
g82
I5
ssg83
g1566
sg76
(lp1573
g69
(g78
g71
NtRp1574
(dp1575
g74
(dp1576
g82
I4
ssg83
Nsg76
(lp1577
g69
(g85
g71
NtRp1578
(dp1579
g74
(dp1580
sg83
g1574
sg76
(lp1581
g69
(g90
g71
NtRp1582
(dp1583
g74
(dp1584
g94
g95
ssg83
g1578
sg76
(lp1585
S'app_folders'
p1586
asbag69
(g90
g71
NtRp1587
(dp1588
g74
(dp1589
g101
g102
ssg83
g1578
sg76
(lp1590
S':'
asbag69
(g90
g71
NtRp1591
(dp1592
g74
(dp1593
sg83
g1578
sg76
(lp1594
g69
(g70
g71
NtRp1595
(dp1596
g74
(dp1597
g82
I4
ssg83
g1591
sg76
(lp1598
S"set(['/home/chitra/courses/SSAD/web2py/applications/ssad1/', '/home/chitra/courses/SSAD/web2py/applications/admin/', '/home/chitra/courses/SSAD/web2py/applications/rough/', '/home/chitra/courses/SSAD/web2py/applications/welcome/', '/home/chitra/courses/SSAD/web2py/applications/proj2/', '/home/chitra/courses/SSAD/web2py/applications/ssad2/'])"
p1599
asbasbasbag69
(g85
g71
NtRp1600
(dp1601
g74
(dp1602
sg83
g1574
sg76
(lp1603
g69
(g90
g71
NtRp1604
(dp1605
g74
(dp1606
g94
g95
ssg83
g1600
sg76
(lp1607
S'applications_parent'
p1608
asbag69
(g90
g71
NtRp1609
(dp1610
g74
(dp1611
g101
g102
ssg83
g1600
sg76
(lp1612
S':'
asbag69
(g90
g71
NtRp1613
(dp1614
g74
(dp1615
sg83
g1600
sg76
(lp1616
g69
(g70
g71
NtRp1617
(dp1618
g74
(dp1619
g82
I4
ssg83
g1613
sg76
(lp1620
S'/home/chitra/courses/SSAD/web2py'
p1621
asbasbasbag69
(g85
g71
NtRp1622
(dp1623
g74
(dp1624
sg83
g1574
sg76
(lp1625
g69
(g90
g71
NtRp1626
(dp1627
g74
(dp1628
g94
g95
ssg83
g1622
sg76
(lp1629
S'cmd_args'
p1630
asbag69
(g90
g71
NtRp1631
(dp1632
g74
(dp1633
g101
g102
ssg83
g1622
sg76
(lp1634
S':'
asbag69
(g90
g71
NtRp1635
(dp1636
g74
(dp1637
sg83
g1622
sg76
(lp1638
g69
(g70
g71
NtRp1639
(dp1640
g74
(dp1641
g82
I4
ssg83
g1635
sg76
(lp1642
g69
(g78
g71
NtRp1643
(dp1644
g74
(dp1645
g82
I3
ssg83
Nsg76
(lp1646
sbasbasbasbag69
(g85
g71
NtRp1647
(dp1648
g74
(dp1649
sg83
g1574
sg76
(lp1650
g69
(g90
g71
NtRp1651
(dp1652
g74
(dp1653
g94
g95
ssg83
g1647
sg76
(lp1654
S'cmd_options'
p1655
asbag69
(g90
g71
NtRp1656
(dp1657
g74
(dp1658
g101
g102
ssg83
g1647
sg76
(lp1659
S':'
asbag69
(g90
g71
NtRp1660
(dp1661
g74
(dp1662
sg83
g1647
sg76
(lp1663
g69
(g70
g71
NtRp1664
(dp1665
g74
(dp1666
g82
I4
ssg83
g1660
sg76
(lp1667
S"<Values at 0x237ebd8: {'verbose': False, 'ip': '127.0.0.1', 'shutdown_timeout': 5, 'taskbar': False, 'nocron': False, 'pid_filename': 'httpserver.pid', 'maxthreads': None, 'softcron': False, 'server_name': 'chitra-HP-Pavilion-dv6-Notebook-PC', 'bpython': False, 'nogui': False, 'port': 8000, 'extcron': False, 'debuglevel': 30, 'test': None, 'folder': '/home/chitra/courses/SSAD/web2py', 'config': '', 'import_models': False, 'winservice': '', 'shell': None, 'run': '', 'log_filename': 'httpserver.log', 'args': [''], 'socket_timeout': 5, 'ssl_ca_certificate': None, 'scheduler': None, 'profiler_filename': None, 'ssl_private_key': '', 'password': '<ask>', 'request_queue_size': 5, 'ssl_certificate': '', 'cronjob': False, 'numthreads': None, 'quiet': False, 'interfaces': None, 'minthreads': None, 'timeout': 10, 'plain': False, 'nobanner': False}>"
p1668
asbasbasbag69
(g85
g71
NtRp1669
(dp1670
g74
(dp1671
sg83
g1574
sg76
(lp1672
g69
(g90
g71
NtRp1673
(dp1674
g74
(dp1675
g94
g95
ssg83
g1669
sg76
(lp1676
S'db_sessions'
p1677
asbag69
(g90
g71
NtRp1678
(dp1679
g74
(dp1680
g101
g102
ssg83
g1669
sg76
(lp1681
S':'
asbag69
(g90
g71
NtRp1682
(dp1683
g74
(dp1684
sg83
g1669
sg76
(lp1685
g69
(g70
g71
NtRp1686
(dp1687
g74
(dp1688
g82
I4
ssg83
g1682
sg76
(lp1689
S'set([])'
p1690
asbasbasbag69
(g85
g71
NtRp1691
(dp1692
g74
(dp1693
sg83
g1574
sg76
(lp1694
g69
(g90
g71
NtRp1695
(dp1696
g74
(dp1697
g94
g95
ssg83
g1691
sg76
(lp1698
S'debugging'
p1699
asbag69
(g90
g71
NtRp1700
(dp1701
g74
(dp1702
g101
g102
ssg83
g1691
sg76
(lp1703
S':'
asbag69
(g90
g71
NtRp1704
(dp1705
g74
(dp1706
sg83
g1691
sg76
(lp1707
g69
(g70
g71
NtRp1708
(dp1709
g74
(dp1710
g82
I4
ssg83
g1704
sg76
(lp1711
g112
asbasbasbag69
(g85
g71
NtRp1712
(dp1713
g74
(dp1714
sg83
g1574
sg76
(lp1715
g69
(g90
g71
NtRp1716
(dp1717
g74
(dp1718
g94
g95
ssg83
g1712
sg76
(lp1719
S'gluon_parent'
p1720
asbag69
(g90
g71
NtRp1721
(dp1722
g74
(dp1723
g101
g102
ssg83
g1712
sg76
(lp1724
S':'
asbag69
(g90
g71
NtRp1725
(dp1726
g74
(dp1727
sg83
g1712
sg76
(lp1728
g69
(g70
g71
NtRp1729
(dp1730
g74
(dp1731
g82
I4
ssg83
g1725
sg76
(lp1732
S'/home/chitra/courses/SSAD/web2py'
p1733
asbasbasbag69
(g85
g71
NtRp1734
(dp1735
g74
(dp1736
sg83
g1574
sg76
(lp1737
g69
(g90
g71
NtRp1738
(dp1739
g74
(dp1740
g94
g95
ssg83
g1734
sg76
(lp1741
S'http_accept'
p1742
asbag69
(g90
g71
NtRp1743
(dp1744
g74
(dp1745
g101
g102
ssg83
g1734
sg76
(lp1746
S':'
asbag69
(g90
g71
NtRp1747
(dp1748
g74
(dp1749
sg83
g1734
sg76
(lp1750
g69
(g70
g71
NtRp1751
(dp1752
g74
(dp1753
g82
I4
ssg83
g1747
sg76
(lp1754
S'text/html,application/xhtml+xml,application/xml;q=0.9,*/*;q=0.8'
p1755
asbasbasbag69
(g85
g71
NtRp1756
(dp1757
g74
(dp1758
sg83
g1574
sg76
(lp1759
g69
(g90
g71
NtRp1760
(dp1761
g74
(dp1762
g94
g95
ssg83
g1756
sg76
(lp1763
S'http_accept_encoding'
p1764
asbag69
(g90
g71
NtRp1765
(dp1766
g74
(dp1767
g101
g102
ssg83
g1756
sg76
(lp1768
S':'
asbag69
(g90
g71
NtRp1769
(dp1770
g74
(dp1771
sg83
g1756
sg76
(lp1772
g69
(g70
g71
NtRp1773
(dp1774
g74
(dp1775
g82
I4
ssg83
g1769
sg76
(lp1776
S'gzip, deflate'
p1777
asbasbasbag69
(g85
g71
NtRp1778
(dp1779
g74
(dp1780
sg83
g1574
sg76
(lp1781
g69
(g90
g71
NtRp1782
(dp1783
g74
(dp1784
g94
g95
ssg83
g1778
sg76
(lp1785
S'http_accept_language'
p1786
asbag69
(g90
g71
NtRp1787
(dp1788
g74
(dp1789
g101
g102
ssg83
g1778
sg76
(lp1790
S':'
asbag69
(g90
g71
NtRp1791
(dp1792
g74
(dp1793
sg83
g1778
sg76
(lp1794
g69
(g70
g71
NtRp1795
(dp1796
g74
(dp1797
g82
I4
ssg83
g1791
sg76
(lp1798
S'en-us,en;q=0.5'
p1799
asbasbasbag69
(g85
g71
NtRp1800
(dp1801
g74
(dp1802
sg83
g1574
sg76
(lp1803
g69
(g90
g71
NtRp1804
(dp1805
g74
(dp1806
g94
g95
ssg83
g1800
sg76
(lp1807
S'http_connection'
p1808
asbag69
(g90
g71
NtRp1809
(dp1810
g74
(dp1811
g101
g102
ssg83
g1800
sg76
(lp1812
S':'
asbag69
(g90
g71
NtRp1813
(dp1814
g74
(dp1815
sg83
g1800
sg76
(lp1816
g69
(g70
g71
NtRp1817
(dp1818
g74
(dp1819
g82
I4
ssg83
g1813
sg76
(lp1820
S'keep-alive'
p1821
asbasbasbag69
(g85
g71
NtRp1822
(dp1823
g74
(dp1824
sg83
g1574
sg76
(lp1825
g69
(g90
g71
NtRp1826
(dp1827
g74
(dp1828
g94
g95
ssg83
g1822
sg76
(lp1829
S'http_cookie'
p1830
asbag69
(g90
g71
NtRp1831
(dp1832
g74
(dp1833
g101
g102
ssg83
g1822
sg76
(lp1834
S':'
asbag69
(g90
g71
NtRp1835
(dp1836
g74
(dp1837
sg83
g1822
sg76
(lp1838
g69
(g70
g71
NtRp1839
(dp1840
g74
(dp1841
g82
I4
ssg83
g1835
sg76
(lp1842
S'session_id_proj3=127.0.0.1-7b6e923e-436a-487a-a58a-be74ac4b7da4; session_id_welcome=127.0.0.1-1445a4a6-6391-4d7f-a67f-eb1d9595f6e1; session_id_rough=127.0.0.1-d0bf3c7b-3e10-4137-8a7c-69d73b810be8; session_id_admin=127.0.0.1-636b77ab-b8a0-4d68-9093-c59f18837a62; session_id_proj2=127.0.0.1-9b4dfb46-0dbe-4eb5-aaff-c75ccd17281d; session_id_ssad1=127.0.0.1-0170374a-8ccd-4f67-aeb3-848820127ed2; session_id_ssad2=127.0.0.1-11b94260-bd18-44ca-b985-33abd8c086ea'
p1843
asbasbasbag69
(g85
g71
NtRp1844
(dp1845
g74
(dp1846
sg83
g1574
sg76
(lp1847
g69
(g90
g71
NtRp1848
(dp1849
g74
(dp1850
g94
g95
ssg83
g1844
sg76
(lp1851
S'http_host'
p1852
asbag69
(g90
g71
NtRp1853
(dp1854
g74
(dp1855
g101
g102
ssg83
g1844
sg76
(lp1856
S':'
asbag69
(g90
g71
NtRp1857
(dp1858
g74
(dp1859
sg83
g1844
sg76
(lp1860
g69
(g70
g71
NtRp1861
(dp1862
g74
(dp1863
g82
I4
ssg83
g1857
sg76
(lp1864
S'127.0.0.1:8000'
p1865
asbasbasbag69
(g85
g71
NtRp1866
(dp1867
g74
(dp1868
sg83
g1574
sg76
(lp1869
g69
(g90
g71
NtRp1870
(dp1871
g74
(dp1872
g94
g95
ssg83
g1866
sg76
(lp1873
S'http_referer'
p1874
asbag69
(g90
g71
NtRp1875
(dp1876
g74
(dp1877
g101
g102
ssg83
g1866
sg76
(lp1878
S':'
asbag69
(g90
g71
NtRp1879
(dp1880
g74
(dp1881
sg83
g1866
sg76
(lp1882
g69
(g70
g71
NtRp1883
(dp1884
g74
(dp1885
g82
I4
ssg83
g1879
sg76
(lp1886
S'http://127.0.0.1:8000/ssad2/default/index'
p1887
asbasbasbag69
(g85
g71
NtRp1888
(dp1889
g74
(dp1890
sg83
g1574
sg76
(lp1891
g69
(g90
g71
NtRp1892
(dp1893
g74
(dp1894
g94
g95
ssg83
g1888
sg76
(lp1895
S'http_user_agent'
p1896
asbag69
(g90
g71
NtRp1897
(dp1898
g74
(dp1899
g101
g102
ssg83
g1888
sg76
(lp1900
S':'
asbag69
(g90
g71
NtRp1901
(dp1902
g74
(dp1903
sg83
g1888
sg76
(lp1904
g69
(g70
g71
NtRp1905
(dp1906
g74
(dp1907
g82
I4
ssg83
g1901
sg76
(lp1908
S'Mozilla/5.0 (X11; Ubuntu; Linux x86_64; rv:13.0) Gecko/20100101 Firefox/13.0.1'
p1909
asbasbasbag69
(g85
g71
NtRp1910
(dp1911
g74
(dp1912
sg83
g1574
sg76
(lp1913
g69
(g90
g71
NtRp1914
(dp1915
g74
(dp1916
g94
g95
ssg83
g1910
sg76
(lp1917
S'is_jython'
p1918
asbag69
(g90
g71
NtRp1919
(dp1920
g74
(dp1921
g101
g102
ssg83
g1910
sg76
(lp1922
S':'
asbag69
(g90
g71
NtRp1923
(dp1924
g74
(dp1925
sg83
g1910
sg76
(lp1926
g69
(g70
g71
NtRp1927
(dp1928
g74
(dp1929
g82
I4
ssg83
g1923
sg76
(lp1930
g112
asbasbasbag69
(g85
g71
NtRp1931
(dp1932
g74
(dp1933
sg83
g1574
sg76
(lp1934
g69
(g90
g71
NtRp1935
(dp1936
g74
(dp1937
g94
g95
ssg83
g1931
sg76
(lp1938
S'is_pypy'
p1939
asbag69
(g90
g71
NtRp1940
(dp1941
g74
(dp1942
g101
g102
ssg83
g1931
sg76
(lp1943
S':'
asbag69
(g90
g71
NtRp1944
(dp1945
g74
(dp1946
sg83
g1931
sg76
(lp1947
g69
(g70
g71
NtRp1948
(dp1949
g74
(dp1950
g82
I4
ssg83
g1944
sg76
(lp1951
g112
asbasbasbag69
(g85
g71
NtRp1952
(dp1953
g74
(dp1954
sg83
g1574
sg76
(lp1955
g69
(g90
g71
NtRp1956
(dp1957
g74
(dp1958
g94
g95
ssg83
g1952
sg76
(lp1959
S'path_info'
p1960
asbag69
(g90
g71
NtRp1961
(dp1962
g74
(dp1963
g101
g102
ssg83
g1952
sg76
(lp1964
S':'
asbag69
(g90
g71
NtRp1965
(dp1966
g74
(dp1967
sg83
g1952
sg76
(lp1968
g69
(g70
g71
NtRp1969
(dp1970
g74
(dp1971
g82
I4
ssg83
g1965
sg76
(lp1972
S'/ssad2/default/final_ans'
p1973
asbasbasbag69
(g85
g71
NtRp1974
(dp1975
g74
(dp1976
sg83
g1574
sg76
(lp1977
g69
(g90
g71
NtRp1978
(dp1979
g74
(dp1980
g94
g95
ssg83
g1974
sg76
(lp1981
S'query_string'
p1982
asbag69
(g90
g71
NtRp1983
(dp1984
g74
(dp1985
g101
g102
ssg83
g1974
sg76
(lp1986
S':'
asbag69
(g90
g71
NtRp1987
(dp1988
g74
(dp1989
sg83
g1974
sg76
(lp1990
g69
(g70
g71
NtRp1991
(dp1992
g74
(dp1993
g82
I4
ssg83
g1987
sg76
(lp1994
S''
asbasbasbag69
(g85
g71
NtRp1995
(dp1996
g74
(dp1997
sg83
g1574
sg76
(lp1998
g69
(g90
g71
NtRp1999
(dp2000
g74
(dp2001
g94
g95
ssg83
g1995
sg76
(lp2002
S'remote_addr'
p2003
asbag69
(g90
g71
NtRp2004
(dp2005
g74
(dp2006
g101
g102
ssg83
g1995
sg76
(lp2007
S':'
asbag69
(g90
g71
NtRp2008
(dp2009
g74
(dp2010
sg83
g1995
sg76
(lp2011
g69
(g70
g71
NtRp2012
(dp2013
g74
(dp2014
g82
I4
ssg83
g2008
sg76
(lp2015
g202
asbasbasbag69
(g85
g71
NtRp2016
(dp2017
g74
(dp2018
sg83
g1574
sg76
(lp2019
g69
(g90
g71
NtRp2020
(dp2021
g74
(dp2022
g94
g95
ssg83
g2016
sg76
(lp2023
S'remote_port'
p2024
asbag69
(g90
g71
NtRp2025
(dp2026
g74
(dp2027
g101
g102
ssg83
g2016
sg76
(lp2028
S':'
asbag69
(g90
g71
NtRp2029
(dp2030
g74
(dp2031
sg83
g2016
sg76
(lp2032
g69
(g70
g71
NtRp2033
(dp2034
g74
(dp2035
g82
I4
ssg83
g2029
sg76
(lp2036
S'51617'
p2037
asbasbasbag69
(g85
g71
NtRp2038
(dp2039
g74
(dp2040
sg83
g1574
sg76
(lp2041
g69
(g90
g71
NtRp2042
(dp2043
g74
(dp2044
g94
g95
ssg83
g2038
sg76
(lp2045
S'request_method'
p2046
asbag69
(g90
g71
NtRp2047
(dp2048
g74
(dp2049
g101
g102
ssg83
g2038
sg76
(lp2050
S':'
asbag69
(g90
g71
NtRp2051
(dp2052
g74
(dp2053
sg83
g2038
sg76
(lp2054
g69
(g70
g71
NtRp2055
(dp2056
g74
(dp2057
g82
I4
ssg83
g2051
sg76
(lp2058
S'GET'
p2059
asbasbasbag69
(g85
g71
NtRp2060
(dp2061
g74
(dp2062
sg83
g1574
sg76
(lp2063
g69
(g90
g71
NtRp2064
(dp2065
g74
(dp2066
g94
g95
ssg83
g2060
sg76
(lp2067
S'script_name'
p2068
asbag69
(g90
g71
NtRp2069
(dp2070
g74
(dp2071
g101
g102
ssg83
g2060
sg76
(lp2072
S':'
asbag69
(g90
g71
NtRp2073
(dp2074
g74
(dp2075
sg83
g2060
sg76
(lp2076
g69
(g70
g71
NtRp2077
(dp2078
g74
(dp2079
g82
I4
ssg83
g2073
sg76
(lp2080
S''
asbasbasbag69
(g85
g71
NtRp2081
(dp2082
g74
(dp2083
sg83
g1574
sg76
(lp2084
g69
(g90
g71
NtRp2085
(dp2086
g74
(dp2087
g94
g95
ssg83
g2081
sg76
(lp2088
S'server_name'
p2089
asbag69
(g90
g71
NtRp2090
(dp2091
g74
(dp2092
g101
g102
ssg83
g2081
sg76
(lp2093
S':'
asbag69
(g90
g71
NtRp2094
(dp2095
g74
(dp2096
sg83
g2081
sg76
(lp2097
g69
(g70
g71
NtRp2098
(dp2099
g74
(dp2100
g82
I4
ssg83
g2094
sg76
(lp2101
S'chitra-HP-Pavilion-dv6-Notebook-PC'
p2102
asbasbasbag69
(g85
g71
NtRp2103
(dp2104
g74
(dp2105
sg83
g1574
sg76
(lp2106
g69
(g90
g71
NtRp2107
(dp2108
g74
(dp2109
g94
g95
ssg83
g2103
sg76
(lp2110
S'server_port'
p2111
asbag69
(g90
g71
NtRp2112
(dp2113
g74
(dp2114
g101
g102
ssg83
g2103
sg76
(lp2115
S':'
asbag69
(g90
g71
NtRp2116
(dp2117
g74
(dp2118
sg83
g2103
sg76
(lp2119
g69
(g70
g71
NtRp2120
(dp2121
g74
(dp2122
g82
I4
ssg83
g2116
sg76
(lp2123
S'8000'
p2124
asbasbasbag69
(g85
g71
NtRp2125
(dp2126
g74
(dp2127
sg83
g1574
sg76
(lp2128
g69
(g90
g71
NtRp2129
(dp2130
g74
(dp2131
g94
g95
ssg83
g2125
sg76
(lp2132
S'server_protocol'
p2133
asbag69
(g90
g71
NtRp2134
(dp2135
g74
(dp2136
g101
g102
ssg83
g2125
sg76
(lp2137
S':'
asbag69
(g90
g71
NtRp2138
(dp2139
g74
(dp2140
sg83
g2125
sg76
(lp2141
g69
(g70
g71
NtRp2142
(dp2143
g74
(dp2144
g82
I4
ssg83
g2138
sg76
(lp2145
S'HTTP/1.1'
p2146
asbasbasbag69
(g85
g71
NtRp2147
(dp2148
g74
(dp2149
sg83
g1574
sg76
(lp2150
g69
(g90
g71
NtRp2151
(dp2152
g74
(dp2153
g94
g95
ssg83
g2147
sg76
(lp2154
S'server_software'
p2155
asbag69
(g90
g71
NtRp2156
(dp2157
g74
(dp2158
g101
g102
ssg83
g2147
sg76
(lp2159
S':'
asbag69
(g90
g71
NtRp2160
(dp2161
g74
(dp2162
sg83
g2147
sg76
(lp2163
g69
(g70
g71
NtRp2164
(dp2165
g74
(dp2166
g82
I4
ssg83
g2160
sg76
(lp2167
S'Rocket 1.2.4'
p2168
asbasbasbag69
(g85
g71
NtRp2169
(dp2170
g74
(dp2171
sg83
g1574
sg76
(lp2172
g69
(g90
g71
NtRp2173
(dp2174
g74
(dp2175
g94
g95
ssg83
g2169
sg76
(lp2176
S'web2py_crontype'
p2177
asbag69
(g90
g71
NtRp2178
(dp2179
g74
(dp2180
g101
g102
ssg83
g2169
sg76
(lp2181
S':'
asbag69
(g90
g71
NtRp2182
(dp2183
g74
(dp2184
sg83
g2169
sg76
(lp2185
g69
(g70
g71
NtRp2186
(dp2187
g74
(dp2188
g82
I4
ssg83
g2182
sg76
(lp2189
S'hard'
p2190
asbasbasbag69
(g85
g71
NtRp2191
(dp2192
g74
(dp2193
sg83
g1574
sg76
(lp2194
g69
(g90
g71
NtRp2195
(dp2196
g74
(dp2197
g94
g95
ssg83
g2191
sg76
(lp2198
S'web2py_path'
p2199
asbag69
(g90
g71
NtRp2200
(dp2201
g74
(dp2202
g101
g102
ssg83
g2191
sg76
(lp2203
S':'
asbag69
(g90
g71
NtRp2204
(dp2205
g74
(dp2206
sg83
g2191
sg76
(lp2207
g69
(g70
g71
NtRp2208
(dp2209
g74
(dp2210
g82
I4
ssg83
g2204
sg76
(lp2211
g1621
asbasbasbag69
(g85
g71
NtRp2212
(dp2213
g74
(dp2214
sg83
g1574
sg76
(lp2215
g69
(g90
g71
NtRp2216
(dp2217
g74
(dp2218
g94
g95
ssg83
g2212
sg76
(lp2219
S'web2py_version'
p2220
asbag69
(g90
g71
NtRp2221
(dp2222
g74
(dp2223
g101
g102
ssg83
g2212
sg76
(lp2224
S':'
asbag69
(g90
g71
NtRp2225
(dp2226
g74
(dp2227
sg83
g2212
sg76
(lp2228
g69
(g70
g71
NtRp2229
(dp2230
g74
(dp2231
g82
I4
ssg83
g2225
sg76
(lp2232
g69
(g78
g71
NtRp2233
(dp2234
g74
(dp2235
g82
I3
ssg83
Nsg76
(lp2236
g69
(g85
g71
NtRp2237
(dp2238
g74
(dp2239
sg83
g2233
sg76
(lp2240
g69
(g90
g71
NtRp2241
(dp2242
g74
(dp2243
sg83
g2237
sg76
(lp2244
g69
(g70
g71
NtRp2245
(dp2246
g74
(dp2247
g82
I3
ssg83
g2241
sg76
(lp2248
S'1'
asbasbasbag69
(g85
g71
NtRp2249
(dp2250
g74
(dp2251
sg83
g2233
sg76
(lp2252
g69
(g90
g71
NtRp2253
(dp2254
g74
(dp2255
sg83
g2249
sg76
(lp2256
g69
(g70
g71
NtRp2257
(dp2258
g74
(dp2259
g82
I3
ssg83
g2253
sg76
(lp2260
S'99'
p2261
asbasbasbag69
(g85
g71
NtRp2262
(dp2263
g74
(dp2264
sg83
g2233
sg76
(lp2265
g69
(g90
g71
NtRp2266
(dp2267
g74
(dp2268
sg83
g2262
sg76
(lp2269
g69
(g70
g71
NtRp2270
(dp2271
g74
(dp2272
g82
I3
ssg83
g2266
sg76
(lp2273
S'7'
asbasbasbag69
(g85
g71
NtRp2274
(dp2275
g74
(dp2276
sg83
g2233
sg76
(lp2277
g69
(g90
g71
NtRp2278
(dp2279
g74
(dp2280
sg83
g2274
sg76
(lp2281
g69
(g70
g71
NtRp2282
(dp2283
g74
(dp2284
g82
I3
ssg83
g2278
sg76
(lp2285
S'datetime.datetime(2012, 3, 4, 22, 12, 8)'
p2286
asbasbasbag69
(g85
g71
NtRp2287
(dp2288
g74
(dp2289
sg83
g2233
sg76
(lp2290
g69
(g90
g71
NtRp2291
(dp2292
g74
(dp2293
sg83
g2287
sg76
(lp2294
g69
(g70
g71
NtRp2295
(dp2296
g74
(dp2297
g82
I3
ssg83
g2291
sg76
(lp2298
S'stable'
p2299
asbasbasbasbasbasbasbag69
(g85
g71
NtRp2300
(dp2301
g74
(dp2302
sg83
g1574
sg76
(lp2303
g69
(g90
g71
NtRp2304
(dp2305
g74
(dp2306
g94
g95
ssg83
g2300
sg76
(lp2307
S'wsgi_errors'
p2308
asbag69
(g90
g71
NtRp2309
(dp2310
g74
(dp2311
g101
g102
ssg83
g2300
sg76
(lp2312
S':'
asbag69
(g90
g71
NtRp2313
(dp2314
g74
(dp2315
sg83
g2300
sg76
(lp2316
g69
(g70
g71
NtRp2317
(dp2318
g74
(dp2319
g82
I4
ssg83
g2313
sg76
(lp2320
S"<open file '<stderr>', mode 'w' at 0x7fb55ffab270>"
p2321
asbasbasbag69
(g85
g71
NtRp2322
(dp2323
g74
(dp2324
sg83
g1574
sg76
(lp2325
g69
(g90
g71
NtRp2326
(dp2327
g74
(dp2328
g94
g95
ssg83
g2322
sg76
(lp2329
S'wsgi_file_wrapper'
p2330
asbag69
(g90
g71
NtRp2331
(dp2332
g74
(dp2333
g101
g102
ssg83
g2322
sg76
(lp2334
S':'
asbag69
(g90
g71
NtRp2335
(dp2336
g74
(dp2337
sg83
g2322
sg76
(lp2338
g69
(g70
g71
NtRp2339
(dp2340
g74
(dp2341
g82
I4
ssg83
g2335
sg76
(lp2342
S'<class wsgiref.util.FileWrapper at 0x226e120>'
p2343
asbasbasbag69
(g85
g71
NtRp2344
(dp2345
g74
(dp2346
sg83
g1574
sg76
(lp2347
g69
(g90
g71
NtRp2348
(dp2349
g74
(dp2350
g94
g95
ssg83
g2344
sg76
(lp2351
S'wsgi_input'
p2352
asbag69
(g90
g71
NtRp2353
(dp2354
g74
(dp2355
g101
g102
ssg83
g2344
sg76
(lp2356
S':'
asbag69
(g90
g71
NtRp2357
(dp2358
g74
(dp2359
sg83
g2344
sg76
(lp2360
g69
(g70
g71
NtRp2361
(dp2362
g74
(dp2363
g82
I4
ssg83
g2357
sg76
(lp2364
S'<socket._fileobject object at 0x7fb520139350>'
p2365
asbasbasbag69
(g85
g71
NtRp2366
(dp2367
g74
(dp2368
sg83
g1574
sg76
(lp2369
g69
(g90
g71
NtRp2370
(dp2371
g74
(dp2372
g94
g95
ssg83
g2366
sg76
(lp2373
S'wsgi_multiprocess'
p2374
asbag69
(g90
g71
NtRp2375
(dp2376
g74
(dp2377
g101
g102
ssg83
g2366
sg76
(lp2378
S':'
asbag69
(g90
g71
NtRp2379
(dp2380
g74
(dp2381
sg83
g2366
sg76
(lp2382
g69
(g70
g71
NtRp2383
(dp2384
g74
(dp2385
g82
I4
ssg83
g2379
sg76
(lp2386
g112
asbasbasbag69
(g85
g71
NtRp2387
(dp2388
g74
(dp2389
sg83
g1574
sg76
(lp2390
g69
(g90
g71
NtRp2391
(dp2392
g74
(dp2393
g94
g95
ssg83
g2387
sg76
(lp2394
S'wsgi_multithread'
p2395
asbag69
(g90
g71
NtRp2396
(dp2397
g74
(dp2398
g101
g102
ssg83
g2387
sg76
(lp2399
S':'
asbag69
(g90
g71
NtRp2400
(dp2401
g74
(dp2402
sg83
g2387
sg76
(lp2403
g69
(g70
g71
NtRp2404
(dp2405
g74
(dp2406
g82
I4
ssg83
g2400
sg76
(lp2407
S'True'
p2408
asbasbasbag69
(g85
g71
NtRp2409
(dp2410
g74
(dp2411
sg83
g1574
sg76
(lp2412
g69
(g90
g71
NtRp2413
(dp2414
g74
(dp2415
g94
g95
ssg83
g2409
sg76
(lp2416
S'wsgi_run_once'
p2417
asbag69
(g90
g71
NtRp2418
(dp2419
g74
(dp2420
g101
g102
ssg83
g2409
sg76
(lp2421
S':'
asbag69
(g90
g71
NtRp2422
(dp2423
g74
(dp2424
sg83
g2409
sg76
(lp2425
g69
(g70
g71
NtRp2426
(dp2427
g74
(dp2428
g82
I4
ssg83
g2422
sg76
(lp2429
g112
asbasbasbag69
(g85
g71
NtRp2430
(dp2431
g74
(dp2432
sg83
g1574
sg76
(lp2433
g69
(g90
g71
NtRp2434
(dp2435
g74
(dp2436
g94
g95
ssg83
g2430
sg76
(lp2437
S'wsgi_url_scheme'
p2438
asbag69
(g90
g71
NtRp2439
(dp2440
g74
(dp2441
g101
g102
ssg83
g2430
sg76
(lp2442
S':'
asbag69
(g90
g71
NtRp2443
(dp2444
g74
(dp2445
sg83
g2430
sg76
(lp2446
g69
(g70
g71
NtRp2447
(dp2448
g74
(dp2449
g82
I4
ssg83
g2443
sg76
(lp2450
S'http'
p2451
asbasbasbag69
(g85
g71
NtRp2452
(dp2453
g74
(dp2454
sg83
g1574
sg76
(lp2455
g69
(g90
g71
NtRp2456
(dp2457
g74
(dp2458
g94
g95
ssg83
g2452
sg76
(lp2459
S'wsgi_version'
p2460
asbag69
(g90
g71
NtRp2461
(dp2462
g74
(dp2463
g101
g102
ssg83
g2452
sg76
(lp2464
S':'
asbag69
(g90
g71
NtRp2465
(dp2466
g74
(dp2467
sg83
g2452
sg76
(lp2468
g69
(g70
g71
NtRp2469
(dp2470
g74
(dp2471
g82
I4
ssg83
g2465
sg76
(lp2472
g69
(g78
g71
NtRp2473
(dp2474
g74
(dp2475
g82
I3
ssg83
Nsg76
(lp2476
g69
(g85
g71
NtRp2477
(dp2478
g74
(dp2479
sg83
g2473
sg76
(lp2480
g69
(g90
g71
NtRp2481
(dp2482
g74
(dp2483
sg83
g2477
sg76
(lp2484
g69
(g70
g71
NtRp2485
(dp2486
g74
(dp2487
g82
I3
ssg83
g2481
sg76
(lp2488
S'1'
asbasbasbag69
(g85
g71
NtRp2489
(dp2490
g74
(dp2491
sg83
g2473
sg76
(lp2492
g69
(g90
g71
NtRp2493
(dp2494
g74
(dp2495
sg83
g2489
sg76
(lp2496
g69
(g70
g71
NtRp2497
(dp2498
g74
(dp2499
g82
I3
ssg83
g2493
sg76
(lp2500
S'0'
asbasbasbasbasbasbasbasbasbasbasbag69
(g85
g71
NtRp2501
(dp2502
g74
(dp2503
sg83
g79
sg76
(lp2504
g69
(g90
g71
NtRp2505
(dp2506
g74
(dp2507
g94
g95
ssg83
g2501
sg76
(lp2508
S'extension'
p2509
asbag69
(g90
g71
NtRp2510
(dp2511
g74
(dp2512
g101
g102
ssg83
g2501
sg76
(lp2513
S':'
asbag69
(g90
g71
NtRp2514
(dp2515
g74
(dp2516
sg83
g2501
sg76
(lp2517
g69
(g70
g71
NtRp2518
(dp2519
g74
(dp2520
g82
I5
ssg83
g2514
sg76
(lp2521
S'html'
p2522
asbasbasbag69
(g85
g71
NtRp2523
(dp2524
g74
(dp2525
sg83
g79
sg76
(lp2526
g69
(g90
g71
NtRp2527
(dp2528
g74
(dp2529
g94
g95
ssg83
g2523
sg76
(lp2530
S'folder'
p2531
asbag69
(g90
g71
NtRp2532
(dp2533
g74
(dp2534
g101
g102
ssg83
g2523
sg76
(lp2535
S':'
asbag69
(g90
g71
NtRp2536
(dp2537
g74
(dp2538
sg83
g2523
sg76
(lp2539
g69
(g70
g71
NtRp2540
(dp2541
g74
(dp2542
g82
I5
ssg83
g2536
sg76
(lp2543
S'/home/chitra/courses/SSAD/web2py/applications/ssad2/'
p2544
asbasbasbag69
(g85
g71
NtRp2545
(dp2546
g74
(dp2547
sg83
g79
sg76
(lp2548
g69
(g90
g71
NtRp2549
(dp2550
g74
(dp2551
g94
g95
ssg83
g2545
sg76
(lp2552
S'function'
p2553
asbag69
(g90
g71
NtRp2554
(dp2555
g74
(dp2556
g101
g102
ssg83
g2545
sg76
(lp2557
S':'
asbag69
(g90
g71
NtRp2558
(dp2559
g74
(dp2560
sg83
g2545
sg76
(lp2561
g69
(g70
g71
NtRp2562
(dp2563
g74
(dp2564
g82
I5
ssg83
g2558
sg76
(lp2565
S'final_ans'
p2566
asbasbasbag69
(g85
g71
NtRp2567
(dp2568
g74
(dp2569
sg83
g79
sg76
(lp2570
g69
(g90
g71
NtRp2571
(dp2572
g74
(dp2573
g94
g95
ssg83
g2567
sg76
(lp2574
S'get_vars'
p2575
asbag69
(g90
g71
NtRp2576
(dp2577
g74
(dp2578
g101
g102
ssg83
g2567
sg76
(lp2579
S':'
asbag69
(g90
g71
NtRp2580
(dp2581
g74
(dp2582
sg83
g2567
sg76
(lp2583
g69
(g70
g71
NtRp2584
(dp2585
g74
(dp2586
g82
I5
ssg83
g2580
sg76
(lp2587
g69
(g78
g71
NtRp2588
(dp2589
g74
(dp2590
g82
I4
ssg83
Nsg76
(lp2591
sbasbasbasbag69
(g85
g71
NtRp2592
(dp2593
g74
(dp2594
sg83
g79
sg76
(lp2595
g69
(g90
g71
NtRp2596
(dp2597
g74
(dp2598
g94
g95
ssg83
g2592
sg76
(lp2599
S'global_settings'
p2600
asbag69
(g90
g71
NtRp2601
(dp2602
g74
(dp2603
g101
g102
ssg83
g2592
sg76
(lp2604
S':'
asbag69
(g90
g71
NtRp2605
(dp2606
g74
(dp2607
sg83
g2592
sg76
(lp2608
g69
(g70
g71
NtRp2609
(dp2610
g74
(dp2611
g82
I5
ssg83
g2605
sg76
(lp2612
g69
(g78
g71
NtRp2613
(dp2614
g74
(dp2615
g82
I4
ssg83
Nsg76
(lp2616
g69
(g85
g71
NtRp2617
(dp2618
g74
(dp2619
sg83
g2613
sg76
(lp2620
g69
(g90
g71
NtRp2621
(dp2622
g74
(dp2623
g94
g95
ssg83
g2617
sg76
(lp2624
g1586
asbag69
(g90
g71
NtRp2625
(dp2626
g74
(dp2627
g101
g102
ssg83
g2617
sg76
(lp2628
S':'
asbag69
(g90
g71
NtRp2629
(dp2630
g74
(dp2631
sg83
g2617
sg76
(lp2632
g69
(g70
g71
NtRp2633
(dp2634
g74
(dp2635
g82
I4
ssg83
g2629
sg76
(lp2636
S"set(['/home/chitra/courses/SSAD/web2py/applications/ssad1/', '/home/chitra/courses/SSAD/web2py/applications/admin/', '/home/chitra/courses/SSAD/web2py/applications/rough/', '/home/chitra/courses/SSAD/web2py/applications/welcome/', '/home/chitra/courses/SSAD/web2py/applications/proj2/', '/home/chitra/courses/SSAD/web2py/applications/ssad2/'])"
p2637
asbasbasbag69
(g85
g71
NtRp2638
(dp2639
g74
(dp2640
sg83
g2613
sg76
(lp2641
g69
(g90
g71
NtRp2642
(dp2643
g74
(dp2644
g94
g95
ssg83
g2638
sg76
(lp2645
g1608
asbag69
(g90
g71
NtRp2646
(dp2647
g74
(dp2648
g101
g102
ssg83
g2638
sg76
(lp2649
S':'
asbag69
(g90
g71
NtRp2650
(dp2651
g74
(dp2652
sg83
g2638
sg76
(lp2653
g69
(g70
g71
NtRp2654
(dp2655
g74
(dp2656
g82
I4
ssg83
g2650
sg76
(lp2657
g1621
asbasbasbag69
(g85
g71
NtRp2658
(dp2659
g74
(dp2660
sg83
g2613
sg76
(lp2661
g69
(g90
g71
NtRp2662
(dp2663
g74
(dp2664
g94
g95
ssg83
g2658
sg76
(lp2665
g1630
asbag69
(g90
g71
NtRp2666
(dp2667
g74
(dp2668
g101
g102
ssg83
g2658
sg76
(lp2669
S':'
asbag69
(g90
g71
NtRp2670
(dp2671
g74
(dp2672
sg83
g2658
sg76
(lp2673
g69
(g70
g71
NtRp2674
(dp2675
g74
(dp2676
g82
I4
ssg83
g2670
sg76
(lp2677
g69
(g78
g71
NtRp2678
(dp2679
g74
(dp2680
g82
I3
ssg83
Nsg76
(lp2681
sbasbasbasbag69
(g85
g71
NtRp2682
(dp2683
g74
(dp2684
sg83
g2613
sg76
(lp2685
g69
(g90
g71
NtRp2686
(dp2687
g74
(dp2688
g94
g95
ssg83
g2682
sg76
(lp2689
g1655
asbag69
(g90
g71
NtRp2690
(dp2691
g74
(dp2692
g101
g102
ssg83
g2682
sg76
(lp2693
S':'
asbag69
(g90
g71
NtRp2694
(dp2695
g74
(dp2696
sg83
g2682
sg76
(lp2697
g69
(g70
g71
NtRp2698
(dp2699
g74
(dp2700
g82
I4
ssg83
g2694
sg76
(lp2701
S"<Values at 0x237ebd8: {'verbose': False, 'ip': '127.0.0.1', 'shutdown_timeout': 5, 'taskbar': False, 'nocron': False, 'pid_filename': 'httpserver.pid', 'maxthreads': None, 'softcron': False, 'server_name': 'chitra-HP-Pavilion-dv6-Notebook-PC', 'bpython': False, 'nogui': False, 'port': 8000, 'extcron': False, 'debuglevel': 30, 'test': None, 'folder': '/home/chitra/courses/SSAD/web2py', 'config': '', 'import_models': False, 'winservice': '', 'shell': None, 'run': '', 'log_filename': 'httpserver.log', 'args': [''], 'socket_timeout': 5, 'ssl_ca_certificate': None, 'scheduler': None, 'profiler_filename': None, 'ssl_private_key': '', 'password': '<ask>', 'request_queue_size': 5, 'ssl_certificate': '', 'cronjob': False, 'numthreads': None, 'quiet': False, 'interfaces': None, 'minthreads': None, 'timeout': 10, 'plain': False, 'nobanner': False}>"
p2702
asbasbasbag69
(g85
g71
NtRp2703
(dp2704
g74
(dp2705
sg83
g2613
sg76
(lp2706
g69
(g90
g71
NtRp2707
(dp2708
g74
(dp2709
g94
g95
ssg83
g2703
sg76
(lp2710
g1677
asbag69
(g90
g71
NtRp2711
(dp2712
g74
(dp2713
g101
g102
ssg83
g2703
sg76
(lp2714
S':'
asbag69
(g90
g71
NtRp2715
(dp2716
g74
(dp2717
sg83
g2703
sg76
(lp2718
g69
(g70
g71
NtRp2719
(dp2720
g74
(dp2721
g82
I4
ssg83
g2715
sg76
(lp2722
S'set([])'
p2723
asbasbasbag69
(g85
g71
NtRp2724
(dp2725
g74
(dp2726
sg83
g2613
sg76
(lp2727
g69
(g90
g71
NtRp2728
(dp2729
g74
(dp2730
g94
g95
ssg83
g2724
sg76
(lp2731
g1699
asbag69
(g90
g71
NtRp2732
(dp2733
g74
(dp2734
g101
g102
ssg83
g2724
sg76
(lp2735
S':'
asbag69
(g90
g71
NtRp2736
(dp2737
g74
(dp2738
sg83
g2724
sg76
(lp2739
g69
(g70
g71
NtRp2740
(dp2741
g74
(dp2742
g82
I4
ssg83
g2736
sg76
(lp2743
g112
asbasbasbag69
(g85
g71
NtRp2744
(dp2745
g74
(dp2746
sg83
g2613
sg76
(lp2747
g69
(g90
g71
NtRp2748
(dp2749
g74
(dp2750
g94
g95
ssg83
g2744
sg76
(lp2751
g1720
asbag69
(g90
g71
NtRp2752
(dp2753
g74
(dp2754
g101
g102
ssg83
g2744
sg76
(lp2755
S':'
asbag69
(g90
g71
NtRp2756
(dp2757
g74
(dp2758
sg83
g2744
sg76
(lp2759
g69
(g70
g71
NtRp2760
(dp2761
g74
(dp2762
g82
I4
ssg83
g2756
sg76
(lp2763
g1733
asbasbasbag69
(g85
g71
NtRp2764
(dp2765
g74
(dp2766
sg83
g2613
sg76
(lp2767
g69
(g90
g71
NtRp2768
(dp2769
g74
(dp2770
g94
g95
ssg83
g2764
sg76
(lp2771
g1918
asbag69
(g90
g71
NtRp2772
(dp2773
g74
(dp2774
g101
g102
ssg83
g2764
sg76
(lp2775
S':'
asbag69
(g90
g71
NtRp2776
(dp2777
g74
(dp2778
sg83
g2764
sg76
(lp2779
g69
(g70
g71
NtRp2780
(dp2781
g74
(dp2782
g82
I4
ssg83
g2776
sg76
(lp2783
g112
asbasbasbag69
(g85
g71
NtRp2784
(dp2785
g74
(dp2786
sg83
g2613
sg76
(lp2787
g69
(g90
g71
NtRp2788
(dp2789
g74
(dp2790
g94
g95
ssg83
g2784
sg76
(lp2791
g1939
asbag69
(g90
g71
NtRp2792
(dp2793
g74
(dp2794
g101
g102
ssg83
g2784
sg76
(lp2795
S':'
asbag69
(g90
g71
NtRp2796
(dp2797
g74
(dp2798
sg83
g2784
sg76
(lp2799
g69
(g70
g71
NtRp2800
(dp2801
g74
(dp2802
g82
I4
ssg83
g2796
sg76
(lp2803
g112
asbasbasbag69
(g85
g71
NtRp2804
(dp2805
g74
(dp2806
sg83
g2613
sg76
(lp2807
g69
(g90
g71
NtRp2808
(dp2809
g74
(dp2810
g94
g95
ssg83
g2804
sg76
(lp2811
g2177
asbag69
(g90
g71
NtRp2812
(dp2813
g74
(dp2814
g101
g102
ssg83
g2804
sg76
(lp2815
S':'
asbag69
(g90
g71
NtRp2816
(dp2817
g74
(dp2818
sg83
g2804
sg76
(lp2819
g69
(g70
g71
NtRp2820
(dp2821
g74
(dp2822
g82
I4
ssg83
g2816
sg76
(lp2823
g2190
asbasbasbag69
(g85
g71
NtRp2824
(dp2825
g74
(dp2826
sg83
g2613
sg76
(lp2827
g69
(g90
g71
NtRp2828
(dp2829
g74
(dp2830
g94
g95
ssg83
g2824
sg76
(lp2831
g2220
asbag69
(g90
g71
NtRp2832
(dp2833
g74
(dp2834
g101
g102
ssg83
g2824
sg76
(lp2835
S':'
asbag69
(g90
g71
NtRp2836
(dp2837
g74
(dp2838
sg83
g2824
sg76
(lp2839
g69
(g70
g71
NtRp2840
(dp2841
g74
(dp2842
g82
I4
ssg83
g2836
sg76
(lp2843
g69
(g78
g71
NtRp2844
(dp2845
g74
(dp2846
g82
I3
ssg83
Nsg76
(lp2847
g69
(g85
g71
NtRp2848
(dp2849
g74
(dp2850
sg83
g2844
sg76
(lp2851
g69
(g90
g71
NtRp2852
(dp2853
g74
(dp2854
sg83
g2848
sg76
(lp2855
g69
(g70
g71
NtRp2856
(dp2857
g74
(dp2858
g82
I3
ssg83
g2852
sg76
(lp2859
S'1'
asbasbasbag69
(g85
g71
NtRp2860
(dp2861
g74
(dp2862
sg83
g2844
sg76
(lp2863
g69
(g90
g71
NtRp2864
(dp2865
g74
(dp2866
sg83
g2860
sg76
(lp2867
g69
(g70
g71
NtRp2868
(dp2869
g74
(dp2870
g82
I3
ssg83
g2864
sg76
(lp2871
S'99'
p2872
asbasbasbag69
(g85
g71
NtRp2873
(dp2874
g74
(dp2875
sg83
g2844
sg76
(lp2876
g69
(g90
g71
NtRp2877
(dp2878
g74
(dp2879
sg83
g2873
sg76
(lp2880
g69
(g70
g71
NtRp2881
(dp2882
g74
(dp2883
g82
I3
ssg83
g2877
sg76
(lp2884
S'7'
asbasbasbag69
(g85
g71
NtRp2885
(dp2886
g74
(dp2887
sg83
g2844
sg76
(lp2888
g69
(g90
g71
NtRp2889
(dp2890
g74
(dp2891
sg83
g2885
sg76
(lp2892
g69
(g70
g71
NtRp2893
(dp2894
g74
(dp2895
g82
I3
ssg83
g2889
sg76
(lp2896
S'datetime.datetime(2012, 3, 4, 22, 12, 8)'
p2897
asbasbasbag69
(g85
g71
NtRp2898
(dp2899
g74
(dp2900
sg83
g2844
sg76
(lp2901
g69
(g90
g71
NtRp2902
(dp2903
g74
(dp2904
sg83
g2898
sg76
(lp2905
g69
(g70
g71
NtRp2906
(dp2907
g74
(dp2908
g82
I3
ssg83
g2902
sg76
(lp2909
g2299
asbasbasbasbasbasbasbasbasbasbasbag69
(g85
g71
NtRp2910
(dp2911
g74
(dp2912
sg83
g79
sg76
(lp2913
g69
(g90
g71
NtRp2914
(dp2915
g74
(dp2916
g94
g95
ssg83
g2910
sg76
(lp2917
S'is_https'
p2918
asbag69
(g90
g71
NtRp2919
(dp2920
g74
(dp2921
g101
g102
ssg83
g2910
sg76
(lp2922
S':'
asbag69
(g90
g71
NtRp2923
(dp2924
g74
(dp2925
sg83
g2910
sg76
(lp2926
g69
(g70
g71
NtRp2927
(dp2928
g74
(dp2929
g82
I5
ssg83
g2923
sg76
(lp2930
g112
asbasbasbag69
(g85
g71
NtRp2931
(dp2932
g74
(dp2933
sg83
g79
sg76
(lp2934
g69
(g90
g71
NtRp2935
(dp2936
g74
(dp2937
g94
g95
ssg83
g2931
sg76
(lp2938
S'is_local'
p2939
asbag69
(g90
g71
NtRp2940
(dp2941
g74
(dp2942
g101
g102
ssg83
g2931
sg76
(lp2943
S':'
asbag69
(g90
g71
NtRp2944
(dp2945
g74
(dp2946
sg83
g2931
sg76
(lp2947
g69
(g70
g71
NtRp2948
(dp2949
g74
(dp2950
g82
I5
ssg83
g2944
sg76
(lp2951
g2408
asbasbasbag69
(g85
g71
NtRp2952
(dp2953
g74
(dp2954
sg83
g79
sg76
(lp2955
g69
(g90
g71
NtRp2956
(dp2957
g74
(dp2958
g94
g95
ssg83
g2952
sg76
(lp2959
S'is_restful'
p2960
asbag69
(g90
g71
NtRp2961
(dp2962
g74
(dp2963
g101
g102
ssg83
g2952
sg76
(lp2964
S':'
asbag69
(g90
g71
NtRp2965
(dp2966
g74
(dp2967
sg83
g2952
sg76
(lp2968
g69
(g70
g71
NtRp2969
(dp2970
g74
(dp2971
g82
I5
ssg83
g2965
sg76
(lp2972
g112
asbasbasbag69
(g85
g71
NtRp2973
(dp2974
g74
(dp2975
sg83
g79
sg76
(lp2976
g69
(g90
g71
NtRp2977
(dp2978
g74
(dp2979
g94
g95
ssg83
g2973
sg76
(lp2980
S'now'
p2981
asbag69
(g90
g71
NtRp2982
(dp2983
g74
(dp2984
g101
g102
ssg83
g2973
sg76
(lp2985
S':'
asbag69
(g90
g71
NtRp2986
(dp2987
g74
(dp2988
sg83
g2973
sg76
(lp2989
g69
(g70
g71
NtRp2990
(dp2991
g74
(dp2992
g82
I5
ssg83
g2986
sg76
(lp2993
S'datetime.datetime(2012, 10, 15, 1, 33, 52, 992547)'
p2994
asbasbasbag69
(g85
g71
NtRp2995
(dp2996
g74
(dp2997
sg83
g79
sg76
(lp2998
g69
(g90
g71
NtRp2999
(dp3000
g74
(dp3001
g94
g95
ssg83
g2995
sg76
(lp3002
S'post_vars'
p3003
asbag69
(g90
g71
NtRp3004
(dp3005
g74
(dp3006
g101
g102
ssg83
g2995
sg76
(lp3007
S':'
asbag69
(g90
g71
NtRp3008
(dp3009
g74
(dp3010
sg83
g2995
sg76
(lp3011
g69
(g70
g71
NtRp3012
(dp3013
g74
(dp3014
g82
I5
ssg83
g3008
sg76
(lp3015
g69
(g78
g71
NtRp3016
(dp3017
g74
(dp3018
g82
I4
ssg83
Nsg76
(lp3019
sbasbasbasbag69
(g85
g71
NtRp3020
(dp3021
g74
(dp3022
sg83
g79
sg76
(lp3023
g69
(g90
g71
NtRp3024
(dp3025
g74
(dp3026
g94
g95
ssg83
g3020
sg76
(lp3027
S'url'
p3028
asbag69
(g90
g71
NtRp3029
(dp3030
g74
(dp3031
g101
g102
ssg83
g3020
sg76
(lp3032
S':'
asbag69
(g90
g71
NtRp3033
(dp3034
g74
(dp3035
sg83
g3020
sg76
(lp3036
g69
(g70
g71
NtRp3037
(dp3038
g74
(dp3039
g82
I5
ssg83
g3033
sg76
(lp3040
S'/ssad2/default/final_ans'
p3041
asbasbasbag69
(g85
g71
NtRp3042
(dp3043
g74
(dp3044
sg83
g79
sg76
(lp3045
g69
(g90
g71
NtRp3046
(dp3047
g74
(dp3048
g94
g95
ssg83
g3042
sg76
(lp3049
S'utcnow'
p3050
asbag69
(g90
g71
NtRp3051
(dp3052
g74
(dp3053
g101
g102
ssg83
g3042
sg76
(lp3054
S':'
asbag69
(g90
g71
NtRp3055
(dp3056
g74
(dp3057
sg83
g3042
sg76
(lp3058
g69
(g70
g71
NtRp3059
(dp3060
g74
(dp3061
g82
I5
ssg83
g3055
sg76
(lp3062
S'datetime.datetime(2012, 10, 14, 20, 3, 52, 992574)'
p3063
asbasbasbag69
(g85
g71
NtRp3064
(dp3065
g74
(dp3066
sg83
g79
sg76
(lp3067
g69
(g90
g71
NtRp3068
(dp3069
g74
(dp3070
g94
g95
ssg83
g3064
sg76
(lp3071
S'uuid'
p3072
asbag69
(g90
g71
NtRp3073
(dp3074
g74
(dp3075
g101
g102
ssg83
g3064
sg76
(lp3076
S':'
asbag69
(g90
g71
NtRp3077
(dp3078
g74
(dp3079
sg83
g3064
sg76
(lp3080
g69
(g70
g71
NtRp3081
(dp3082
g74
(dp3083
g82
I5
ssg83
g3077
sg76
(lp3084
S'ssad2/127.0.0.1.2012-10-15.01-33-52.b3447649-46ac-4327-b38d-c89af1d53c70'
p3085
asbasbasbag69
(g85
g71
NtRp3086
(dp3087
g74
(dp3088
sg83
g79
sg76
(lp3089
g69
(g90
g71
NtRp3090
(dp3091
g74
(dp3092
g94
g95
ssg83
g3086
sg76
(lp3093
S'vars'
p3094
asbag69
(g90
g71
NtRp3095
(dp3096
g74
(dp3097
g101
g102
ssg83
g3086
sg76
(lp3098
S':'
asbag69
(g90
g71
NtRp3099
(dp3100
g74
(dp3101
sg83
g3086
sg76
(lp3102
g69
(g70
g71
NtRp3103
(dp3104
g74
(dp3105
g82
I5
ssg83
g3099
sg76
(lp3106
g69
(g78
g71
NtRp3107
(dp3108
g74
(dp3109
g82
I4
ssg83
Nsg76
(lp3110
sbasbasbasbag69
(g85
g71
NtRp3111
(dp3112
g74
(dp3113
sg83
g79
sg76
(lp3114
g69
(g90
g71
NtRp3115
(dp3116
g74
(dp3117
g94
g95
ssg83
g3111
sg76
(lp3118
S'wsgi'
p3119
asbag69
(g90
g71
NtRp3120
(dp3121
g74
(dp3122
g101
g102
ssg83
g3111
sg76
(lp3123
S':'
asbag69
(g90
g71
NtRp3124
(dp3125
g74
(dp3126
sg83
g3111
sg76
(lp3127
g69
(g70
g71
NtRp3128
(dp3129
g74
(dp3130
g82
I5
ssg83
g3124
sg76
(lp3131
g69
(g78
g71
NtRp3132
(dp3133
g74
(dp3134
g82
I4
ssg83
Nsg76
(lp3135
g69
(g85
g71
NtRp3136
(dp3137
g74
(dp3138
sg83
g3132
sg76
(lp3139
g69
(g90
g71
NtRp3140
(dp3141
g74
(dp3142
g94
g95
ssg83
g3136
sg76
(lp3143
S'environ'
p3144
asbag69
(g90
g71
NtRp3145
(dp3146
g74
(dp3147
g101
g102
ssg83
g3136
sg76
(lp3148
S':'
asbag69
(g90
g71
NtRp3149
(dp3150
g74
(dp3151
sg83
g3136
sg76
(lp3152
g69
(g70
g71
NtRp3153
(dp3154
g74
(dp3155
g82
I4
ssg83
g3149
sg76
(lp3156
g69
(g78
g71
NtRp3157
(dp3158
g74
(dp3159
g82
I3
ssg83
Nsg76
(lp3160
g69
(g85
g71
NtRp3161
(dp3162
g74
(dp3163
sg83
g3157
sg76
(lp3164
g69
(g90
g71
NtRp3165
(dp3166
g74
(dp3167
g94
g95
ssg83
g3161
sg76
(lp3168
S'HTTP_ACCEPT'
p3169
asbag69
(g90
g71
NtRp3170
(dp3171
g74
(dp3172
g101
g102
ssg83
g3161
sg76
(lp3173
S':'
asbag69
(g90
g71
NtRp3174
(dp3175
g74
(dp3176
sg83
g3161
sg76
(lp3177
g69
(g70
g71
NtRp3178
(dp3179
g74
(dp3180
g82
I3
ssg83
g3174
sg76
(lp3181
g1755
asbasbasbag69
(g85
g71
NtRp3182
(dp3183
g74
(dp3184
sg83
g3157
sg76
(lp3185
g69
(g90
g71
NtRp3186
(dp3187
g74
(dp3188
g94
g95
ssg83
g3182
sg76
(lp3189
S'HTTP_ACCEPT_ENCODING'
p3190
asbag69
(g90
g71
NtRp3191
(dp3192
g74
(dp3193
g101
g102
ssg83
g3182
sg76
(lp3194
S':'
asbag69
(g90
g71
NtRp3195
(dp3196
g74
(dp3197
sg83
g3182
sg76
(lp3198
g69
(g70
g71
NtRp3199
(dp3200
g74
(dp3201
g82
I3
ssg83
g3195
sg76
(lp3202
g1777
asbasbasbag69
(g85
g71
NtRp3203
(dp3204
g74
(dp3205
sg83
g3157
sg76
(lp3206
g69
(g90
g71
NtRp3207
(dp3208
g74
(dp3209
g94
g95
ssg83
g3203
sg76
(lp3210
S'HTTP_ACCEPT_LANGUAGE'
p3211
asbag69
(g90
g71
NtRp3212
(dp3213
g74
(dp3214
g101
g102
ssg83
g3203
sg76
(lp3215
S':'
asbag69
(g90
g71
NtRp3216
(dp3217
g74
(dp3218
sg83
g3203
sg76
(lp3219
g69
(g70
g71
NtRp3220
(dp3221
g74
(dp3222
g82
I3
ssg83
g3216
sg76
(lp3223
g1799
asbasbasbag69
(g85
g71
NtRp3224
(dp3225
g74
(dp3226
sg83
g3157
sg76
(lp3227
g69
(g90
g71
NtRp3228
(dp3229
g74
(dp3230
g94
g95
ssg83
g3224
sg76
(lp3231
S'HTTP_CONNECTION'
p3232
asbag69
(g90
g71
NtRp3233
(dp3234
g74
(dp3235
g101
g102
ssg83
g3224
sg76
(lp3236
S':'
asbag69
(g90
g71
NtRp3237
(dp3238
g74
(dp3239
sg83
g3224
sg76
(lp3240
g69
(g70
g71
NtRp3241
(dp3242
g74
(dp3243
g82
I3
ssg83
g3237
sg76
(lp3244
g1821
asbasbasbag69
(g85
g71
NtRp3245
(dp3246
g74
(dp3247
sg83
g3157
sg76
(lp3248
g69
(g90
g71
NtRp3249
(dp3250
g74
(dp3251
g94
g95
ssg83
g3245
sg76
(lp3252
S'HTTP_COOKIE'
p3253
asbag69
(g90
g71
NtRp3254
(dp3255
g74
(dp3256
g101
g102
ssg83
g3245
sg76
(lp3257
S':'
asbag69
(g90
g71
NtRp3258
(dp3259
g74
(dp3260
sg83
g3245
sg76
(lp3261
g69
(g70
g71
NtRp3262
(dp3263
g74
(dp3264
g82
I3
ssg83
g3258
sg76
(lp3265
g1843
asbasbasbag69
(g85
g71
NtRp3266
(dp3267
g74
(dp3268
sg83
g3157
sg76
(lp3269
g69
(g90
g71
NtRp3270
(dp3271
g74
(dp3272
g94
g95
ssg83
g3266
sg76
(lp3273
S'HTTP_HOST'
p3274
asbag69
(g90
g71
NtRp3275
(dp3276
g74
(dp3277
g101
g102
ssg83
g3266
sg76
(lp3278
S':'
asbag69
(g90
g71
NtRp3279
(dp3280
g74
(dp3281
sg83
g3266
sg76
(lp3282
g69
(g70
g71
NtRp3283
(dp3284
g74
(dp3285
g82
I3
ssg83
g3279
sg76
(lp3286
g1865
asbasbasbag69
(g85
g71
NtRp3287
(dp3288
g74
(dp3289
sg83
g3157
sg76
(lp3290
g69
(g90
g71
NtRp3291
(dp3292
g74
(dp3293
g94
g95
ssg83
g3287
sg76
(lp3294
S'HTTP_REFERER'
p3295
asbag69
(g90
g71
NtRp3296
(dp3297
g74
(dp3298
g101
g102
ssg83
g3287
sg76
(lp3299
S':'
asbag69
(g90
g71
NtRp3300
(dp3301
g74
(dp3302
sg83
g3287
sg76
(lp3303
g69
(g70
g71
NtRp3304
(dp3305
g74
(dp3306
g82
I3
ssg83
g3300
sg76
(lp3307
g1887
asbasbasbag69
(g85
g71
NtRp3308
(dp3309
g74
(dp3310
sg83
g3157
sg76
(lp3311
g69
(g90
g71
NtRp3312
(dp3313
g74
(dp3314
g94
g95
ssg83
g3308
sg76
(lp3315
S'HTTP_USER_AGENT'
p3316
asbag69
(g90
g71
NtRp3317
(dp3318
g74
(dp3319
g101
g102
ssg83
g3308
sg76
(lp3320
S':'
asbag69
(g90
g71
NtRp3321
(dp3322
g74
(dp3323
sg83
g3308
sg76
(lp3324
g69
(g70
g71
NtRp3325
(dp3326
g74
(dp3327
g82
I3
ssg83
g3321
sg76
(lp3328
g1909
asbasbasbag69
(g85
g71
NtRp3329
(dp3330
g74
(dp3331
sg83
g3157
sg76
(lp3332
g69
(g90
g71
NtRp3333
(dp3334
g74
(dp3335
g94
g95
ssg83
g3329
sg76
(lp3336
S'PATH_INFO'
p3337
asbag69
(g90
g71
NtRp3338
(dp3339
g74
(dp3340
g101
g102
ssg83
g3329
sg76
(lp3341
S':'
asbag69
(g90
g71
NtRp3342
(dp3343
g74
(dp3344
sg83
g3329
sg76
(lp3345
g69
(g70
g71
NtRp3346
(dp3347
g74
(dp3348
g82
I3
ssg83
g3342
sg76
(lp3349
g1973
asbasbasbag69
(g85
g71
NtRp3350
(dp3351
g74
(dp3352
sg83
g3157
sg76
(lp3353
g69
(g90
g71
NtRp3354
(dp3355
g74
(dp3356
g94
g95
ssg83
g3350
sg76
(lp3357
S'QUERY_STRING'
p3358
asbag69
(g90
g71
NtRp3359
(dp3360
g74
(dp3361
g101
g102
ssg83
g3350
sg76
(lp3362
S':'
asbag69
(g90
g71
NtRp3363
(dp3364
g74
(dp3365
sg83
g3350
sg76
(lp3366
g69
(g70
g71
NtRp3367
(dp3368
g74
(dp3369
g82
I3
ssg83
g3363
sg76
(lp3370
S''
asbasbasbag69
(g85
g71
NtRp3371
(dp3372
g74
(dp3373
sg83
g3157
sg76
(lp3374
g69
(g90
g71
NtRp3375
(dp3376
g74
(dp3377
g94
g95
ssg83
g3371
sg76
(lp3378
S'REMOTE_ADDR'
p3379
asbag69
(g90
g71
NtRp3380
(dp3381
g74
(dp3382
g101
g102
ssg83
g3371
sg76
(lp3383
S':'
asbag69
(g90
g71
NtRp3384
(dp3385
g74
(dp3386
sg83
g3371
sg76
(lp3387
g69
(g70
g71
NtRp3388
(dp3389
g74
(dp3390
g82
I3
ssg83
g3384
sg76
(lp3391
g202
asbasbasbag69
(g85
g71
NtRp3392
(dp3393
g74
(dp3394
sg83
g3157
sg76
(lp3395
g69
(g90
g71
NtRp3396
(dp3397
g74
(dp3398
g94
g95
ssg83
g3392
sg76
(lp3399
S'REMOTE_PORT'
p3400
asbag69
(g90
g71
NtRp3401
(dp3402
g74
(dp3403
g101
g102
ssg83
g3392
sg76
(lp3404
S':'
asbag69
(g90
g71
NtRp3405
(dp3406
g74
(dp3407
sg83
g3392
sg76
(lp3408
g69
(g70
g71
NtRp3409
(dp3410
g74
(dp3411
g82
I3
ssg83
g3405
sg76
(lp3412
g2037
asbasbasbag69
(g85
g71
NtRp3413
(dp3414
g74
(dp3415
sg83
g3157
sg76
(lp3416
g69
(g90
g71
NtRp3417
(dp3418
g74
(dp3419
g94
g95
ssg83
g3413
sg76
(lp3420
S'REQUEST_METHOD'
p3421
asbag69
(g90
g71
NtRp3422
(dp3423
g74
(dp3424
g101
g102
ssg83
g3413
sg76
(lp3425
S':'
asbag69
(g90
g71
NtRp3426
(dp3427
g74
(dp3428
sg83
g3413
sg76
(lp3429
g69
(g70
g71
NtRp3430
(dp3431
g74
(dp3432
g82
I3
ssg83
g3426
sg76
(lp3433
g2059
asbasbasbag69
(g85
g71
NtRp3434
(dp3435
g74
(dp3436
sg83
g3157
sg76
(lp3437
g69
(g90
g71
NtRp3438
(dp3439
g74
(dp3440
g94
g95
ssg83
g3434
sg76
(lp3441
S'SCRIPT_NAME'
p3442
asbag69
(g90
g71
NtRp3443
(dp3444
g74
(dp3445
g101
g102
ssg83
g3434
sg76
(lp3446
S':'
asbag69
(g90
g71
NtRp3447
(dp3448
g74
(dp3449
sg83
g3434
sg76
(lp3450
g69
(g70
g71
NtRp3451
(dp3452
g74
(dp3453
g82
I3
ssg83
g3447
sg76
(lp3454
S''
asbasbasbag69
(g85
g71
NtRp3455
(dp3456
g74
(dp3457
sg83
g3157
sg76
(lp3458
g69
(g90
g71
NtRp3459
(dp3460
g74
(dp3461
g94
g95
ssg83
g3455
sg76
(lp3462
S'SERVER_NAME'
p3463
asbag69
(g90
g71
NtRp3464
(dp3465
g74
(dp3466
g101
g102
ssg83
g3455
sg76
(lp3467
S':'
asbag69
(g90
g71
NtRp3468
(dp3469
g74
(dp3470
sg83
g3455
sg76
(lp3471
g69
(g70
g71
NtRp3472
(dp3473
g74
(dp3474
g82
I3
ssg83
g3468
sg76
(lp3475
g2102
asbasbasbag69
(g85
g71
NtRp3476
(dp3477
g74
(dp3478
sg83
g3157
sg76
(lp3479
g69
(g90
g71
NtRp3480
(dp3481
g74
(dp3482
g94
g95
ssg83
g3476
sg76
(lp3483
S'SERVER_PORT'
p3484
asbag69
(g90
g71
NtRp3485
(dp3486
g74
(dp3487
g101
g102
ssg83
g3476
sg76
(lp3488
S':'
asbag69
(g90
g71
NtRp3489
(dp3490
g74
(dp3491
sg83
g3476
sg76
(lp3492
g69
(g70
g71
NtRp3493
(dp3494
g74
(dp3495
g82
I3
ssg83
g3489
sg76
(lp3496
g2124
asbasbasbag69
(g85
g71
NtRp3497
(dp3498
g74
(dp3499
sg83
g3157
sg76
(lp3500
g69
(g90
g71
NtRp3501
(dp3502
g74
(dp3503
g94
g95
ssg83
g3497
sg76
(lp3504
S'SERVER_PROTOCOL'
p3505
asbag69
(g90
g71
NtRp3506
(dp3507
g74
(dp3508
g101
g102
ssg83
g3497
sg76
(lp3509
S':'
asbag69
(g90
g71
NtRp3510
(dp3511
g74
(dp3512
sg83
g3497
sg76
(lp3513
g69
(g70
g71
NtRp3514
(dp3515
g74
(dp3516
g82
I3
ssg83
g3510
sg76
(lp3517
g2146
asbasbasbag69
(g85
g71
NtRp3518
(dp3519
g74
(dp3520
sg83
g3157
sg76
(lp3521
g69
(g90
g71
NtRp3522
(dp3523
g74
(dp3524
g94
g95
ssg83
g3518
sg76
(lp3525
S'SERVER_SOFTWARE'
p3526
asbag69
(g90
g71
NtRp3527
(dp3528
g74
(dp3529
g101
g102
ssg83
g3518
sg76
(lp3530
S':'
asbag69
(g90
g71
NtRp3531
(dp3532
g74
(dp3533
sg83
g3518
sg76
(lp3534
g69
(g70
g71
NtRp3535
(dp3536
g74
(dp3537
g82
I3
ssg83
g3531
sg76
(lp3538
g2168
asbasbasbag69
(g85
g71
NtRp3539
(dp3540
g74
(dp3541
sg83
g3157
sg76
(lp3542
g69
(g90
g71
NtRp3543
(dp3544
g74
(dp3545
g94
g95
ssg83
g3539
sg76
(lp3546
S'wsgi.errors'
p3547
asbag69
(g90
g71
NtRp3548
(dp3549
g74
(dp3550
g101
g102
ssg83
g3539
sg76
(lp3551
S':'
asbag69
(g90
g71
NtRp3552
(dp3553
g74
(dp3554
sg83
g3539
sg76
(lp3555
g69
(g70
g71
NtRp3556
(dp3557
g74
(dp3558
g82
I3
ssg83
g3552
sg76
(lp3559
S"<open file '<stderr>', mode 'w' at 0x7fb55ffab270>"
p3560
asbasbasbag69
(g85
g71
NtRp3561
(dp3562
g74
(dp3563
sg83
g3157
sg76
(lp3564
g69
(g90
g71
NtRp3565
(dp3566
g74
(dp3567
g94
g95
ssg83
g3561
sg76
(lp3568
S'wsgi.file_wrapper'
p3569
asbag69
(g90
g71
NtRp3570
(dp3571
g74
(dp3572
g101
g102
ssg83
g3561
sg76
(lp3573
S':'
asbag69
(g90
g71
NtRp3574
(dp3575
g74
(dp3576
sg83
g3561
sg76
(lp3577
g69
(g70
g71
NtRp3578
(dp3579
g74
(dp3580
g82
I3
ssg83
g3574
sg76
(lp3581
S'<class wsgiref.util.FileWrapper at 0x226e120>'
p3582
asbasbasbag69
(g85
g71
NtRp3583
(dp3584
g74
(dp3585
sg83
g3157
sg76
(lp3586
g69
(g90
g71
NtRp3587
(dp3588
g74
(dp3589
g94
g95
ssg83
g3583
sg76
(lp3590
S'wsgi.input'
p3591
asbag69
(g90
g71
NtRp3592
(dp3593
g74
(dp3594
g101
g102
ssg83
g3583
sg76
(lp3595
S':'
asbag69
(g90
g71
NtRp3596
(dp3597
g74
(dp3598
sg83
g3583
sg76
(lp3599
g69
(g70
g71
NtRp3600
(dp3601
g74
(dp3602
g82
I3
ssg83
g3596
sg76
(lp3603
S'<cStringIO.StringO object at 0x7fb534092f48>'
p3604
asbasbasbag69
(g85
g71
NtRp3605
(dp3606
g74
(dp3607
sg83
g3157
sg76
(lp3608
g69
(g90
g71
NtRp3609
(dp3610
g74
(dp3611
g94
g95
ssg83
g3605
sg76
(lp3612
S'wsgi.multiprocess'
p3613
asbag69
(g90
g71
NtRp3614
(dp3615
g74
(dp3616
g101
g102
ssg83
g3605
sg76
(lp3617
S':'
asbag69
(g90
g71
NtRp3618
(dp3619
g74
(dp3620
sg83
g3605
sg76
(lp3621
g69
(g70
g71
NtRp3622
(dp3623
g74
(dp3624
g82
I3
ssg83
g3618
sg76
(lp3625
g112
asbasbasbag69
(g85
g71
NtRp3626
(dp3627
g74
(dp3628
sg83
g3157
sg76
(lp3629
g69
(g90
g71
NtRp3630
(dp3631
g74
(dp3632
g94
g95
ssg83
g3626
sg76
(lp3633
S'wsgi.multithread'
p3634
asbag69
(g90
g71
NtRp3635
(dp3636
g74
(dp3637
g101
g102
ssg83
g3626
sg76
(lp3638
S':'
asbag69
(g90
g71
NtRp3639
(dp3640
g74
(dp3641
sg83
g3626
sg76
(lp3642
g69
(g70
g71
NtRp3643
(dp3644
g74
(dp3645
g82
I3
ssg83
g3639
sg76
(lp3646
g2408
asbasbasbag69
(g85
g71
NtRp3647
(dp3648
g74
(dp3649
sg83
g3157
sg76
(lp3650
g69
(g90
g71
NtRp3651
(dp3652
g74
(dp3653
g94
g95
ssg83
g3647
sg76
(lp3654
S'wsgi.run_once'
p3655
asbag69
(g90
g71
NtRp3656
(dp3657
g74
(dp3658
g101
g102
ssg83
g3647
sg76
(lp3659
S':'
asbag69
(g90
g71
NtRp3660
(dp3661
g74
(dp3662
sg83
g3647
sg76
(lp3663
g69
(g70
g71
NtRp3664
(dp3665
g74
(dp3666
g82
I3
ssg83
g3660
sg76
(lp3667
g112
asbasbasbag69
(g85
g71
NtRp3668
(dp3669
g74
(dp3670
sg83
g3157
sg76
(lp3671
g69
(g90
g71
NtRp3672
(dp3673
g74
(dp3674
g94
g95
ssg83
g3668
sg76
(lp3675
S'wsgi.url_scheme'
p3676
asbag69
(g90
g71
NtRp3677
(dp3678
g74
(dp3679
g101
g102
ssg83
g3668
sg76
(lp3680
S':'
asbag69
(g90
g71
NtRp3681
(dp3682
g74
(dp3683
sg83
g3668
sg76
(lp3684
g69
(g70
g71
NtRp3685
(dp3686
g74
(dp3687
g82
I3
ssg83
g3681
sg76
(lp3688
g2451
asbasbasbag69
(g85
g71
NtRp3689
(dp3690
g74
(dp3691
sg83
g3157
sg76
(lp3692
g69
(g90
g71
NtRp3693
(dp3694
g74
(dp3695
g94
g95
ssg83
g3689
sg76
(lp3696
S'wsgi.version'
p3697
asbag69
(g90
g71
NtRp3698
(dp3699
g74
(dp3700
g101
g102
ssg83
g3689
sg76
(lp3701
S':'
asbag69
(g90
g71
NtRp3702
(dp3703
g74
(dp3704
sg83
g3689
sg76
(lp3705
g69
(g70
g71
NtRp3706
(dp3707
g74
(dp3708
g82
I3
ssg83
g3702
sg76
(lp3709
S'1'
asbasbasbasbasbasbasbasbasbasbasbasbasbsS'frames'
p3710
(lp3711
(dp3712
S'file'
p3713
S'/home/chitra/courses/SSAD/web2py/gluon/restricted.py'
p3714
sS'dump'
p3715
(dp3716
S'environment'
p3717
S"{'A': <class 'gluon.html.A'>, 'Auth': <class 'gluon.tools.Auth'>, 'B': <class 'gluon.html.B'>, 'BEAUTIFY': <class 'gluon.html.BEAUTIFY'>, 'BODY': <class 'gluon.html.BODY'>, 'BR': <class 'gluon.html.BR'>, 'BUTTON': <class 'gluon.html.BUTTON'>, 'CAT': <class 'gluon.html.CAT'>, 'CENTER': <class 'gluon.html.CENTER'>, 'CLEANUP': <class 'gluon.validators.CLEANUP'>, ...}"
p3718
sS'ccode'
p3719
S'<code object <module> at 0x7fb5182609b0, file "/...plications/ssad2/controllers/default.py", line 3>'
p3720
ssS'lnum'
p3721
I205
sS'lines'
p3722
(dp3723
I200
S'    try:'
p3724
sI201
S'        if type(code) == types.CodeType:'
p3725
sI202
S'            ccode = code'
p3726
sI203
S'        else:'
p3727
sI204
S'            ccode = compile2(code,layer)'
p3728
sI205
S'        exec ccode in environment'
p3729
sI206
S'    except HTTP:'
p3730
sI207
S'        raise'
p3731
sI208
S'    except RestrictedError:'
p3732
sI209
S'        # do not encapsulate (obfuscate) the original RestrictedError'
p3733
ssS'call'
p3734
S"(code='# -*- coding: utf-8 -*-\\n### required - do no del...rn d\\n\\nresponse._vars=response._caller(final_ans)\\n', environment={'A': <class 'gluon.html.A'>, 'Auth': <class 'gluon.tools.Auth'>, 'B': <class 'gluon.html.B'>, 'BEAUTIFY': <class 'gluon.html.BEAUTIFY'>, 'BODY': <class 'gluon.html.BODY'>, 'BR': <class 'gluon.html.BR'>, 'BUTTON': <class 'gluon.html.BUTTON'>, 'CAT': <class 'gluon.html.CAT'>, 'CENTER': <class 'gluon.html.CENTER'>, 'CLEANUP': <class 'gluon.validators.CLEANUP'>, ...}, layer='/home/chitra/courses/SSAD/web2py/applications/ssad2/controllers/default.py')"
p3735
sS'func'
p3736
S'restricted'
p3737
sa(dp3738
g3713
S'/home/chitra/courses/SSAD/web2py/applications/ssad2/controllers/default.py'
p3739
sg3715
(dp3740
sg3721
I137
sg3722
(dp3741
I128
S'    return [key,level,top,auth,cited_by,year]'
p3742
sI129
S'def bold(d):'
p3743
sI130
S'    pre=""'
p3744
sI131
S'    while pre!=d:'
p3745
sI132
S'        pre=d'
p3746
sI133
S'        d=d.replace("<b>","");'
p3747
sI134
S'        d=d.replace("</b>","");'
p3748
sI135
S'    return d'
p3749
sI126
S'        cited_by=inp.cited_by'
p3750
sI127
S'        year=inp.year'
p3751
ssg3734
S'()'
p3752
sg3736
S'<module>'
p3753
sa(dp3754
g3713
S'/home/chitra/courses/SSAD/web2py/gluon/globals.py'
p3755
sg3715
(dp3756
S'self'
p3757
S'undefined'
p3758
sS'f'
S'<function final_ans>'
p3759
ssg3721
I173
sg3722
(dp3760
I168
S'        self.menu = []             # used by the default view layout'
p3761
sI169
S'        self.files = []            # used by web2py_ajax.html'
p3762
sI170
S'        self.generic_patterns = [] # patterns to allow generic views'
p3763
sI171
S"        self.delimiters = ('{{','}}')"
p3764
sI172
S'        self._vars = None'
p3765
sI173
S'        self._caller = lambda f: f()'
p3766
sI174
S'        self._view_environment = None'
p3767
sI175
S'        self._custom_commit = None'
p3768
sI176
S'        self._custom_rollback = None'
p3769
sI177
S''
ssg3734
S'(f=<function final_ans>)'
p3770
sg3736
S'<lambda>'
p3771
sa(dp3772
g3713
S'/home/chitra/courses/SSAD/web2py/applications/ssad2/controllers/default.py'
p3773
sg3715
(dp3774
S'global extract1'
p3775
S'<function extract1>'
p3776
sS'url'
p3777
S"'http://dl.acm.org/results.cfm?h=1&query=operating+systems'"
p3778
sS'l1'
p3779
S"['operating systems', 3, 3, True, True, False]"
p3780
sS'fst_l'
p3781
g3758
ssg3721
I43
sg3722
(dp3782
I38
S''
sI39
S''
sI40
S'def final_ans():'
p3783
sI41
S'    l1=u_filter()'
p3784
sI42
S'    url="http://dl.acm.org/results.cfm?h=1&query="+\'+\'.join(l1[0].split())'
p3785
sI43
S'    fst_l=extract1(url,l1)'
p3786
sI44
S'    #for l in fst_l:'
p3787
sI45
S'     #   listf.append(cite(l))'
p3788
sI46
S'    rec(fst_l,l1,bigans)'
p3789
sI47
S'    global listf'
p3790
ssg3734
S'()'
p3791
sg3736
S'final_ans'
p3792
sa(dp3793
g3713
S'/home/chitra/courses/SSAD/web2py/applications/ssad2/controllers/default.py'
p3794
sg3715
(dp3795
S'url'
p3796
S"'http://dl.acm.org/results.cfm?h=1&query=operating+systems'"
p3797
sS'html'
p3798
g3758
sS'global fetch'
p3799
S'<function fetch>'
p3800
ssg3721
I30
sg3722
(dp3801
I32
S'    del html_splitted[0]'
p3802
sI33
S'    for i in range(0,l1[2]):'
p3803
sI34
S'        k=html_splitted[i].find(\'\\"\')'
p3804
sI25
S"    redirect(URL('final_ans()'))"
p3805
sI26
S'    flag=0'
p3806
sI27
S'    #return dict(ans=ll1[0],l_yr=ll1[1])'
p3807
sI28
S'def extract1(url,l1):'
p3808
sI29
S'    ret=[]'
p3809
sI30
S'    html=fetch(url)'
p3810
sI31
S'    html_splitted=html.split("<A HREF=\\"citation.cfm")'
p3811
ssg3734
S"(url='http://dl.acm.org/results.cfm?h=1&query=operating+systems', l1=['operating systems', 3, 3, True, True, False])"
p3812
sg3736
S'extract1'
p3813
sa(dp3814
g3713
S'/home/chitra/courses/SSAD/web2py/gluon/tools.py'
p3815
sg3715
(dp3816
S'urllib2.urlopen'
p3817
S'<function urlopen>'
p3818
sS'global urllib2'
p3819
S"<module 'urllib2' from '/usr/lib/python2.7/urllib2.pyc'>"
p3820
sS'html'
p3821
g3758
sS'req'
p3822
S'<urllib2.Request instance>'
p3823
sS').read'
p3824
g3758
ssg3721
I3424
sg3722
(dp3825
I3424
S'        html = urllib2.urlopen(req).read()'
p3826
sI3425
S'    else:'
p3827
sI3426
S'        method = ((data is None) and urlfetch.GET) or urlfetch.POST'
p3828
sI3427
S'        while url is not None:'
p3829
sI3428
S'            response = urlfetch.fetch(url=url, payload=data,'
p3830
sI3419
S"    headers['Cookie'] = ' '.join(['%s=%s;'%(c.key,c.value) for c in cookie.values()])"
p3831
sI3420
S'    try:'
p3832
sI3421
S'        from google.appengine.api import urlfetch'
p3833
sI3422
S'    except ImportError:'
p3834
sI3423
S'        req = urllib2.Request(url, data, headers)'
p3835
ssg3734
S"(url='http://dl.acm.org/results.cfm?h=1&query=operating+systems', data=None, headers={'Cookie': '', 'User-agent': 'Mozilla/5.0'}, cookie=<SimpleCookie: >, user_agent='Mozilla/5.0')"
p3836
sg3736
S'fetch'
p3837
sa(dp3838
g3713
S'/usr/lib/python2.7/urllib2.py'
p3839
sg3715
(dp3840
S'_opener.open'
p3841
S'<bound method OpenerDirector.open of <urllib2.OpenerDirector instance>>'
p3842
sS'url'
p3843
S'<urllib2.Request instance>'
p3844
sS'data'
p3845
S'None'
p3846
sS'global _opener'
p3847
S'<urllib2.OpenerDirector instance>'
p3848
sS'timeout'
p3849
S'<object object>'
p3850
ssg3721
I126
sg3722
(dp3851
I128
S'def install_opener(opener):'
p3852
sI129
S'    global _opener'
p3853
sI130
S'    _opener = opener'
p3854
sI121
S'_opener = None'
p3855
sI122
S'def urlopen(url, data=None, timeout=socket._GLOBAL_DEFAULT_TIMEOUT):'
p3856
sI123
S'    global _opener'
p3857
sI124
S'    if _opener is None:'
p3858
sI125
S'        _opener = build_opener()'
p3859
sI126
S'    return _opener.open(url, data, timeout)'
p3860
sI127
S''
ssg3734
S'(url=<urllib2.Request instance>, data=None, timeout=<object object>)'
p3861
sg3736
S'urlopen'
p3862
sa(dp3863
g3713
S'/usr/lib/python2.7/urllib2.py'
p3864
sg3715
(dp3865
S'self'
p3866
S'<urllib2.OpenerDirector instance>'
p3867
sS'req'
p3868
S'<urllib2.Request instance>'
p3869
sS'data'
p3870
S'None'
p3871
sS'response'
p3872
g3758
sS'self._open'
p3873
S'<bound method OpenerDirector._open of <urllib2.OpenerDirector instance>>'
p3874
ssg3721
I400
sg3722
(dp3875
I395
S'        meth_name = protocol+"_request"'
p3876
sI396
S'        for processor in self.process_request.get(protocol, []):'
p3877
sI397
S'            meth = getattr(processor, meth_name)'
p3878
sI398
S'            req = meth(req)'
p3879
sI399
S''
sI400
S'        response = self._open(req, data)'
p3880
sI401
S''
sI402
S'        # post-process response'
p3881
sI403
S'        meth_name = protocol+"_response"'
p3882
sI404
S'        for processor in self.process_response.get(protocol, []):'
p3883
ssg3734
S'(self=<urllib2.OpenerDirector instance>, fullurl=<urllib2.Request instance>, data=None, timeout=<object object>)'
p3884
sg3736
S'open'
p3885
sa(dp3886
g3713
S'/usr/lib/python2.7/urllib2.py'
p3887
sg3715
(dp3888
S'req'
p3889
S'<urllib2.Request instance>'
p3890
ssg3721
I418
sg3722
(dp3891
I416
S'        protocol = req.get_type()'
p3892
sI417
S'        result = self._call_chain(self.handle_open, protocol, protocol +'
p3893
sI418
S"                                  '_open', req)"
p3894
sI419
S'        if result:'
p3895
sI420
S'            return result'
p3896
sI421
S''
sI422
S"        return self._call_chain(self.handle_open, 'unknown',"
p3897
sI413
S'        if result:'
p3898
sI414
S'            return result'
p3899
sI415
S''
ssg3734
S'(self=<urllib2.OpenerDirector instance>, req=<urllib2.Request instance>, data=None)'
p3900
sg3736
S'_open'
p3901
sa(dp3902
g3713
S'/usr/lib/python2.7/urllib2.py'
p3903
sg3715
(dp3904
S'args'
p3905
S'(<urllib2.Request instance>,)'
p3906
sS'result'
p3907
S'None'
p3908
sS'func'
p3909
S'<bound method HTTPHandler.http_open of <urllib2.HTTPHandler instance>>'
p3910
ssg3721
I378
sg3722
(dp3911
I373
S'        # could.  Otherwise, they return the response.'
p3912
sI374
S'        handlers = chain.get(kind, ())'
p3913
sI375
S'        for handler in handlers:'
p3914
sI376
S'            func = getattr(handler, meth_name)'
p3915
sI377
S''
sI378
S'            result = func(*args)'
p3916
sI379
S'            if result is not None:'
p3917
sI380
S'                return result'
p3918
sI381
S''
sI382
S'    def open(self, fullurl, data=None, timeout=socket._GLOBAL_DEFAULT_TIMEOUT):'
p3919
ssg3734
S"(self=<urllib2.OpenerDirector instance>, chain={'all': [<urllib2.ProxyHandler instance>], 'file': [<urllib2.FileHandler instance>], 'ftp': [<urllib2.ProxyHandler instance>, <urllib2.FTPHandler instance>], 'http': [<urllib2.ProxyHandler instance>, <urllib2.HTTPHandler instance>], 'https': [<urllib2.ProxyHandler instance>, <urllib2.HTTPSHandler instance>], 'no': [<urllib2.ProxyHandler instance>], 'socks': [<urllib2.ProxyHandler instance>], 'unknown': [<urllib2.UnknownHandler instance>]}, kind='http', meth_name='http_open', *args=(<urllib2.Request instance>,))"
p3920
sg3736
S'_call_chain'
p3921
sa(dp3922
g3713
S'/usr/lib/python2.7/urllib2.py'
p3923
sg3715
(dp3924
S'self'
p3925
S'<urllib2.HTTPHandler instance>'
p3926
sS'req'
p3927
S'<urllib2.Request instance>'
p3928
sS'global httplib'
p3929
S"<module 'httplib' from '/usr/lib/python2.7/httplib.pyc'>"
p3930
sS'self.do_open'
p3931
S'<bound method HTTPHandler.do_open of <urllib2.HTTPHandler instance>>'
p3932
sS'httplib.HTTPConnection'
p3933
S'<class httplib.HTTPConnection>'
p3934
ssg3721
I1207
sg3722
(dp3935
I1202
S''
sI1203
S''
sI1204
S'class HTTPHandler(AbstractHTTPHandler):'
p3936
sI1205
S''
sI1206
S'    def http_open(self, req):'
p3937
sI1207
S'        return self.do_open(httplib.HTTPConnection, req)'
p3938
sI1208
S''
sI1209
S'    http_request = AbstractHTTPHandler.do_request_'
p3939
sI1210
S''
sI1211
S"if hasattr(httplib, 'HTTPS'):"
p3940
ssg3734
S'(self=<urllib2.HTTPHandler instance>, req=<urllib2.Request instance>)'
p3941
sg3736
S'http_open'
p3942
sa(dp3943
g3713
S'/usr/lib/python2.7/urllib2.py'
p3944
sg3715
(dp3945
S'err'
p3946
S"gaierror(-2, 'Name or service not known')"
p3947
sS'global URLError'
p3948
S"<class 'urllib2.URLError'>"
p3949
ssg3721
I1177
sg3722
(dp3950
I1172
S''
sI1173
S'        try:'
p3951
sI1174
S'            h.request(req.get_method(), req.get_selector(), req.data, headers)'
p3952
sI1175
S'        except socket.error, err: # XXX what error?'
p3953
sI1176
S'            h.close()'
p3954
sI1177
S'            raise URLError(err)'
p3955
sI1178
S'        else:'
p3956
sI1179
S'            try:'
p3957
sI1180
S'                r = h.getresponse(buffering=True)'
p3958
sI1181
S'            except TypeError: # buffering kw not supported'
p3959
ssg3734
S'(self=<urllib2.HTTPHandler instance>, http_class=<class httplib.HTTPConnection>, req=<urllib2.Request instance>)'
p3960
sg3736
S'do_open'
p3961
sasS'pyver'
p3962
S'Python 2.7.3: /usr/bin/python'
p3963
sS'session'
p3964
g69
(g70
g71
NtRp3965
(dp3966
g74
(dp3967
sg76
(lp3968
g69
(g78
g71
NtRp3969
(dp3970
g74
(dp3971
g82
I5
ssg83
Nsg76
(lp3972
sbasbsS'etype'
p3973
S"<class 'urllib2.URLError'>"
p3974
sS'date'
p3975
S'Mon Oct 15 01:33:53 2012'
p3976
sS'response'
p3977
g69
(g70
g71
NtRp3978
(dp3979
g74
(dp3980
sg76
(lp3981
g69
(g78
g71
NtRp3982
(dp3983
g74
(dp3984
g82
I5
ssg83
Nsg76
(lp3985
g69
(g85
g71
NtRp3986
(dp3987
g74
(dp3988
sg83
g3982
sg76
(lp3989
g69
(g90
g71
NtRp3990
(dp3991
g74
(dp3992
g94
g95
ssg83
g3986
sg76
(lp3993
g167
asbag69
(g90
g71
NtRp3994
(dp3995
g74
(dp3996
g101
g102
ssg83
g3986
sg76
(lp3997
S':'
asbag69
(g90
g71
NtRp3998
(dp3999
g74
(dp4000
sg83
g3986
sg76
(lp4001
g69
(g70
g71
NtRp4002
(dp4003
g74
(dp4004
g82
I5
ssg83
g3998
sg76
(lp4005
S'<cStringIO.StringO object at 0x7fb5201e3bc8>'
p4006
asbasbasbag69
(g85
g71
NtRp4007
(dp4008
g74
(dp4009
sg83
g3982
sg76
(lp4010
g69
(g90
g71
NtRp4011
(dp4012
g74
(dp4013
g94
g95
ssg83
g4007
sg76
(lp4014
g233
asbag69
(g90
g71
NtRp4015
(dp4016
g74
(dp4017
g101
g102
ssg83
g4007
sg76
(lp4018
S':'
asbag69
(g90
g71
NtRp4019
(dp4020
g74
(dp4021
sg83
g4007
sg76
(lp4022
g69
(g70
g71
NtRp4023
(dp4024
g74
(dp4025
g82
I5
ssg83
g4019
sg76
(lp4026
g69
(g78
g71
NtRp4027
(dp4028
g74
(dp4029
g82
I4
ssg83
Nsg76
(lp4030
g69
(g85
g71
NtRp4031
(dp4032
g74
(dp4033
sg83
g4027
sg76
(lp4034
g69
(g90
g71
NtRp4035
(dp4036
g74
(dp4037
g94
g95
ssg83
g4031
sg76
(lp4038
S'session_id_ssad2'
p4039
asbag69
(g90
g71
NtRp4040
(dp4041
g74
(dp4042
g101
g102
ssg83
g4031
sg76
(lp4043
S':'
asbag69
(g90
g71
NtRp4044
(dp4045
g74
(dp4046
sg83
g4031
sg76
(lp4047
g69
(g70
g71
NtRp4048
(dp4049
g74
(dp4050
g82
I4
ssg83
g4044
sg76
(lp4051
g69
(g78
g71
NtRp4052
(dp4053
g74
(dp4054
g82
I3
ssg83
Nsg76
(lp4055
g69
(g85
g71
NtRp4056
(dp4057
g74
(dp4058
sg83
g4052
sg76
(lp4059
g69
(g90
g71
NtRp4060
(dp4061
g74
(dp4062
g94
g95
ssg83
g4056
sg76
(lp4063
g283
asbag69
(g90
g71
NtRp4064
(dp4065
g74
(dp4066
g101
g102
ssg83
g4056
sg76
(lp4067
S':'
asbag69
(g90
g71
NtRp4068
(dp4069
g74
(dp4070
sg83
g4056
sg76
(lp4071
g69
(g70
g71
NtRp4072
(dp4073
g74
(dp4074
g82
I3
ssg83
g4068
sg76
(lp4075
S''
asbasbasbag69
(g85
g71
NtRp4076
(dp4077
g74
(dp4078
sg83
g4052
sg76
(lp4079
g69
(g90
g71
NtRp4080
(dp4081
g74
(dp4082
g94
g95
ssg83
g4076
sg76
(lp4083
g304
asbag69
(g90
g71
NtRp4084
(dp4085
g74
(dp4086
g101
g102
ssg83
g4076
sg76
(lp4087
S':'
asbag69
(g90
g71
NtRp4088
(dp4089
g74
(dp4090
sg83
g4076
sg76
(lp4091
g69
(g70
g71
NtRp4092
(dp4093
g74
(dp4094
g82
I3
ssg83
g4088
sg76
(lp4095
S''
asbasbasbag69
(g85
g71
NtRp4096
(dp4097
g74
(dp4098
sg83
g4052
sg76
(lp4099
g69
(g90
g71
NtRp4100
(dp4101
g74
(dp4102
g94
g95
ssg83
g4096
sg76
(lp4103
g325
asbag69
(g90
g71
NtRp4104
(dp4105
g74
(dp4106
g101
g102
ssg83
g4096
sg76
(lp4107
S':'
asbag69
(g90
g71
NtRp4108
(dp4109
g74
(dp4110
sg83
g4096
sg76
(lp4111
g69
(g70
g71
NtRp4112
(dp4113
g74
(dp4114
g82
I3
ssg83
g4108
sg76
(lp4115
S''
asbasbasbag69
(g85
g71
NtRp4116
(dp4117
g74
(dp4118
sg83
g4052
sg76
(lp4119
g69
(g90
g71
NtRp4120
(dp4121
g74
(dp4122
g94
g95
ssg83
g4116
sg76
(lp4123
g346
asbag69
(g90
g71
NtRp4124
(dp4125
g74
(dp4126
g101
g102
ssg83
g4116
sg76
(lp4127
S':'
asbag69
(g90
g71
NtRp4128
(dp4129
g74
(dp4130
sg83
g4116
sg76
(lp4131
g69
(g70
g71
NtRp4132
(dp4133
g74
(dp4134
g82
I3
ssg83
g4128
sg76
(lp4135
S''
asbasbasbag69
(g85
g71
NtRp4136
(dp4137
g74
(dp4138
sg83
g4052
sg76
(lp4139
g69
(g90
g71
NtRp4140
(dp4141
g74
(dp4142
g94
g95
ssg83
g4136
sg76
(lp4143
g367
asbag69
(g90
g71
NtRp4144
(dp4145
g74
(dp4146
g101
g102
ssg83
g4136
sg76
(lp4147
S':'
asbag69
(g90
g71
NtRp4148
(dp4149
g74
(dp4150
sg83
g4136
sg76
(lp4151
g69
(g70
g71
NtRp4152
(dp4153
g74
(dp4154
g82
I3
ssg83
g4148
sg76
(lp4155
S''
asbasbasbag69
(g85
g71
NtRp4156
(dp4157
g74
(dp4158
sg83
g4052
sg76
(lp4159
g69
(g90
g71
NtRp4160
(dp4161
g74
(dp4162
g94
g95
ssg83
g4156
sg76
(lp4163
g388
asbag69
(g90
g71
NtRp4164
(dp4165
g74
(dp4166
g101
g102
ssg83
g4156
sg76
(lp4167
S':'
asbag69
(g90
g71
NtRp4168
(dp4169
g74
(dp4170
sg83
g4156
sg76
(lp4171
g69
(g70
g71
NtRp4172
(dp4173
g74
(dp4174
g82
I3
ssg83
g4168
sg76
(lp4175
S'/'
asbasbasbag69
(g85
g71
NtRp4176
(dp4177
g74
(dp4178
sg83
g4052
sg76
(lp4179
g69
(g90
g71
NtRp4180
(dp4181
g74
(dp4182
g94
g95
ssg83
g4176
sg76
(lp4183
g409
asbag69
(g90
g71
NtRp4184
(dp4185
g74
(dp4186
g101
g102
ssg83
g4176
sg76
(lp4187
S':'
asbag69
(g90
g71
NtRp4188
(dp4189
g74
(dp4190
sg83
g4176
sg76
(lp4191
g69
(g70
g71
NtRp4192
(dp4193
g74
(dp4194
g82
I3
ssg83
g4188
sg76
(lp4195
S''
asbasbasbag69
(g85
g71
NtRp4196
(dp4197
g74
(dp4198
sg83
g4052
sg76
(lp4199
g69
(g90
g71
NtRp4200
(dp4201
g74
(dp4202
g94
g95
ssg83
g4196
sg76
(lp4203
g430
asbag69
(g90
g71
NtRp4204
(dp4205
g74
(dp4206
g101
g102
ssg83
g4196
sg76
(lp4207
S':'
asbag69
(g90
g71
NtRp4208
(dp4209
g74
(dp4210
sg83
g4196
sg76
(lp4211
g69
(g70
g71
NtRp4212
(dp4213
g74
(dp4214
g82
I3
ssg83
g4208
sg76
(lp4215
S''
asbasbasbasbasbasbasbasbasbasbasbag69
(g85
g71
NtRp4216
(dp4217
g74
(dp4218
sg83
g3982
sg76
(lp4219
g69
(g90
g71
NtRp4220
(dp4221
g74
(dp4222
g94
g95
ssg83
g4216
sg76
(lp4223
S'delimiters'
p4224
asbag69
(g90
g71
NtRp4225
(dp4226
g74
(dp4227
g101
g102
ssg83
g4216
sg76
(lp4228
S':'
asbag69
(g90
g71
NtRp4229
(dp4230
g74
(dp4231
sg83
g4216
sg76
(lp4232
g69
(g70
g71
NtRp4233
(dp4234
g74
(dp4235
g82
I5
ssg83
g4229
sg76
(lp4236
g69
(g78
g71
NtRp4237
(dp4238
g74
(dp4239
g82
I4
ssg83
Nsg76
(lp4240
g69
(g85
g71
NtRp4241
(dp4242
g74
(dp4243
sg83
g4237
sg76
(lp4244
g69
(g90
g71
NtRp4245
(dp4246
g74
(dp4247
sg83
g4241
sg76
(lp4248
g69
(g70
g71
NtRp4249
(dp4250
g74
(dp4251
g82
I4
ssg83
g4245
sg76
(lp4252
S'{{'
p4253
asbasbasbag69
(g85
g71
NtRp4254
(dp4255
g74
(dp4256
sg83
g4237
sg76
(lp4257
g69
(g90
g71
NtRp4258
(dp4259
g74
(dp4260
sg83
g4254
sg76
(lp4261
g69
(g70
g71
NtRp4262
(dp4263
g74
(dp4264
g82
I4
ssg83
g4258
sg76
(lp4265
S'}}'
p4266
asbasbasbasbasbasbasbag69
(g85
g71
NtRp4267
(dp4268
g74
(dp4269
sg83
g3982
sg76
(lp4270
g69
(g90
g71
NtRp4271
(dp4272
g74
(dp4273
g94
g95
ssg83
g4267
sg76
(lp4274
S'files'
p4275
asbag69
(g90
g71
NtRp4276
(dp4277
g74
(dp4278
g101
g102
ssg83
g4267
sg76
(lp4279
S':'
asbag69
(g90
g71
NtRp4280
(dp4281
g74
(dp4282
sg83
g4267
sg76
(lp4283
g69
(g70
g71
NtRp4284
(dp4285
g74
(dp4286
g82
I5
ssg83
g4280
sg76
(lp4287
g69
(g78
g71
NtRp4288
(dp4289
g74
(dp4290
g82
I4
ssg83
Nsg76
(lp4291
sbasbasbasbag69
(g85
g71
NtRp4292
(dp4293
g74
(dp4294
sg83
g3982
sg76
(lp4295
g69
(g90
g71
NtRp4296
(dp4297
g74
(dp4298
g94
g95
ssg83
g4292
sg76
(lp4299
S'flash'
p4300
asbag69
(g90
g71
NtRp4301
(dp4302
g74
(dp4303
g101
g102
ssg83
g4292
sg76
(lp4304
S':'
asbag69
(g90
g71
NtRp4305
(dp4306
g74
(dp4307
sg83
g4292
sg76
(lp4308
g69
(g70
g71
NtRp4309
(dp4310
g74
(dp4311
g82
I5
ssg83
g4305
sg76
(lp4312
S''
asbasbasbag69
(g85
g71
NtRp4313
(dp4314
g74
(dp4315
sg83
g3982
sg76
(lp4316
g69
(g90
g71
NtRp4317
(dp4318
g74
(dp4319
g94
g95
ssg83
g4313
sg76
(lp4320
S'generic_patterns'
p4321
asbag69
(g90
g71
NtRp4322
(dp4323
g74
(dp4324
g101
g102
ssg83
g4313
sg76
(lp4325
S':'
asbag69
(g90
g71
NtRp4326
(dp4327
g74
(dp4328
sg83
g4313
sg76
(lp4329
g69
(g70
g71
NtRp4330
(dp4331
g74
(dp4332
g82
I5
ssg83
g4326
sg76
(lp4333
g69
(g78
g71
NtRp4334
(dp4335
g74
(dp4336
g82
I4
ssg83
Nsg76
(lp4337
g69
(g85
g71
NtRp4338
(dp4339
g74
(dp4340
sg83
g4334
sg76
(lp4341
g69
(g90
g71
NtRp4342
(dp4343
g74
(dp4344
sg83
g4338
sg76
(lp4345
g69
(g70
g71
NtRp4346
(dp4347
g74
(dp4348
g82
I4
ssg83
g4342
sg76
(lp4349
S'*'
asbasbasbasbasbasbasbag69
(g85
g71
NtRp4350
(dp4351
g74
(dp4352
sg83
g3982
sg76
(lp4353
g69
(g90
g71
NtRp4354
(dp4355
g74
(dp4356
g94
g95
ssg83
g4350
sg76
(lp4357
S'headers'
p4358
asbag69
(g90
g71
NtRp4359
(dp4360
g74
(dp4361
g101
g102
ssg83
g4350
sg76
(lp4362
S':'
asbag69
(g90
g71
NtRp4363
(dp4364
g74
(dp4365
sg83
g4350
sg76
(lp4366
g69
(g70
g71
NtRp4367
(dp4368
g74
(dp4369
g82
I5
ssg83
g4363
sg76
(lp4370
g69
(g78
g71
NtRp4371
(dp4372
g74
(dp4373
g82
I4
ssg83
Nsg76
(lp4374
g69
(g85
g71
NtRp4375
(dp4376
g74
(dp4377
sg83
g4371
sg76
(lp4378
g69
(g90
g71
NtRp4379
(dp4380
g74
(dp4381
g94
g95
ssg83
g4375
sg76
(lp4382
S'Cache-Control'
p4383
asbag69
(g90
g71
NtRp4384
(dp4385
g74
(dp4386
g101
g102
ssg83
g4375
sg76
(lp4387
S':'
asbag69
(g90
g71
NtRp4388
(dp4389
g74
(dp4390
sg83
g4375
sg76
(lp4391
g69
(g70
g71
NtRp4392
(dp4393
g74
(dp4394
g82
I4
ssg83
g4388
sg76
(lp4395
S'no-store, no-cache, must-revalidate, post-check=0, pre-check=0'
p4396
asbasbasbag69
(g85
g71
NtRp4397
(dp4398
g74
(dp4399
sg83
g4371
sg76
(lp4400
g69
(g90
g71
NtRp4401
(dp4402
g74
(dp4403
g94
g95
ssg83
g4397
sg76
(lp4404
S'Content-Type'
p4405
asbag69
(g90
g71
NtRp4406
(dp4407
g74
(dp4408
g101
g102
ssg83
g4397
sg76
(lp4409
S':'
asbag69
(g90
g71
NtRp4410
(dp4411
g74
(dp4412
sg83
g4397
sg76
(lp4413
g69
(g70
g71
NtRp4414
(dp4415
g74
(dp4416
g82
I4
ssg83
g4410
sg76
(lp4417
S'text/html; charset=utf-8'
p4418
asbasbasbag69
(g85
g71
NtRp4419
(dp4420
g74
(dp4421
sg83
g4371
sg76
(lp4422
g69
(g90
g71
NtRp4423
(dp4424
g74
(dp4425
g94
g95
ssg83
g4419
sg76
(lp4426
S'Expires'
p4427
asbag69
(g90
g71
NtRp4428
(dp4429
g74
(dp4430
g101
g102
ssg83
g4419
sg76
(lp4431
S':'
asbag69
(g90
g71
NtRp4432
(dp4433
g74
(dp4434
sg83
g4419
sg76
(lp4435
g69
(g70
g71
NtRp4436
(dp4437
g74
(dp4438
g82
I4
ssg83
g4432
sg76
(lp4439
S'Sun, 14 Oct 2012 20:03:52 GMT'
p4440
asbasbasbag69
(g85
g71
NtRp4441
(dp4442
g74
(dp4443
sg83
g4371
sg76
(lp4444
g69
(g90
g71
NtRp4445
(dp4446
g74
(dp4447
g94
g95
ssg83
g4441
sg76
(lp4448
S'Pragma'
p4449
asbag69
(g90
g71
NtRp4450
(dp4451
g74
(dp4452
g101
g102
ssg83
g4441
sg76
(lp4453
S':'
asbag69
(g90
g71
NtRp4454
(dp4455
g74
(dp4456
sg83
g4441
sg76
(lp4457
g69
(g70
g71
NtRp4458
(dp4459
g74
(dp4460
g82
I4
ssg83
g4454
sg76
(lp4461
S'no-cache'
p4462
asbasbasbag69
(g85
g71
NtRp4463
(dp4464
g74
(dp4465
sg83
g4371
sg76
(lp4466
g69
(g90
g71
NtRp4467
(dp4468
g74
(dp4469
g94
g95
ssg83
g4463
sg76
(lp4470
S'X-Powered-By'
p4471
asbag69
(g90
g71
NtRp4472
(dp4473
g74
(dp4474
g101
g102
ssg83
g4463
sg76
(lp4475
S':'
asbag69
(g90
g71
NtRp4476
(dp4477
g74
(dp4478
sg83
g4463
sg76
(lp4479
g69
(g70
g71
NtRp4480
(dp4481
g74
(dp4482
g82
I4
ssg83
g4476
sg76
(lp4483
S'web2py'
p4484
asbasbasbasbasbasbasbag69
(g85
g71
NtRp4485
(dp4486
g74
(dp4487
sg83
g3982
sg76
(lp4488
g69
(g90
g71
NtRp4489
(dp4490
g74
(dp4491
g94
g95
ssg83
g4485
sg76
(lp4492
S'menu'
p4493
asbag69
(g90
g71
NtRp4494
(dp4495
g74
(dp4496
g101
g102
ssg83
g4485
sg76
(lp4497
S':'
asbag69
(g90
g71
NtRp4498
(dp4499
g74
(dp4500
sg83
g4485
sg76
(lp4501
g69
(g70
g71
NtRp4502
(dp4503
g74
(dp4504
g82
I5
ssg83
g4498
sg76
(lp4505
g69
(g78
g71
NtRp4506
(dp4507
g74
(dp4508
g82
I4
ssg83
Nsg76
(lp4509
g69
(g85
g71
NtRp4510
(dp4511
g74
(dp4512
sg83
g4506
sg76
(lp4513
g69
(g90
g71
NtRp4514
(dp4515
g74
(dp4516
sg83
g4510
sg76
(lp4517
g69
(g70
g71
NtRp4518
(dp4519
g74
(dp4520
g82
I4
ssg83
g4514
sg76
(lp4521
g69
(g78
g71
NtRp4522
(dp4523
g74
(dp4524
g82
I3
ssg83
Nsg76
(lp4525
g69
(g85
g71
NtRp4526
(dp4527
g74
(dp4528
sg83
g4522
sg76
(lp4529
g69
(g90
g71
NtRp4530
(dp4531
g74
(dp4532
sg83
g4526
sg76
(lp4533
g69
(g70
g71
NtRp4534
(dp4535
g74
(dp4536
g82
I3
ssg83
g4530
sg76
(lp4537
cgluon.languages
lazyT_unpickle
p4538
(S't\x05\x00\x00\x00Index'
tRp4539
asbasbasbag69
(g85
g71
NtRp4540
(dp4541
g74
(dp4542
sg83
g4522
sg76
(lp4543
g69
(g90
g71
NtRp4544
(dp4545
g74
(dp4546
sg83
g4540
sg76
(lp4547
g69
(g70
g71
NtRp4548
(dp4549
g74
(dp4550
g82
I3
ssg83
g4544
sg76
(lp4551
g112
asbasbasbag69
(g85
g71
NtRp4552
(dp4553
g74
(dp4554
sg83
g4522
sg76
(lp4555
g69
(g90
g71
NtRp4556
(dp4557
g74
(dp4558
sg83
g4552
sg76
(lp4559
g69
(g70
g71
NtRp4560
(dp4561
g74
(dp4562
g82
I3
ssg83
g4556
sg76
(lp4563
S'/ssad2/default/index'
p4564
asbasbasbag69
(g85
g71
NtRp4565
(dp4566
g74
(dp4567
sg83
g4522
sg76
(lp4568
g69
(g90
g71
NtRp4569
(dp4570
g74
(dp4571
sg83
g4565
sg76
(lp4572
g69
(g70
g71
NtRp4573
(dp4574
g74
(dp4575
g82
I3
ssg83
g4569
sg76
(lp4576
g69
(g78
g71
NtRp4577
(dp4578
g74
(dp4579
g82
I2
ssg83
Nsg76
(lp4580
sbasbasbasbasbasbasbasbasbasbasbasbag69
(g85
g71
NtRp4581
(dp4582
g74
(dp4583
sg83
g3982
sg76
(lp4584
g69
(g90
g71
NtRp4585
(dp4586
g74
(dp4587
g94
g95
ssg83
g4581
sg76
(lp4588
S'meta'
p4589
asbag69
(g90
g71
NtRp4590
(dp4591
g74
(dp4592
g101
g102
ssg83
g4581
sg76
(lp4593
S':'
asbag69
(g90
g71
NtRp4594
(dp4595
g74
(dp4596
sg83
g4581
sg76
(lp4597
g69
(g70
g71
NtRp4598
(dp4599
g74
(dp4600
g82
I5
ssg83
g4594
sg76
(lp4601
g69
(g78
g71
NtRp4602
(dp4603
g74
(dp4604
g82
I4
ssg83
Nsg76
(lp4605
g69
(g85
g71
NtRp4606
(dp4607
g74
(dp4608
sg83
g4602
sg76
(lp4609
g69
(g90
g71
NtRp4610
(dp4611
g74
(dp4612
g94
g95
ssg83
g4606
sg76
(lp4613
S'author'
p4614
asbag69
(g90
g71
NtRp4615
(dp4616
g74
(dp4617
g101
g102
ssg83
g4606
sg76
(lp4618
S':'
asbag69
(g90
g71
NtRp4619
(dp4620
g74
(dp4621
sg83
g4606
sg76
(lp4622
g69
(g70
g71
NtRp4623
(dp4624
g74
(dp4625
g82
I4
ssg83
g4619
sg76
(lp4626
S'you <you@example.com>'
p4627
asbasbasbag69
(g85
g71
NtRp4628
(dp4629
g74
(dp4630
sg83
g4602
sg76
(lp4631
g69
(g90
g71
NtRp4632
(dp4633
g74
(dp4634
g94
g95
ssg83
g4628
sg76
(lp4635
S'description'
p4636
asbag69
(g90
g71
NtRp4637
(dp4638
g74
(dp4639
g101
g102
ssg83
g4628
sg76
(lp4640
S':'
asbag69
(g90
g71
NtRp4641
(dp4642
g74
(dp4643
sg83
g4628
sg76
(lp4644
g69
(g70
g71
NtRp4645
(dp4646
g74
(dp4647
g82
I4
ssg83
g4641
sg76
(lp4648
S''
asbasbasbag69
(g85
g71
NtRp4649
(dp4650
g74
(dp4651
sg83
g4602
sg76
(lp4652
g69
(g90
g71
NtRp4653
(dp4654
g74
(dp4655
g94
g95
ssg83
g4649
sg76
(lp4656
S'keywords'
p4657
asbag69
(g90
g71
NtRp4658
(dp4659
g74
(dp4660
g101
g102
ssg83
g4649
sg76
(lp4661
S':'
asbag69
(g90
g71
NtRp4662
(dp4663
g74
(dp4664
sg83
g4649
sg76
(lp4665
g69
(g70
g71
NtRp4666
(dp4667
g74
(dp4668
g82
I4
ssg83
g4662
sg76
(lp4669
S''
asbasbasbasbasbasbasbag69
(g85
g71
NtRp4670
(dp4671
g74
(dp4672
sg83
g3982
sg76
(lp4673
g69
(g90
g71
NtRp4674
(dp4675
g74
(dp4676
g94
g95
ssg83
g4670
sg76
(lp4677
S'postprocessing'
p4678
asbag69
(g90
g71
NtRp4679
(dp4680
g74
(dp4681
g101
g102
ssg83
g4670
sg76
(lp4682
S':'
asbag69
(g90
g71
NtRp4683
(dp4684
g74
(dp4685
sg83
g4670
sg76
(lp4686
g69
(g70
g71
NtRp4687
(dp4688
g74
(dp4689
g82
I5
ssg83
g4683
sg76
(lp4690
g69
(g78
g71
NtRp4691
(dp4692
g74
(dp4693
g82
I4
ssg83
Nsg76
(lp4694
sbasbasbasbag69
(g85
g71
NtRp4695
(dp4696
g74
(dp4697
sg83
g3982
sg76
(lp4698
g69
(g90
g71
NtRp4699
(dp4700
g74
(dp4701
g94
g95
ssg83
g4695
sg76
(lp4702
S'session_file'
p4703
asbag69
(g90
g71
NtRp4704
(dp4705
g74
(dp4706
g101
g102
ssg83
g4695
sg76
(lp4707
S':'
asbag69
(g90
g71
NtRp4708
(dp4709
g74
(dp4710
sg83
g4695
sg76
(lp4711
g69
(g70
g71
NtRp4712
(dp4713
g74
(dp4714
g82
I5
ssg83
g4708
sg76
(lp4715
S"<open file '/home/chitra/courses/SSAD/web2py/applications/ssad2/sessions/127.0.0.1-11b94260-bd18-44ca-b985-33abd8c086ea', mode 'rb+' at 0x7fb530192660>"
p4716
asbasbasbag69
(g85
g71
NtRp4717
(dp4718
g74
(dp4719
sg83
g3982
sg76
(lp4720
g69
(g90
g71
NtRp4721
(dp4722
g74
(dp4723
g94
g95
ssg83
g4717
sg76
(lp4724
S'session_filename'
p4725
asbag69
(g90
g71
NtRp4726
(dp4727
g74
(dp4728
g101
g102
ssg83
g4717
sg76
(lp4729
S':'
asbag69
(g90
g71
NtRp4730
(dp4731
g74
(dp4732
sg83
g4717
sg76
(lp4733
g69
(g70
g71
NtRp4734
(dp4735
g74
(dp4736
g82
I5
ssg83
g4730
sg76
(lp4737
S'/home/chitra/courses/SSAD/web2py/applications/ssad2/sessions/127.0.0.1-11b94260-bd18-44ca-b985-33abd8c086ea'
p4738
asbasbasbag69
(g85
g71
NtRp4739
(dp4740
g74
(dp4741
sg83
g3982
sg76
(lp4742
g69
(g90
g71
NtRp4743
(dp4744
g74
(dp4745
g94
g95
ssg83
g4739
sg76
(lp4746
S'session_id'
p4747
asbag69
(g90
g71
NtRp4748
(dp4749
g74
(dp4750
g101
g102
ssg83
g4739
sg76
(lp4751
S':'
asbag69
(g90
g71
NtRp4752
(dp4753
g74
(dp4754
sg83
g4739
sg76
(lp4755
g69
(g70
g71
NtRp4756
(dp4757
g74
(dp4758
g82
I5
ssg83
g4752
sg76
(lp4759
S'127.0.0.1-11b94260-bd18-44ca-b985-33abd8c086ea'
p4760
asbasbasbag69
(g85
g71
NtRp4761
(dp4762
g74
(dp4763
sg83
g3982
sg76
(lp4764
g69
(g90
g71
NtRp4765
(dp4766
g74
(dp4767
g94
g95
ssg83
g4761
sg76
(lp4768
S'session_id_name'
p4769
asbag69
(g90
g71
NtRp4770
(dp4771
g74
(dp4772
g101
g102
ssg83
g4761
sg76
(lp4773
S':'
asbag69
(g90
g71
NtRp4774
(dp4775
g74
(dp4776
sg83
g4761
sg76
(lp4777
g69
(g70
g71
NtRp4778
(dp4779
g74
(dp4780
g82
I5
ssg83
g4774
sg76
(lp4781
g4039
asbasbasbag69
(g85
g71
NtRp4782
(dp4783
g74
(dp4784
sg83
g3982
sg76
(lp4785
g69
(g90
g71
NtRp4786
(dp4787
g74
(dp4788
g94
g95
ssg83
g4782
sg76
(lp4789
S'session_locked'
p4790
asbag69
(g90
g71
NtRp4791
(dp4792
g74
(dp4793
g101
g102
ssg83
g4782
sg76
(lp4794
S':'
asbag69
(g90
g71
NtRp4795
(dp4796
g74
(dp4797
sg83
g4782
sg76
(lp4798
g69
(g70
g71
NtRp4799
(dp4800
g74
(dp4801
g82
I5
ssg83
g4795
sg76
(lp4802
g2408
asbasbasbag69
(g85
g71
NtRp4803
(dp4804
g74
(dp4805
sg83
g3982
sg76
(lp4806
g69
(g90
g71
NtRp4807
(dp4808
g74
(dp4809
g94
g95
ssg83
g4803
sg76
(lp4810
S'session_new'
p4811
asbag69
(g90
g71
NtRp4812
(dp4813
g74
(dp4814
g101
g102
ssg83
g4803
sg76
(lp4815
S':'
asbag69
(g90
g71
NtRp4816
(dp4817
g74
(dp4818
sg83
g4803
sg76
(lp4819
g69
(g70
g71
NtRp4820
(dp4821
g74
(dp4822
g82
I5
ssg83
g4816
sg76
(lp4823
g112
asbasbasbag69
(g85
g71
NtRp4824
(dp4825
g74
(dp4826
sg83
g3982
sg76
(lp4827
g69
(g90
g71
NtRp4828
(dp4829
g74
(dp4830
g94
g95
ssg83
g4824
sg76
(lp4831
S'status'
p4832
asbag69
(g90
g71
NtRp4833
(dp4834
g74
(dp4835
g101
g102
ssg83
g4824
sg76
(lp4836
S':'
asbag69
(g90
g71
NtRp4837
(dp4838
g74
(dp4839
sg83
g4824
sg76
(lp4840
g69
(g70
g71
NtRp4841
(dp4842
g74
(dp4843
g82
I5
ssg83
g4837
sg76
(lp4844
S'200'
p4845
asbasbasbag69
(g85
g71
NtRp4846
(dp4847
g74
(dp4848
sg83
g3982
sg76
(lp4849
g69
(g90
g71
NtRp4850
(dp4851
g74
(dp4852
g94
g95
ssg83
g4846
sg76
(lp4853
S'subtitle'
p4854
asbag69
(g90
g71
NtRp4855
(dp4856
g74
(dp4857
g101
g102
ssg83
g4846
sg76
(lp4858
S':'
asbag69
(g90
g71
NtRp4859
(dp4860
g74
(dp4861
sg83
g4846
sg76
(lp4862
g69
(g70
g71
NtRp4863
(dp4864
g74
(dp4865
g82
I5
ssg83
g4859
sg76
(lp4866
S'powered by web2py'
p4867
asbasbasbag69
(g85
g71
NtRp4868
(dp4869
g74
(dp4870
sg83
g3982
sg76
(lp4871
g69
(g90
g71
NtRp4872
(dp4873
g74
(dp4874
g94
g95
ssg83
g4868
sg76
(lp4875
S'title'
p4876
asbag69
(g90
g71
NtRp4877
(dp4878
g74
(dp4879
g101
g102
ssg83
g4868
sg76
(lp4880
S':'
asbag69
(g90
g71
NtRp4881
(dp4882
g74
(dp4883
sg83
g4868
sg76
(lp4884
g69
(g70
g71
NtRp4885
(dp4886
g74
(dp4887
g82
I5
ssg83
g4881
sg76
(lp4888
S'My New App'
p4889
asbasbasbag69
(g85
g71
NtRp4890
(dp4891
g74
(dp4892
sg83
g3982
sg76
(lp4893
g69
(g90
g71
NtRp4894
(dp4895
g74
(dp4896
g94
g95
ssg83
g4890
sg76
(lp4897
g3072
asbag69
(g90
g71
NtRp4898
(dp4899
g74
(dp4900
g101
g102
ssg83
g4890
sg76
(lp4901
S':'
asbag69
(g90
g71
NtRp4902
(dp4903
g74
(dp4904
sg83
g4890
sg76
(lp4905
g69
(g70
g71
NtRp4906
(dp4907
g74
(dp4908
g82
I5
ssg83
g4902
sg76
(lp4909
g3085
asbasbasbag69
(g85
g71
NtRp4910
(dp4911
g74
(dp4912
sg83
g3982
sg76
(lp4913
g69
(g90
g71
NtRp4914
(dp4915
g74
(dp4916
g94
g95
ssg83
g4910
sg76
(lp4917
S'view'
p4918
asbag69
(g90
g71
NtRp4919
(dp4920
g74
(dp4921
g101
g102
ssg83
g4910
sg76
(lp4922
S':'
asbag69
(g90
g71
NtRp4923
(dp4924
g74
(dp4925
sg83
g4910
sg76
(lp4926
g69
(g70
g71
NtRp4927
(dp4928
g74
(dp4929
g82
I5
ssg83
g4923
sg76
(lp4930
S'default/final_ans.html'
p4931
asbasbasbasbasbsS'locals'
p4932
(dp4933
S'err'
p4934
S"gaierror(-2, 'Name or service not known')"
p4935
sS'h'
S'<httplib.HTTPConnection instance>'
p4936
sS'self'
p4937
S'<urllib2.HTTPHandler instance>'
p4938
sS'req'
p4939
S'<urllib2.Request instance>'
p4940
sg4358
S"{'Connection': 'close', 'Cookie': '', 'Host': 'dl.acm.org', 'User-Agent': 'Mozilla/5.0'}"
p4941
sS'host'
p4942
S"'proxy.iiit.ac.in:8080'"
p4943
sS'http_class'
p4944
S'<class httplib.HTTPConnection>'
p4945
sssS'traceback'
p4946
S'Traceback (most recent call last):\n  File "/home/chitra/courses/SSAD/web2py/gluon/restricted.py", line 205, in restricted\n    exec ccode in environment\n  File "/home/chitra/courses/SSAD/web2py/applications/ssad2/controllers/default.py", line 137, in <module>\n  File "/home/chitra/courses/SSAD/web2py/gluon/globals.py", line 173, in <lambda>\n    self._caller = lambda f: f()\n  File "/home/chitra/courses/SSAD/web2py/applications/ssad2/controllers/default.py", line 43, in final_ans\n    fst_l=extract1(url,l1)\n  File "/home/chitra/courses/SSAD/web2py/applications/ssad2/controllers/default.py", line 30, in extract1\n    html=fetch(url)\n  File "/home/chitra/courses/SSAD/web2py/gluon/tools.py", line 3424, in fetch\n    html = urllib2.urlopen(req).read()\n  File "/usr/lib/python2.7/urllib2.py", line 126, in urlopen\n    return _opener.open(url, data, timeout)\n  File "/usr/lib/python2.7/urllib2.py", line 400, in open\n    response = self._open(req, data)\n  File "/usr/lib/python2.7/urllib2.py", line 418, in _open\n    \'_open\', req)\n  File "/usr/lib/python2.7/urllib2.py", line 378, in _call_chain\n    result = func(*args)\n  File "/usr/lib/python2.7/urllib2.py", line 1207, in http_open\n    return self.do_open(httplib.HTTPConnection, req)\n  File "/usr/lib/python2.7/urllib2.py", line 1177, in do_open\n    raise URLError(err)\nURLError: <urlopen error [Errno -2] Name or service not known>\n'
p4947
s.