(dp1
S'author'
p2
(dp3
S'type'
p4
S'boolean'
p5
sS'sortable'
p6
I5
sS'sql'
p7
S'CHAR(1)'
p8
ssS'top'
p9
(dp10
g4
S'integer'
p11
sg6
I4
sg7
S'INTEGER'
p12
ssS'level'
p13
(dp14
g4
g11
sg6
I3
sg7
S'INTEGER'
p15
ssS'cited_by'
p16
(dp17
g4
g5
sg6
I6
sg7
S'CHAR(1)'
p18
ssS'year'
p19
(dp20
g4
g5
sg6
I7
sg7
S'CHAR(1)'
p21
ssS'keywords'
p22
(dp23
g4
S'string'
p24
sg6
I2
sg7
S'CHAR(512)'
p25
ssS'id'
p26
(dp27
g4
g26
sg6
I1
sg7
S'INTEGER PRIMARY KEY AUTOINCREMENT'
p28
ss.