(dp1
S'output'
p2
S"<class 'urllib2.URLError'> <urlopen error [Errno -2] Name or service not known>"
p3
sS'layer'
p4
S'/home/chitra/courses/SSAD/web2py/applications/cite_m/controllers/default.py'
p5
sS'code'
p6
S'# -*- coding: utf-8 -*-\n### required - do no delete\n#def user(): return dict(form=auth())\n#def download(): return response.download(request,db)\n#def call(): return service()\n### end requires\n#def index():\n #   return dict()\n\n#def error():\n #   return dict()\nfrom gluon.tools import fetch\nimport re\nlistf=[]\n#ret1=[]\ncount=0\nbigans=[]\ndef index():\n    form=SQLFORM(db.input)\n    if form.process().accepted:\n        response.flash = \'you entred\'\n        redirect(URL(\'final_ans\'))\n    return dict(form=form)\ndef year_user(index_yr):   #index_yr - only in this code not in main one\n    flag=index_yr\n    redirect(URL(\'final_ans()\'))\n    flag=0\n    #return dict(ans=ll1[0],l_yr=ll1[1])\ndef extract1(url,l1):\n    ret=[]\n    ret1=[]\n    html=fetch(url)\n    html_splitted=html.split("<A HREF=\\"citation.cfm")\n    ht=html_splitted[0]\n    del html_splitted[0]\n    k=html_splitted[0].split(\'>\')\n    if k[1][:-3]==l1[0]:\n        k=html_splitted[0].find(\'\\"\')\n        s="http://dl.acm.org/citation.cfm"+html_splitted[0][:k]\n        ret.append(s.split(\'&preflayout\')[0]+\'&preflayout=flat\')\n        ret1.append(\'0\')\n        ret1.append(\'0\')\n    else:\n        ret1=[\'0\',\'1\']\n        for i in range(0,l1[2]):\n            k=html_splitted[i].find(\'\\"\')\n            s="http://dl.acm.org/citation.cfm"+html_splitted[i][:k]\n            ret.append(s.split(\'&preflayout\')[0]+\'&preflayout=flat\')\n    return ret,ret1\ndef sorting():\n    bigans=[]\n    l1=u_filter()\n    url1="http://dl.acm.org/results.cfm?h=1&query="+\'+\'.join(l1[0].split())\n    if request.args(0)==\'0\':\n        url=url1\n    elif request.args(0)==\'1\':\n        html=fetch(url1)\n        html_splitted=html.split("Sort by")\n        k=html_splitted[1].split("<option value=\\"")[4].split(\'\\"\')[0]\n        url="http://dl.acm.org/"+k        \n    fst_l=[]\n    ret1=[]\n    fst_l,ret1=extract1(url,l1)\n    global bigans\n    bigans=[]\n    global count\n    count=0\n    rec(fst_l,l1,bigans)\n    return dict(bigans=bigans,level=l1[1],top=l1[2],ret1=ret1)\ndef final_ans():\n    bigans=[]\n    l1=u_filter() \n    url="http://dl.acm.org/results.cfm?h=1&query="+\'+\'.join(l1[0].split())\n    fst_l=[]\n    ret1=[]\n    fst_l,ret1=extract1(url,l1)\n    rec(fst_l,l1,bigans)\n    return dict(bigans=bigans,level=l1[1],top=l1[2],ret1=ret1)\ndef rec(list1,l1,bigans):\n    global count\n    count=count+1\n    global listf\n    listf.append([])\n    for x in list1:\n        if x!=\'\':\n            z=cite(x)\n            #global listf\n            #listf[count-1].append(z)\n            bigans.append(z)\n            if count < l1[1]:\n                rec(z[6],l1,bigans[-1])\n    count=count-1\n    return\ndef cite(url):\n    if url==\'\':\n        return []\n    l1=u_filter()\n    html=fetch(url)\n    temp=[]\n        #temp=[]\n    d=re.search(\'<meta name="citation_title"[\\w\\W]*?>\',html).group()\n    d=bold(d)\n        #temp.append(d.split(\'>\')[0][9:-1])\n    temp.append(d.split(\'=\')[2][1:-2])\n    temp.append(url)\n    f=re.search(\'\\"ft_gateway.cfm[\\w\\W]*?\\"\',html)\n    if f!=None:\n        f=f.group()\n        f=bold(f)\n        temp.append(\'http://dl.acm.org/\'+f[1:-1])\n    else:\n        temp.append(url)\n    c=re.search(\'<meta name="citation_authors"[\\w\\W]*?>\',html).group()\n    c=bold(c)\n    if l1[3]==1:\n       #temp.append(d.split(\'>\')[0][9:-1])\n        temp.append(c.split(\'=\')[2][1:-2])\n    else:\n        temp.append(-1)\n    b=re.search(\'<meta name="citation_date"[\\w\\W]*?>\',html).group()\n    b=bold(b)\n    if l1[5]==1:\n        temp.append(b.split(\'=\')[2][1:-2])\n    else:\n        temp.append(-1)\n    s=re.search(\'CITED BY[\\w\\W]*?INDEX TERMS\',html).group()\n    if \'Citings are not available\' not in s:\n        e=re.search(\'\\d* Citations\',s)\n        if l1[4]!=1:\n            temp.append(-1)\n        elif e!=None:\n            temp.append(e.group().split()[0])\n        else:                                                                            \n            temp.append(1)\n        i=0\n        cit=[]\n        while i < l1[2]:\n            i+=1\n            s1=re.search(\'<a href[\\w\\W]*?</a>\',s)\n            if s1==None:\n                cit.append(\'\')\n            elif s1!=None:\n                k=s.find(s1.group())\n                #k1=s[:k]\n                cit.append(("http://dl.acm.org/"+s1.group().split(\'\\"\')[1]).split(\'&preflayout\')[0]+\'&preflayout=flat\')\n                s=s[k+2:]\n           \n        temp.append(cit)\n    else:\n        if l1[4]==1:\n            temp.append(0)\n        else:\n            temp.append(-1)\n        temp.append([])\n    return temp\ndef u_filter():\n    inpu=db().select(db.input.ALL)\n    for inp in inpu:\n        key=inp.keywords\n        level=inp.Recursion_levels\n        top=inp.Top_results\n        auth=inp.Show_author\n        cited_by=inp.Show_no_of_citations\n        year=inp.Show_release_date\n    return [key,level,top,auth,cited_by,year]\ndef bold(d):\n    pre=""\n    while pre!=d:\n        pre=d\n        d=d.replace("<b>","");\n        d=d.replace("</b>","");\n    return d\n\nresponse._vars=response._caller(final_ans)\n'
p7
sS'snapshot'
p8
(dp9
S'exception'
p10
(dp11
S'__module__'
p12
S"'urllib2'"
p13
sS'__getslice__'
p14
S"<method-wrapper '__getslice__' of URLError object>"
p15
sS'__str__'
p16
S"<bound method URLError.__str__ of URLError(gaierror(-2, 'Name or service not known'),)>"
p17
sS'__reduce__'
p18
S'<built-in method __reduce__ of URLError object>'
p19
sS'__dict__'
p20
S"{'reason': gaierror(-2, 'Name or service not known')}"
p21
sS'__sizeof__'
p22
S'<built-in method __sizeof__ of URLError object>'
p23
sS'__weakref__'
p24
S'None'
p25
sS'__init__'
p26
S"<bound method URLError.__init__ of URLError(gaierror(-2, 'Name or service not known'),)>"
p27
sS'__setattr__'
p28
S"<method-wrapper '__setattr__' of URLError object>"
p29
sS'__reduce_ex__'
p30
S'<built-in method __reduce_ex__ of URLError object>'
p31
sS'__new__'
p32
S'<built-in method __new__ of type object>'
p33
sS'errno'
p34
S'None'
p35
sS'__format__'
p36
S'<built-in method __format__ of URLError object>'
p37
sS'__class__'
p38
S"<class 'urllib2.URLError'>"
p39
sS'filename'
p40
S'None'
p41
sS'__doc__'
p42
S'None'
p43
sS'__getitem__'
p44
S"<method-wrapper '__getitem__' of URLError object>"
p45
sS'__setstate__'
p46
S'<built-in method __setstate__ of URLError object>'
p47
sS'__getattribute__'
p48
S"<method-wrapper '__getattribute__' of URLError object>"
p49
sS'args'
p50
S"(gaierror(-2, 'Name or service not known'),)"
p51
sS'reason'
p52
S"gaierror(-2, 'Name or service not known')"
p53
sS'__subclasshook__'
p54
S'<built-in method __subclasshook__ of type object>'
p55
sS'__unicode__'
p56
S'<built-in method __unicode__ of URLError object>'
p57
sS'strerror'
p58
S'None'
p59
sS'__delattr__'
p60
S"<method-wrapper '__delattr__' of URLError object>"
p61
sS'__repr__'
p62
S"<method-wrapper '__repr__' of URLError object>"
p63
sS'__hash__'
p64
S"<method-wrapper '__hash__' of URLError object>"
p65
ssS'evalue'
p66
S'<urlopen error [Errno -2] Name or service not known>'
p67
sS'request'
p68
ccopy_reg
_reconstructor
p69
(cgluon.html
BEAUTIFY
p70
c__builtin__
object
p71
NtRp72
(dp73
S'attributes'
p74
(dp75
sS'components'
p76
(lp77
g69
(cgluon.html
TABLE
p78
g71
NtRp79
(dp80
g74
(dp81
S'level'
p82
I5
ssS'parent'
p83
Nsg76
(lp84
g69
(cgluon.html
TR
p85
g71
NtRp86
(dp87
g74
(dp88
sg83
g79
sg76
(lp89
g69
(cgluon.html
TD
p90
g71
NtRp91
(dp92
g74
(dp93
S'_style'
p94
S'font-weight:bold;vertical-align:top'
p95
ssg83
g86
sg76
(lp96
S'ajax'
p97
asbag69
(g90
g71
NtRp98
(dp99
g74
(dp100
S'_valign'
p101
S'top'
p102
ssg83
g86
sg76
(lp103
S':'
asbag69
(g90
g71
NtRp104
(dp105
g74
(dp106
sg83
g86
sg76
(lp107
g69
(g70
g71
NtRp108
(dp109
g74
(dp110
g82
I5
ssg83
g104
sg76
(lp111
S'False'
p112
asbasbasbag69
(g85
g71
NtRp113
(dp114
g74
(dp115
sg83
g79
sg76
(lp116
g69
(g90
g71
NtRp117
(dp118
g74
(dp119
g94
g95
ssg83
g113
sg76
(lp120
S'application'
p121
asbag69
(g90
g71
NtRp122
(dp123
g74
(dp124
g101
g102
ssg83
g113
sg76
(lp125
S':'
asbag69
(g90
g71
NtRp126
(dp127
g74
(dp128
sg83
g113
sg76
(lp129
g69
(g70
g71
NtRp130
(dp131
g74
(dp132
g82
I5
ssg83
g126
sg76
(lp133
S'cite_m'
p134
asbasbasbag69
(g85
g71
NtRp135
(dp136
g74
(dp137
sg83
g79
sg76
(lp138
g69
(g90
g71
NtRp139
(dp140
g74
(dp141
g94
g95
ssg83
g135
sg76
(lp142
g50
asbag69
(g90
g71
NtRp143
(dp144
g74
(dp145
g101
g102
ssg83
g135
sg76
(lp146
S':'
asbag69
(g90
g71
NtRp147
(dp148
g74
(dp149
sg83
g135
sg76
(lp150
g69
(g70
g71
NtRp151
(dp152
g74
(dp153
g82
I5
ssg83
g147
sg76
(lp154
g69
(g78
g71
NtRp155
(dp156
g74
(dp157
g82
I4
ssg83
Nsg76
(lp158
sbasbasbasbag69
(g85
g71
NtRp159
(dp160
g74
(dp161
sg83
g79
sg76
(lp162
g69
(g90
g71
NtRp163
(dp164
g74
(dp165
g94
g95
ssg83
g159
sg76
(lp166
S'body'
p167
asbag69
(g90
g71
NtRp168
(dp169
g74
(dp170
g101
g102
ssg83
g159
sg76
(lp171
S':'
asbag69
(g90
g71
NtRp172
(dp173
g74
(dp174
sg83
g159
sg76
(lp175
g69
(g70
g71
NtRp176
(dp177
g74
(dp178
g82
I5
ssg83
g172
sg76
(lp179
S'<cStringIO.StringO object at 0x7f07d0261c38>'
p180
asbasbasbag69
(g85
g71
NtRp181
(dp182
g74
(dp183
sg83
g79
sg76
(lp184
g69
(g90
g71
NtRp185
(dp186
g74
(dp187
g94
g95
ssg83
g181
sg76
(lp188
S'client'
p189
asbag69
(g90
g71
NtRp190
(dp191
g74
(dp192
g101
g102
ssg83
g181
sg76
(lp193
S':'
asbag69
(g90
g71
NtRp194
(dp195
g74
(dp196
sg83
g181
sg76
(lp197
g69
(g70
g71
NtRp198
(dp199
g74
(dp200
g82
I5
ssg83
g194
sg76
(lp201
S'127.0.0.1'
p202
asbasbasbag69
(g85
g71
NtRp203
(dp204
g74
(dp205
sg83
g79
sg76
(lp206
g69
(g90
g71
NtRp207
(dp208
g74
(dp209
g94
g95
ssg83
g203
sg76
(lp210
S'controller'
p211
asbag69
(g90
g71
NtRp212
(dp213
g74
(dp214
g101
g102
ssg83
g203
sg76
(lp215
S':'
asbag69
(g90
g71
NtRp216
(dp217
g74
(dp218
sg83
g203
sg76
(lp219
g69
(g70
g71
NtRp220
(dp221
g74
(dp222
g82
I5
ssg83
g216
sg76
(lp223
S'default'
p224
asbasbasbag69
(g85
g71
NtRp225
(dp226
g74
(dp227
sg83
g79
sg76
(lp228
g69
(g90
g71
NtRp229
(dp230
g74
(dp231
g94
g95
ssg83
g225
sg76
(lp232
S'cookies'
p233
asbag69
(g90
g71
NtRp234
(dp235
g74
(dp236
g101
g102
ssg83
g225
sg76
(lp237
S':'
asbag69
(g90
g71
NtRp238
(dp239
g74
(dp240
sg83
g225
sg76
(lp241
g69
(g70
g71
NtRp242
(dp243
g74
(dp244
g82
I5
ssg83
g238
sg76
(lp245
g69
(g78
g71
NtRp246
(dp247
g74
(dp248
g82
I4
ssg83
Nsg76
(lp249
g69
(g85
g71
NtRp250
(dp251
g74
(dp252
sg83
g246
sg76
(lp253
g69
(g90
g71
NtRp254
(dp255
g74
(dp256
g94
g95
ssg83
g250
sg76
(lp257
S'session_id_admin'
p258
asbag69
(g90
g71
NtRp259
(dp260
g74
(dp261
g101
g102
ssg83
g250
sg76
(lp262
S':'
asbag69
(g90
g71
NtRp263
(dp264
g74
(dp265
sg83
g250
sg76
(lp266
g69
(g70
g71
NtRp267
(dp268
g74
(dp269
g82
I4
ssg83
g263
sg76
(lp270
g69
(g78
g71
NtRp271
(dp272
g74
(dp273
g82
I3
ssg83
Nsg76
(lp274
g69
(g85
g71
NtRp275
(dp276
g74
(dp277
sg83
g271
sg76
(lp278
g69
(g90
g71
NtRp279
(dp280
g74
(dp281
g94
g95
ssg83
g275
sg76
(lp282
S'comment'
p283
asbag69
(g90
g71
NtRp284
(dp285
g74
(dp286
g101
g102
ssg83
g275
sg76
(lp287
S':'
asbag69
(g90
g71
NtRp288
(dp289
g74
(dp290
sg83
g275
sg76
(lp291
g69
(g70
g71
NtRp292
(dp293
g74
(dp294
g82
I3
ssg83
g288
sg76
(lp295
S''
asbasbasbag69
(g85
g71
NtRp296
(dp297
g74
(dp298
sg83
g271
sg76
(lp299
g69
(g90
g71
NtRp300
(dp301
g74
(dp302
g94
g95
ssg83
g296
sg76
(lp303
S'domain'
p304
asbag69
(g90
g71
NtRp305
(dp306
g74
(dp307
g101
g102
ssg83
g296
sg76
(lp308
S':'
asbag69
(g90
g71
NtRp309
(dp310
g74
(dp311
sg83
g296
sg76
(lp312
g69
(g70
g71
NtRp313
(dp314
g74
(dp315
g82
I3
ssg83
g309
sg76
(lp316
S''
asbasbasbag69
(g85
g71
NtRp317
(dp318
g74
(dp319
sg83
g271
sg76
(lp320
g69
(g90
g71
NtRp321
(dp322
g74
(dp323
g94
g95
ssg83
g317
sg76
(lp324
S'expires'
p325
asbag69
(g90
g71
NtRp326
(dp327
g74
(dp328
g101
g102
ssg83
g317
sg76
(lp329
S':'
asbag69
(g90
g71
NtRp330
(dp331
g74
(dp332
sg83
g317
sg76
(lp333
g69
(g70
g71
NtRp334
(dp335
g74
(dp336
g82
I3
ssg83
g330
sg76
(lp337
S''
asbasbasbag69
(g85
g71
NtRp338
(dp339
g74
(dp340
sg83
g271
sg76
(lp341
g69
(g90
g71
NtRp342
(dp343
g74
(dp344
g94
g95
ssg83
g338
sg76
(lp345
S'httponly'
p346
asbag69
(g90
g71
NtRp347
(dp348
g74
(dp349
g101
g102
ssg83
g338
sg76
(lp350
S':'
asbag69
(g90
g71
NtRp351
(dp352
g74
(dp353
sg83
g338
sg76
(lp354
g69
(g70
g71
NtRp355
(dp356
g74
(dp357
g82
I3
ssg83
g351
sg76
(lp358
S''
asbasbasbag69
(g85
g71
NtRp359
(dp360
g74
(dp361
sg83
g271
sg76
(lp362
g69
(g90
g71
NtRp363
(dp364
g74
(dp365
g94
g95
ssg83
g359
sg76
(lp366
S'max-age'
p367
asbag69
(g90
g71
NtRp368
(dp369
g74
(dp370
g101
g102
ssg83
g359
sg76
(lp371
S':'
asbag69
(g90
g71
NtRp372
(dp373
g74
(dp374
sg83
g359
sg76
(lp375
g69
(g70
g71
NtRp376
(dp377
g74
(dp378
g82
I3
ssg83
g372
sg76
(lp379
S''
asbasbasbag69
(g85
g71
NtRp380
(dp381
g74
(dp382
sg83
g271
sg76
(lp383
g69
(g90
g71
NtRp384
(dp385
g74
(dp386
g94
g95
ssg83
g380
sg76
(lp387
S'path'
p388
asbag69
(g90
g71
NtRp389
(dp390
g74
(dp391
g101
g102
ssg83
g380
sg76
(lp392
S':'
asbag69
(g90
g71
NtRp393
(dp394
g74
(dp395
sg83
g380
sg76
(lp396
g69
(g70
g71
NtRp397
(dp398
g74
(dp399
g82
I3
ssg83
g393
sg76
(lp400
S''
asbasbasbag69
(g85
g71
NtRp401
(dp402
g74
(dp403
sg83
g271
sg76
(lp404
g69
(g90
g71
NtRp405
(dp406
g74
(dp407
g94
g95
ssg83
g401
sg76
(lp408
S'secure'
p409
asbag69
(g90
g71
NtRp410
(dp411
g74
(dp412
g101
g102
ssg83
g401
sg76
(lp413
S':'
asbag69
(g90
g71
NtRp414
(dp415
g74
(dp416
sg83
g401
sg76
(lp417
g69
(g70
g71
NtRp418
(dp419
g74
(dp420
g82
I3
ssg83
g414
sg76
(lp421
S''
asbasbasbag69
(g85
g71
NtRp422
(dp423
g74
(dp424
sg83
g271
sg76
(lp425
g69
(g90
g71
NtRp426
(dp427
g74
(dp428
g94
g95
ssg83
g422
sg76
(lp429
S'version'
p430
asbag69
(g90
g71
NtRp431
(dp432
g74
(dp433
g101
g102
ssg83
g422
sg76
(lp434
S':'
asbag69
(g90
g71
NtRp435
(dp436
g74
(dp437
sg83
g422
sg76
(lp438
g69
(g70
g71
NtRp439
(dp440
g74
(dp441
g82
I3
ssg83
g435
sg76
(lp442
S''
asbasbasbasbasbasbasbag69
(g85
g71
NtRp443
(dp444
g74
(dp445
sg83
g246
sg76
(lp446
g69
(g90
g71
NtRp447
(dp448
g74
(dp449
g94
g95
ssg83
g443
sg76
(lp450
S'session_id_cite_m'
p451
asbag69
(g90
g71
NtRp452
(dp453
g74
(dp454
g101
g102
ssg83
g443
sg76
(lp455
S':'
asbag69
(g90
g71
NtRp456
(dp457
g74
(dp458
sg83
g443
sg76
(lp459
g69
(g70
g71
NtRp460
(dp461
g74
(dp462
g82
I4
ssg83
g456
sg76
(lp463
g69
(g78
g71
NtRp464
(dp465
g74
(dp466
g82
I3
ssg83
Nsg76
(lp467
g69
(g85
g71
NtRp468
(dp469
g74
(dp470
sg83
g464
sg76
(lp471
g69
(g90
g71
NtRp472
(dp473
g74
(dp474
g94
g95
ssg83
g468
sg76
(lp475
g283
asbag69
(g90
g71
NtRp476
(dp477
g74
(dp478
g101
g102
ssg83
g468
sg76
(lp479
S':'
asbag69
(g90
g71
NtRp480
(dp481
g74
(dp482
sg83
g468
sg76
(lp483
g69
(g70
g71
NtRp484
(dp485
g74
(dp486
g82
I3
ssg83
g480
sg76
(lp487
S''
asbasbasbag69
(g85
g71
NtRp488
(dp489
g74
(dp490
sg83
g464
sg76
(lp491
g69
(g90
g71
NtRp492
(dp493
g74
(dp494
g94
g95
ssg83
g488
sg76
(lp495
g304
asbag69
(g90
g71
NtRp496
(dp497
g74
(dp498
g101
g102
ssg83
g488
sg76
(lp499
S':'
asbag69
(g90
g71
NtRp500
(dp501
g74
(dp502
sg83
g488
sg76
(lp503
g69
(g70
g71
NtRp504
(dp505
g74
(dp506
g82
I3
ssg83
g500
sg76
(lp507
S''
asbasbasbag69
(g85
g71
NtRp508
(dp509
g74
(dp510
sg83
g464
sg76
(lp511
g69
(g90
g71
NtRp512
(dp513
g74
(dp514
g94
g95
ssg83
g508
sg76
(lp515
g325
asbag69
(g90
g71
NtRp516
(dp517
g74
(dp518
g101
g102
ssg83
g508
sg76
(lp519
S':'
asbag69
(g90
g71
NtRp520
(dp521
g74
(dp522
sg83
g508
sg76
(lp523
g69
(g70
g71
NtRp524
(dp525
g74
(dp526
g82
I3
ssg83
g520
sg76
(lp527
S''
asbasbasbag69
(g85
g71
NtRp528
(dp529
g74
(dp530
sg83
g464
sg76
(lp531
g69
(g90
g71
NtRp532
(dp533
g74
(dp534
g94
g95
ssg83
g528
sg76
(lp535
g346
asbag69
(g90
g71
NtRp536
(dp537
g74
(dp538
g101
g102
ssg83
g528
sg76
(lp539
S':'
asbag69
(g90
g71
NtRp540
(dp541
g74
(dp542
sg83
g528
sg76
(lp543
g69
(g70
g71
NtRp544
(dp545
g74
(dp546
g82
I3
ssg83
g540
sg76
(lp547
S''
asbasbasbag69
(g85
g71
NtRp548
(dp549
g74
(dp550
sg83
g464
sg76
(lp551
g69
(g90
g71
NtRp552
(dp553
g74
(dp554
g94
g95
ssg83
g548
sg76
(lp555
g367
asbag69
(g90
g71
NtRp556
(dp557
g74
(dp558
g101
g102
ssg83
g548
sg76
(lp559
S':'
asbag69
(g90
g71
NtRp560
(dp561
g74
(dp562
sg83
g548
sg76
(lp563
g69
(g70
g71
NtRp564
(dp565
g74
(dp566
g82
I3
ssg83
g560
sg76
(lp567
S''
asbasbasbag69
(g85
g71
NtRp568
(dp569
g74
(dp570
sg83
g464
sg76
(lp571
g69
(g90
g71
NtRp572
(dp573
g74
(dp574
g94
g95
ssg83
g568
sg76
(lp575
g388
asbag69
(g90
g71
NtRp576
(dp577
g74
(dp578
g101
g102
ssg83
g568
sg76
(lp579
S':'
asbag69
(g90
g71
NtRp580
(dp581
g74
(dp582
sg83
g568
sg76
(lp583
g69
(g70
g71
NtRp584
(dp585
g74
(dp586
g82
I3
ssg83
g580
sg76
(lp587
S''
asbasbasbag69
(g85
g71
NtRp588
(dp589
g74
(dp590
sg83
g464
sg76
(lp591
g69
(g90
g71
NtRp592
(dp593
g74
(dp594
g94
g95
ssg83
g588
sg76
(lp595
g409
asbag69
(g90
g71
NtRp596
(dp597
g74
(dp598
g101
g102
ssg83
g588
sg76
(lp599
S':'
asbag69
(g90
g71
NtRp600
(dp601
g74
(dp602
sg83
g588
sg76
(lp603
g69
(g70
g71
NtRp604
(dp605
g74
(dp606
g82
I3
ssg83
g600
sg76
(lp607
S''
asbasbasbag69
(g85
g71
NtRp608
(dp609
g74
(dp610
sg83
g464
sg76
(lp611
g69
(g90
g71
NtRp612
(dp613
g74
(dp614
g94
g95
ssg83
g608
sg76
(lp615
g430
asbag69
(g90
g71
NtRp616
(dp617
g74
(dp618
g101
g102
ssg83
g608
sg76
(lp619
S':'
asbag69
(g90
g71
NtRp620
(dp621
g74
(dp622
sg83
g608
sg76
(lp623
g69
(g70
g71
NtRp624
(dp625
g74
(dp626
g82
I3
ssg83
g620
sg76
(lp627
S''
asbasbasbasbasbasbasbag69
(g85
g71
NtRp628
(dp629
g74
(dp630
sg83
g246
sg76
(lp631
g69
(g90
g71
NtRp632
(dp633
g74
(dp634
g94
g95
ssg83
g628
sg76
(lp635
S'session_id_ssad3b'
p636
asbag69
(g90
g71
NtRp637
(dp638
g74
(dp639
g101
g102
ssg83
g628
sg76
(lp640
S':'
asbag69
(g90
g71
NtRp641
(dp642
g74
(dp643
sg83
g628
sg76
(lp644
g69
(g70
g71
NtRp645
(dp646
g74
(dp647
g82
I4
ssg83
g641
sg76
(lp648
g69
(g78
g71
NtRp649
(dp650
g74
(dp651
g82
I3
ssg83
Nsg76
(lp652
g69
(g85
g71
NtRp653
(dp654
g74
(dp655
sg83
g649
sg76
(lp656
g69
(g90
g71
NtRp657
(dp658
g74
(dp659
g94
g95
ssg83
g653
sg76
(lp660
g283
asbag69
(g90
g71
NtRp661
(dp662
g74
(dp663
g101
g102
ssg83
g653
sg76
(lp664
S':'
asbag69
(g90
g71
NtRp665
(dp666
g74
(dp667
sg83
g653
sg76
(lp668
g69
(g70
g71
NtRp669
(dp670
g74
(dp671
g82
I3
ssg83
g665
sg76
(lp672
S''
asbasbasbag69
(g85
g71
NtRp673
(dp674
g74
(dp675
sg83
g649
sg76
(lp676
g69
(g90
g71
NtRp677
(dp678
g74
(dp679
g94
g95
ssg83
g673
sg76
(lp680
g304
asbag69
(g90
g71
NtRp681
(dp682
g74
(dp683
g101
g102
ssg83
g673
sg76
(lp684
S':'
asbag69
(g90
g71
NtRp685
(dp686
g74
(dp687
sg83
g673
sg76
(lp688
g69
(g70
g71
NtRp689
(dp690
g74
(dp691
g82
I3
ssg83
g685
sg76
(lp692
S''
asbasbasbag69
(g85
g71
NtRp693
(dp694
g74
(dp695
sg83
g649
sg76
(lp696
g69
(g90
g71
NtRp697
(dp698
g74
(dp699
g94
g95
ssg83
g693
sg76
(lp700
g325
asbag69
(g90
g71
NtRp701
(dp702
g74
(dp703
g101
g102
ssg83
g693
sg76
(lp704
S':'
asbag69
(g90
g71
NtRp705
(dp706
g74
(dp707
sg83
g693
sg76
(lp708
g69
(g70
g71
NtRp709
(dp710
g74
(dp711
g82
I3
ssg83
g705
sg76
(lp712
S''
asbasbasbag69
(g85
g71
NtRp713
(dp714
g74
(dp715
sg83
g649
sg76
(lp716
g69
(g90
g71
NtRp717
(dp718
g74
(dp719
g94
g95
ssg83
g713
sg76
(lp720
g346
asbag69
(g90
g71
NtRp721
(dp722
g74
(dp723
g101
g102
ssg83
g713
sg76
(lp724
S':'
asbag69
(g90
g71
NtRp725
(dp726
g74
(dp727
sg83
g713
sg76
(lp728
g69
(g70
g71
NtRp729
(dp730
g74
(dp731
g82
I3
ssg83
g725
sg76
(lp732
S''
asbasbasbag69
(g85
g71
NtRp733
(dp734
g74
(dp735
sg83
g649
sg76
(lp736
g69
(g90
g71
NtRp737
(dp738
g74
(dp739
g94
g95
ssg83
g733
sg76
(lp740
g367
asbag69
(g90
g71
NtRp741
(dp742
g74
(dp743
g101
g102
ssg83
g733
sg76
(lp744
S':'
asbag69
(g90
g71
NtRp745
(dp746
g74
(dp747
sg83
g733
sg76
(lp748
g69
(g70
g71
NtRp749
(dp750
g74
(dp751
g82
I3
ssg83
g745
sg76
(lp752
S''
asbasbasbag69
(g85
g71
NtRp753
(dp754
g74
(dp755
sg83
g649
sg76
(lp756
g69
(g90
g71
NtRp757
(dp758
g74
(dp759
g94
g95
ssg83
g753
sg76
(lp760
g388
asbag69
(g90
g71
NtRp761
(dp762
g74
(dp763
g101
g102
ssg83
g753
sg76
(lp764
S':'
asbag69
(g90
g71
NtRp765
(dp766
g74
(dp767
sg83
g753
sg76
(lp768
g69
(g70
g71
NtRp769
(dp770
g74
(dp771
g82
I3
ssg83
g765
sg76
(lp772
S''
asbasbasbag69
(g85
g71
NtRp773
(dp774
g74
(dp775
sg83
g649
sg76
(lp776
g69
(g90
g71
NtRp777
(dp778
g74
(dp779
g94
g95
ssg83
g773
sg76
(lp780
g409
asbag69
(g90
g71
NtRp781
(dp782
g74
(dp783
g101
g102
ssg83
g773
sg76
(lp784
S':'
asbag69
(g90
g71
NtRp785
(dp786
g74
(dp787
sg83
g773
sg76
(lp788
g69
(g70
g71
NtRp789
(dp790
g74
(dp791
g82
I3
ssg83
g785
sg76
(lp792
S''
asbasbasbag69
(g85
g71
NtRp793
(dp794
g74
(dp795
sg83
g649
sg76
(lp796
g69
(g90
g71
NtRp797
(dp798
g74
(dp799
g94
g95
ssg83
g793
sg76
(lp800
g430
asbag69
(g90
g71
NtRp801
(dp802
g74
(dp803
g101
g102
ssg83
g793
sg76
(lp804
S':'
asbag69
(g90
g71
NtRp805
(dp806
g74
(dp807
sg83
g793
sg76
(lp808
g69
(g70
g71
NtRp809
(dp810
g74
(dp811
g82
I3
ssg83
g805
sg76
(lp812
S''
asbasbasbasbasbasbasbag69
(g85
g71
NtRp813
(dp814
g74
(dp815
sg83
g246
sg76
(lp816
g69
(g90
g71
NtRp817
(dp818
g74
(dp819
g94
g95
ssg83
g813
sg76
(lp820
S'session_id_welcome'
p821
asbag69
(g90
g71
NtRp822
(dp823
g74
(dp824
g101
g102
ssg83
g813
sg76
(lp825
S':'
asbag69
(g90
g71
NtRp826
(dp827
g74
(dp828
sg83
g813
sg76
(lp829
g69
(g70
g71
NtRp830
(dp831
g74
(dp832
g82
I4
ssg83
g826
sg76
(lp833
g69
(g78
g71
NtRp834
(dp835
g74
(dp836
g82
I3
ssg83
Nsg76
(lp837
g69
(g85
g71
NtRp838
(dp839
g74
(dp840
sg83
g834
sg76
(lp841
g69
(g90
g71
NtRp842
(dp843
g74
(dp844
g94
g95
ssg83
g838
sg76
(lp845
g283
asbag69
(g90
g71
NtRp846
(dp847
g74
(dp848
g101
g102
ssg83
g838
sg76
(lp849
S':'
asbag69
(g90
g71
NtRp850
(dp851
g74
(dp852
sg83
g838
sg76
(lp853
g69
(g70
g71
NtRp854
(dp855
g74
(dp856
g82
I3
ssg83
g850
sg76
(lp857
S''
asbasbasbag69
(g85
g71
NtRp858
(dp859
g74
(dp860
sg83
g834
sg76
(lp861
g69
(g90
g71
NtRp862
(dp863
g74
(dp864
g94
g95
ssg83
g858
sg76
(lp865
g304
asbag69
(g90
g71
NtRp866
(dp867
g74
(dp868
g101
g102
ssg83
g858
sg76
(lp869
S':'
asbag69
(g90
g71
NtRp870
(dp871
g74
(dp872
sg83
g858
sg76
(lp873
g69
(g70
g71
NtRp874
(dp875
g74
(dp876
g82
I3
ssg83
g870
sg76
(lp877
S''
asbasbasbag69
(g85
g71
NtRp878
(dp879
g74
(dp880
sg83
g834
sg76
(lp881
g69
(g90
g71
NtRp882
(dp883
g74
(dp884
g94
g95
ssg83
g878
sg76
(lp885
g325
asbag69
(g90
g71
NtRp886
(dp887
g74
(dp888
g101
g102
ssg83
g878
sg76
(lp889
S':'
asbag69
(g90
g71
NtRp890
(dp891
g74
(dp892
sg83
g878
sg76
(lp893
g69
(g70
g71
NtRp894
(dp895
g74
(dp896
g82
I3
ssg83
g890
sg76
(lp897
S''
asbasbasbag69
(g85
g71
NtRp898
(dp899
g74
(dp900
sg83
g834
sg76
(lp901
g69
(g90
g71
NtRp902
(dp903
g74
(dp904
g94
g95
ssg83
g898
sg76
(lp905
g346
asbag69
(g90
g71
NtRp906
(dp907
g74
(dp908
g101
g102
ssg83
g898
sg76
(lp909
S':'
asbag69
(g90
g71
NtRp910
(dp911
g74
(dp912
sg83
g898
sg76
(lp913
g69
(g70
g71
NtRp914
(dp915
g74
(dp916
g82
I3
ssg83
g910
sg76
(lp917
S''
asbasbasbag69
(g85
g71
NtRp918
(dp919
g74
(dp920
sg83
g834
sg76
(lp921
g69
(g90
g71
NtRp922
(dp923
g74
(dp924
g94
g95
ssg83
g918
sg76
(lp925
g367
asbag69
(g90
g71
NtRp926
(dp927
g74
(dp928
g101
g102
ssg83
g918
sg76
(lp929
S':'
asbag69
(g90
g71
NtRp930
(dp931
g74
(dp932
sg83
g918
sg76
(lp933
g69
(g70
g71
NtRp934
(dp935
g74
(dp936
g82
I3
ssg83
g930
sg76
(lp937
S''
asbasbasbag69
(g85
g71
NtRp938
(dp939
g74
(dp940
sg83
g834
sg76
(lp941
g69
(g90
g71
NtRp942
(dp943
g74
(dp944
g94
g95
ssg83
g938
sg76
(lp945
g388
asbag69
(g90
g71
NtRp946
(dp947
g74
(dp948
g101
g102
ssg83
g938
sg76
(lp949
S':'
asbag69
(g90
g71
NtRp950
(dp951
g74
(dp952
sg83
g938
sg76
(lp953
g69
(g70
g71
NtRp954
(dp955
g74
(dp956
g82
I3
ssg83
g950
sg76
(lp957
S''
asbasbasbag69
(g85
g71
NtRp958
(dp959
g74
(dp960
sg83
g834
sg76
(lp961
g69
(g90
g71
NtRp962
(dp963
g74
(dp964
g94
g95
ssg83
g958
sg76
(lp965
g409
asbag69
(g90
g71
NtRp966
(dp967
g74
(dp968
g101
g102
ssg83
g958
sg76
(lp969
S':'
asbag69
(g90
g71
NtRp970
(dp971
g74
(dp972
sg83
g958
sg76
(lp973
g69
(g70
g71
NtRp974
(dp975
g74
(dp976
g82
I3
ssg83
g970
sg76
(lp977
S''
asbasbasbag69
(g85
g71
NtRp978
(dp979
g74
(dp980
sg83
g834
sg76
(lp981
g69
(g90
g71
NtRp982
(dp983
g74
(dp984
g94
g95
ssg83
g978
sg76
(lp985
g430
asbag69
(g90
g71
NtRp986
(dp987
g74
(dp988
g101
g102
ssg83
g978
sg76
(lp989
S':'
asbag69
(g90
g71
NtRp990
(dp991
g74
(dp992
sg83
g978
sg76
(lp993
g69
(g70
g71
NtRp994
(dp995
g74
(dp996
g82
I3
ssg83
g990
sg76
(lp997
S''
asbasbasbasbasbasbasbasbasbasbasbag69
(g85
g71
NtRp998
(dp999
g74
(dp1000
sg83
g79
sg76
(lp1001
g69
(g90
g71
NtRp1002
(dp1003
g74
(dp1004
g94
g95
ssg83
g998
sg76
(lp1005
S'env'
p1006
asbag69
(g90
g71
NtRp1007
(dp1008
g74
(dp1009
g101
g102
ssg83
g998
sg76
(lp1010
S':'
asbag69
(g90
g71
NtRp1011
(dp1012
g74
(dp1013
sg83
g998
sg76
(lp1014
g69
(g70
g71
NtRp1015
(dp1016
g74
(dp1017
g82
I5
ssg83
g1011
sg76
(lp1018
g69
(g78
g71
NtRp1019
(dp1020
g74
(dp1021
g82
I4
ssg83
Nsg76
(lp1022
g69
(g85
g71
NtRp1023
(dp1024
g74
(dp1025
sg83
g1019
sg76
(lp1026
g69
(g90
g71
NtRp1027
(dp1028
g74
(dp1029
g94
g95
ssg83
g1023
sg76
(lp1030
S'app_folders'
p1031
asbag69
(g90
g71
NtRp1032
(dp1033
g74
(dp1034
g101
g102
ssg83
g1023
sg76
(lp1035
S':'
asbag69
(g90
g71
NtRp1036
(dp1037
g74
(dp1038
sg83
g1023
sg76
(lp1039
g69
(g70
g71
NtRp1040
(dp1041
g74
(dp1042
g82
I4
ssg83
g1036
sg76
(lp1043
S"set(['/home/chitra/courses/SSAD/web2py/applications/cite_m/', '/home/chitra/courses/SSAD/web2py/applications/welcome/', '/home/chitra/courses/SSAD/web2py/applications/ssad3b/', '/home/chitra/courses/SSAD/web2py/applications/admin/'])"
p1044
asbasbasbag69
(g85
g71
NtRp1045
(dp1046
g74
(dp1047
sg83
g1019
sg76
(lp1048
g69
(g90
g71
NtRp1049
(dp1050
g74
(dp1051
g94
g95
ssg83
g1045
sg76
(lp1052
S'applications_parent'
p1053
asbag69
(g90
g71
NtRp1054
(dp1055
g74
(dp1056
g101
g102
ssg83
g1045
sg76
(lp1057
S':'
asbag69
(g90
g71
NtRp1058
(dp1059
g74
(dp1060
sg83
g1045
sg76
(lp1061
g69
(g70
g71
NtRp1062
(dp1063
g74
(dp1064
g82
I4
ssg83
g1058
sg76
(lp1065
S'/home/chitra/courses/SSAD/web2py'
p1066
asbasbasbag69
(g85
g71
NtRp1067
(dp1068
g74
(dp1069
sg83
g1019
sg76
(lp1070
g69
(g90
g71
NtRp1071
(dp1072
g74
(dp1073
g94
g95
ssg83
g1067
sg76
(lp1074
S'cmd_args'
p1075
asbag69
(g90
g71
NtRp1076
(dp1077
g74
(dp1078
g101
g102
ssg83
g1067
sg76
(lp1079
S':'
asbag69
(g90
g71
NtRp1080
(dp1081
g74
(dp1082
sg83
g1067
sg76
(lp1083
g69
(g70
g71
NtRp1084
(dp1085
g74
(dp1086
g82
I4
ssg83
g1080
sg76
(lp1087
g69
(g78
g71
NtRp1088
(dp1089
g74
(dp1090
g82
I3
ssg83
Nsg76
(lp1091
sbasbasbasbag69
(g85
g71
NtRp1092
(dp1093
g74
(dp1094
sg83
g1019
sg76
(lp1095
g69
(g90
g71
NtRp1096
(dp1097
g74
(dp1098
g94
g95
ssg83
g1092
sg76
(lp1099
S'cmd_options'
p1100
asbag69
(g90
g71
NtRp1101
(dp1102
g74
(dp1103
g101
g102
ssg83
g1092
sg76
(lp1104
S':'
asbag69
(g90
g71
NtRp1105
(dp1106
g74
(dp1107
sg83
g1092
sg76
(lp1108
g69
(g70
g71
NtRp1109
(dp1110
g74
(dp1111
g82
I4
ssg83
g1105
sg76
(lp1112
S"<Values at 0x1e7cbd8: {'verbose': False, 'ip': '127.0.0.1', 'shutdown_timeout': 5, 'taskbar': False, 'nocron': False, 'pid_filename': 'httpserver.pid', 'maxthreads': None, 'softcron': False, 'server_name': 'chitra-HP-Pavilion-dv6-Notebook-PC', 'bpython': False, 'nogui': False, 'port': 8000, 'extcron': False, 'debuglevel': 30, 'test': None, 'folder': '/home/chitra/courses/SSAD/web2py', 'config': '', 'import_models': False, 'winservice': '', 'shell': None, 'run': '', 'log_filename': 'httpserver.log', 'args': [''], 'socket_timeout': 5, 'ssl_ca_certificate': None, 'scheduler': None, 'profiler_filename': None, 'ssl_private_key': '', 'password': '<ask>', 'request_queue_size': 5, 'ssl_certificate': '', 'cronjob': False, 'numthreads': None, 'quiet': False, 'interfaces': None, 'minthreads': None, 'timeout': 10, 'plain': False, 'nobanner': False}>"
p1113
asbasbasbag69
(g85
g71
NtRp1114
(dp1115
g74
(dp1116
sg83
g1019
sg76
(lp1117
g69
(g90
g71
NtRp1118
(dp1119
g74
(dp1120
g94
g95
ssg83
g1114
sg76
(lp1121
S'db_sessions'
p1122
asbag69
(g90
g71
NtRp1123
(dp1124
g74
(dp1125
g101
g102
ssg83
g1114
sg76
(lp1126
S':'
asbag69
(g90
g71
NtRp1127
(dp1128
g74
(dp1129
sg83
g1114
sg76
(lp1130
g69
(g70
g71
NtRp1131
(dp1132
g74
(dp1133
g82
I4
ssg83
g1127
sg76
(lp1134
S'set([])'
p1135
asbasbasbag69
(g85
g71
NtRp1136
(dp1137
g74
(dp1138
sg83
g1019
sg76
(lp1139
g69
(g90
g71
NtRp1140
(dp1141
g74
(dp1142
g94
g95
ssg83
g1136
sg76
(lp1143
S'debugging'
p1144
asbag69
(g90
g71
NtRp1145
(dp1146
g74
(dp1147
g101
g102
ssg83
g1136
sg76
(lp1148
S':'
asbag69
(g90
g71
NtRp1149
(dp1150
g74
(dp1151
sg83
g1136
sg76
(lp1152
g69
(g70
g71
NtRp1153
(dp1154
g74
(dp1155
g82
I4
ssg83
g1149
sg76
(lp1156
g112
asbasbasbag69
(g85
g71
NtRp1157
(dp1158
g74
(dp1159
sg83
g1019
sg76
(lp1160
g69
(g90
g71
NtRp1161
(dp1162
g74
(dp1163
g94
g95
ssg83
g1157
sg76
(lp1164
S'gluon_parent'
p1165
asbag69
(g90
g71
NtRp1166
(dp1167
g74
(dp1168
g101
g102
ssg83
g1157
sg76
(lp1169
S':'
asbag69
(g90
g71
NtRp1170
(dp1171
g74
(dp1172
sg83
g1157
sg76
(lp1173
g69
(g70
g71
NtRp1174
(dp1175
g74
(dp1176
g82
I4
ssg83
g1170
sg76
(lp1177
S'/home/chitra/courses/SSAD/web2py'
p1178
asbasbasbag69
(g85
g71
NtRp1179
(dp1180
g74
(dp1181
sg83
g1019
sg76
(lp1182
g69
(g90
g71
NtRp1183
(dp1184
g74
(dp1185
g94
g95
ssg83
g1179
sg76
(lp1186
S'http_accept'
p1187
asbag69
(g90
g71
NtRp1188
(dp1189
g74
(dp1190
g101
g102
ssg83
g1179
sg76
(lp1191
S':'
asbag69
(g90
g71
NtRp1192
(dp1193
g74
(dp1194
sg83
g1179
sg76
(lp1195
g69
(g70
g71
NtRp1196
(dp1197
g74
(dp1198
g82
I4
ssg83
g1192
sg76
(lp1199
S'text/html,application/xhtml+xml,application/xml;q=0.9,*/*;q=0.8'
p1200
asbasbasbag69
(g85
g71
NtRp1201
(dp1202
g74
(dp1203
sg83
g1019
sg76
(lp1204
g69
(g90
g71
NtRp1205
(dp1206
g74
(dp1207
g94
g95
ssg83
g1201
sg76
(lp1208
S'http_accept_encoding'
p1209
asbag69
(g90
g71
NtRp1210
(dp1211
g74
(dp1212
g101
g102
ssg83
g1201
sg76
(lp1213
S':'
asbag69
(g90
g71
NtRp1214
(dp1215
g74
(dp1216
sg83
g1201
sg76
(lp1217
g69
(g70
g71
NtRp1218
(dp1219
g74
(dp1220
g82
I4
ssg83
g1214
sg76
(lp1221
S'gzip, deflate'
p1222
asbasbasbag69
(g85
g71
NtRp1223
(dp1224
g74
(dp1225
sg83
g1019
sg76
(lp1226
g69
(g90
g71
NtRp1227
(dp1228
g74
(dp1229
g94
g95
ssg83
g1223
sg76
(lp1230
S'http_accept_language'
p1231
asbag69
(g90
g71
NtRp1232
(dp1233
g74
(dp1234
g101
g102
ssg83
g1223
sg76
(lp1235
S':'
asbag69
(g90
g71
NtRp1236
(dp1237
g74
(dp1238
sg83
g1223
sg76
(lp1239
g69
(g70
g71
NtRp1240
(dp1241
g74
(dp1242
g82
I4
ssg83
g1236
sg76
(lp1243
S'en-us,en;q=0.5'
p1244
asbasbasbag69
(g85
g71
NtRp1245
(dp1246
g74
(dp1247
sg83
g1019
sg76
(lp1248
g69
(g90
g71
NtRp1249
(dp1250
g74
(dp1251
g94
g95
ssg83
g1245
sg76
(lp1252
S'http_connection'
p1253
asbag69
(g90
g71
NtRp1254
(dp1255
g74
(dp1256
g101
g102
ssg83
g1245
sg76
(lp1257
S':'
asbag69
(g90
g71
NtRp1258
(dp1259
g74
(dp1260
sg83
g1245
sg76
(lp1261
g69
(g70
g71
NtRp1262
(dp1263
g74
(dp1264
g82
I4
ssg83
g1258
sg76
(lp1265
S'keep-alive'
p1266
asbasbasbag69
(g85
g71
NtRp1267
(dp1268
g74
(dp1269
sg83
g1019
sg76
(lp1270
g69
(g90
g71
NtRp1271
(dp1272
g74
(dp1273
g94
g95
ssg83
g1267
sg76
(lp1274
S'http_cookie'
p1275
asbag69
(g90
g71
NtRp1276
(dp1277
g74
(dp1278
g101
g102
ssg83
g1267
sg76
(lp1279
S':'
asbag69
(g90
g71
NtRp1280
(dp1281
g74
(dp1282
sg83
g1267
sg76
(lp1283
g69
(g70
g71
NtRp1284
(dp1285
g74
(dp1286
g82
I4
ssg83
g1280
sg76
(lp1287
S'session_id_welcome=127.0.0.1-b3bbff5b-36cf-40f4-822c-c0836c581f3c; session_id_admin=127.0.0.1-e3b8b27f-304b-4244-b7d7-129a6984a66d; session_id_ssad3b=127.0.0.1-f3dcfaf3-d387-4f7a-9541-f9cc265d981f; session_id_cite_m=127.0.0.1-ef106283-997f-4898-8aa9-25b10ad4667a'
p1288
asbasbasbag69
(g85
g71
NtRp1289
(dp1290
g74
(dp1291
sg83
g1019
sg76
(lp1292
g69
(g90
g71
NtRp1293
(dp1294
g74
(dp1295
g94
g95
ssg83
g1289
sg76
(lp1296
S'http_host'
p1297
asbag69
(g90
g71
NtRp1298
(dp1299
g74
(dp1300
g101
g102
ssg83
g1289
sg76
(lp1301
S':'
asbag69
(g90
g71
NtRp1302
(dp1303
g74
(dp1304
sg83
g1289
sg76
(lp1305
g69
(g70
g71
NtRp1306
(dp1307
g74
(dp1308
g82
I4
ssg83
g1302
sg76
(lp1309
S'127.0.0.1:8000'
p1310
asbasbasbag69
(g85
g71
NtRp1311
(dp1312
g74
(dp1313
sg83
g1019
sg76
(lp1314
g69
(g90
g71
NtRp1315
(dp1316
g74
(dp1317
g94
g95
ssg83
g1311
sg76
(lp1318
S'http_referer'
p1319
asbag69
(g90
g71
NtRp1320
(dp1321
g74
(dp1322
g101
g102
ssg83
g1311
sg76
(lp1323
S':'
asbag69
(g90
g71
NtRp1324
(dp1325
g74
(dp1326
sg83
g1311
sg76
(lp1327
g69
(g70
g71
NtRp1328
(dp1329
g74
(dp1330
g82
I4
ssg83
g1324
sg76
(lp1331
S'http://127.0.0.1:8000/cite_m/default/index'
p1332
asbasbasbag69
(g85
g71
NtRp1333
(dp1334
g74
(dp1335
sg83
g1019
sg76
(lp1336
g69
(g90
g71
NtRp1337
(dp1338
g74
(dp1339
g94
g95
ssg83
g1333
sg76
(lp1340
S'http_user_agent'
p1341
asbag69
(g90
g71
NtRp1342
(dp1343
g74
(dp1344
g101
g102
ssg83
g1333
sg76
(lp1345
S':'
asbag69
(g90
g71
NtRp1346
(dp1347
g74
(dp1348
sg83
g1333
sg76
(lp1349
g69
(g70
g71
NtRp1350
(dp1351
g74
(dp1352
g82
I4
ssg83
g1346
sg76
(lp1353
S'Mozilla/5.0 (X11; Ubuntu; Linux x86_64; rv:13.0) Gecko/20100101 Firefox/13.0.1'
p1354
asbasbasbag69
(g85
g71
NtRp1355
(dp1356
g74
(dp1357
sg83
g1019
sg76
(lp1358
g69
(g90
g71
NtRp1359
(dp1360
g74
(dp1361
g94
g95
ssg83
g1355
sg76
(lp1362
S'is_jython'
p1363
asbag69
(g90
g71
NtRp1364
(dp1365
g74
(dp1366
g101
g102
ssg83
g1355
sg76
(lp1367
S':'
asbag69
(g90
g71
NtRp1368
(dp1369
g74
(dp1370
sg83
g1355
sg76
(lp1371
g69
(g70
g71
NtRp1372
(dp1373
g74
(dp1374
g82
I4
ssg83
g1368
sg76
(lp1375
g112
asbasbasbag69
(g85
g71
NtRp1376
(dp1377
g74
(dp1378
sg83
g1019
sg76
(lp1379
g69
(g90
g71
NtRp1380
(dp1381
g74
(dp1382
g94
g95
ssg83
g1376
sg76
(lp1383
S'is_pypy'
p1384
asbag69
(g90
g71
NtRp1385
(dp1386
g74
(dp1387
g101
g102
ssg83
g1376
sg76
(lp1388
S':'
asbag69
(g90
g71
NtRp1389
(dp1390
g74
(dp1391
sg83
g1376
sg76
(lp1392
g69
(g70
g71
NtRp1393
(dp1394
g74
(dp1395
g82
I4
ssg83
g1389
sg76
(lp1396
g112
asbasbasbag69
(g85
g71
NtRp1397
(dp1398
g74
(dp1399
sg83
g1019
sg76
(lp1400
g69
(g90
g71
NtRp1401
(dp1402
g74
(dp1403
g94
g95
ssg83
g1397
sg76
(lp1404
S'path_info'
p1405
asbag69
(g90
g71
NtRp1406
(dp1407
g74
(dp1408
g101
g102
ssg83
g1397
sg76
(lp1409
S':'
asbag69
(g90
g71
NtRp1410
(dp1411
g74
(dp1412
sg83
g1397
sg76
(lp1413
g69
(g70
g71
NtRp1414
(dp1415
g74
(dp1416
g82
I4
ssg83
g1410
sg76
(lp1417
S'/cite_m/default/final_ans'
p1418
asbasbasbag69
(g85
g71
NtRp1419
(dp1420
g74
(dp1421
sg83
g1019
sg76
(lp1422
g69
(g90
g71
NtRp1423
(dp1424
g74
(dp1425
g94
g95
ssg83
g1419
sg76
(lp1426
S'query_string'
p1427
asbag69
(g90
g71
NtRp1428
(dp1429
g74
(dp1430
g101
g102
ssg83
g1419
sg76
(lp1431
S':'
asbag69
(g90
g71
NtRp1432
(dp1433
g74
(dp1434
sg83
g1419
sg76
(lp1435
g69
(g70
g71
NtRp1436
(dp1437
g74
(dp1438
g82
I4
ssg83
g1432
sg76
(lp1439
S''
asbasbasbag69
(g85
g71
NtRp1440
(dp1441
g74
(dp1442
sg83
g1019
sg76
(lp1443
g69
(g90
g71
NtRp1444
(dp1445
g74
(dp1446
g94
g95
ssg83
g1440
sg76
(lp1447
S'remote_addr'
p1448
asbag69
(g90
g71
NtRp1449
(dp1450
g74
(dp1451
g101
g102
ssg83
g1440
sg76
(lp1452
S':'
asbag69
(g90
g71
NtRp1453
(dp1454
g74
(dp1455
sg83
g1440
sg76
(lp1456
g69
(g70
g71
NtRp1457
(dp1458
g74
(dp1459
g82
I4
ssg83
g1453
sg76
(lp1460
g202
asbasbasbag69
(g85
g71
NtRp1461
(dp1462
g74
(dp1463
sg83
g1019
sg76
(lp1464
g69
(g90
g71
NtRp1465
(dp1466
g74
(dp1467
g94
g95
ssg83
g1461
sg76
(lp1468
S'remote_port'
p1469
asbag69
(g90
g71
NtRp1470
(dp1471
g74
(dp1472
g101
g102
ssg83
g1461
sg76
(lp1473
S':'
asbag69
(g90
g71
NtRp1474
(dp1475
g74
(dp1476
sg83
g1461
sg76
(lp1477
g69
(g70
g71
NtRp1478
(dp1479
g74
(dp1480
g82
I4
ssg83
g1474
sg76
(lp1481
S'37498'
p1482
asbasbasbag69
(g85
g71
NtRp1483
(dp1484
g74
(dp1485
sg83
g1019
sg76
(lp1486
g69
(g90
g71
NtRp1487
(dp1488
g74
(dp1489
g94
g95
ssg83
g1483
sg76
(lp1490
S'request_method'
p1491
asbag69
(g90
g71
NtRp1492
(dp1493
g74
(dp1494
g101
g102
ssg83
g1483
sg76
(lp1495
S':'
asbag69
(g90
g71
NtRp1496
(dp1497
g74
(dp1498
sg83
g1483
sg76
(lp1499
g69
(g70
g71
NtRp1500
(dp1501
g74
(dp1502
g82
I4
ssg83
g1496
sg76
(lp1503
S'GET'
p1504
asbasbasbag69
(g85
g71
NtRp1505
(dp1506
g74
(dp1507
sg83
g1019
sg76
(lp1508
g69
(g90
g71
NtRp1509
(dp1510
g74
(dp1511
g94
g95
ssg83
g1505
sg76
(lp1512
S'script_name'
p1513
asbag69
(g90
g71
NtRp1514
(dp1515
g74
(dp1516
g101
g102
ssg83
g1505
sg76
(lp1517
S':'
asbag69
(g90
g71
NtRp1518
(dp1519
g74
(dp1520
sg83
g1505
sg76
(lp1521
g69
(g70
g71
NtRp1522
(dp1523
g74
(dp1524
g82
I4
ssg83
g1518
sg76
(lp1525
S''
asbasbasbag69
(g85
g71
NtRp1526
(dp1527
g74
(dp1528
sg83
g1019
sg76
(lp1529
g69
(g90
g71
NtRp1530
(dp1531
g74
(dp1532
g94
g95
ssg83
g1526
sg76
(lp1533
S'server_name'
p1534
asbag69
(g90
g71
NtRp1535
(dp1536
g74
(dp1537
g101
g102
ssg83
g1526
sg76
(lp1538
S':'
asbag69
(g90
g71
NtRp1539
(dp1540
g74
(dp1541
sg83
g1526
sg76
(lp1542
g69
(g70
g71
NtRp1543
(dp1544
g74
(dp1545
g82
I4
ssg83
g1539
sg76
(lp1546
S'chitra-HP-Pavilion-dv6-Notebook-PC'
p1547
asbasbasbag69
(g85
g71
NtRp1548
(dp1549
g74
(dp1550
sg83
g1019
sg76
(lp1551
g69
(g90
g71
NtRp1552
(dp1553
g74
(dp1554
g94
g95
ssg83
g1548
sg76
(lp1555
S'server_port'
p1556
asbag69
(g90
g71
NtRp1557
(dp1558
g74
(dp1559
g101
g102
ssg83
g1548
sg76
(lp1560
S':'
asbag69
(g90
g71
NtRp1561
(dp1562
g74
(dp1563
sg83
g1548
sg76
(lp1564
g69
(g70
g71
NtRp1565
(dp1566
g74
(dp1567
g82
I4
ssg83
g1561
sg76
(lp1568
S'8000'
p1569
asbasbasbag69
(g85
g71
NtRp1570
(dp1571
g74
(dp1572
sg83
g1019
sg76
(lp1573
g69
(g90
g71
NtRp1574
(dp1575
g74
(dp1576
g94
g95
ssg83
g1570
sg76
(lp1577
S'server_protocol'
p1578
asbag69
(g90
g71
NtRp1579
(dp1580
g74
(dp1581
g101
g102
ssg83
g1570
sg76
(lp1582
S':'
asbag69
(g90
g71
NtRp1583
(dp1584
g74
(dp1585
sg83
g1570
sg76
(lp1586
g69
(g70
g71
NtRp1587
(dp1588
g74
(dp1589
g82
I4
ssg83
g1583
sg76
(lp1590
S'HTTP/1.1'
p1591
asbasbasbag69
(g85
g71
NtRp1592
(dp1593
g74
(dp1594
sg83
g1019
sg76
(lp1595
g69
(g90
g71
NtRp1596
(dp1597
g74
(dp1598
g94
g95
ssg83
g1592
sg76
(lp1599
S'server_software'
p1600
asbag69
(g90
g71
NtRp1601
(dp1602
g74
(dp1603
g101
g102
ssg83
g1592
sg76
(lp1604
S':'
asbag69
(g90
g71
NtRp1605
(dp1606
g74
(dp1607
sg83
g1592
sg76
(lp1608
g69
(g70
g71
NtRp1609
(dp1610
g74
(dp1611
g82
I4
ssg83
g1605
sg76
(lp1612
S'Rocket 1.2.4'
p1613
asbasbasbag69
(g85
g71
NtRp1614
(dp1615
g74
(dp1616
sg83
g1019
sg76
(lp1617
g69
(g90
g71
NtRp1618
(dp1619
g74
(dp1620
g94
g95
ssg83
g1614
sg76
(lp1621
S'web2py_crontype'
p1622
asbag69
(g90
g71
NtRp1623
(dp1624
g74
(dp1625
g101
g102
ssg83
g1614
sg76
(lp1626
S':'
asbag69
(g90
g71
NtRp1627
(dp1628
g74
(dp1629
sg83
g1614
sg76
(lp1630
g69
(g70
g71
NtRp1631
(dp1632
g74
(dp1633
g82
I4
ssg83
g1627
sg76
(lp1634
S'hard'
p1635
asbasbasbag69
(g85
g71
NtRp1636
(dp1637
g74
(dp1638
sg83
g1019
sg76
(lp1639
g69
(g90
g71
NtRp1640
(dp1641
g74
(dp1642
g94
g95
ssg83
g1636
sg76
(lp1643
S'web2py_path'
p1644
asbag69
(g90
g71
NtRp1645
(dp1646
g74
(dp1647
g101
g102
ssg83
g1636
sg76
(lp1648
S':'
asbag69
(g90
g71
NtRp1649
(dp1650
g74
(dp1651
sg83
g1636
sg76
(lp1652
g69
(g70
g71
NtRp1653
(dp1654
g74
(dp1655
g82
I4
ssg83
g1649
sg76
(lp1656
g1066
asbasbasbag69
(g85
g71
NtRp1657
(dp1658
g74
(dp1659
sg83
g1019
sg76
(lp1660
g69
(g90
g71
NtRp1661
(dp1662
g74
(dp1663
g94
g95
ssg83
g1657
sg76
(lp1664
S'web2py_version'
p1665
asbag69
(g90
g71
NtRp1666
(dp1667
g74
(dp1668
g101
g102
ssg83
g1657
sg76
(lp1669
S':'
asbag69
(g90
g71
NtRp1670
(dp1671
g74
(dp1672
sg83
g1657
sg76
(lp1673
g69
(g70
g71
NtRp1674
(dp1675
g74
(dp1676
g82
I4
ssg83
g1670
sg76
(lp1677
g69
(g78
g71
NtRp1678
(dp1679
g74
(dp1680
g82
I3
ssg83
Nsg76
(lp1681
g69
(g85
g71
NtRp1682
(dp1683
g74
(dp1684
sg83
g1678
sg76
(lp1685
g69
(g90
g71
NtRp1686
(dp1687
g74
(dp1688
sg83
g1682
sg76
(lp1689
g69
(g70
g71
NtRp1690
(dp1691
g74
(dp1692
g82
I3
ssg83
g1686
sg76
(lp1693
S'1'
asbasbasbag69
(g85
g71
NtRp1694
(dp1695
g74
(dp1696
sg83
g1678
sg76
(lp1697
g69
(g90
g71
NtRp1698
(dp1699
g74
(dp1700
sg83
g1694
sg76
(lp1701
g69
(g70
g71
NtRp1702
(dp1703
g74
(dp1704
g82
I3
ssg83
g1698
sg76
(lp1705
S'99'
p1706
asbasbasbag69
(g85
g71
NtRp1707
(dp1708
g74
(dp1709
sg83
g1678
sg76
(lp1710
g69
(g90
g71
NtRp1711
(dp1712
g74
(dp1713
sg83
g1707
sg76
(lp1714
g69
(g70
g71
NtRp1715
(dp1716
g74
(dp1717
g82
I3
ssg83
g1711
sg76
(lp1718
S'7'
asbasbasbag69
(g85
g71
NtRp1719
(dp1720
g74
(dp1721
sg83
g1678
sg76
(lp1722
g69
(g90
g71
NtRp1723
(dp1724
g74
(dp1725
sg83
g1719
sg76
(lp1726
g69
(g70
g71
NtRp1727
(dp1728
g74
(dp1729
g82
I3
ssg83
g1723
sg76
(lp1730
S'datetime.datetime(2012, 3, 4, 22, 12, 8)'
p1731
asbasbasbag69
(g85
g71
NtRp1732
(dp1733
g74
(dp1734
sg83
g1678
sg76
(lp1735
g69
(g90
g71
NtRp1736
(dp1737
g74
(dp1738
sg83
g1732
sg76
(lp1739
g69
(g70
g71
NtRp1740
(dp1741
g74
(dp1742
g82
I3
ssg83
g1736
sg76
(lp1743
S'stable'
p1744
asbasbasbasbasbasbasbag69
(g85
g71
NtRp1745
(dp1746
g74
(dp1747
sg83
g1019
sg76
(lp1748
g69
(g90
g71
NtRp1749
(dp1750
g74
(dp1751
g94
g95
ssg83
g1745
sg76
(lp1752
S'wsgi_errors'
p1753
asbag69
(g90
g71
NtRp1754
(dp1755
g74
(dp1756
g101
g102
ssg83
g1745
sg76
(lp1757
S':'
asbag69
(g90
g71
NtRp1758
(dp1759
g74
(dp1760
sg83
g1745
sg76
(lp1761
g69
(g70
g71
NtRp1762
(dp1763
g74
(dp1764
g82
I4
ssg83
g1758
sg76
(lp1765
S"<open file '<stderr>', mode 'w' at 0x7f07f82d0270>"
p1766
asbasbasbag69
(g85
g71
NtRp1767
(dp1768
g74
(dp1769
sg83
g1019
sg76
(lp1770
g69
(g90
g71
NtRp1771
(dp1772
g74
(dp1773
g94
g95
ssg83
g1767
sg76
(lp1774
S'wsgi_file_wrapper'
p1775
asbag69
(g90
g71
NtRp1776
(dp1777
g74
(dp1778
g101
g102
ssg83
g1767
sg76
(lp1779
S':'
asbag69
(g90
g71
NtRp1780
(dp1781
g74
(dp1782
sg83
g1767
sg76
(lp1783
g69
(g70
g71
NtRp1784
(dp1785
g74
(dp1786
g82
I4
ssg83
g1780
sg76
(lp1787
S'<class wsgiref.util.FileWrapper at 0x1d6c120>'
p1788
asbasbasbag69
(g85
g71
NtRp1789
(dp1790
g74
(dp1791
sg83
g1019
sg76
(lp1792
g69
(g90
g71
NtRp1793
(dp1794
g74
(dp1795
g94
g95
ssg83
g1789
sg76
(lp1796
S'wsgi_input'
p1797
asbag69
(g90
g71
NtRp1798
(dp1799
g74
(dp1800
g101
g102
ssg83
g1789
sg76
(lp1801
S':'
asbag69
(g90
g71
NtRp1802
(dp1803
g74
(dp1804
sg83
g1789
sg76
(lp1805
g69
(g70
g71
NtRp1806
(dp1807
g74
(dp1808
g82
I4
ssg83
g1802
sg76
(lp1809
S'<socket._fileobject object at 0x7f07d83ba850>'
p1810
asbasbasbag69
(g85
g71
NtRp1811
(dp1812
g74
(dp1813
sg83
g1019
sg76
(lp1814
g69
(g90
g71
NtRp1815
(dp1816
g74
(dp1817
g94
g95
ssg83
g1811
sg76
(lp1818
S'wsgi_multiprocess'
p1819
asbag69
(g90
g71
NtRp1820
(dp1821
g74
(dp1822
g101
g102
ssg83
g1811
sg76
(lp1823
S':'
asbag69
(g90
g71
NtRp1824
(dp1825
g74
(dp1826
sg83
g1811
sg76
(lp1827
g69
(g70
g71
NtRp1828
(dp1829
g74
(dp1830
g82
I4
ssg83
g1824
sg76
(lp1831
g112
asbasbasbag69
(g85
g71
NtRp1832
(dp1833
g74
(dp1834
sg83
g1019
sg76
(lp1835
g69
(g90
g71
NtRp1836
(dp1837
g74
(dp1838
g94
g95
ssg83
g1832
sg76
(lp1839
S'wsgi_multithread'
p1840
asbag69
(g90
g71
NtRp1841
(dp1842
g74
(dp1843
g101
g102
ssg83
g1832
sg76
(lp1844
S':'
asbag69
(g90
g71
NtRp1845
(dp1846
g74
(dp1847
sg83
g1832
sg76
(lp1848
g69
(g70
g71
NtRp1849
(dp1850
g74
(dp1851
g82
I4
ssg83
g1845
sg76
(lp1852
S'True'
p1853
asbasbasbag69
(g85
g71
NtRp1854
(dp1855
g74
(dp1856
sg83
g1019
sg76
(lp1857
g69
(g90
g71
NtRp1858
(dp1859
g74
(dp1860
g94
g95
ssg83
g1854
sg76
(lp1861
S'wsgi_run_once'
p1862
asbag69
(g90
g71
NtRp1863
(dp1864
g74
(dp1865
g101
g102
ssg83
g1854
sg76
(lp1866
S':'
asbag69
(g90
g71
NtRp1867
(dp1868
g74
(dp1869
sg83
g1854
sg76
(lp1870
g69
(g70
g71
NtRp1871
(dp1872
g74
(dp1873
g82
I4
ssg83
g1867
sg76
(lp1874
g112
asbasbasbag69
(g85
g71
NtRp1875
(dp1876
g74
(dp1877
sg83
g1019
sg76
(lp1878
g69
(g90
g71
NtRp1879
(dp1880
g74
(dp1881
g94
g95
ssg83
g1875
sg76
(lp1882
S'wsgi_url_scheme'
p1883
asbag69
(g90
g71
NtRp1884
(dp1885
g74
(dp1886
g101
g102
ssg83
g1875
sg76
(lp1887
S':'
asbag69
(g90
g71
NtRp1888
(dp1889
g74
(dp1890
sg83
g1875
sg76
(lp1891
g69
(g70
g71
NtRp1892
(dp1893
g74
(dp1894
g82
I4
ssg83
g1888
sg76
(lp1895
S'http'
p1896
asbasbasbag69
(g85
g71
NtRp1897
(dp1898
g74
(dp1899
sg83
g1019
sg76
(lp1900
g69
(g90
g71
NtRp1901
(dp1902
g74
(dp1903
g94
g95
ssg83
g1897
sg76
(lp1904
S'wsgi_version'
p1905
asbag69
(g90
g71
NtRp1906
(dp1907
g74
(dp1908
g101
g102
ssg83
g1897
sg76
(lp1909
S':'
asbag69
(g90
g71
NtRp1910
(dp1911
g74
(dp1912
sg83
g1897
sg76
(lp1913
g69
(g70
g71
NtRp1914
(dp1915
g74
(dp1916
g82
I4
ssg83
g1910
sg76
(lp1917
g69
(g78
g71
NtRp1918
(dp1919
g74
(dp1920
g82
I3
ssg83
Nsg76
(lp1921
g69
(g85
g71
NtRp1922
(dp1923
g74
(dp1924
sg83
g1918
sg76
(lp1925
g69
(g90
g71
NtRp1926
(dp1927
g74
(dp1928
sg83
g1922
sg76
(lp1929
g69
(g70
g71
NtRp1930
(dp1931
g74
(dp1932
g82
I3
ssg83
g1926
sg76
(lp1933
S'1'
asbasbasbag69
(g85
g71
NtRp1934
(dp1935
g74
(dp1936
sg83
g1918
sg76
(lp1937
g69
(g90
g71
NtRp1938
(dp1939
g74
(dp1940
sg83
g1934
sg76
(lp1941
g69
(g70
g71
NtRp1942
(dp1943
g74
(dp1944
g82
I3
ssg83
g1938
sg76
(lp1945
S'0'
asbasbasbasbasbasbasbasbasbasbasbag69
(g85
g71
NtRp1946
(dp1947
g74
(dp1948
sg83
g79
sg76
(lp1949
g69
(g90
g71
NtRp1950
(dp1951
g74
(dp1952
g94
g95
ssg83
g1946
sg76
(lp1953
S'extension'
p1954
asbag69
(g90
g71
NtRp1955
(dp1956
g74
(dp1957
g101
g102
ssg83
g1946
sg76
(lp1958
S':'
asbag69
(g90
g71
NtRp1959
(dp1960
g74
(dp1961
sg83
g1946
sg76
(lp1962
g69
(g70
g71
NtRp1963
(dp1964
g74
(dp1965
g82
I5
ssg83
g1959
sg76
(lp1966
S'html'
p1967
asbasbasbag69
(g85
g71
NtRp1968
(dp1969
g74
(dp1970
sg83
g79
sg76
(lp1971
g69
(g90
g71
NtRp1972
(dp1973
g74
(dp1974
g94
g95
ssg83
g1968
sg76
(lp1975
S'folder'
p1976
asbag69
(g90
g71
NtRp1977
(dp1978
g74
(dp1979
g101
g102
ssg83
g1968
sg76
(lp1980
S':'
asbag69
(g90
g71
NtRp1981
(dp1982
g74
(dp1983
sg83
g1968
sg76
(lp1984
g69
(g70
g71
NtRp1985
(dp1986
g74
(dp1987
g82
I5
ssg83
g1981
sg76
(lp1988
S'/home/chitra/courses/SSAD/web2py/applications/cite_m/'
p1989
asbasbasbag69
(g85
g71
NtRp1990
(dp1991
g74
(dp1992
sg83
g79
sg76
(lp1993
g69
(g90
g71
NtRp1994
(dp1995
g74
(dp1996
g94
g95
ssg83
g1990
sg76
(lp1997
S'function'
p1998
asbag69
(g90
g71
NtRp1999
(dp2000
g74
(dp2001
g101
g102
ssg83
g1990
sg76
(lp2002
S':'
asbag69
(g90
g71
NtRp2003
(dp2004
g74
(dp2005
sg83
g1990
sg76
(lp2006
g69
(g70
g71
NtRp2007
(dp2008
g74
(dp2009
g82
I5
ssg83
g2003
sg76
(lp2010
S'final_ans'
p2011
asbasbasbag69
(g85
g71
NtRp2012
(dp2013
g74
(dp2014
sg83
g79
sg76
(lp2015
g69
(g90
g71
NtRp2016
(dp2017
g74
(dp2018
g94
g95
ssg83
g2012
sg76
(lp2019
S'get_vars'
p2020
asbag69
(g90
g71
NtRp2021
(dp2022
g74
(dp2023
g101
g102
ssg83
g2012
sg76
(lp2024
S':'
asbag69
(g90
g71
NtRp2025
(dp2026
g74
(dp2027
sg83
g2012
sg76
(lp2028
g69
(g70
g71
NtRp2029
(dp2030
g74
(dp2031
g82
I5
ssg83
g2025
sg76
(lp2032
g69
(g78
g71
NtRp2033
(dp2034
g74
(dp2035
g82
I4
ssg83
Nsg76
(lp2036
sbasbasbasbag69
(g85
g71
NtRp2037
(dp2038
g74
(dp2039
sg83
g79
sg76
(lp2040
g69
(g90
g71
NtRp2041
(dp2042
g74
(dp2043
g94
g95
ssg83
g2037
sg76
(lp2044
S'global_settings'
p2045
asbag69
(g90
g71
NtRp2046
(dp2047
g74
(dp2048
g101
g102
ssg83
g2037
sg76
(lp2049
S':'
asbag69
(g90
g71
NtRp2050
(dp2051
g74
(dp2052
sg83
g2037
sg76
(lp2053
g69
(g70
g71
NtRp2054
(dp2055
g74
(dp2056
g82
I5
ssg83
g2050
sg76
(lp2057
g69
(g78
g71
NtRp2058
(dp2059
g74
(dp2060
g82
I4
ssg83
Nsg76
(lp2061
g69
(g85
g71
NtRp2062
(dp2063
g74
(dp2064
sg83
g2058
sg76
(lp2065
g69
(g90
g71
NtRp2066
(dp2067
g74
(dp2068
g94
g95
ssg83
g2062
sg76
(lp2069
g1031
asbag69
(g90
g71
NtRp2070
(dp2071
g74
(dp2072
g101
g102
ssg83
g2062
sg76
(lp2073
S':'
asbag69
(g90
g71
NtRp2074
(dp2075
g74
(dp2076
sg83
g2062
sg76
(lp2077
g69
(g70
g71
NtRp2078
(dp2079
g74
(dp2080
g82
I4
ssg83
g2074
sg76
(lp2081
S"set(['/home/chitra/courses/SSAD/web2py/applications/cite_m/', '/home/chitra/courses/SSAD/web2py/applications/welcome/', '/home/chitra/courses/SSAD/web2py/applications/ssad3b/', '/home/chitra/courses/SSAD/web2py/applications/admin/'])"
p2082
asbasbasbag69
(g85
g71
NtRp2083
(dp2084
g74
(dp2085
sg83
g2058
sg76
(lp2086
g69
(g90
g71
NtRp2087
(dp2088
g74
(dp2089
g94
g95
ssg83
g2083
sg76
(lp2090
g1053
asbag69
(g90
g71
NtRp2091
(dp2092
g74
(dp2093
g101
g102
ssg83
g2083
sg76
(lp2094
S':'
asbag69
(g90
g71
NtRp2095
(dp2096
g74
(dp2097
sg83
g2083
sg76
(lp2098
g69
(g70
g71
NtRp2099
(dp2100
g74
(dp2101
g82
I4
ssg83
g2095
sg76
(lp2102
g1066
asbasbasbag69
(g85
g71
NtRp2103
(dp2104
g74
(dp2105
sg83
g2058
sg76
(lp2106
g69
(g90
g71
NtRp2107
(dp2108
g74
(dp2109
g94
g95
ssg83
g2103
sg76
(lp2110
g1075
asbag69
(g90
g71
NtRp2111
(dp2112
g74
(dp2113
g101
g102
ssg83
g2103
sg76
(lp2114
S':'
asbag69
(g90
g71
NtRp2115
(dp2116
g74
(dp2117
sg83
g2103
sg76
(lp2118
g69
(g70
g71
NtRp2119
(dp2120
g74
(dp2121
g82
I4
ssg83
g2115
sg76
(lp2122
g69
(g78
g71
NtRp2123
(dp2124
g74
(dp2125
g82
I3
ssg83
Nsg76
(lp2126
sbasbasbasbag69
(g85
g71
NtRp2127
(dp2128
g74
(dp2129
sg83
g2058
sg76
(lp2130
g69
(g90
g71
NtRp2131
(dp2132
g74
(dp2133
g94
g95
ssg83
g2127
sg76
(lp2134
g1100
asbag69
(g90
g71
NtRp2135
(dp2136
g74
(dp2137
g101
g102
ssg83
g2127
sg76
(lp2138
S':'
asbag69
(g90
g71
NtRp2139
(dp2140
g74
(dp2141
sg83
g2127
sg76
(lp2142
g69
(g70
g71
NtRp2143
(dp2144
g74
(dp2145
g82
I4
ssg83
g2139
sg76
(lp2146
S"<Values at 0x1e7cbd8: {'verbose': False, 'ip': '127.0.0.1', 'shutdown_timeout': 5, 'taskbar': False, 'nocron': False, 'pid_filename': 'httpserver.pid', 'maxthreads': None, 'softcron': False, 'server_name': 'chitra-HP-Pavilion-dv6-Notebook-PC', 'bpython': False, 'nogui': False, 'port': 8000, 'extcron': False, 'debuglevel': 30, 'test': None, 'folder': '/home/chitra/courses/SSAD/web2py', 'config': '', 'import_models': False, 'winservice': '', 'shell': None, 'run': '', 'log_filename': 'httpserver.log', 'args': [''], 'socket_timeout': 5, 'ssl_ca_certificate': None, 'scheduler': None, 'profiler_filename': None, 'ssl_private_key': '', 'password': '<ask>', 'request_queue_size': 5, 'ssl_certificate': '', 'cronjob': False, 'numthreads': None, 'quiet': False, 'interfaces': None, 'minthreads': None, 'timeout': 10, 'plain': False, 'nobanner': False}>"
p2147
asbasbasbag69
(g85
g71
NtRp2148
(dp2149
g74
(dp2150
sg83
g2058
sg76
(lp2151
g69
(g90
g71
NtRp2152
(dp2153
g74
(dp2154
g94
g95
ssg83
g2148
sg76
(lp2155
g1122
asbag69
(g90
g71
NtRp2156
(dp2157
g74
(dp2158
g101
g102
ssg83
g2148
sg76
(lp2159
S':'
asbag69
(g90
g71
NtRp2160
(dp2161
g74
(dp2162
sg83
g2148
sg76
(lp2163
g69
(g70
g71
NtRp2164
(dp2165
g74
(dp2166
g82
I4
ssg83
g2160
sg76
(lp2167
S'set([])'
p2168
asbasbasbag69
(g85
g71
NtRp2169
(dp2170
g74
(dp2171
sg83
g2058
sg76
(lp2172
g69
(g90
g71
NtRp2173
(dp2174
g74
(dp2175
g94
g95
ssg83
g2169
sg76
(lp2176
g1144
asbag69
(g90
g71
NtRp2177
(dp2178
g74
(dp2179
g101
g102
ssg83
g2169
sg76
(lp2180
S':'
asbag69
(g90
g71
NtRp2181
(dp2182
g74
(dp2183
sg83
g2169
sg76
(lp2184
g69
(g70
g71
NtRp2185
(dp2186
g74
(dp2187
g82
I4
ssg83
g2181
sg76
(lp2188
g112
asbasbasbag69
(g85
g71
NtRp2189
(dp2190
g74
(dp2191
sg83
g2058
sg76
(lp2192
g69
(g90
g71
NtRp2193
(dp2194
g74
(dp2195
g94
g95
ssg83
g2189
sg76
(lp2196
g1165
asbag69
(g90
g71
NtRp2197
(dp2198
g74
(dp2199
g101
g102
ssg83
g2189
sg76
(lp2200
S':'
asbag69
(g90
g71
NtRp2201
(dp2202
g74
(dp2203
sg83
g2189
sg76
(lp2204
g69
(g70
g71
NtRp2205
(dp2206
g74
(dp2207
g82
I4
ssg83
g2201
sg76
(lp2208
g1178
asbasbasbag69
(g85
g71
NtRp2209
(dp2210
g74
(dp2211
sg83
g2058
sg76
(lp2212
g69
(g90
g71
NtRp2213
(dp2214
g74
(dp2215
g94
g95
ssg83
g2209
sg76
(lp2216
g1363
asbag69
(g90
g71
NtRp2217
(dp2218
g74
(dp2219
g101
g102
ssg83
g2209
sg76
(lp2220
S':'
asbag69
(g90
g71
NtRp2221
(dp2222
g74
(dp2223
sg83
g2209
sg76
(lp2224
g69
(g70
g71
NtRp2225
(dp2226
g74
(dp2227
g82
I4
ssg83
g2221
sg76
(lp2228
g112
asbasbasbag69
(g85
g71
NtRp2229
(dp2230
g74
(dp2231
sg83
g2058
sg76
(lp2232
g69
(g90
g71
NtRp2233
(dp2234
g74
(dp2235
g94
g95
ssg83
g2229
sg76
(lp2236
g1384
asbag69
(g90
g71
NtRp2237
(dp2238
g74
(dp2239
g101
g102
ssg83
g2229
sg76
(lp2240
S':'
asbag69
(g90
g71
NtRp2241
(dp2242
g74
(dp2243
sg83
g2229
sg76
(lp2244
g69
(g70
g71
NtRp2245
(dp2246
g74
(dp2247
g82
I4
ssg83
g2241
sg76
(lp2248
g112
asbasbasbag69
(g85
g71
NtRp2249
(dp2250
g74
(dp2251
sg83
g2058
sg76
(lp2252
g69
(g90
g71
NtRp2253
(dp2254
g74
(dp2255
g94
g95
ssg83
g2249
sg76
(lp2256
g1622
asbag69
(g90
g71
NtRp2257
(dp2258
g74
(dp2259
g101
g102
ssg83
g2249
sg76
(lp2260
S':'
asbag69
(g90
g71
NtRp2261
(dp2262
g74
(dp2263
sg83
g2249
sg76
(lp2264
g69
(g70
g71
NtRp2265
(dp2266
g74
(dp2267
g82
I4
ssg83
g2261
sg76
(lp2268
g1635
asbasbasbag69
(g85
g71
NtRp2269
(dp2270
g74
(dp2271
sg83
g2058
sg76
(lp2272
g69
(g90
g71
NtRp2273
(dp2274
g74
(dp2275
g94
g95
ssg83
g2269
sg76
(lp2276
g1665
asbag69
(g90
g71
NtRp2277
(dp2278
g74
(dp2279
g101
g102
ssg83
g2269
sg76
(lp2280
S':'
asbag69
(g90
g71
NtRp2281
(dp2282
g74
(dp2283
sg83
g2269
sg76
(lp2284
g69
(g70
g71
NtRp2285
(dp2286
g74
(dp2287
g82
I4
ssg83
g2281
sg76
(lp2288
g69
(g78
g71
NtRp2289
(dp2290
g74
(dp2291
g82
I3
ssg83
Nsg76
(lp2292
g69
(g85
g71
NtRp2293
(dp2294
g74
(dp2295
sg83
g2289
sg76
(lp2296
g69
(g90
g71
NtRp2297
(dp2298
g74
(dp2299
sg83
g2293
sg76
(lp2300
g69
(g70
g71
NtRp2301
(dp2302
g74
(dp2303
g82
I3
ssg83
g2297
sg76
(lp2304
S'1'
asbasbasbag69
(g85
g71
NtRp2305
(dp2306
g74
(dp2307
sg83
g2289
sg76
(lp2308
g69
(g90
g71
NtRp2309
(dp2310
g74
(dp2311
sg83
g2305
sg76
(lp2312
g69
(g70
g71
NtRp2313
(dp2314
g74
(dp2315
g82
I3
ssg83
g2309
sg76
(lp2316
S'99'
p2317
asbasbasbag69
(g85
g71
NtRp2318
(dp2319
g74
(dp2320
sg83
g2289
sg76
(lp2321
g69
(g90
g71
NtRp2322
(dp2323
g74
(dp2324
sg83
g2318
sg76
(lp2325
g69
(g70
g71
NtRp2326
(dp2327
g74
(dp2328
g82
I3
ssg83
g2322
sg76
(lp2329
S'7'
asbasbasbag69
(g85
g71
NtRp2330
(dp2331
g74
(dp2332
sg83
g2289
sg76
(lp2333
g69
(g90
g71
NtRp2334
(dp2335
g74
(dp2336
sg83
g2330
sg76
(lp2337
g69
(g70
g71
NtRp2338
(dp2339
g74
(dp2340
g82
I3
ssg83
g2334
sg76
(lp2341
S'datetime.datetime(2012, 3, 4, 22, 12, 8)'
p2342
asbasbasbag69
(g85
g71
NtRp2343
(dp2344
g74
(dp2345
sg83
g2289
sg76
(lp2346
g69
(g90
g71
NtRp2347
(dp2348
g74
(dp2349
sg83
g2343
sg76
(lp2350
g69
(g70
g71
NtRp2351
(dp2352
g74
(dp2353
g82
I3
ssg83
g2347
sg76
(lp2354
g1744
asbasbasbasbasbasbasbasbasbasbasbag69
(g85
g71
NtRp2355
(dp2356
g74
(dp2357
sg83
g79
sg76
(lp2358
g69
(g90
g71
NtRp2359
(dp2360
g74
(dp2361
g94
g95
ssg83
g2355
sg76
(lp2362
S'is_https'
p2363
asbag69
(g90
g71
NtRp2364
(dp2365
g74
(dp2366
g101
g102
ssg83
g2355
sg76
(lp2367
S':'
asbag69
(g90
g71
NtRp2368
(dp2369
g74
(dp2370
sg83
g2355
sg76
(lp2371
g69
(g70
g71
NtRp2372
(dp2373
g74
(dp2374
g82
I5
ssg83
g2368
sg76
(lp2375
g112
asbasbasbag69
(g85
g71
NtRp2376
(dp2377
g74
(dp2378
sg83
g79
sg76
(lp2379
g69
(g90
g71
NtRp2380
(dp2381
g74
(dp2382
g94
g95
ssg83
g2376
sg76
(lp2383
S'is_local'
p2384
asbag69
(g90
g71
NtRp2385
(dp2386
g74
(dp2387
g101
g102
ssg83
g2376
sg76
(lp2388
S':'
asbag69
(g90
g71
NtRp2389
(dp2390
g74
(dp2391
sg83
g2376
sg76
(lp2392
g69
(g70
g71
NtRp2393
(dp2394
g74
(dp2395
g82
I5
ssg83
g2389
sg76
(lp2396
g1853
asbasbasbag69
(g85
g71
NtRp2397
(dp2398
g74
(dp2399
sg83
g79
sg76
(lp2400
g69
(g90
g71
NtRp2401
(dp2402
g74
(dp2403
g94
g95
ssg83
g2397
sg76
(lp2404
S'is_restful'
p2405
asbag69
(g90
g71
NtRp2406
(dp2407
g74
(dp2408
g101
g102
ssg83
g2397
sg76
(lp2409
S':'
asbag69
(g90
g71
NtRp2410
(dp2411
g74
(dp2412
sg83
g2397
sg76
(lp2413
g69
(g70
g71
NtRp2414
(dp2415
g74
(dp2416
g82
I5
ssg83
g2410
sg76
(lp2417
g112
asbasbasbag69
(g85
g71
NtRp2418
(dp2419
g74
(dp2420
sg83
g79
sg76
(lp2421
g69
(g90
g71
NtRp2422
(dp2423
g74
(dp2424
g94
g95
ssg83
g2418
sg76
(lp2425
S'now'
p2426
asbag69
(g90
g71
NtRp2427
(dp2428
g74
(dp2429
g101
g102
ssg83
g2418
sg76
(lp2430
S':'
asbag69
(g90
g71
NtRp2431
(dp2432
g74
(dp2433
sg83
g2418
sg76
(lp2434
g69
(g70
g71
NtRp2435
(dp2436
g74
(dp2437
g82
I5
ssg83
g2431
sg76
(lp2438
S'datetime.datetime(2012, 10, 18, 1, 55, 33, 162911)'
p2439
asbasbasbag69
(g85
g71
NtRp2440
(dp2441
g74
(dp2442
sg83
g79
sg76
(lp2443
g69
(g90
g71
NtRp2444
(dp2445
g74
(dp2446
g94
g95
ssg83
g2440
sg76
(lp2447
S'post_vars'
p2448
asbag69
(g90
g71
NtRp2449
(dp2450
g74
(dp2451
g101
g102
ssg83
g2440
sg76
(lp2452
S':'
asbag69
(g90
g71
NtRp2453
(dp2454
g74
(dp2455
sg83
g2440
sg76
(lp2456
g69
(g70
g71
NtRp2457
(dp2458
g74
(dp2459
g82
I5
ssg83
g2453
sg76
(lp2460
g69
(g78
g71
NtRp2461
(dp2462
g74
(dp2463
g82
I4
ssg83
Nsg76
(lp2464
sbasbasbasbag69
(g85
g71
NtRp2465
(dp2466
g74
(dp2467
sg83
g79
sg76
(lp2468
g69
(g90
g71
NtRp2469
(dp2470
g74
(dp2471
g94
g95
ssg83
g2465
sg76
(lp2472
S'url'
p2473
asbag69
(g90
g71
NtRp2474
(dp2475
g74
(dp2476
g101
g102
ssg83
g2465
sg76
(lp2477
S':'
asbag69
(g90
g71
NtRp2478
(dp2479
g74
(dp2480
sg83
g2465
sg76
(lp2481
g69
(g70
g71
NtRp2482
(dp2483
g74
(dp2484
g82
I5
ssg83
g2478
sg76
(lp2485
S'/cite_m/default/final_ans'
p2486
asbasbasbag69
(g85
g71
NtRp2487
(dp2488
g74
(dp2489
sg83
g79
sg76
(lp2490
g69
(g90
g71
NtRp2491
(dp2492
g74
(dp2493
g94
g95
ssg83
g2487
sg76
(lp2494
S'utcnow'
p2495
asbag69
(g90
g71
NtRp2496
(dp2497
g74
(dp2498
g101
g102
ssg83
g2487
sg76
(lp2499
S':'
asbag69
(g90
g71
NtRp2500
(dp2501
g74
(dp2502
sg83
g2487
sg76
(lp2503
g69
(g70
g71
NtRp2504
(dp2505
g74
(dp2506
g82
I5
ssg83
g2500
sg76
(lp2507
S'datetime.datetime(2012, 10, 17, 20, 25, 33, 162932)'
p2508
asbasbasbag69
(g85
g71
NtRp2509
(dp2510
g74
(dp2511
sg83
g79
sg76
(lp2512
g69
(g90
g71
NtRp2513
(dp2514
g74
(dp2515
g94
g95
ssg83
g2509
sg76
(lp2516
S'uuid'
p2517
asbag69
(g90
g71
NtRp2518
(dp2519
g74
(dp2520
g101
g102
ssg83
g2509
sg76
(lp2521
S':'
asbag69
(g90
g71
NtRp2522
(dp2523
g74
(dp2524
sg83
g2509
sg76
(lp2525
g69
(g70
g71
NtRp2526
(dp2527
g74
(dp2528
g82
I5
ssg83
g2522
sg76
(lp2529
S'cite_m/127.0.0.1.2012-10-18.01-55-33.6c23bc2c-498d-471a-8737-d59b6abb028c'
p2530
asbasbasbag69
(g85
g71
NtRp2531
(dp2532
g74
(dp2533
sg83
g79
sg76
(lp2534
g69
(g90
g71
NtRp2535
(dp2536
g74
(dp2537
g94
g95
ssg83
g2531
sg76
(lp2538
S'vars'
p2539
asbag69
(g90
g71
NtRp2540
(dp2541
g74
(dp2542
g101
g102
ssg83
g2531
sg76
(lp2543
S':'
asbag69
(g90
g71
NtRp2544
(dp2545
g74
(dp2546
sg83
g2531
sg76
(lp2547
g69
(g70
g71
NtRp2548
(dp2549
g74
(dp2550
g82
I5
ssg83
g2544
sg76
(lp2551
g69
(g78
g71
NtRp2552
(dp2553
g74
(dp2554
g82
I4
ssg83
Nsg76
(lp2555
sbasbasbasbag69
(g85
g71
NtRp2556
(dp2557
g74
(dp2558
sg83
g79
sg76
(lp2559
g69
(g90
g71
NtRp2560
(dp2561
g74
(dp2562
g94
g95
ssg83
g2556
sg76
(lp2563
S'wsgi'
p2564
asbag69
(g90
g71
NtRp2565
(dp2566
g74
(dp2567
g101
g102
ssg83
g2556
sg76
(lp2568
S':'
asbag69
(g90
g71
NtRp2569
(dp2570
g74
(dp2571
sg83
g2556
sg76
(lp2572
g69
(g70
g71
NtRp2573
(dp2574
g74
(dp2575
g82
I5
ssg83
g2569
sg76
(lp2576
g69
(g78
g71
NtRp2577
(dp2578
g74
(dp2579
g82
I4
ssg83
Nsg76
(lp2580
g69
(g85
g71
NtRp2581
(dp2582
g74
(dp2583
sg83
g2577
sg76
(lp2584
g69
(g90
g71
NtRp2585
(dp2586
g74
(dp2587
g94
g95
ssg83
g2581
sg76
(lp2588
S'environ'
p2589
asbag69
(g90
g71
NtRp2590
(dp2591
g74
(dp2592
g101
g102
ssg83
g2581
sg76
(lp2593
S':'
asbag69
(g90
g71
NtRp2594
(dp2595
g74
(dp2596
sg83
g2581
sg76
(lp2597
g69
(g70
g71
NtRp2598
(dp2599
g74
(dp2600
g82
I4
ssg83
g2594
sg76
(lp2601
g69
(g78
g71
NtRp2602
(dp2603
g74
(dp2604
g82
I3
ssg83
Nsg76
(lp2605
g69
(g85
g71
NtRp2606
(dp2607
g74
(dp2608
sg83
g2602
sg76
(lp2609
g69
(g90
g71
NtRp2610
(dp2611
g74
(dp2612
g94
g95
ssg83
g2606
sg76
(lp2613
S'HTTP_ACCEPT'
p2614
asbag69
(g90
g71
NtRp2615
(dp2616
g74
(dp2617
g101
g102
ssg83
g2606
sg76
(lp2618
S':'
asbag69
(g90
g71
NtRp2619
(dp2620
g74
(dp2621
sg83
g2606
sg76
(lp2622
g69
(g70
g71
NtRp2623
(dp2624
g74
(dp2625
g82
I3
ssg83
g2619
sg76
(lp2626
g1200
asbasbasbag69
(g85
g71
NtRp2627
(dp2628
g74
(dp2629
sg83
g2602
sg76
(lp2630
g69
(g90
g71
NtRp2631
(dp2632
g74
(dp2633
g94
g95
ssg83
g2627
sg76
(lp2634
S'HTTP_ACCEPT_ENCODING'
p2635
asbag69
(g90
g71
NtRp2636
(dp2637
g74
(dp2638
g101
g102
ssg83
g2627
sg76
(lp2639
S':'
asbag69
(g90
g71
NtRp2640
(dp2641
g74
(dp2642
sg83
g2627
sg76
(lp2643
g69
(g70
g71
NtRp2644
(dp2645
g74
(dp2646
g82
I3
ssg83
g2640
sg76
(lp2647
g1222
asbasbasbag69
(g85
g71
NtRp2648
(dp2649
g74
(dp2650
sg83
g2602
sg76
(lp2651
g69
(g90
g71
NtRp2652
(dp2653
g74
(dp2654
g94
g95
ssg83
g2648
sg76
(lp2655
S'HTTP_ACCEPT_LANGUAGE'
p2656
asbag69
(g90
g71
NtRp2657
(dp2658
g74
(dp2659
g101
g102
ssg83
g2648
sg76
(lp2660
S':'
asbag69
(g90
g71
NtRp2661
(dp2662
g74
(dp2663
sg83
g2648
sg76
(lp2664
g69
(g70
g71
NtRp2665
(dp2666
g74
(dp2667
g82
I3
ssg83
g2661
sg76
(lp2668
g1244
asbasbasbag69
(g85
g71
NtRp2669
(dp2670
g74
(dp2671
sg83
g2602
sg76
(lp2672
g69
(g90
g71
NtRp2673
(dp2674
g74
(dp2675
g94
g95
ssg83
g2669
sg76
(lp2676
S'HTTP_CONNECTION'
p2677
asbag69
(g90
g71
NtRp2678
(dp2679
g74
(dp2680
g101
g102
ssg83
g2669
sg76
(lp2681
S':'
asbag69
(g90
g71
NtRp2682
(dp2683
g74
(dp2684
sg83
g2669
sg76
(lp2685
g69
(g70
g71
NtRp2686
(dp2687
g74
(dp2688
g82
I3
ssg83
g2682
sg76
(lp2689
g1266
asbasbasbag69
(g85
g71
NtRp2690
(dp2691
g74
(dp2692
sg83
g2602
sg76
(lp2693
g69
(g90
g71
NtRp2694
(dp2695
g74
(dp2696
g94
g95
ssg83
g2690
sg76
(lp2697
S'HTTP_COOKIE'
p2698
asbag69
(g90
g71
NtRp2699
(dp2700
g74
(dp2701
g101
g102
ssg83
g2690
sg76
(lp2702
S':'
asbag69
(g90
g71
NtRp2703
(dp2704
g74
(dp2705
sg83
g2690
sg76
(lp2706
g69
(g70
g71
NtRp2707
(dp2708
g74
(dp2709
g82
I3
ssg83
g2703
sg76
(lp2710
g1288
asbasbasbag69
(g85
g71
NtRp2711
(dp2712
g74
(dp2713
sg83
g2602
sg76
(lp2714
g69
(g90
g71
NtRp2715
(dp2716
g74
(dp2717
g94
g95
ssg83
g2711
sg76
(lp2718
S'HTTP_HOST'
p2719
asbag69
(g90
g71
NtRp2720
(dp2721
g74
(dp2722
g101
g102
ssg83
g2711
sg76
(lp2723
S':'
asbag69
(g90
g71
NtRp2724
(dp2725
g74
(dp2726
sg83
g2711
sg76
(lp2727
g69
(g70
g71
NtRp2728
(dp2729
g74
(dp2730
g82
I3
ssg83
g2724
sg76
(lp2731
g1310
asbasbasbag69
(g85
g71
NtRp2732
(dp2733
g74
(dp2734
sg83
g2602
sg76
(lp2735
g69
(g90
g71
NtRp2736
(dp2737
g74
(dp2738
g94
g95
ssg83
g2732
sg76
(lp2739
S'HTTP_REFERER'
p2740
asbag69
(g90
g71
NtRp2741
(dp2742
g74
(dp2743
g101
g102
ssg83
g2732
sg76
(lp2744
S':'
asbag69
(g90
g71
NtRp2745
(dp2746
g74
(dp2747
sg83
g2732
sg76
(lp2748
g69
(g70
g71
NtRp2749
(dp2750
g74
(dp2751
g82
I3
ssg83
g2745
sg76
(lp2752
g1332
asbasbasbag69
(g85
g71
NtRp2753
(dp2754
g74
(dp2755
sg83
g2602
sg76
(lp2756
g69
(g90
g71
NtRp2757
(dp2758
g74
(dp2759
g94
g95
ssg83
g2753
sg76
(lp2760
S'HTTP_USER_AGENT'
p2761
asbag69
(g90
g71
NtRp2762
(dp2763
g74
(dp2764
g101
g102
ssg83
g2753
sg76
(lp2765
S':'
asbag69
(g90
g71
NtRp2766
(dp2767
g74
(dp2768
sg83
g2753
sg76
(lp2769
g69
(g70
g71
NtRp2770
(dp2771
g74
(dp2772
g82
I3
ssg83
g2766
sg76
(lp2773
g1354
asbasbasbag69
(g85
g71
NtRp2774
(dp2775
g74
(dp2776
sg83
g2602
sg76
(lp2777
g69
(g90
g71
NtRp2778
(dp2779
g74
(dp2780
g94
g95
ssg83
g2774
sg76
(lp2781
S'PATH_INFO'
p2782
asbag69
(g90
g71
NtRp2783
(dp2784
g74
(dp2785
g101
g102
ssg83
g2774
sg76
(lp2786
S':'
asbag69
(g90
g71
NtRp2787
(dp2788
g74
(dp2789
sg83
g2774
sg76
(lp2790
g69
(g70
g71
NtRp2791
(dp2792
g74
(dp2793
g82
I3
ssg83
g2787
sg76
(lp2794
g1418
asbasbasbag69
(g85
g71
NtRp2795
(dp2796
g74
(dp2797
sg83
g2602
sg76
(lp2798
g69
(g90
g71
NtRp2799
(dp2800
g74
(dp2801
g94
g95
ssg83
g2795
sg76
(lp2802
S'QUERY_STRING'
p2803
asbag69
(g90
g71
NtRp2804
(dp2805
g74
(dp2806
g101
g102
ssg83
g2795
sg76
(lp2807
S':'
asbag69
(g90
g71
NtRp2808
(dp2809
g74
(dp2810
sg83
g2795
sg76
(lp2811
g69
(g70
g71
NtRp2812
(dp2813
g74
(dp2814
g82
I3
ssg83
g2808
sg76
(lp2815
S''
asbasbasbag69
(g85
g71
NtRp2816
(dp2817
g74
(dp2818
sg83
g2602
sg76
(lp2819
g69
(g90
g71
NtRp2820
(dp2821
g74
(dp2822
g94
g95
ssg83
g2816
sg76
(lp2823
S'REMOTE_ADDR'
p2824
asbag69
(g90
g71
NtRp2825
(dp2826
g74
(dp2827
g101
g102
ssg83
g2816
sg76
(lp2828
S':'
asbag69
(g90
g71
NtRp2829
(dp2830
g74
(dp2831
sg83
g2816
sg76
(lp2832
g69
(g70
g71
NtRp2833
(dp2834
g74
(dp2835
g82
I3
ssg83
g2829
sg76
(lp2836
g202
asbasbasbag69
(g85
g71
NtRp2837
(dp2838
g74
(dp2839
sg83
g2602
sg76
(lp2840
g69
(g90
g71
NtRp2841
(dp2842
g74
(dp2843
g94
g95
ssg83
g2837
sg76
(lp2844
S'REMOTE_PORT'
p2845
asbag69
(g90
g71
NtRp2846
(dp2847
g74
(dp2848
g101
g102
ssg83
g2837
sg76
(lp2849
S':'
asbag69
(g90
g71
NtRp2850
(dp2851
g74
(dp2852
sg83
g2837
sg76
(lp2853
g69
(g70
g71
NtRp2854
(dp2855
g74
(dp2856
g82
I3
ssg83
g2850
sg76
(lp2857
g1482
asbasbasbag69
(g85
g71
NtRp2858
(dp2859
g74
(dp2860
sg83
g2602
sg76
(lp2861
g69
(g90
g71
NtRp2862
(dp2863
g74
(dp2864
g94
g95
ssg83
g2858
sg76
(lp2865
S'REQUEST_METHOD'
p2866
asbag69
(g90
g71
NtRp2867
(dp2868
g74
(dp2869
g101
g102
ssg83
g2858
sg76
(lp2870
S':'
asbag69
(g90
g71
NtRp2871
(dp2872
g74
(dp2873
sg83
g2858
sg76
(lp2874
g69
(g70
g71
NtRp2875
(dp2876
g74
(dp2877
g82
I3
ssg83
g2871
sg76
(lp2878
g1504
asbasbasbag69
(g85
g71
NtRp2879
(dp2880
g74
(dp2881
sg83
g2602
sg76
(lp2882
g69
(g90
g71
NtRp2883
(dp2884
g74
(dp2885
g94
g95
ssg83
g2879
sg76
(lp2886
S'SCRIPT_NAME'
p2887
asbag69
(g90
g71
NtRp2888
(dp2889
g74
(dp2890
g101
g102
ssg83
g2879
sg76
(lp2891
S':'
asbag69
(g90
g71
NtRp2892
(dp2893
g74
(dp2894
sg83
g2879
sg76
(lp2895
g69
(g70
g71
NtRp2896
(dp2897
g74
(dp2898
g82
I3
ssg83
g2892
sg76
(lp2899
S''
asbasbasbag69
(g85
g71
NtRp2900
(dp2901
g74
(dp2902
sg83
g2602
sg76
(lp2903
g69
(g90
g71
NtRp2904
(dp2905
g74
(dp2906
g94
g95
ssg83
g2900
sg76
(lp2907
S'SERVER_NAME'
p2908
asbag69
(g90
g71
NtRp2909
(dp2910
g74
(dp2911
g101
g102
ssg83
g2900
sg76
(lp2912
S':'
asbag69
(g90
g71
NtRp2913
(dp2914
g74
(dp2915
sg83
g2900
sg76
(lp2916
g69
(g70
g71
NtRp2917
(dp2918
g74
(dp2919
g82
I3
ssg83
g2913
sg76
(lp2920
g1547
asbasbasbag69
(g85
g71
NtRp2921
(dp2922
g74
(dp2923
sg83
g2602
sg76
(lp2924
g69
(g90
g71
NtRp2925
(dp2926
g74
(dp2927
g94
g95
ssg83
g2921
sg76
(lp2928
S'SERVER_PORT'
p2929
asbag69
(g90
g71
NtRp2930
(dp2931
g74
(dp2932
g101
g102
ssg83
g2921
sg76
(lp2933
S':'
asbag69
(g90
g71
NtRp2934
(dp2935
g74
(dp2936
sg83
g2921
sg76
(lp2937
g69
(g70
g71
NtRp2938
(dp2939
g74
(dp2940
g82
I3
ssg83
g2934
sg76
(lp2941
g1569
asbasbasbag69
(g85
g71
NtRp2942
(dp2943
g74
(dp2944
sg83
g2602
sg76
(lp2945
g69
(g90
g71
NtRp2946
(dp2947
g74
(dp2948
g94
g95
ssg83
g2942
sg76
(lp2949
S'SERVER_PROTOCOL'
p2950
asbag69
(g90
g71
NtRp2951
(dp2952
g74
(dp2953
g101
g102
ssg83
g2942
sg76
(lp2954
S':'
asbag69
(g90
g71
NtRp2955
(dp2956
g74
(dp2957
sg83
g2942
sg76
(lp2958
g69
(g70
g71
NtRp2959
(dp2960
g74
(dp2961
g82
I3
ssg83
g2955
sg76
(lp2962
g1591
asbasbasbag69
(g85
g71
NtRp2963
(dp2964
g74
(dp2965
sg83
g2602
sg76
(lp2966
g69
(g90
g71
NtRp2967
(dp2968
g74
(dp2969
g94
g95
ssg83
g2963
sg76
(lp2970
S'SERVER_SOFTWARE'
p2971
asbag69
(g90
g71
NtRp2972
(dp2973
g74
(dp2974
g101
g102
ssg83
g2963
sg76
(lp2975
S':'
asbag69
(g90
g71
NtRp2976
(dp2977
g74
(dp2978
sg83
g2963
sg76
(lp2979
g69
(g70
g71
NtRp2980
(dp2981
g74
(dp2982
g82
I3
ssg83
g2976
sg76
(lp2983
g1613
asbasbasbag69
(g85
g71
NtRp2984
(dp2985
g74
(dp2986
sg83
g2602
sg76
(lp2987
g69
(g90
g71
NtRp2988
(dp2989
g74
(dp2990
g94
g95
ssg83
g2984
sg76
(lp2991
S'wsgi.errors'
p2992
asbag69
(g90
g71
NtRp2993
(dp2994
g74
(dp2995
g101
g102
ssg83
g2984
sg76
(lp2996
S':'
asbag69
(g90
g71
NtRp2997
(dp2998
g74
(dp2999
sg83
g2984
sg76
(lp3000
g69
(g70
g71
NtRp3001
(dp3002
g74
(dp3003
g82
I3
ssg83
g2997
sg76
(lp3004
S"<open file '<stderr>', mode 'w' at 0x7f07f82d0270>"
p3005
asbasbasbag69
(g85
g71
NtRp3006
(dp3007
g74
(dp3008
sg83
g2602
sg76
(lp3009
g69
(g90
g71
NtRp3010
(dp3011
g74
(dp3012
g94
g95
ssg83
g3006
sg76
(lp3013
S'wsgi.file_wrapper'
p3014
asbag69
(g90
g71
NtRp3015
(dp3016
g74
(dp3017
g101
g102
ssg83
g3006
sg76
(lp3018
S':'
asbag69
(g90
g71
NtRp3019
(dp3020
g74
(dp3021
sg83
g3006
sg76
(lp3022
g69
(g70
g71
NtRp3023
(dp3024
g74
(dp3025
g82
I3
ssg83
g3019
sg76
(lp3026
S'<class wsgiref.util.FileWrapper at 0x1d6c120>'
p3027
asbasbasbag69
(g85
g71
NtRp3028
(dp3029
g74
(dp3030
sg83
g2602
sg76
(lp3031
g69
(g90
g71
NtRp3032
(dp3033
g74
(dp3034
g94
g95
ssg83
g3028
sg76
(lp3035
S'wsgi.input'
p3036
asbag69
(g90
g71
NtRp3037
(dp3038
g74
(dp3039
g101
g102
ssg83
g3028
sg76
(lp3040
S':'
asbag69
(g90
g71
NtRp3041
(dp3042
g74
(dp3043
sg83
g3028
sg76
(lp3044
g69
(g70
g71
NtRp3045
(dp3046
g74
(dp3047
g82
I3
ssg83
g3041
sg76
(lp3048
S'<cStringIO.StringO object at 0x7f07d0261c38>'
p3049
asbasbasbag69
(g85
g71
NtRp3050
(dp3051
g74
(dp3052
sg83
g2602
sg76
(lp3053
g69
(g90
g71
NtRp3054
(dp3055
g74
(dp3056
g94
g95
ssg83
g3050
sg76
(lp3057
S'wsgi.multiprocess'
p3058
asbag69
(g90
g71
NtRp3059
(dp3060
g74
(dp3061
g101
g102
ssg83
g3050
sg76
(lp3062
S':'
asbag69
(g90
g71
NtRp3063
(dp3064
g74
(dp3065
sg83
g3050
sg76
(lp3066
g69
(g70
g71
NtRp3067
(dp3068
g74
(dp3069
g82
I3
ssg83
g3063
sg76
(lp3070
g112
asbasbasbag69
(g85
g71
NtRp3071
(dp3072
g74
(dp3073
sg83
g2602
sg76
(lp3074
g69
(g90
g71
NtRp3075
(dp3076
g74
(dp3077
g94
g95
ssg83
g3071
sg76
(lp3078
S'wsgi.multithread'
p3079
asbag69
(g90
g71
NtRp3080
(dp3081
g74
(dp3082
g101
g102
ssg83
g3071
sg76
(lp3083
S':'
asbag69
(g90
g71
NtRp3084
(dp3085
g74
(dp3086
sg83
g3071
sg76
(lp3087
g69
(g70
g71
NtRp3088
(dp3089
g74
(dp3090
g82
I3
ssg83
g3084
sg76
(lp3091
g1853
asbasbasbag69
(g85
g71
NtRp3092
(dp3093
g74
(dp3094
sg83
g2602
sg76
(lp3095
g69
(g90
g71
NtRp3096
(dp3097
g74
(dp3098
g94
g95
ssg83
g3092
sg76
(lp3099
S'wsgi.run_once'
p3100
asbag69
(g90
g71
NtRp3101
(dp3102
g74
(dp3103
g101
g102
ssg83
g3092
sg76
(lp3104
S':'
asbag69
(g90
g71
NtRp3105
(dp3106
g74
(dp3107
sg83
g3092
sg76
(lp3108
g69
(g70
g71
NtRp3109
(dp3110
g74
(dp3111
g82
I3
ssg83
g3105
sg76
(lp3112
g112
asbasbasbag69
(g85
g71
NtRp3113
(dp3114
g74
(dp3115
sg83
g2602
sg76
(lp3116
g69
(g90
g71
NtRp3117
(dp3118
g74
(dp3119
g94
g95
ssg83
g3113
sg76
(lp3120
S'wsgi.url_scheme'
p3121
asbag69
(g90
g71
NtRp3122
(dp3123
g74
(dp3124
g101
g102
ssg83
g3113
sg76
(lp3125
S':'
asbag69
(g90
g71
NtRp3126
(dp3127
g74
(dp3128
sg83
g3113
sg76
(lp3129
g69
(g70
g71
NtRp3130
(dp3131
g74
(dp3132
g82
I3
ssg83
g3126
sg76
(lp3133
g1896
asbasbasbag69
(g85
g71
NtRp3134
(dp3135
g74
(dp3136
sg83
g2602
sg76
(lp3137
g69
(g90
g71
NtRp3138
(dp3139
g74
(dp3140
g94
g95
ssg83
g3134
sg76
(lp3141
S'wsgi.version'
p3142
asbag69
(g90
g71
NtRp3143
(dp3144
g74
(dp3145
g101
g102
ssg83
g3134
sg76
(lp3146
S':'
asbag69
(g90
g71
NtRp3147
(dp3148
g74
(dp3149
sg83
g3134
sg76
(lp3150
g69
(g70
g71
NtRp3151
(dp3152
g74
(dp3153
g82
I3
ssg83
g3147
sg76
(lp3154
S'1'
asbasbasbasbasbasbasbasbasbasbasbasbasbsS'frames'
p3155
(lp3156
(dp3157
S'file'
p3158
S'/home/chitra/courses/SSAD/web2py/gluon/restricted.py'
p3159
sS'dump'
p3160
(dp3161
S'environment'
p3162
S"{'A': <class 'gluon.html.A'>, 'Auth': <class 'gluon.tools.Auth'>, 'B': <class 'gluon.html.B'>, 'BEAUTIFY': <class 'gluon.html.BEAUTIFY'>, 'BODY': <class 'gluon.html.BODY'>, 'BR': <class 'gluon.html.BR'>, 'BUTTON': <class 'gluon.html.BUTTON'>, 'CAT': <class 'gluon.html.CAT'>, 'CENTER': <class 'gluon.html.CENTER'>, 'CLEANUP': <class 'gluon.validators.CLEANUP'>, ...}"
p3163
sS'ccode'
p3164
S'<code object <module> at 0x7f07d83ba030, file "/...ications/cite_m/controllers/default.py", line 12>'
p3165
ssS'lnum'
p3166
I205
sS'lines'
p3167
(dp3168
I200
S'    try:'
p3169
sI201
S'        if type(code) == types.CodeType:'
p3170
sI202
S'            ccode = code'
p3171
sI203
S'        else:'
p3172
sI204
S'            ccode = compile2(code,layer)'
p3173
sI205
S'        exec ccode in environment'
p3174
sI206
S'    except HTTP:'
p3175
sI207
S'        raise'
p3176
sI208
S'    except RestrictedError:'
p3177
sI209
S'        # do not encapsulate (obfuscate) the original RestrictedError'
p3178
ssS'call'
p3179
S"(code='# -*- coding: utf-8 -*-\\n### required - do no del...rn d\\n\\nresponse._vars=response._caller(final_ans)\\n', environment={'A': <class 'gluon.html.A'>, 'Auth': <class 'gluon.tools.Auth'>, 'B': <class 'gluon.html.B'>, 'BEAUTIFY': <class 'gluon.html.BEAUTIFY'>, 'BODY': <class 'gluon.html.BODY'>, 'BR': <class 'gluon.html.BR'>, 'BUTTON': <class 'gluon.html.BUTTON'>, 'CAT': <class 'gluon.html.CAT'>, 'CENTER': <class 'gluon.html.CENTER'>, 'CLEANUP': <class 'gluon.validators.CLEANUP'>, ...}, layer='/home/chitra/courses/SSAD/web2py/applications/cite_m/controllers/default.py')"
p3180
sS'func'
p3181
S'restricted'
p3182
sa(dp3183
g3158
S'/home/chitra/courses/SSAD/web2py/applications/cite_m/controllers/default.py'
p3184
sg3160
(dp3185
sg3166
I174
sg3167
(dp3186
I163
S'        cited_by=inp.Show_no_of_citations'
p3187
sI164
S'        year=inp.Show_release_date'
p3188
sI165
S'    return [key,level,top,auth,cited_by,year]'
p3189
sI166
S'def bold(d):'
p3190
sI167
S'    pre=""'
p3191
sI168
S'    while pre!=d:'
p3192
sI169
S'        pre=d'
p3193
sI170
S'        d=d.replace("<b>","");'
p3194
sI171
S'        d=d.replace("</b>","");'
p3195
sI172
S'    return d'
p3196
ssg3179
S'()'
p3197
sg3181
S'<module>'
p3198
sa(dp3199
g3158
S'/home/chitra/courses/SSAD/web2py/gluon/globals.py'
p3200
sg3160
(dp3201
S'self'
p3202
S'undefined'
p3203
sS'f'
S'<function final_ans>'
p3204
ssg3166
I173
sg3167
(dp3205
I168
S'        self.menu = []             # used by the default view layout'
p3206
sI169
S'        self.files = []            # used by web2py_ajax.html'
p3207
sI170
S'        self.generic_patterns = [] # patterns to allow generic views'
p3208
sI171
S"        self.delimiters = ('{{','}}')"
p3209
sI172
S'        self._vars = None'
p3210
sI173
S'        self._caller = lambda f: f()'
p3211
sI174
S'        self._view_environment = None'
p3212
sI175
S'        self._custom_commit = None'
p3213
sI176
S'        self._custom_rollback = None'
p3214
sI177
S''
ssg3179
S'(f=<function final_ans>)'
p3215
sg3181
S'<lambda>'
p3216
sa(dp3217
g3158
S'/home/chitra/courses/SSAD/web2py/applications/cite_m/controllers/default.py'
p3218
sg3160
(dp3219
S'global rec'
p3220
S'<function rec>'
p3221
sS'l1'
p3222
S"['database design', 3, 3, True, True, True]"
p3223
sS'bigans'
p3224
S"[['Database design with common sense business reasoning and learning', 'http://dl.acm.org/citation.cfm?id=278245.278246&...M&CFID=176920038&CFTOKEN=57066073&preflayout=flat', 'http://dl.acm.org/ft_gateway.cfm?id=278246&type=pdf&CFID=176920038&CFTOKEN=57066073', 'Storey, Veda C.; Chiang, Roger H. L.; Dey, Debabrata; Goldstein, Robert C.; Sudaresan, Shankar', '12/01/1997', '20', ['http://dl.acm.org/citation.cfm?id=728209&CFID=176920038&CFTOKEN=57066073&preflayout=flat', 'http://dl.acm.org/citation.cfm?id=665971&CFID=176920038&CFTOKEN=57066073&preflayout=flat', 'http://dl.acm.org/citation.cfm?id=758149&CFID=176920038&CFTOKEN=57066073&preflayout=flat'], ['Reuse of Database Design Decisions', 'http://dl.acm.org/citation.cfm?id=728209&CFID=176920038&CFTOKEN=57066073&preflayout=flat', 'http://dl.acm.org/citation.cfm?id=728209&CFID=176920038&CFTOKEN=57066073&preflayout=flat', 'Klettke, Meike', '11/15/1999', 0, []], ['Understanding and Representing Relationship Semantics in Database Design', 'http://dl.acm.org/citation.cfm?id=665971&CFID=176920038&CFTOKEN=57066073&preflayout=flat', 'http://dl.acm.org/citation.cfm?id=665971&CFID=176920038&CFTOKEN=57066073&preflayout=flat', 'Storey, Veda C.', '06/28/2000', '2', ['http://dl.acm.org/citation.cfm?id=2135330&CFID=176920038&CFTOKEN=57066073&preflayout=flat', 'http://dl.acm.org/citation.cfm?id=2111163&CFID=176920038&CFTOKEN=57066073&preflayout=flat', ''], ['Comprehensible answers to pr&#233;cis queries', 'http://dl.acm.org/citation.cfm?id=2135330&CFID=176920038&CFTOKEN=57066073&preflayout=flat', 'http://dl.acm.org/ft_gateway.cfm?id=2135317&ftid=1128859&dwn=1&CFID=176920038&CFTOKEN=57066073', 'Simitsis, Alkis; Koutrika, Georgia', '06/05/2006', 0, []], ['An enhanced search interface for information discovery from digital libraries', 'http://dl.acm.org/citation.cfm?id=2111163&CFID=176920038&CFTOKEN=57066073&preflayout=flat', 'http://dl.acm.org/ft_gateway.cfm?id=2111154&ftid=1104709&dwn=1&CFID=176920038&CFTOKEN=57066073', 'Koutrika, Georgia; Simitsis, Alkis', '09/17/2006', 0, []]], ['An Ontology-Based Framework for Generating and Improving Database Design', 'http://dl.acm.org/citation.cfm?id=758149&CFID=176920038&CFTOKEN=57066073&preflayout=flat', 'http://dl.acm.org/citation.cfm?id=758149&CFID=176920038&CFTOKEN=57066073&preflayout=flat', 'Sugumaran, Vijayan; Storey, Veda C.', '06/27/2002', '5', ['http://dl.acm.org/citation.cfm?id=1894731&CFID=176920038&CFTOKEN=57066073&preflayout=flat', 'http://dl.acm.org/citation.cfm?id=1196114&CFID=176920038&CFTOKEN=57066073&preflayout=flat', 'http://dl.acm.org/citation.cfm?id=1862518&CFID=176920038&CFTOKEN=57066073&preflayout=flat'], ['Requirements ontology and multi-representation strategy for database schema evolution', 'http://dl.acm.org/citation.cfm?id=1894731&CFID=176920038&CFTOKEN=57066073&preflayout=flat', 'http://dl.acm.org/citation.cfm?id=1894731&CFID=176920038&CFTOKEN=57066073&preflayout=flat', 'Bounif, Hassina; Spaccapietra, Stefano; Pottinger, Rachel', '09/02/2005', 0, []], ['Simplifying syntactic and semantic parsing of NL-based queries in advanced application domains', 'http://dl.acm.org/citation.cfm?id=1196114&CFID=176920038&CFTOKEN=57066073&preflayout=flat', 'http://dl.acm.org/citation.cfm?id=1196114&CFID=176920038&CFTOKEN=57066073&preflayout=flat', 'Kapetanios, E.; Baer, D.; Groenewoud, P.', '10/01/2005', '4', ['http://dl.acm.org/citation.cfm?id=1377106&CFID=176920038&CFTOKEN=57066073&preflayout=flat', 'http://dl.acm.org/citation.cfm?id=2171073&CFID=176920038&CFTOKEN=57066073&preflayout=flat', 'http://dl.acm.org/citation.cfm?id=2075798&CFID=176920038&CFTOKEN=57066073&preflayout=flat']], ['A cognitive interactionist sentence parser with simple recurrent networks', 'http://dl.acm.org/citation.cfm?id=1862518&CFID=176920038&CFTOKEN=57066073&preflayout=flat', 'http://dl.acm.org/citation.cfm?id=1862518&CFID=176920038&CFTOKEN=57066073&preflayout=flat', 'Guo, Yi; Shao, Zhiqing; Hua, Nan', '12/01/2010', '2', ['http://dl.acm.org/citation.cfm?id=2337051&CFID=176920038&CFTOKEN=57066073&preflayout=flat', 'http://dl.acm.org/citation.cfm?id=2207425&CFID=176920038&CFTOKEN=57066073&preflayout=flat', '']]]], ['Database design for incomplete relations', 'http://dl.acm.org/citation.cfm?id=310701.310712&...M&CFID=176920038&CFTOKEN=57066073&preflayout=flat', 'http://dl.acm.org/ft_gateway.cfm?id=310712&type=pdf&CFID=176920038&CFTOKEN=57066073', 'Levene, Mark; Loizou, George', '03/01/1999', '11', ['http://dl.acm.org/citation.cfm?id=1777209&CFID=176920038&CFTOKEN=57066073&preflayout=flat', 'http://dl.acm.org/citation.cfm?id=656418&CFID=176920038&CFTOKEN=57066073&preflayout=flat', 'http://dl.acm.org/citation.cfm?id=1886802&CFID=176920038&CFTOKEN=57066073&preflayout=flat'], ['Mining correct properties in incomplete databases', 'http://dl.acm.org/citation.cfm?id=1777209&CFID=176920038&CFTOKEN=57066073&preflayout=flat', 'http://dl.acm.org/citation.cfm?id=1777209&CFID=176920038&CFTOKEN=57066073&preflayout=flat', 'Rioult, Fran&#231;ois; Cr&#233;milleux, Bruno', '09/18/2006', 1, ['http://dl.acm.org/citation.cfm?id=1617587&CFID=176920038&CFTOKEN=57066073&preflayout=flat', '', ''], ['Missing Values: Proposition of a Typology and Characterization with an Association Rule-Based Model', 'http://dl.acm.org/citation.cfm?id=1617587&CFID=176920038&CFTOKEN=57066073&preflayout=flat', 'http://dl.acm.org/citation.cfm?id=1617587&CFID=176920038&CFTOKEN=57066073&preflayout=flat', 'Ben Othman, Leila; Rioult, Fran&#231;ois; Ben Yahia, Sadok; Cr&#233;milleux, Bruno', '08/30/2009', 0, []]], ['FUN: An Efficient Algorithm for Mining Functional and Embedded Dependencies', 'http://dl.acm.org/citation.cfm?id=656418&CFID=176920038&CFTOKEN=57066073&preflayout=flat', 'http://dl.acm.org/citation.cfm?id=656418&CFID=176920038&CFTOKEN=57066073&preflayout=flat', 'Novelli, Noel; Cicchetti, Rosine', '01/04/2001', '7', ['http://dl.acm.org/citation.cfm?id=2026737&CFID=176920038&CFTOKEN=57066073&preflayout=flat', 'http://dl.acm.org/citation.cfm?id=2041339&CFID=176920038&CFTOKEN=57066073&preflayout=flat', 'http://dl.acm.org/citation.cfm?id=1883984&CFID=176920038&CFTOKEN=57066073&preflayout=flat'], ['Interactively eliciting database constraints and dependencies', 'http://dl.acm.org/citation.cfm?id=2026737&CFID=176920038&CFTOKEN=57066073&preflayout=flat', 'http://dl.acm.org/ft_gateway.cfm?id=2026718&ftid=1019580&dwn=1&CFID=176920038&CFTOKEN=57066073', 'Ramdoyal, Ravi; Hainaut, Jean-Luc', '06/20/2011', 1, ['http://dl.acm.org/citation.cfm?id=2075170&CFID=176920038&CFTOKEN=57066073&preflayout=flat', '', '']], ['Towards a parallel approach for incremental mining of functional dependencies on multi-core systems', 'http://dl.acm.org/citation.cfm?id=2041339&CFID=176920038&CFTOKEN=57066073&preflayout=flat', 'http://dl.acm.org/ft_gateway.cfm?id=2041275&ftid=1039082&dwn=1&CFID=176920038&CFTOKEN=57066073', 'Gasmi, Ghada; Slimani, Yahya; Lakhal, Lotfi', '09/12/2011', 0, []], ['Automatically extracting class diagrams from spreadsheets', 'http://dl.acm.org/citation.cfm?id=1883984&CFID=176920038&CFTOKEN=57066073&preflayout=flat', 'http://dl.acm.org/citation.cfm?id=1883984&CFID=176920038&CFTOKEN=57066073&preflayout=flat', 'Hermans, Felienne; Pinzger, Martin; van Deursen, Arie', '06/21/2010', '5', ['http://dl.acm.org/citation.cfm?id=2337500&CFID=176920038&CFTOKEN=57066073&preflayout=flat', 'http://dl.acm.org/citation.cfm?id=2231957&CFID=176920038&CFTOKEN=57066073&preflayout=flat', 'http://dl.acm.org/citation.cfm?id=1985855&CFID=176920038&CFTOKEN=57066073&preflayout=flat']]], ['On the role of the complementation rule for data dependencies over incomplete relations', 'http://dl.acm.org/citation.cfm?id=1886802&CFID=176920038&CFTOKEN=57066073&preflayout=flat', 'http://dl.acm.org/citation.cfm?id=1886802&CFID=176920038&CFTOKEN=57066073&preflayout=flat', 'Ferrarotti, Flavio; Hartmann, Sven; Link, Sebastian', '07/06/2010', '2', ['http://dl.acm.org/citation.cfm?id=2198182&CFID=176920038&CFTOKEN=57066073&preflayout=flat', 'http://dl.acm.org/citation.cfm?id=2351783&CFID=176920038&CFTOKEN=57066073&preflayout=flat', ''], ['Appropriate inferences of data dependencies in relational databases', 'http://dl.acm.org/citation.cfm?id=2198182&CFID=176920038&CFTOKEN=57066073&preflayout=flat', 'http://dl.acm.org/citation.cfm?id=2198182&CFID=176920038&CFTOKEN=57066073&preflayout=flat', 'Biskup, Joachim; Link, Sebastian', '12/01/2011', 1, ['http://dl.acm.org/citation.cfm?id=2188355&CFID=176920038&CFTOKEN=57066073&preflayout=flat', '', '']], ['On Inferences of Full First-Order Hierarchical Decompositions', 'http://dl.acm.org/citation.cfm?id=2351783&CFID=176920038&CFTOKEN=57066073&preflayout=flat', 'http://dl.acm.org/citation.cfm?id=2351783&CFID=176920038&CFTOKEN=57066073&preflayout=flat', 'Link, Sebastian', '04/01/2011', 0, []]]], ['The role of domain ontologies in database design...gy management and conceptual modeling environment', 'http://dl.acm.org/citation.cfm?id=1166074.116608...M&CFID=176920038&CFTOKEN=57066073&preflayout=flat', 'http://dl.acm.org/ft_gateway.cfm?id=1166083&ftid=382508&dwn=1&CFID=176920038&CFTOKEN=57066073', 'Sugumaran, Vijayan; Storey, Veda C.', '09/01/2006', '16', ['http://dl.acm.org/citation.cfm?id=1434580&CFID=176920038&CFTOKEN=57066073&preflayout=flat', 'http://dl.acm.org/citation.cfm?id=1330610&CFID=176920038&CFTOKEN=57066073&preflayout=flat', 'http://dl.acm.org/citation.cfm?id=2264285&CFID=176920038&CFTOKEN=57066073&preflayout=flat']]]"
p3225
sS'fst_l'
p3226
S"['http://dl.acm.org/citation.cfm?id=278245.278246&...M&CFID=176920038&CFTOKEN=57066073&preflayout=flat', 'http://dl.acm.org/citation.cfm?id=310701.310712&...M&CFID=176920038&CFTOKEN=57066073&preflayout=flat', 'http://dl.acm.org/citation.cfm?id=1166074.116608...M&CFID=176920038&CFTOKEN=57066073&preflayout=flat']"
p3227
ssg3166
I77
sg3167
(dp3228
I72
S'    l1=u_filter()'
p3229
sI73
S'    url="http://dl.acm.org/results.cfm?h=1&query="+\'+\'.join(l1[0].split())'
p3230
sI74
S'    fst_l=[]'
p3231
sI75
S'    ret1=[]'
p3232
sI76
S'    fst_l,ret1=extract1(url,l1)'
p3233
sI77
S'    rec(fst_l,l1,bigans)'
p3234
sI78
S'    return dict(bigans=bigans,level=l1[1],top=l1[2],ret1=ret1)'
p3235
sI79
S'def rec(list1,l1,bigans):'
p3236
sI80
S'    global count'
p3237
sI81
S'    count=count+1'
p3238
ssg3179
S'()'
p3239
sg3181
S'final_ans'
p3240
sa(dp3241
g3158
S'/home/chitra/courses/SSAD/web2py/applications/cite_m/controllers/default.py'
p3242
sg3160
(dp3243
S'global rec'
p3244
S'<function rec>'
p3245
sS'z'
S"['The role of domain ontologies in database design...gy management and conceptual modeling environment', 'http://dl.acm.org/citation.cfm?id=1166074.116608...M&CFID=176920038&CFTOKEN=57066073&preflayout=flat', 'http://dl.acm.org/ft_gateway.cfm?id=1166083&ftid=382508&dwn=1&CFID=176920038&CFTOKEN=57066073', 'Sugumaran, Vijayan; Storey, Veda C.', '09/01/2006', '16', ['http://dl.acm.org/citation.cfm?id=1434580&CFID=176920038&CFTOKEN=57066073&preflayout=flat', 'http://dl.acm.org/citation.cfm?id=1330610&CFID=176920038&CFTOKEN=57066073&preflayout=flat', 'http://dl.acm.org/citation.cfm?id=2264285&CFID=176920038&CFTOKEN=57066073&preflayout=flat']]"
p3246
sS'bigans'
p3247
S"[['Database design with common sense business reasoning and learning', 'http://dl.acm.org/citation.cfm?id=278245.278246&...M&CFID=176920038&CFTOKEN=57066073&preflayout=flat', 'http://dl.acm.org/ft_gateway.cfm?id=278246&type=pdf&CFID=176920038&CFTOKEN=57066073', 'Storey, Veda C.; Chiang, Roger H. L.; Dey, Debabrata; Goldstein, Robert C.; Sudaresan, Shankar', '12/01/1997', '20', ['http://dl.acm.org/citation.cfm?id=728209&CFID=176920038&CFTOKEN=57066073&preflayout=flat', 'http://dl.acm.org/citation.cfm?id=665971&CFID=176920038&CFTOKEN=57066073&preflayout=flat', 'http://dl.acm.org/citation.cfm?id=758149&CFID=176920038&CFTOKEN=57066073&preflayout=flat'], ['Reuse of Database Design Decisions', 'http://dl.acm.org/citation.cfm?id=728209&CFID=176920038&CFTOKEN=57066073&preflayout=flat', 'http://dl.acm.org/citation.cfm?id=728209&CFID=176920038&CFTOKEN=57066073&preflayout=flat', 'Klettke, Meike', '11/15/1999', 0, []], ['Understanding and Representing Relationship Semantics in Database Design', 'http://dl.acm.org/citation.cfm?id=665971&CFID=176920038&CFTOKEN=57066073&preflayout=flat', 'http://dl.acm.org/citation.cfm?id=665971&CFID=176920038&CFTOKEN=57066073&preflayout=flat', 'Storey, Veda C.', '06/28/2000', '2', ['http://dl.acm.org/citation.cfm?id=2135330&CFID=176920038&CFTOKEN=57066073&preflayout=flat', 'http://dl.acm.org/citation.cfm?id=2111163&CFID=176920038&CFTOKEN=57066073&preflayout=flat', ''], ['Comprehensible answers to pr&#233;cis queries', 'http://dl.acm.org/citation.cfm?id=2135330&CFID=176920038&CFTOKEN=57066073&preflayout=flat', 'http://dl.acm.org/ft_gateway.cfm?id=2135317&ftid=1128859&dwn=1&CFID=176920038&CFTOKEN=57066073', 'Simitsis, Alkis; Koutrika, Georgia', '06/05/2006', 0, []], ['An enhanced search interface for information discovery from digital libraries', 'http://dl.acm.org/citation.cfm?id=2111163&CFID=176920038&CFTOKEN=57066073&preflayout=flat', 'http://dl.acm.org/ft_gateway.cfm?id=2111154&ftid=1104709&dwn=1&CFID=176920038&CFTOKEN=57066073', 'Koutrika, Georgia; Simitsis, Alkis', '09/17/2006', 0, []]], ['An Ontology-Based Framework for Generating and Improving Database Design', 'http://dl.acm.org/citation.cfm?id=758149&CFID=176920038&CFTOKEN=57066073&preflayout=flat', 'http://dl.acm.org/citation.cfm?id=758149&CFID=176920038&CFTOKEN=57066073&preflayout=flat', 'Sugumaran, Vijayan; Storey, Veda C.', '06/27/2002', '5', ['http://dl.acm.org/citation.cfm?id=1894731&CFID=176920038&CFTOKEN=57066073&preflayout=flat', 'http://dl.acm.org/citation.cfm?id=1196114&CFID=176920038&CFTOKEN=57066073&preflayout=flat', 'http://dl.acm.org/citation.cfm?id=1862518&CFID=176920038&CFTOKEN=57066073&preflayout=flat'], ['Requirements ontology and multi-representation strategy for database schema evolution', 'http://dl.acm.org/citation.cfm?id=1894731&CFID=176920038&CFTOKEN=57066073&preflayout=flat', 'http://dl.acm.org/citation.cfm?id=1894731&CFID=176920038&CFTOKEN=57066073&preflayout=flat', 'Bounif, Hassina; Spaccapietra, Stefano; Pottinger, Rachel', '09/02/2005', 0, []], ['Simplifying syntactic and semantic parsing of NL-based queries in advanced application domains', 'http://dl.acm.org/citation.cfm?id=1196114&CFID=176920038&CFTOKEN=57066073&preflayout=flat', 'http://dl.acm.org/citation.cfm?id=1196114&CFID=176920038&CFTOKEN=57066073&preflayout=flat', 'Kapetanios, E.; Baer, D.; Groenewoud, P.', '10/01/2005', '4', ['http://dl.acm.org/citation.cfm?id=1377106&CFID=176920038&CFTOKEN=57066073&preflayout=flat', 'http://dl.acm.org/citation.cfm?id=2171073&CFID=176920038&CFTOKEN=57066073&preflayout=flat', 'http://dl.acm.org/citation.cfm?id=2075798&CFID=176920038&CFTOKEN=57066073&preflayout=flat']], ['A cognitive interactionist sentence parser with simple recurrent networks', 'http://dl.acm.org/citation.cfm?id=1862518&CFID=176920038&CFTOKEN=57066073&preflayout=flat', 'http://dl.acm.org/citation.cfm?id=1862518&CFID=176920038&CFTOKEN=57066073&preflayout=flat', 'Guo, Yi; Shao, Zhiqing; Hua, Nan', '12/01/2010', '2', ['http://dl.acm.org/citation.cfm?id=2337051&CFID=176920038&CFTOKEN=57066073&preflayout=flat', 'http://dl.acm.org/citation.cfm?id=2207425&CFID=176920038&CFTOKEN=57066073&preflayout=flat', '']]]], ['Database design for incomplete relations', 'http://dl.acm.org/citation.cfm?id=310701.310712&...M&CFID=176920038&CFTOKEN=57066073&preflayout=flat', 'http://dl.acm.org/ft_gateway.cfm?id=310712&type=pdf&CFID=176920038&CFTOKEN=57066073', 'Levene, Mark; Loizou, George', '03/01/1999', '11', ['http://dl.acm.org/citation.cfm?id=1777209&CFID=176920038&CFTOKEN=57066073&preflayout=flat', 'http://dl.acm.org/citation.cfm?id=656418&CFID=176920038&CFTOKEN=57066073&preflayout=flat', 'http://dl.acm.org/citation.cfm?id=1886802&CFID=176920038&CFTOKEN=57066073&preflayout=flat'], ['Mining correct properties in incomplete databases', 'http://dl.acm.org/citation.cfm?id=1777209&CFID=176920038&CFTOKEN=57066073&preflayout=flat', 'http://dl.acm.org/citation.cfm?id=1777209&CFID=176920038&CFTOKEN=57066073&preflayout=flat', 'Rioult, Fran&#231;ois; Cr&#233;milleux, Bruno', '09/18/2006', 1, ['http://dl.acm.org/citation.cfm?id=1617587&CFID=176920038&CFTOKEN=57066073&preflayout=flat', '', ''], ['Missing Values: Proposition of a Typology and Characterization with an Association Rule-Based Model', 'http://dl.acm.org/citation.cfm?id=1617587&CFID=176920038&CFTOKEN=57066073&preflayout=flat', 'http://dl.acm.org/citation.cfm?id=1617587&CFID=176920038&CFTOKEN=57066073&preflayout=flat', 'Ben Othman, Leila; Rioult, Fran&#231;ois; Ben Yahia, Sadok; Cr&#233;milleux, Bruno', '08/30/2009', 0, []]], ['FUN: An Efficient Algorithm for Mining Functional and Embedded Dependencies', 'http://dl.acm.org/citation.cfm?id=656418&CFID=176920038&CFTOKEN=57066073&preflayout=flat', 'http://dl.acm.org/citation.cfm?id=656418&CFID=176920038&CFTOKEN=57066073&preflayout=flat', 'Novelli, Noel; Cicchetti, Rosine', '01/04/2001', '7', ['http://dl.acm.org/citation.cfm?id=2026737&CFID=176920038&CFTOKEN=57066073&preflayout=flat', 'http://dl.acm.org/citation.cfm?id=2041339&CFID=176920038&CFTOKEN=57066073&preflayout=flat', 'http://dl.acm.org/citation.cfm?id=1883984&CFID=176920038&CFTOKEN=57066073&preflayout=flat'], ['Interactively eliciting database constraints and dependencies', 'http://dl.acm.org/citation.cfm?id=2026737&CFID=176920038&CFTOKEN=57066073&preflayout=flat', 'http://dl.acm.org/ft_gateway.cfm?id=2026718&ftid=1019580&dwn=1&CFID=176920038&CFTOKEN=57066073', 'Ramdoyal, Ravi; Hainaut, Jean-Luc', '06/20/2011', 1, ['http://dl.acm.org/citation.cfm?id=2075170&CFID=176920038&CFTOKEN=57066073&preflayout=flat', '', '']], ['Towards a parallel approach for incremental mining of functional dependencies on multi-core systems', 'http://dl.acm.org/citation.cfm?id=2041339&CFID=176920038&CFTOKEN=57066073&preflayout=flat', 'http://dl.acm.org/ft_gateway.cfm?id=2041275&ftid=1039082&dwn=1&CFID=176920038&CFTOKEN=57066073', 'Gasmi, Ghada; Slimani, Yahya; Lakhal, Lotfi', '09/12/2011', 0, []], ['Automatically extracting class diagrams from spreadsheets', 'http://dl.acm.org/citation.cfm?id=1883984&CFID=176920038&CFTOKEN=57066073&preflayout=flat', 'http://dl.acm.org/citation.cfm?id=1883984&CFID=176920038&CFTOKEN=57066073&preflayout=flat', 'Hermans, Felienne; Pinzger, Martin; van Deursen, Arie', '06/21/2010', '5', ['http://dl.acm.org/citation.cfm?id=2337500&CFID=176920038&CFTOKEN=57066073&preflayout=flat', 'http://dl.acm.org/citation.cfm?id=2231957&CFID=176920038&CFTOKEN=57066073&preflayout=flat', 'http://dl.acm.org/citation.cfm?id=1985855&CFID=176920038&CFTOKEN=57066073&preflayout=flat']]], ['On the role of the complementation rule for data dependencies over incomplete relations', 'http://dl.acm.org/citation.cfm?id=1886802&CFID=176920038&CFTOKEN=57066073&preflayout=flat', 'http://dl.acm.org/citation.cfm?id=1886802&CFID=176920038&CFTOKEN=57066073&preflayout=flat', 'Ferrarotti, Flavio; Hartmann, Sven; Link, Sebastian', '07/06/2010', '2', ['http://dl.acm.org/citation.cfm?id=2198182&CFID=176920038&CFTOKEN=57066073&preflayout=flat', 'http://dl.acm.org/citation.cfm?id=2351783&CFID=176920038&CFTOKEN=57066073&preflayout=flat', ''], ['Appropriate inferences of data dependencies in relational databases', 'http://dl.acm.org/citation.cfm?id=2198182&CFID=176920038&CFTOKEN=57066073&preflayout=flat', 'http://dl.acm.org/citation.cfm?id=2198182&CFID=176920038&CFTOKEN=57066073&preflayout=flat', 'Biskup, Joachim; Link, Sebastian', '12/01/2011', 1, ['http://dl.acm.org/citation.cfm?id=2188355&CFID=176920038&CFTOKEN=57066073&preflayout=flat', '', '']], ['On Inferences of Full First-Order Hierarchical Decompositions', 'http://dl.acm.org/citation.cfm?id=2351783&CFID=176920038&CFTOKEN=57066073&preflayout=flat', 'http://dl.acm.org/citation.cfm?id=2351783&CFID=176920038&CFTOKEN=57066073&preflayout=flat', 'Link, Sebastian', '04/01/2011', 0, []]]], ['The role of domain ontologies in database design...gy management and conceptual modeling environment', 'http://dl.acm.org/citation.cfm?id=1166074.116608...M&CFID=176920038&CFTOKEN=57066073&preflayout=flat', 'http://dl.acm.org/ft_gateway.cfm?id=1166083&ftid=382508&dwn=1&CFID=176920038&CFTOKEN=57066073', 'Sugumaran, Vijayan; Storey, Veda C.', '09/01/2006', '16', ['http://dl.acm.org/citation.cfm?id=1434580&CFID=176920038&CFTOKEN=57066073&preflayout=flat', 'http://dl.acm.org/citation.cfm?id=1330610&CFID=176920038&CFTOKEN=57066073&preflayout=flat', 'http://dl.acm.org/citation.cfm?id=2264285&CFID=176920038&CFTOKEN=57066073&preflayout=flat']]]"
p3248
sS'l1'
p3249
S"['database design', 3, 3, True, True, True]"
p3250
ssg3166
I91
sg3167
(dp3251
I86
S'            z=cite(x)'
p3252
sI87
S'            #global listf'
p3253
sI88
S'            #listf[count-1].append(z)'
p3254
sI89
S'            bigans.append(z)'
p3255
sI90
S'            if count < l1[1]:'
p3256
sI91
S'                rec(z[6],l1,bigans[-1])'
p3257
sI92
S'    count=count-1'
p3258
sI93
S'    return'
p3259
sI94
S'def cite(url):'
p3260
sI95
S"    if url=='':"
p3261
ssg3179
S"(list1=['http://dl.acm.org/citation.cfm?id=278245.278246&...M&CFID=176920038&CFTOKEN=57066073&preflayout=flat', 'http://dl.acm.org/citation.cfm?id=310701.310712&...M&CFID=176920038&CFTOKEN=57066073&preflayout=flat', 'http://dl.acm.org/citation.cfm?id=1166074.116608...M&CFID=176920038&CFTOKEN=57066073&preflayout=flat'], l1=['database design', 3, 3, True, True, True], bigans=[['Database design with common sense business reasoning and learning', 'http://dl.acm.org/citation.cfm?id=278245.278246&...M&CFID=176920038&CFTOKEN=57066073&preflayout=flat', 'http://dl.acm.org/ft_gateway.cfm?id=278246&type=pdf&CFID=176920038&CFTOKEN=57066073', 'Storey, Veda C.; Chiang, Roger H. L.; Dey, Debabrata; Goldstein, Robert C.; Sudaresan, Shankar', '12/01/1997', '20', ['http://dl.acm.org/citation.cfm?id=728209&CFID=176920038&CFTOKEN=57066073&preflayout=flat', 'http://dl.acm.org/citation.cfm?id=665971&CFID=176920038&CFTOKEN=57066073&preflayout=flat', 'http://dl.acm.org/citation.cfm?id=758149&CFID=176920038&CFTOKEN=57066073&preflayout=flat'], ['Reuse of Database Design Decisions', 'http://dl.acm.org/citation.cfm?id=728209&CFID=176920038&CFTOKEN=57066073&preflayout=flat', 'http://dl.acm.org/citation.cfm?id=728209&CFID=176920038&CFTOKEN=57066073&preflayout=flat', 'Klettke, Meike', '11/15/1999', 0, []], ['Understanding and Representing Relationship Semantics in Database Design', 'http://dl.acm.org/citation.cfm?id=665971&CFID=176920038&CFTOKEN=57066073&preflayout=flat', 'http://dl.acm.org/citation.cfm?id=665971&CFID=176920038&CFTOKEN=57066073&preflayout=flat', 'Storey, Veda C.', '06/28/2000', '2', ['http://dl.acm.org/citation.cfm?id=2135330&CFID=176920038&CFTOKEN=57066073&preflayout=flat', 'http://dl.acm.org/citation.cfm?id=2111163&CFID=176920038&CFTOKEN=57066073&preflayout=flat', ''], ['Comprehensible answers to pr&#233;cis queries', 'http://dl.acm.org/citation.cfm?id=2135330&CFID=176920038&CFTOKEN=57066073&preflayout=flat', 'http://dl.acm.org/ft_gateway.cfm?id=2135317&ftid=1128859&dwn=1&CFID=176920038&CFTOKEN=57066073', 'Simitsis, Alkis; Koutrika, Georgia', '06/05/2006', 0, []], ['An enhanced search interface for information discovery from digital libraries', 'http://dl.acm.org/citation.cfm?id=2111163&CFID=176920038&CFTOKEN=57066073&preflayout=flat', 'http://dl.acm.org/ft_gateway.cfm?id=2111154&ftid=1104709&dwn=1&CFID=176920038&CFTOKEN=57066073', 'Koutrika, Georgia; Simitsis, Alkis', '09/17/2006', 0, []]], ['An Ontology-Based Framework for Generating and Improving Database Design', 'http://dl.acm.org/citation.cfm?id=758149&CFID=176920038&CFTOKEN=57066073&preflayout=flat', 'http://dl.acm.org/citation.cfm?id=758149&CFID=176920038&CFTOKEN=57066073&preflayout=flat', 'Sugumaran, Vijayan; Storey, Veda C.', '06/27/2002', '5', ['http://dl.acm.org/citation.cfm?id=1894731&CFID=176920038&CFTOKEN=57066073&preflayout=flat', 'http://dl.acm.org/citation.cfm?id=1196114&CFID=176920038&CFTOKEN=57066073&preflayout=flat', 'http://dl.acm.org/citation.cfm?id=1862518&CFID=176920038&CFTOKEN=57066073&preflayout=flat'], ['Requirements ontology and multi-representation strategy for database schema evolution', 'http://dl.acm.org/citation.cfm?id=1894731&CFID=176920038&CFTOKEN=57066073&preflayout=flat', 'http://dl.acm.org/citation.cfm?id=1894731&CFID=176920038&CFTOKEN=57066073&preflayout=flat', 'Bounif, Hassina; Spaccapietra, Stefano; Pottinger, Rachel', '09/02/2005', 0, []], ['Simplifying syntactic and semantic parsing of NL-based queries in advanced application domains', 'http://dl.acm.org/citation.cfm?id=1196114&CFID=176920038&CFTOKEN=57066073&preflayout=flat', 'http://dl.acm.org/citation.cfm?id=1196114&CFID=176920038&CFTOKEN=57066073&preflayout=flat', 'Kapetanios, E.; Baer, D.; Groenewoud, P.', '10/01/2005', '4', ['http://dl.acm.org/citation.cfm?id=1377106&CFID=176920038&CFTOKEN=57066073&preflayout=flat', 'http://dl.acm.org/citation.cfm?id=2171073&CFID=176920038&CFTOKEN=57066073&preflayout=flat', 'http://dl.acm.org/citation.cfm?id=2075798&CFID=176920038&CFTOKEN=57066073&preflayout=flat']], ['A cognitive interactionist sentence parser with simple recurrent networks', 'http://dl.acm.org/citation.cfm?id=1862518&CFID=176920038&CFTOKEN=57066073&preflayout=flat', 'http://dl.acm.org/citation.cfm?id=1862518&CFID=176920038&CFTOKEN=57066073&preflayout=flat', 'Guo, Yi; Shao, Zhiqing; Hua, Nan', '12/01/2010', '2', ['http://dl.acm.org/citation.cfm?id=2337051&CFID=176920038&CFTOKEN=57066073&preflayout=flat', 'http://dl.acm.org/citation.cfm?id=2207425&CFID=176920038&CFTOKEN=57066073&preflayout=flat', '']]]], ['Database design for incomplete relations', 'http://dl.acm.org/citation.cfm?id=310701.310712&...M&CFID=176920038&CFTOKEN=57066073&preflayout=flat', 'http://dl.acm.org/ft_gateway.cfm?id=310712&type=pdf&CFID=176920038&CFTOKEN=57066073', 'Levene, Mark; Loizou, George', '03/01/1999', '11', ['http://dl.acm.org/citation.cfm?id=1777209&CFID=176920038&CFTOKEN=57066073&preflayout=flat', 'http://dl.acm.org/citation.cfm?id=656418&CFID=176920038&CFTOKEN=57066073&preflayout=flat', 'http://dl.acm.org/citation.cfm?id=1886802&CFID=176920038&CFTOKEN=57066073&preflayout=flat'], ['Mining correct properties in incomplete databases', 'http://dl.acm.org/citation.cfm?id=1777209&CFID=176920038&CFTOKEN=57066073&preflayout=flat', 'http://dl.acm.org/citation.cfm?id=1777209&CFID=176920038&CFTOKEN=57066073&preflayout=flat', 'Rioult, Fran&#231;ois; Cr&#233;milleux, Bruno', '09/18/2006', 1, ['http://dl.acm.org/citation.cfm?id=1617587&CFID=176920038&CFTOKEN=57066073&preflayout=flat', '', ''], ['Missing Values: Proposition of a Typology and Characterization with an Association Rule-Based Model', 'http://dl.acm.org/citation.cfm?id=1617587&CFID=176920038&CFTOKEN=57066073&preflayout=flat', 'http://dl.acm.org/citation.cfm?id=1617587&CFID=176920038&CFTOKEN=57066073&preflayout=flat', 'Ben Othman, Leila; Rioult, Fran&#231;ois; Ben Yahia, Sadok; Cr&#233;milleux, Bruno', '08/30/2009', 0, []]], ['FUN: An Efficient Algorithm for Mining Functional and Embedded Dependencies', 'http://dl.acm.org/citation.cfm?id=656418&CFID=176920038&CFTOKEN=57066073&preflayout=flat', 'http://dl.acm.org/citation.cfm?id=656418&CFID=176920038&CFTOKEN=57066073&preflayout=flat', 'Novelli, Noel; Cicchetti, Rosine', '01/04/2001', '7', ['http://dl.acm.org/citation.cfm?id=2026737&CFID=176920038&CFTOKEN=57066073&preflayout=flat', 'http://dl.acm.org/citation.cfm?id=2041339&CFID=176920038&CFTOKEN=57066073&preflayout=flat', 'http://dl.acm.org/citation.cfm?id=1883984&CFID=176920038&CFTOKEN=57066073&preflayout=flat'], ['Interactively eliciting database constraints and dependencies', 'http://dl.acm.org/citation.cfm?id=2026737&CFID=176920038&CFTOKEN=57066073&preflayout=flat', 'http://dl.acm.org/ft_gateway.cfm?id=2026718&ftid=1019580&dwn=1&CFID=176920038&CFTOKEN=57066073', 'Ramdoyal, Ravi; Hainaut, Jean-Luc', '06/20/2011', 1, ['http://dl.acm.org/citation.cfm?id=2075170&CFID=176920038&CFTOKEN=57066073&preflayout=flat', '', '']], ['Towards a parallel approach for incremental mining of functional dependencies on multi-core systems', 'http://dl.acm.org/citation.cfm?id=2041339&CFID=176920038&CFTOKEN=57066073&preflayout=flat', 'http://dl.acm.org/ft_gateway.cfm?id=2041275&ftid=1039082&dwn=1&CFID=176920038&CFTOKEN=57066073', 'Gasmi, Ghada; Slimani, Yahya; Lakhal, Lotfi', '09/12/2011', 0, []], ['Automatically extracting class diagrams from spreadsheets', 'http://dl.acm.org/citation.cfm?id=1883984&CFID=176920038&CFTOKEN=57066073&preflayout=flat', 'http://dl.acm.org/citation.cfm?id=1883984&CFID=176920038&CFTOKEN=57066073&preflayout=flat', 'Hermans, Felienne; Pinzger, Martin; van Deursen, Arie', '06/21/2010', '5', ['http://dl.acm.org/citation.cfm?id=2337500&CFID=176920038&CFTOKEN=57066073&preflayout=flat', 'http://dl.acm.org/citation.cfm?id=2231957&CFID=176920038&CFTOKEN=57066073&preflayout=flat', 'http://dl.acm.org/citation.cfm?id=1985855&CFID=176920038&CFTOKEN=57066073&preflayout=flat']]], ['On the role of the complementation rule for data dependencies over incomplete relations', 'http://dl.acm.org/citation.cfm?id=1886802&CFID=176920038&CFTOKEN=57066073&preflayout=flat', 'http://dl.acm.org/citation.cfm?id=1886802&CFID=176920038&CFTOKEN=57066073&preflayout=flat', 'Ferrarotti, Flavio; Hartmann, Sven; Link, Sebastian', '07/06/2010', '2', ['http://dl.acm.org/citation.cfm?id=2198182&CFID=176920038&CFTOKEN=57066073&preflayout=flat', 'http://dl.acm.org/citation.cfm?id=2351783&CFID=176920038&CFTOKEN=57066073&preflayout=flat', ''], ['Appropriate inferences of data dependencies in relational databases', 'http://dl.acm.org/citation.cfm?id=2198182&CFID=176920038&CFTOKEN=57066073&preflayout=flat', 'http://dl.acm.org/citation.cfm?id=2198182&CFID=176920038&CFTOKEN=57066073&preflayout=flat', 'Biskup, Joachim; Link, Sebastian', '12/01/2011', 1, ['http://dl.acm.org/citation.cfm?id=2188355&CFID=176920038&CFTOKEN=57066073&preflayout=flat', '', '']], ['On Inferences of Full First-Order Hierarchical Decompositions', 'http://dl.acm.org/citation.cfm?id=2351783&CFID=176920038&CFTOKEN=57066073&preflayout=flat', 'http://dl.acm.org/citation.cfm?id=2351783&CFID=176920038&CFTOKEN=57066073&preflayout=flat', 'Link, Sebastian', '04/01/2011', 0, []]]], ['The role of domain ontologies in database design...gy management and conceptual modeling environment', 'http://dl.acm.org/citation.cfm?id=1166074.116608...M&CFID=176920038&CFTOKEN=57066073&preflayout=flat', 'http://dl.acm.org/ft_gateway.cfm?id=1166083&ftid=382508&dwn=1&CFID=176920038&CFTOKEN=57066073', 'Sugumaran, Vijayan; Storey, Veda C.', '09/01/2006', '16', ['http://dl.acm.org/citation.cfm?id=1434580&CFID=176920038&CFTOKEN=57066073&preflayout=flat', 'http://dl.acm.org/citation.cfm?id=1330610&CFID=176920038&CFTOKEN=57066073&preflayout=flat', 'http://dl.acm.org/citation.cfm?id=2264285&CFID=176920038&CFTOKEN=57066073&preflayout=flat']]])"
p3262
sg3181
S'rec'
p3263
sa(dp3264
g3158
S'/home/chitra/courses/SSAD/web2py/applications/cite_m/controllers/default.py'
p3265
sg3160
(dp3266
S'global cite'
p3267
S'<function cite>'
p3268
sS'z'
g3203
sS'x'
S"'http://dl.acm.org/citation.cfm?id=1434580&CFID=176920038&CFTOKEN=57066073&preflayout=flat'"
p3269
ssg3166
I86
sg3167
(dp3270
I81
S'    count=count+1'
p3271
sI82
S'    global listf'
p3272
sI83
S'    listf.append([])'
p3273
sI84
S'    for x in list1:'
p3274
sI85
S"        if x!='':"
p3275
sI86
S'            z=cite(x)'
p3276
sI87
S'            #global listf'
p3277
sI88
S'            #listf[count-1].append(z)'
p3278
sI89
S'            bigans.append(z)'
p3279
sI90
S'            if count < l1[1]:'
p3280
ssg3179
S"(list1=['http://dl.acm.org/citation.cfm?id=1434580&CFID=176920038&CFTOKEN=57066073&preflayout=flat', 'http://dl.acm.org/citation.cfm?id=1330610&CFID=176920038&CFTOKEN=57066073&preflayout=flat', 'http://dl.acm.org/citation.cfm?id=2264285&CFID=176920038&CFTOKEN=57066073&preflayout=flat'], l1=['database design', 3, 3, True, True, True], bigans=['The role of domain ontologies in database design...gy management and conceptual modeling environment', 'http://dl.acm.org/citation.cfm?id=1166074.116608...M&CFID=176920038&CFTOKEN=57066073&preflayout=flat', 'http://dl.acm.org/ft_gateway.cfm?id=1166083&ftid=382508&dwn=1&CFID=176920038&CFTOKEN=57066073', 'Sugumaran, Vijayan; Storey, Veda C.', '09/01/2006', '16', ['http://dl.acm.org/citation.cfm?id=1434580&CFID=176920038&CFTOKEN=57066073&preflayout=flat', 'http://dl.acm.org/citation.cfm?id=1330610&CFID=176920038&CFTOKEN=57066073&preflayout=flat', 'http://dl.acm.org/citation.cfm?id=2264285&CFID=176920038&CFTOKEN=57066073&preflayout=flat']])"
p3281
sg3181
g3263
sa(dp3282
g3158
S'/home/chitra/courses/SSAD/web2py/applications/cite_m/controllers/default.py'
p3283
sg3160
(dp3284
S'url'
p3285
S"'http://dl.acm.org/citation.cfm?id=1434580&CFID=176920038&CFTOKEN=57066073&preflayout=flat'"
p3286
sS'html'
p3287
g3203
sS'global fetch'
p3288
S'<function fetch>'
p3289
ssg3166
I98
sg3167
(dp3290
I96
S'        return []'
p3291
sI97
S'    l1=u_filter()'
p3292
sI98
S'    html=fetch(url)'
p3293
sI99
S'    temp=[]'
p3294
sI100
S'        #temp=[]'
p3295
sI101
S'    d=re.search(\'<meta name="citation_title"[\\w\\W]*?>\',html).group()'
p3296
sI102
S'    d=bold(d)'
p3297
sI93
S'    return'
p3298
sI94
S'def cite(url):'
p3299
sI95
S"    if url=='':"
p3300
ssg3179
S"(url='http://dl.acm.org/citation.cfm?id=1434580&CFID=176920038&CFTOKEN=57066073&preflayout=flat')"
p3301
sg3181
S'cite'
p3302
sa(dp3303
g3158
S'/home/chitra/courses/SSAD/web2py/gluon/tools.py'
p3304
sg3160
(dp3305
S'urllib2.urlopen'
p3306
S'<function urlopen>'
p3307
sS'global urllib2'
p3308
S"<module 'urllib2' from '/usr/lib/python2.7/urllib2.pyc'>"
p3309
sS'html'
p3310
g3203
sS'req'
p3311
S'<urllib2.Request instance>'
p3312
sS').read'
p3313
g3203
ssg3166
I3424
sg3167
(dp3314
I3424
S'        html = urllib2.urlopen(req).read()'
p3315
sI3425
S'    else:'
p3316
sI3426
S'        method = ((data is None) and urlfetch.GET) or urlfetch.POST'
p3317
sI3427
S'        while url is not None:'
p3318
sI3428
S'            response = urlfetch.fetch(url=url, payload=data,'
p3319
sI3419
S"    headers['Cookie'] = ' '.join(['%s=%s;'%(c.key,c.value) for c in cookie.values()])"
p3320
sI3420
S'    try:'
p3321
sI3421
S'        from google.appengine.api import urlfetch'
p3322
sI3422
S'    except ImportError:'
p3323
sI3423
S'        req = urllib2.Request(url, data, headers)'
p3324
ssg3179
S"(url='http://dl.acm.org/citation.cfm?id=1434580&CFID=176920038&CFTOKEN=57066073&preflayout=flat', data=None, headers={'Cookie': '', 'User-agent': 'Mozilla/5.0'}, cookie=<SimpleCookie: >, user_agent='Mozilla/5.0')"
p3325
sg3181
S'fetch'
p3326
sa(dp3327
g3158
S'/usr/lib/python2.7/urllib2.py'
p3328
sg3160
(dp3329
S'_opener.open'
p3330
S'<bound method OpenerDirector.open of <urllib2.OpenerDirector instance>>'
p3331
sS'url'
p3332
S'<urllib2.Request instance>'
p3333
sS'data'
p3334
S'None'
p3335
sS'global _opener'
p3336
S'<urllib2.OpenerDirector instance>'
p3337
sS'timeout'
p3338
S'<object object>'
p3339
ssg3166
I126
sg3167
(dp3340
I128
S'def install_opener(opener):'
p3341
sI129
S'    global _opener'
p3342
sI130
S'    _opener = opener'
p3343
sI121
S'_opener = None'
p3344
sI122
S'def urlopen(url, data=None, timeout=socket._GLOBAL_DEFAULT_TIMEOUT):'
p3345
sI123
S'    global _opener'
p3346
sI124
S'    if _opener is None:'
p3347
sI125
S'        _opener = build_opener()'
p3348
sI126
S'    return _opener.open(url, data, timeout)'
p3349
sI127
S''
ssg3179
S'(url=<urllib2.Request instance>, data=None, timeout=<object object>)'
p3350
sg3181
S'urlopen'
p3351
sa(dp3352
g3158
S'/usr/lib/python2.7/urllib2.py'
p3353
sg3160
(dp3354
S'self'
p3355
S'<urllib2.OpenerDirector instance>'
p3356
sS'req'
p3357
S'<urllib2.Request instance>'
p3358
sS'data'
p3359
S'None'
p3360
sS'response'
p3361
g3203
sS'self._open'
p3362
S'<bound method OpenerDirector._open of <urllib2.OpenerDirector instance>>'
p3363
ssg3166
I400
sg3167
(dp3364
I395
S'        meth_name = protocol+"_request"'
p3365
sI396
S'        for processor in self.process_request.get(protocol, []):'
p3366
sI397
S'            meth = getattr(processor, meth_name)'
p3367
sI398
S'            req = meth(req)'
p3368
sI399
S''
sI400
S'        response = self._open(req, data)'
p3369
sI401
S''
sI402
S'        # post-process response'
p3370
sI403
S'        meth_name = protocol+"_response"'
p3371
sI404
S'        for processor in self.process_response.get(protocol, []):'
p3372
ssg3179
S'(self=<urllib2.OpenerDirector instance>, fullurl=<urllib2.Request instance>, data=None, timeout=<object object>)'
p3373
sg3181
S'open'
p3374
sa(dp3375
g3158
S'/usr/lib/python2.7/urllib2.py'
p3376
sg3160
(dp3377
S'req'
p3378
S'<urllib2.Request instance>'
p3379
ssg3166
I418
sg3167
(dp3380
I416
S'        protocol = req.get_type()'
p3381
sI417
S'        result = self._call_chain(self.handle_open, protocol, protocol +'
p3382
sI418
S"                                  '_open', req)"
p3383
sI419
S'        if result:'
p3384
sI420
S'            return result'
p3385
sI421
S''
sI422
S"        return self._call_chain(self.handle_open, 'unknown',"
p3386
sI413
S'        if result:'
p3387
sI414
S'            return result'
p3388
sI415
S''
ssg3179
S'(self=<urllib2.OpenerDirector instance>, req=<urllib2.Request instance>, data=None)'
p3389
sg3181
S'_open'
p3390
sa(dp3391
g3158
S'/usr/lib/python2.7/urllib2.py'
p3392
sg3160
(dp3393
S'args'
p3394
S'(<urllib2.Request instance>,)'
p3395
sS'result'
p3396
S'None'
p3397
sS'func'
p3398
S'<bound method HTTPHandler.http_open of <urllib2.HTTPHandler instance>>'
p3399
ssg3166
I378
sg3167
(dp3400
I373
S'        # could.  Otherwise, they return the response.'
p3401
sI374
S'        handlers = chain.get(kind, ())'
p3402
sI375
S'        for handler in handlers:'
p3403
sI376
S'            func = getattr(handler, meth_name)'
p3404
sI377
S''
sI378
S'            result = func(*args)'
p3405
sI379
S'            if result is not None:'
p3406
sI380
S'                return result'
p3407
sI381
S''
sI382
S'    def open(self, fullurl, data=None, timeout=socket._GLOBAL_DEFAULT_TIMEOUT):'
p3408
ssg3179
S"(self=<urllib2.OpenerDirector instance>, chain={'all': [<urllib2.ProxyHandler instance>], 'file': [<urllib2.FileHandler instance>], 'ftp': [<urllib2.ProxyHandler instance>, <urllib2.FTPHandler instance>], 'http': [<urllib2.ProxyHandler instance>, <urllib2.HTTPHandler instance>], 'https': [<urllib2.ProxyHandler instance>, <urllib2.HTTPSHandler instance>], 'no': [<urllib2.ProxyHandler instance>], 'socks': [<urllib2.ProxyHandler instance>], 'unknown': [<urllib2.UnknownHandler instance>]}, kind='http', meth_name='http_open', *args=(<urllib2.Request instance>,))"
p3409
sg3181
S'_call_chain'
p3410
sa(dp3411
g3158
S'/usr/lib/python2.7/urllib2.py'
p3412
sg3160
(dp3413
S'self'
p3414
S'<urllib2.HTTPHandler instance>'
p3415
sS'req'
p3416
S'<urllib2.Request instance>'
p3417
sS'global httplib'
p3418
S"<module 'httplib' from '/usr/lib/python2.7/httplib.pyc'>"
p3419
sS'self.do_open'
p3420
S'<bound method HTTPHandler.do_open of <urllib2.HTTPHandler instance>>'
p3421
sS'httplib.HTTPConnection'
p3422
S'<class httplib.HTTPConnection>'
p3423
ssg3166
I1207
sg3167
(dp3424
I1202
S''
sI1203
S''
sI1204
S'class HTTPHandler(AbstractHTTPHandler):'
p3425
sI1205
S''
sI1206
S'    def http_open(self, req):'
p3426
sI1207
S'        return self.do_open(httplib.HTTPConnection, req)'
p3427
sI1208
S''
sI1209
S'    http_request = AbstractHTTPHandler.do_request_'
p3428
sI1210
S''
sI1211
S"if hasattr(httplib, 'HTTPS'):"
p3429
ssg3179
S'(self=<urllib2.HTTPHandler instance>, req=<urllib2.Request instance>)'
p3430
sg3181
S'http_open'
p3431
sa(dp3432
g3158
S'/usr/lib/python2.7/urllib2.py'
p3433
sg3160
(dp3434
S'err'
p3435
S"gaierror(-2, 'Name or service not known')"
p3436
sS'global URLError'
p3437
S"<class 'urllib2.URLError'>"
p3438
ssg3166
I1177
sg3167
(dp3439
I1172
S''
sI1173
S'        try:'
p3440
sI1174
S'            h.request(req.get_method(), req.get_selector(), req.data, headers)'
p3441
sI1175
S'        except socket.error, err: # XXX what error?'
p3442
sI1176
S'            h.close()'
p3443
sI1177
S'            raise URLError(err)'
p3444
sI1178
S'        else:'
p3445
sI1179
S'            try:'
p3446
sI1180
S'                r = h.getresponse(buffering=True)'
p3447
sI1181
S'            except TypeError: # buffering kw not supported'
p3448
ssg3179
S'(self=<urllib2.HTTPHandler instance>, http_class=<class httplib.HTTPConnection>, req=<urllib2.Request instance>)'
p3449
sg3181
S'do_open'
p3450
sasS'pyver'
p3451
S'Python 2.7.3: /usr/bin/python'
p3452
sS'session'
p3453
g69
(g70
g71
NtRp3454
(dp3455
g74
(dp3456
sg76
(lp3457
g69
(g78
g71
NtRp3458
(dp3459
g74
(dp3460
g82
I5
ssg83
Nsg76
(lp3461
sbasbsS'etype'
p3462
S"<class 'urllib2.URLError'>"
p3463
sS'date'
p3464
S'Thu Oct 18 01:57:35 2012'
p3465
sS'response'
p3466
g69
(g70
g71
NtRp3467
(dp3468
g74
(dp3469
sg76
(lp3470
g69
(g78
g71
NtRp3471
(dp3472
g74
(dp3473
g82
I5
ssg83
Nsg76
(lp3474
g69
(g85
g71
NtRp3475
(dp3476
g74
(dp3477
sg83
g3471
sg76
(lp3478
g69
(g90
g71
NtRp3479
(dp3480
g74
(dp3481
g94
g95
ssg83
g3475
sg76
(lp3482
g167
asbag69
(g90
g71
NtRp3483
(dp3484
g74
(dp3485
g101
g102
ssg83
g3475
sg76
(lp3486
S':'
asbag69
(g90
g71
NtRp3487
(dp3488
g74
(dp3489
sg83
g3475
sg76
(lp3490
g69
(g70
g71
NtRp3491
(dp3492
g74
(dp3493
g82
I5
ssg83
g3487
sg76
(lp3494
S'<cStringIO.StringO object at 0x7f07d0261c00>'
p3495
asbasbasbag69
(g85
g71
NtRp3496
(dp3497
g74
(dp3498
sg83
g3471
sg76
(lp3499
g69
(g90
g71
NtRp3500
(dp3501
g74
(dp3502
g94
g95
ssg83
g3496
sg76
(lp3503
g233
asbag69
(g90
g71
NtRp3504
(dp3505
g74
(dp3506
g101
g102
ssg83
g3496
sg76
(lp3507
S':'
asbag69
(g90
g71
NtRp3508
(dp3509
g74
(dp3510
sg83
g3496
sg76
(lp3511
g69
(g70
g71
NtRp3512
(dp3513
g74
(dp3514
g82
I5
ssg83
g3508
sg76
(lp3515
g69
(g78
g71
NtRp3516
(dp3517
g74
(dp3518
g82
I4
ssg83
Nsg76
(lp3519
g69
(g85
g71
NtRp3520
(dp3521
g74
(dp3522
sg83
g3516
sg76
(lp3523
g69
(g90
g71
NtRp3524
(dp3525
g74
(dp3526
g94
g95
ssg83
g3520
sg76
(lp3527
S'session_id_cite_m'
p3528
asbag69
(g90
g71
NtRp3529
(dp3530
g74
(dp3531
g101
g102
ssg83
g3520
sg76
(lp3532
S':'
asbag69
(g90
g71
NtRp3533
(dp3534
g74
(dp3535
sg83
g3520
sg76
(lp3536
g69
(g70
g71
NtRp3537
(dp3538
g74
(dp3539
g82
I4
ssg83
g3533
sg76
(lp3540
g69
(g78
g71
NtRp3541
(dp3542
g74
(dp3543
g82
I3
ssg83
Nsg76
(lp3544
g69
(g85
g71
NtRp3545
(dp3546
g74
(dp3547
sg83
g3541
sg76
(lp3548
g69
(g90
g71
NtRp3549
(dp3550
g74
(dp3551
g94
g95
ssg83
g3545
sg76
(lp3552
g283
asbag69
(g90
g71
NtRp3553
(dp3554
g74
(dp3555
g101
g102
ssg83
g3545
sg76
(lp3556
S':'
asbag69
(g90
g71
NtRp3557
(dp3558
g74
(dp3559
sg83
g3545
sg76
(lp3560
g69
(g70
g71
NtRp3561
(dp3562
g74
(dp3563
g82
I3
ssg83
g3557
sg76
(lp3564
S''
asbasbasbag69
(g85
g71
NtRp3565
(dp3566
g74
(dp3567
sg83
g3541
sg76
(lp3568
g69
(g90
g71
NtRp3569
(dp3570
g74
(dp3571
g94
g95
ssg83
g3565
sg76
(lp3572
g304
asbag69
(g90
g71
NtRp3573
(dp3574
g74
(dp3575
g101
g102
ssg83
g3565
sg76
(lp3576
S':'
asbag69
(g90
g71
NtRp3577
(dp3578
g74
(dp3579
sg83
g3565
sg76
(lp3580
g69
(g70
g71
NtRp3581
(dp3582
g74
(dp3583
g82
I3
ssg83
g3577
sg76
(lp3584
S''
asbasbasbag69
(g85
g71
NtRp3585
(dp3586
g74
(dp3587
sg83
g3541
sg76
(lp3588
g69
(g90
g71
NtRp3589
(dp3590
g74
(dp3591
g94
g95
ssg83
g3585
sg76
(lp3592
g325
asbag69
(g90
g71
NtRp3593
(dp3594
g74
(dp3595
g101
g102
ssg83
g3585
sg76
(lp3596
S':'
asbag69
(g90
g71
NtRp3597
(dp3598
g74
(dp3599
sg83
g3585
sg76
(lp3600
g69
(g70
g71
NtRp3601
(dp3602
g74
(dp3603
g82
I3
ssg83
g3597
sg76
(lp3604
S''
asbasbasbag69
(g85
g71
NtRp3605
(dp3606
g74
(dp3607
sg83
g3541
sg76
(lp3608
g69
(g90
g71
NtRp3609
(dp3610
g74
(dp3611
g94
g95
ssg83
g3605
sg76
(lp3612
g346
asbag69
(g90
g71
NtRp3613
(dp3614
g74
(dp3615
g101
g102
ssg83
g3605
sg76
(lp3616
S':'
asbag69
(g90
g71
NtRp3617
(dp3618
g74
(dp3619
sg83
g3605
sg76
(lp3620
g69
(g70
g71
NtRp3621
(dp3622
g74
(dp3623
g82
I3
ssg83
g3617
sg76
(lp3624
S''
asbasbasbag69
(g85
g71
NtRp3625
(dp3626
g74
(dp3627
sg83
g3541
sg76
(lp3628
g69
(g90
g71
NtRp3629
(dp3630
g74
(dp3631
g94
g95
ssg83
g3625
sg76
(lp3632
g367
asbag69
(g90
g71
NtRp3633
(dp3634
g74
(dp3635
g101
g102
ssg83
g3625
sg76
(lp3636
S':'
asbag69
(g90
g71
NtRp3637
(dp3638
g74
(dp3639
sg83
g3625
sg76
(lp3640
g69
(g70
g71
NtRp3641
(dp3642
g74
(dp3643
g82
I3
ssg83
g3637
sg76
(lp3644
S''
asbasbasbag69
(g85
g71
NtRp3645
(dp3646
g74
(dp3647
sg83
g3541
sg76
(lp3648
g69
(g90
g71
NtRp3649
(dp3650
g74
(dp3651
g94
g95
ssg83
g3645
sg76
(lp3652
g388
asbag69
(g90
g71
NtRp3653
(dp3654
g74
(dp3655
g101
g102
ssg83
g3645
sg76
(lp3656
S':'
asbag69
(g90
g71
NtRp3657
(dp3658
g74
(dp3659
sg83
g3645
sg76
(lp3660
g69
(g70
g71
NtRp3661
(dp3662
g74
(dp3663
g82
I3
ssg83
g3657
sg76
(lp3664
S'/'
asbasbasbag69
(g85
g71
NtRp3665
(dp3666
g74
(dp3667
sg83
g3541
sg76
(lp3668
g69
(g90
g71
NtRp3669
(dp3670
g74
(dp3671
g94
g95
ssg83
g3665
sg76
(lp3672
g409
asbag69
(g90
g71
NtRp3673
(dp3674
g74
(dp3675
g101
g102
ssg83
g3665
sg76
(lp3676
S':'
asbag69
(g90
g71
NtRp3677
(dp3678
g74
(dp3679
sg83
g3665
sg76
(lp3680
g69
(g70
g71
NtRp3681
(dp3682
g74
(dp3683
g82
I3
ssg83
g3677
sg76
(lp3684
S''
asbasbasbag69
(g85
g71
NtRp3685
(dp3686
g74
(dp3687
sg83
g3541
sg76
(lp3688
g69
(g90
g71
NtRp3689
(dp3690
g74
(dp3691
g94
g95
ssg83
g3685
sg76
(lp3692
g430
asbag69
(g90
g71
NtRp3693
(dp3694
g74
(dp3695
g101
g102
ssg83
g3685
sg76
(lp3696
S':'
asbag69
(g90
g71
NtRp3697
(dp3698
g74
(dp3699
sg83
g3685
sg76
(lp3700
g69
(g70
g71
NtRp3701
(dp3702
g74
(dp3703
g82
I3
ssg83
g3697
sg76
(lp3704
S''
asbasbasbasbasbasbasbasbasbasbasbag69
(g85
g71
NtRp3705
(dp3706
g74
(dp3707
sg83
g3471
sg76
(lp3708
g69
(g90
g71
NtRp3709
(dp3710
g74
(dp3711
g94
g95
ssg83
g3705
sg76
(lp3712
S'delimiters'
p3713
asbag69
(g90
g71
NtRp3714
(dp3715
g74
(dp3716
g101
g102
ssg83
g3705
sg76
(lp3717
S':'
asbag69
(g90
g71
NtRp3718
(dp3719
g74
(dp3720
sg83
g3705
sg76
(lp3721
g69
(g70
g71
NtRp3722
(dp3723
g74
(dp3724
g82
I5
ssg83
g3718
sg76
(lp3725
g69
(g78
g71
NtRp3726
(dp3727
g74
(dp3728
g82
I4
ssg83
Nsg76
(lp3729
g69
(g85
g71
NtRp3730
(dp3731
g74
(dp3732
sg83
g3726
sg76
(lp3733
g69
(g90
g71
NtRp3734
(dp3735
g74
(dp3736
sg83
g3730
sg76
(lp3737
g69
(g70
g71
NtRp3738
(dp3739
g74
(dp3740
g82
I4
ssg83
g3734
sg76
(lp3741
S'{{'
p3742
asbasbasbag69
(g85
g71
NtRp3743
(dp3744
g74
(dp3745
sg83
g3726
sg76
(lp3746
g69
(g90
g71
NtRp3747
(dp3748
g74
(dp3749
sg83
g3743
sg76
(lp3750
g69
(g70
g71
NtRp3751
(dp3752
g74
(dp3753
g82
I4
ssg83
g3747
sg76
(lp3754
S'}}'
p3755
asbasbasbasbasbasbasbag69
(g85
g71
NtRp3756
(dp3757
g74
(dp3758
sg83
g3471
sg76
(lp3759
g69
(g90
g71
NtRp3760
(dp3761
g74
(dp3762
g94
g95
ssg83
g3756
sg76
(lp3763
S'files'
p3764
asbag69
(g90
g71
NtRp3765
(dp3766
g74
(dp3767
g101
g102
ssg83
g3756
sg76
(lp3768
S':'
asbag69
(g90
g71
NtRp3769
(dp3770
g74
(dp3771
sg83
g3756
sg76
(lp3772
g69
(g70
g71
NtRp3773
(dp3774
g74
(dp3775
g82
I5
ssg83
g3769
sg76
(lp3776
g69
(g78
g71
NtRp3777
(dp3778
g74
(dp3779
g82
I4
ssg83
Nsg76
(lp3780
sbasbasbasbag69
(g85
g71
NtRp3781
(dp3782
g74
(dp3783
sg83
g3471
sg76
(lp3784
g69
(g90
g71
NtRp3785
(dp3786
g74
(dp3787
g94
g95
ssg83
g3781
sg76
(lp3788
S'flash'
p3789
asbag69
(g90
g71
NtRp3790
(dp3791
g74
(dp3792
g101
g102
ssg83
g3781
sg76
(lp3793
S':'
asbag69
(g90
g71
NtRp3794
(dp3795
g74
(dp3796
sg83
g3781
sg76
(lp3797
g69
(g70
g71
NtRp3798
(dp3799
g74
(dp3800
g82
I5
ssg83
g3794
sg76
(lp3801
S''
asbasbasbag69
(g85
g71
NtRp3802
(dp3803
g74
(dp3804
sg83
g3471
sg76
(lp3805
g69
(g90
g71
NtRp3806
(dp3807
g74
(dp3808
g94
g95
ssg83
g3802
sg76
(lp3809
S'generic_patterns'
p3810
asbag69
(g90
g71
NtRp3811
(dp3812
g74
(dp3813
g101
g102
ssg83
g3802
sg76
(lp3814
S':'
asbag69
(g90
g71
NtRp3815
(dp3816
g74
(dp3817
sg83
g3802
sg76
(lp3818
g69
(g70
g71
NtRp3819
(dp3820
g74
(dp3821
g82
I5
ssg83
g3815
sg76
(lp3822
g69
(g78
g71
NtRp3823
(dp3824
g74
(dp3825
g82
I4
ssg83
Nsg76
(lp3826
g69
(g85
g71
NtRp3827
(dp3828
g74
(dp3829
sg83
g3823
sg76
(lp3830
g69
(g90
g71
NtRp3831
(dp3832
g74
(dp3833
sg83
g3827
sg76
(lp3834
g69
(g70
g71
NtRp3835
(dp3836
g74
(dp3837
g82
I4
ssg83
g3831
sg76
(lp3838
S'*'
asbasbasbasbasbasbasbag69
(g85
g71
NtRp3839
(dp3840
g74
(dp3841
sg83
g3471
sg76
(lp3842
g69
(g90
g71
NtRp3843
(dp3844
g74
(dp3845
g94
g95
ssg83
g3839
sg76
(lp3846
S'headers'
p3847
asbag69
(g90
g71
NtRp3848
(dp3849
g74
(dp3850
g101
g102
ssg83
g3839
sg76
(lp3851
S':'
asbag69
(g90
g71
NtRp3852
(dp3853
g74
(dp3854
sg83
g3839
sg76
(lp3855
g69
(g70
g71
NtRp3856
(dp3857
g74
(dp3858
g82
I5
ssg83
g3852
sg76
(lp3859
g69
(g78
g71
NtRp3860
(dp3861
g74
(dp3862
g82
I4
ssg83
Nsg76
(lp3863
g69
(g85
g71
NtRp3864
(dp3865
g74
(dp3866
sg83
g3860
sg76
(lp3867
g69
(g90
g71
NtRp3868
(dp3869
g74
(dp3870
g94
g95
ssg83
g3864
sg76
(lp3871
S'Cache-Control'
p3872
asbag69
(g90
g71
NtRp3873
(dp3874
g74
(dp3875
g101
g102
ssg83
g3864
sg76
(lp3876
S':'
asbag69
(g90
g71
NtRp3877
(dp3878
g74
(dp3879
sg83
g3864
sg76
(lp3880
g69
(g70
g71
NtRp3881
(dp3882
g74
(dp3883
g82
I4
ssg83
g3877
sg76
(lp3884
S'no-store, no-cache, must-revalidate, post-check=0, pre-check=0'
p3885
asbasbasbag69
(g85
g71
NtRp3886
(dp3887
g74
(dp3888
sg83
g3860
sg76
(lp3889
g69
(g90
g71
NtRp3890
(dp3891
g74
(dp3892
g94
g95
ssg83
g3886
sg76
(lp3893
S'Content-Type'
p3894
asbag69
(g90
g71
NtRp3895
(dp3896
g74
(dp3897
g101
g102
ssg83
g3886
sg76
(lp3898
S':'
asbag69
(g90
g71
NtRp3899
(dp3900
g74
(dp3901
sg83
g3886
sg76
(lp3902
g69
(g70
g71
NtRp3903
(dp3904
g74
(dp3905
g82
I4
ssg83
g3899
sg76
(lp3906
S'text/html; charset=utf-8'
p3907
asbasbasbag69
(g85
g71
NtRp3908
(dp3909
g74
(dp3910
sg83
g3860
sg76
(lp3911
g69
(g90
g71
NtRp3912
(dp3913
g74
(dp3914
g94
g95
ssg83
g3908
sg76
(lp3915
S'Expires'
p3916
asbag69
(g90
g71
NtRp3917
(dp3918
g74
(dp3919
g101
g102
ssg83
g3908
sg76
(lp3920
S':'
asbag69
(g90
g71
NtRp3921
(dp3922
g74
(dp3923
sg83
g3908
sg76
(lp3924
g69
(g70
g71
NtRp3925
(dp3926
g74
(dp3927
g82
I4
ssg83
g3921
sg76
(lp3928
S'Wed, 17 Oct 2012 20:25:33 GMT'
p3929
asbasbasbag69
(g85
g71
NtRp3930
(dp3931
g74
(dp3932
sg83
g3860
sg76
(lp3933
g69
(g90
g71
NtRp3934
(dp3935
g74
(dp3936
g94
g95
ssg83
g3930
sg76
(lp3937
S'Pragma'
p3938
asbag69
(g90
g71
NtRp3939
(dp3940
g74
(dp3941
g101
g102
ssg83
g3930
sg76
(lp3942
S':'
asbag69
(g90
g71
NtRp3943
(dp3944
g74
(dp3945
sg83
g3930
sg76
(lp3946
g69
(g70
g71
NtRp3947
(dp3948
g74
(dp3949
g82
I4
ssg83
g3943
sg76
(lp3950
S'no-cache'
p3951
asbasbasbag69
(g85
g71
NtRp3952
(dp3953
g74
(dp3954
sg83
g3860
sg76
(lp3955
g69
(g90
g71
NtRp3956
(dp3957
g74
(dp3958
g94
g95
ssg83
g3952
sg76
(lp3959
S'X-Powered-By'
p3960
asbag69
(g90
g71
NtRp3961
(dp3962
g74
(dp3963
g101
g102
ssg83
g3952
sg76
(lp3964
S':'
asbag69
(g90
g71
NtRp3965
(dp3966
g74
(dp3967
sg83
g3952
sg76
(lp3968
g69
(g70
g71
NtRp3969
(dp3970
g74
(dp3971
g82
I4
ssg83
g3965
sg76
(lp3972
S'web2py'
p3973
asbasbasbasbasbasbasbag69
(g85
g71
NtRp3974
(dp3975
g74
(dp3976
sg83
g3471
sg76
(lp3977
g69
(g90
g71
NtRp3978
(dp3979
g74
(dp3980
g94
g95
ssg83
g3974
sg76
(lp3981
S'menu'
p3982
asbag69
(g90
g71
NtRp3983
(dp3984
g74
(dp3985
g101
g102
ssg83
g3974
sg76
(lp3986
S':'
asbag69
(g90
g71
NtRp3987
(dp3988
g74
(dp3989
sg83
g3974
sg76
(lp3990
g69
(g70
g71
NtRp3991
(dp3992
g74
(dp3993
g82
I5
ssg83
g3987
sg76
(lp3994
g69
(g78
g71
NtRp3995
(dp3996
g74
(dp3997
g82
I4
ssg83
Nsg76
(lp3998
g69
(g85
g71
NtRp3999
(dp4000
g74
(dp4001
sg83
g3995
sg76
(lp4002
g69
(g90
g71
NtRp4003
(dp4004
g74
(dp4005
sg83
g3999
sg76
(lp4006
g69
(g70
g71
NtRp4007
(dp4008
g74
(dp4009
g82
I4
ssg83
g4003
sg76
(lp4010
g69
(g78
g71
NtRp4011
(dp4012
g74
(dp4013
g82
I3
ssg83
Nsg76
(lp4014
g69
(g85
g71
NtRp4015
(dp4016
g74
(dp4017
sg83
g4011
sg76
(lp4018
g69
(g90
g71
NtRp4019
(dp4020
g74
(dp4021
sg83
g4015
sg76
(lp4022
g69
(g70
g71
NtRp4023
(dp4024
g74
(dp4025
g82
I3
ssg83
g4019
sg76
(lp4026
cgluon.languages
lazyT_unpickle
p4027
(S't\x05\x00\x00\x00Index'
tRp4028
asbasbasbag69
(g85
g71
NtRp4029
(dp4030
g74
(dp4031
sg83
g4011
sg76
(lp4032
g69
(g90
g71
NtRp4033
(dp4034
g74
(dp4035
sg83
g4029
sg76
(lp4036
g69
(g70
g71
NtRp4037
(dp4038
g74
(dp4039
g82
I3
ssg83
g4033
sg76
(lp4040
g112
asbasbasbag69
(g85
g71
NtRp4041
(dp4042
g74
(dp4043
sg83
g4011
sg76
(lp4044
g69
(g90
g71
NtRp4045
(dp4046
g74
(dp4047
sg83
g4041
sg76
(lp4048
g69
(g70
g71
NtRp4049
(dp4050
g74
(dp4051
g82
I3
ssg83
g4045
sg76
(lp4052
S'/cite_m/default/index'
p4053
asbasbasbag69
(g85
g71
NtRp4054
(dp4055
g74
(dp4056
sg83
g4011
sg76
(lp4057
g69
(g90
g71
NtRp4058
(dp4059
g74
(dp4060
sg83
g4054
sg76
(lp4061
g69
(g70
g71
NtRp4062
(dp4063
g74
(dp4064
g82
I3
ssg83
g4058
sg76
(lp4065
g69
(g78
g71
NtRp4066
(dp4067
g74
(dp4068
g82
I2
ssg83
Nsg76
(lp4069
sbasbasbasbasbasbasbasbasbasbasbasbag69
(g85
g71
NtRp4070
(dp4071
g74
(dp4072
sg83
g3471
sg76
(lp4073
g69
(g90
g71
NtRp4074
(dp4075
g74
(dp4076
g94
g95
ssg83
g4070
sg76
(lp4077
S'meta'
p4078
asbag69
(g90
g71
NtRp4079
(dp4080
g74
(dp4081
g101
g102
ssg83
g4070
sg76
(lp4082
S':'
asbag69
(g90
g71
NtRp4083
(dp4084
g74
(dp4085
sg83
g4070
sg76
(lp4086
g69
(g70
g71
NtRp4087
(dp4088
g74
(dp4089
g82
I5
ssg83
g4083
sg76
(lp4090
g69
(g78
g71
NtRp4091
(dp4092
g74
(dp4093
g82
I4
ssg83
Nsg76
(lp4094
g69
(g85
g71
NtRp4095
(dp4096
g74
(dp4097
sg83
g4091
sg76
(lp4098
g69
(g90
g71
NtRp4099
(dp4100
g74
(dp4101
g94
g95
ssg83
g4095
sg76
(lp4102
S'author'
p4103
asbag69
(g90
g71
NtRp4104
(dp4105
g74
(dp4106
g101
g102
ssg83
g4095
sg76
(lp4107
S':'
asbag69
(g90
g71
NtRp4108
(dp4109
g74
(dp4110
sg83
g4095
sg76
(lp4111
g69
(g70
g71
NtRp4112
(dp4113
g74
(dp4114
g82
I4
ssg83
g4108
sg76
(lp4115
S'you <you@example.com>'
p4116
asbasbasbag69
(g85
g71
NtRp4117
(dp4118
g74
(dp4119
sg83
g4091
sg76
(lp4120
g69
(g90
g71
NtRp4121
(dp4122
g74
(dp4123
g94
g95
ssg83
g4117
sg76
(lp4124
S'description'
p4125
asbag69
(g90
g71
NtRp4126
(dp4127
g74
(dp4128
g101
g102
ssg83
g4117
sg76
(lp4129
S':'
asbag69
(g90
g71
NtRp4130
(dp4131
g74
(dp4132
sg83
g4117
sg76
(lp4133
g69
(g70
g71
NtRp4134
(dp4135
g74
(dp4136
g82
I4
ssg83
g4130
sg76
(lp4137
S''
asbasbasbag69
(g85
g71
NtRp4138
(dp4139
g74
(dp4140
sg83
g4091
sg76
(lp4141
g69
(g90
g71
NtRp4142
(dp4143
g74
(dp4144
g94
g95
ssg83
g4138
sg76
(lp4145
S'keywords'
p4146
asbag69
(g90
g71
NtRp4147
(dp4148
g74
(dp4149
g101
g102
ssg83
g4138
sg76
(lp4150
S':'
asbag69
(g90
g71
NtRp4151
(dp4152
g74
(dp4153
sg83
g4138
sg76
(lp4154
g69
(g70
g71
NtRp4155
(dp4156
g74
(dp4157
g82
I4
ssg83
g4151
sg76
(lp4158
S''
asbasbasbasbasbasbasbag69
(g85
g71
NtRp4159
(dp4160
g74
(dp4161
sg83
g3471
sg76
(lp4162
g69
(g90
g71
NtRp4163
(dp4164
g74
(dp4165
g94
g95
ssg83
g4159
sg76
(lp4166
S'postprocessing'
p4167
asbag69
(g90
g71
NtRp4168
(dp4169
g74
(dp4170
g101
g102
ssg83
g4159
sg76
(lp4171
S':'
asbag69
(g90
g71
NtRp4172
(dp4173
g74
(dp4174
sg83
g4159
sg76
(lp4175
g69
(g70
g71
NtRp4176
(dp4177
g74
(dp4178
g82
I5
ssg83
g4172
sg76
(lp4179
g69
(g78
g71
NtRp4180
(dp4181
g74
(dp4182
g82
I4
ssg83
Nsg76
(lp4183
sbasbasbasbag69
(g85
g71
NtRp4184
(dp4185
g74
(dp4186
sg83
g3471
sg76
(lp4187
g69
(g90
g71
NtRp4188
(dp4189
g74
(dp4190
g94
g95
ssg83
g4184
sg76
(lp4191
S'session_file'
p4192
asbag69
(g90
g71
NtRp4193
(dp4194
g74
(dp4195
g101
g102
ssg83
g4184
sg76
(lp4196
S':'
asbag69
(g90
g71
NtRp4197
(dp4198
g74
(dp4199
sg83
g4184
sg76
(lp4200
g69
(g70
g71
NtRp4201
(dp4202
g74
(dp4203
g82
I5
ssg83
g4197
sg76
(lp4204
S"<open file '/home/chitra/courses/SSAD/web2py/applications/cite_m/sessions/127.0.0.1-ef106283-997f-4898-8aa9-25b10ad4667a', mode 'rb+' at 0x7f07d83bc930>"
p4205
asbasbasbag69
(g85
g71
NtRp4206
(dp4207
g74
(dp4208
sg83
g3471
sg76
(lp4209
g69
(g90
g71
NtRp4210
(dp4211
g74
(dp4212
g94
g95
ssg83
g4206
sg76
(lp4213
S'session_filename'
p4214
asbag69
(g90
g71
NtRp4215
(dp4216
g74
(dp4217
g101
g102
ssg83
g4206
sg76
(lp4218
S':'
asbag69
(g90
g71
NtRp4219
(dp4220
g74
(dp4221
sg83
g4206
sg76
(lp4222
g69
(g70
g71
NtRp4223
(dp4224
g74
(dp4225
g82
I5
ssg83
g4219
sg76
(lp4226
S'/home/chitra/courses/SSAD/web2py/applications/cite_m/sessions/127.0.0.1-ef106283-997f-4898-8aa9-25b10ad4667a'
p4227
asbasbasbag69
(g85
g71
NtRp4228
(dp4229
g74
(dp4230
sg83
g3471
sg76
(lp4231
g69
(g90
g71
NtRp4232
(dp4233
g74
(dp4234
g94
g95
ssg83
g4228
sg76
(lp4235
S'session_id'
p4236
asbag69
(g90
g71
NtRp4237
(dp4238
g74
(dp4239
g101
g102
ssg83
g4228
sg76
(lp4240
S':'
asbag69
(g90
g71
NtRp4241
(dp4242
g74
(dp4243
sg83
g4228
sg76
(lp4244
g69
(g70
g71
NtRp4245
(dp4246
g74
(dp4247
g82
I5
ssg83
g4241
sg76
(lp4248
S'127.0.0.1-ef106283-997f-4898-8aa9-25b10ad4667a'
p4249
asbasbasbag69
(g85
g71
NtRp4250
(dp4251
g74
(dp4252
sg83
g3471
sg76
(lp4253
g69
(g90
g71
NtRp4254
(dp4255
g74
(dp4256
g94
g95
ssg83
g4250
sg76
(lp4257
S'session_id_name'
p4258
asbag69
(g90
g71
NtRp4259
(dp4260
g74
(dp4261
g101
g102
ssg83
g4250
sg76
(lp4262
S':'
asbag69
(g90
g71
NtRp4263
(dp4264
g74
(dp4265
sg83
g4250
sg76
(lp4266
g69
(g70
g71
NtRp4267
(dp4268
g74
(dp4269
g82
I5
ssg83
g4263
sg76
(lp4270
g3528
asbasbasbag69
(g85
g71
NtRp4271
(dp4272
g74
(dp4273
sg83
g3471
sg76
(lp4274
g69
(g90
g71
NtRp4275
(dp4276
g74
(dp4277
g94
g95
ssg83
g4271
sg76
(lp4278
S'session_locked'
p4279
asbag69
(g90
g71
NtRp4280
(dp4281
g74
(dp4282
g101
g102
ssg83
g4271
sg76
(lp4283
S':'
asbag69
(g90
g71
NtRp4284
(dp4285
g74
(dp4286
sg83
g4271
sg76
(lp4287
g69
(g70
g71
NtRp4288
(dp4289
g74
(dp4290
g82
I5
ssg83
g4284
sg76
(lp4291
g1853
asbasbasbag69
(g85
g71
NtRp4292
(dp4293
g74
(dp4294
sg83
g3471
sg76
(lp4295
g69
(g90
g71
NtRp4296
(dp4297
g74
(dp4298
g94
g95
ssg83
g4292
sg76
(lp4299
S'session_new'
p4300
asbag69
(g90
g71
NtRp4301
(dp4302
g74
(dp4303
g101
g102
ssg83
g4292
sg76
(lp4304
S':'
asbag69
(g90
g71
NtRp4305
(dp4306
g74
(dp4307
sg83
g4292
sg76
(lp4308
g69
(g70
g71
NtRp4309
(dp4310
g74
(dp4311
g82
I5
ssg83
g4305
sg76
(lp4312
g112
asbasbasbag69
(g85
g71
NtRp4313
(dp4314
g74
(dp4315
sg83
g3471
sg76
(lp4316
g69
(g90
g71
NtRp4317
(dp4318
g74
(dp4319
g94
g95
ssg83
g4313
sg76
(lp4320
S'status'
p4321
asbag69
(g90
g71
NtRp4322
(dp4323
g74
(dp4324
g101
g102
ssg83
g4313
sg76
(lp4325
S':'
asbag69
(g90
g71
NtRp4326
(dp4327
g74
(dp4328
sg83
g4313
sg76
(lp4329
g69
(g70
g71
NtRp4330
(dp4331
g74
(dp4332
g82
I5
ssg83
g4326
sg76
(lp4333
S'200'
p4334
asbasbasbag69
(g85
g71
NtRp4335
(dp4336
g74
(dp4337
sg83
g3471
sg76
(lp4338
g69
(g90
g71
NtRp4339
(dp4340
g74
(dp4341
g94
g95
ssg83
g4335
sg76
(lp4342
S'subtitle'
p4343
asbag69
(g90
g71
NtRp4344
(dp4345
g74
(dp4346
g101
g102
ssg83
g4335
sg76
(lp4347
S':'
asbag69
(g90
g71
NtRp4348
(dp4349
g74
(dp4350
sg83
g4335
sg76
(lp4351
g69
(g70
g71
NtRp4352
(dp4353
g74
(dp4354
g82
I5
ssg83
g4348
sg76
(lp4355
S'powered by web2py'
p4356
asbasbasbag69
(g85
g71
NtRp4357
(dp4358
g74
(dp4359
sg83
g3471
sg76
(lp4360
g69
(g90
g71
NtRp4361
(dp4362
g74
(dp4363
g94
g95
ssg83
g4357
sg76
(lp4364
S'title'
p4365
asbag69
(g90
g71
NtRp4366
(dp4367
g74
(dp4368
g101
g102
ssg83
g4357
sg76
(lp4369
S':'
asbag69
(g90
g71
NtRp4370
(dp4371
g74
(dp4372
sg83
g4357
sg76
(lp4373
g69
(g70
g71
NtRp4374
(dp4375
g74
(dp4376
g82
I5
ssg83
g4370
sg76
(lp4377
S'My New App'
p4378
asbasbasbag69
(g85
g71
NtRp4379
(dp4380
g74
(dp4381
sg83
g3471
sg76
(lp4382
g69
(g90
g71
NtRp4383
(dp4384
g74
(dp4385
g94
g95
ssg83
g4379
sg76
(lp4386
g2517
asbag69
(g90
g71
NtRp4387
(dp4388
g74
(dp4389
g101
g102
ssg83
g4379
sg76
(lp4390
S':'
asbag69
(g90
g71
NtRp4391
(dp4392
g74
(dp4393
sg83
g4379
sg76
(lp4394
g69
(g70
g71
NtRp4395
(dp4396
g74
(dp4397
g82
I5
ssg83
g4391
sg76
(lp4398
g2530
asbasbasbag69
(g85
g71
NtRp4399
(dp4400
g74
(dp4401
sg83
g3471
sg76
(lp4402
g69
(g90
g71
NtRp4403
(dp4404
g74
(dp4405
g94
g95
ssg83
g4399
sg76
(lp4406
S'view'
p4407
asbag69
(g90
g71
NtRp4408
(dp4409
g74
(dp4410
g101
g102
ssg83
g4399
sg76
(lp4411
S':'
asbag69
(g90
g71
NtRp4412
(dp4413
g74
(dp4414
sg83
g4399
sg76
(lp4415
g69
(g70
g71
NtRp4416
(dp4417
g74
(dp4418
g82
I5
ssg83
g4412
sg76
(lp4419
S'default/final_ans.html'
p4420
asbasbasbasbasbsS'locals'
p4421
(dp4422
S'err'
p4423
S"gaierror(-2, 'Name or service not known')"
p4424
sS'h'
S'<httplib.HTTPConnection instance>'
p4425
sS'self'
p4426
S'<urllib2.HTTPHandler instance>'
p4427
sS'req'
p4428
S'<urllib2.Request instance>'
p4429
sg3847
S"{'Connection': 'close', 'Cookie': '', 'Host': 'dl.acm.org', 'User-Agent': 'Mozilla/5.0'}"
p4430
sS'host'
p4431
S"'proxy.iiit.ac.in:8080'"
p4432
sS'http_class'
p4433
S'<class httplib.HTTPConnection>'
p4434
sssS'traceback'
p4435
S'Traceback (most recent call last):\n  File "/home/chitra/courses/SSAD/web2py/gluon/restricted.py", line 205, in restricted\n    exec ccode in environment\n  File "/home/chitra/courses/SSAD/web2py/applications/cite_m/controllers/default.py", line 174, in <module>\n  File "/home/chitra/courses/SSAD/web2py/gluon/globals.py", line 173, in <lambda>\n    self._caller = lambda f: f()\n  File "/home/chitra/courses/SSAD/web2py/applications/cite_m/controllers/default.py", line 77, in final_ans\n    rec(fst_l,l1,bigans)\n  File "/home/chitra/courses/SSAD/web2py/applications/cite_m/controllers/default.py", line 91, in rec\n    rec(z[6],l1,bigans[-1])\n  File "/home/chitra/courses/SSAD/web2py/applications/cite_m/controllers/default.py", line 86, in rec\n    z=cite(x)\n  File "/home/chitra/courses/SSAD/web2py/applications/cite_m/controllers/default.py", line 98, in cite\n    html=fetch(url)\n  File "/home/chitra/courses/SSAD/web2py/gluon/tools.py", line 3424, in fetch\n    html = urllib2.urlopen(req).read()\n  File "/usr/lib/python2.7/urllib2.py", line 126, in urlopen\n    return _opener.open(url, data, timeout)\n  File "/usr/lib/python2.7/urllib2.py", line 400, in open\n    response = self._open(req, data)\n  File "/usr/lib/python2.7/urllib2.py", line 418, in _open\n    \'_open\', req)\n  File "/usr/lib/python2.7/urllib2.py", line 378, in _call_chain\n    result = func(*args)\n  File "/usr/lib/python2.7/urllib2.py", line 1207, in http_open\n    return self.do_open(httplib.HTTPConnection, req)\n  File "/usr/lib/python2.7/urllib2.py", line 1177, in do_open\n    raise URLError(err)\nURLError: <urlopen error [Errno -2] Name or service not known>\n'
p4436
s.