(dp1
S'output'
p2
S"<class 'urllib2.URLError'> <urlopen error [Errno -2] Name or service not known>"
p3
sS'layer'
p4
S'/home/maneesha/Downloads/web2py/applications/cite_m3/controllers/default.py'
p5
sS'code'
p6
S'# -*- coding: utf-8 -*-\n### required - do no delete\ndef user(): return dict(form=auth())\n#def download(): return response.download(request,db)\n#def call(): return service()\n### end requires\n#def index():\n #   return dict()\n\n#def error():\n #   return dict()\nfrom gluon.tools import fetch\nimport re\nlistf=[]\n#ret1=[]\ncount=0\nbigans=[]\n@auth.requires_login()\ndef index():\n    form=SQLFORM(db.input)\n    if form.process().accepted:\n        response.flash = \'you entred\'\n        redirect(URL(\'final_ans\'))\n    return dict(form=form)\ndef year_user(index_yr):   #index_yr - only in this code not in main one\n    flag=index_yr\n    redirect(URL(\'final_ans()\'))\n    flag=0\n    #return dict(ans=ll1[0],l_yr=ll1[1])\ndef extract1(url,l1):\n    ret=[]\n    ret1=[]\n    html=fetch(url)\n    html_splitted=html.split("<A HREF=\\"citation.cfm")\n    ht=html_splitted[0]\n    del html_splitted[0]\n    k=html_splitted[0].split(\'>\')\n    if k[1][:-3]==l1[0]:\n        k=html_splitted[0].find(\'\\"\')\n        s="http://dl.acm.org/citation.cfm"+html_splitted[0][:k]\n        ret.append(s.split(\'&preflayout\')[0]+\'&preflayout=flat\')\n        ret1.append(\'0\')\n        ret1.append(\'0\')\n    else:\n        ret1=[\'0\',\'1\']\n        for i in range(0,l1[2]):\n            k=html_splitted[i].find(\'\\"\')\n            s="http://dl.acm.org/citation.cfm"+html_splitted[i][:k]\n            ret.append(s.split(\'&preflayout\')[0]+\'&preflayout=flat\')\n    return ret,ret1\ndef sorting():\n    global bigans\n    bigans=[]\n    l1=u_filter()\n    url1="http://dl.acm.org/results.cfm?h=1&query="+\'+\'.join(l1[0].split())\n    if request.args(0)==\'0\':\n        url=url1\n    elif request.args(0)==\'1\':\n        html=fetch(url1)\n        html_splitted=html.split("Sort by")\n        k=html_splitted[1].split("<option value=\\"")[4].split(\'\\"\')[0]\n        url="http://dl.acm.org/"+k        \n    fst_l=[]\n    ret1=[]\n    fst_l,ret1=extract1(url,l1)\n    bigans=[]\n    global count\n    count=0\n    rec(fst_l,l1,bigans)\n    return dict(bigans=bigans,level=l1[1],top=l1[2],ret1=ret1)\ndef final_ans():\n    bigans=[]\n    l1=u_filter() \n    url="http://dl.acm.org/results.cfm?h=1&query="+\'+\'.join(l1[0].split())\n    fst_l=[]\n    ret1=[]\n    fst_l,ret1=extract1(url,l1)\n    rec(fst_l,l1,bigans)\n    return dict(bigans=bigans,level=l1[1],top=l1[2],ret1=ret1)\ndef rec(list1,l1,bigans):\n    global count\n    count=count+1\n    global listf\n    listf.append([])\n    for x in list1:\n        if x!=\'\':\n            z=cite(x)\n            #global listf\n            #listf[count-1].append(z)\n            bigans.append(z)\n            if count < l1[1]:\n                rec(z[7],l1,bigans[-1])\n    count=count-1\n    return\ndef cite(url):\n    if url==\'\':\n        return []\n    l1=u_filter()\n    html=fetch(url)\n    temp=[]\n        #temp=[]\n    d=re.search(\'<meta name="citation_title"[\\w\\W]*?>\',html).group()\n    d=bold(d)\n        #temp.append(d.split(\'>\')[0][9:-1])\n    temp.append(d.split(\'=\')[2][1:-2])\n    temp.append(url)\n    f=re.search(\'\\"ft_gateway.cfm[\\w\\W]*?\\"\',html)\n    if f!=None:\n        f=f.group()\n        f=bold(f)\n        temp.append(\'http://dl.acm.org/\'+f[1:-1])\n    else:\n        temp.append(url)\n    c=re.search(\'<meta name="citation_authors"[\\w\\W]*?>\',html).group()\n    c=bold(c)\n    if l1[3]==1:\n       #temp.append(d.split(\'>\')[0][9:-1])\n        temp.append(c.split(\'=\')[2][1:-2])\n    else:\n        temp.append(-1)\n    b=re.search(\'<meta name="citation_date"[\\w\\W]*?>\',html).group()\n    b=bold(b)\n    if l1[5]==1:\n        temp.append(b.split(\'=\')[2][1:-2])\n    else:\n        temp.append(-1)\n    h=re.search(\'<A NAME="abstract" class="small-text">ABSTRACT[\\w\\W]*?</div>\',html)\n    if h!=None:\n        h=h.group()\n        h=bold(h)\n        h.replace("<par>","")\n        h.replace("</par>","")\n        h1=h.split("</div>")[0]\n        h1=h1.split("<div style=\\"display:inline\\">")[1]\n        h1=remove(h1)\n    else:\n        h1=-1\n    temp.append(h1)\n    s=re.search(\'CITED BY[\\w\\W]*?INDEX TERMS\',html).group()\n    if \'Citings are not available\' not in s:\n        e=re.search(\'\\d* Citations\',s)\n        if l1[4]!=1:\n            temp.append(-1)\n        elif e!=None:\n            temp.append(e.group().split()[0])\n        else:                                                                            \n            temp.append(1)\n        i=0\n        cit=[]\n        while i < l1[2]:\n            i+=1\n            s1=re.search(\'<a href[\\w\\W]*?</a>\',s)\n            if s1==None:\n                cit.append(\'\')\n            elif s1!=None:\n                k=s.find(s1.group())\n                #k1=s[:k]\n                cit.append(("http://dl.acm.org/"+s1.group().split(\'\\"\')[1]).split(\'&preflayout\')[0]+\'&preflayout=flat\')\n                s=s[k+2:]\n           \n        temp.append(cit)\n    else:\n        if l1[4]==1:\n            temp.append(0)\n        else:\n            temp.append(-1)\n        temp.append([])\n    return temp\ndef u_filter():\n    inpu=db().select(db.input.ALL)\n    for inp in inpu:\n        key=inp.keywords\n        level=inp.Recursion_levels\n        top=inp.Top_results\n        auth=inp.Show_author\n        cited_by=inp.Show_no_of_citations\n        year=inp.Show_release_date\n    return [key,level,top,auth,cited_by,year]\ndef bold(d):\n    pre=""\n    while pre!=d:\n        pre=d\n        d=d.replace("<b>","")\n        d=d.replace("</b>","")\n    return d\ndef remove(d):\n    pre=""\n    while pre!=d:\n        pre=d\n        d=d.replace("<p>","")\n        d=d.replace("</p>","")\n    pre=""\n    while pre!=d:\n        pre=d\n        d=d.replace("<br>","")\n    return d\ndef abstract():\n    url=request.args(0)[0]\n    html=fetch(url)\n    h=re.search(\'<A NAME="abstract" class="small-text">ABSTRACT[\\w\\W]*?</div>\',html)\n    if h!=None:\n        h=h.group()\n        h=bold(h)\n        h.replace("<par>","")\n        h.replace("</par>","")\n        h1=h.split("</div>")[0]\n        h1=h1.split("<div style=\\"display:inline\\">")[1]\n        h1=remove(h1)\n    return dict(abst=h1)\n\nresponse._vars=response._caller(final_ans)\n'
p7
sS'snapshot'
p8
(dp9
S'exception'
p10
(dp11
S'__module__'
p12
S"'urllib2'"
p13
sS'__getslice__'
p14
S"<method-wrapper '__getslice__' of URLError object>"
p15
sS'__str__'
p16
S"<bound method URLError.__str__ of URLError(gaierror(-2, 'Name or service not known'),)>"
p17
sS'__reduce__'
p18
S'<built-in method __reduce__ of URLError object>'
p19
sS'__dict__'
p20
S"{'reason': gaierror(-2, 'Name or service not known')}"
p21
sS'__sizeof__'
p22
S'<built-in method __sizeof__ of URLError object>'
p23
sS'__weakref__'
p24
S'None'
p25
sS'__init__'
p26
S"<bound method URLError.__init__ of URLError(gaierror(-2, 'Name or service not known'),)>"
p27
sS'__setattr__'
p28
S"<method-wrapper '__setattr__' of URLError object>"
p29
sS'__reduce_ex__'
p30
S'<built-in method __reduce_ex__ of URLError object>'
p31
sS'__new__'
p32
S'<built-in method __new__ of type object>'
p33
sS'errno'
p34
S'None'
p35
sS'__format__'
p36
S'<built-in method __format__ of URLError object>'
p37
sS'__class__'
p38
S"<class 'urllib2.URLError'>"
p39
sS'filename'
p40
S'None'
p41
sS'__doc__'
p42
S'None'
p43
sS'__getitem__'
p44
S"<method-wrapper '__getitem__' of URLError object>"
p45
sS'__setstate__'
p46
S'<built-in method __setstate__ of URLError object>'
p47
sS'__getattribute__'
p48
S"<method-wrapper '__getattribute__' of URLError object>"
p49
sS'args'
p50
S"(gaierror(-2, 'Name or service not known'),)"
p51
sS'reason'
p52
S"gaierror(-2, 'Name or service not known')"
p53
sS'__subclasshook__'
p54
S'<built-in method __subclasshook__ of type object>'
p55
sS'__unicode__'
p56
S'<built-in method __unicode__ of URLError object>'
p57
sS'strerror'
p58
S'None'
p59
sS'__delattr__'
p60
S"<method-wrapper '__delattr__' of URLError object>"
p61
sS'__repr__'
p62
S"<method-wrapper '__repr__' of URLError object>"
p63
sS'__hash__'
p64
S"<method-wrapper '__hash__' of URLError object>"
p65
ssS'evalue'
p66
S'<urlopen error [Errno -2] Name or service not known>'
p67
sS'request'
p68
ccopy_reg
_reconstructor
p69
(cgluon.html
BEAUTIFY
p70
c__builtin__
object
p71
NtRp72
(dp73
S'attributes'
p74
(dp75
sS'components'
p76
(lp77
g69
(cgluon.html
TABLE
p78
g71
NtRp79
(dp80
g74
(dp81
S'level'
p82
I5
ssS'parent'
p83
Nsg76
(lp84
g69
(cgluon.html
TR
p85
g71
NtRp86
(dp87
g74
(dp88
sg83
g79
sg76
(lp89
g69
(cgluon.html
TD
p90
g71
NtRp91
(dp92
g74
(dp93
S'_style'
p94
S'font-weight:bold;vertical-align:top'
p95
ssg83
g86
sg76
(lp96
S'ajax'
p97
asbag69
(g90
g71
NtRp98
(dp99
g74
(dp100
S'_valign'
p101
S'top'
p102
ssg83
g86
sg76
(lp103
S':'
asbag69
(g90
g71
NtRp104
(dp105
g74
(dp106
sg83
g86
sg76
(lp107
g69
(g70
g71
NtRp108
(dp109
g74
(dp110
g82
I5
ssg83
g104
sg76
(lp111
S'False'
p112
asbasbasbag69
(g85
g71
NtRp113
(dp114
g74
(dp115
sg83
g79
sg76
(lp116
g69
(g90
g71
NtRp117
(dp118
g74
(dp119
g94
g95
ssg83
g113
sg76
(lp120
S'application'
p121
asbag69
(g90
g71
NtRp122
(dp123
g74
(dp124
g101
g102
ssg83
g113
sg76
(lp125
S':'
asbag69
(g90
g71
NtRp126
(dp127
g74
(dp128
sg83
g113
sg76
(lp129
g69
(g70
g71
NtRp130
(dp131
g74
(dp132
g82
I5
ssg83
g126
sg76
(lp133
S'cite_m3'
p134
asbasbasbag69
(g85
g71
NtRp135
(dp136
g74
(dp137
sg83
g79
sg76
(lp138
g69
(g90
g71
NtRp139
(dp140
g74
(dp141
g94
g95
ssg83
g135
sg76
(lp142
g50
asbag69
(g90
g71
NtRp143
(dp144
g74
(dp145
g101
g102
ssg83
g135
sg76
(lp146
S':'
asbag69
(g90
g71
NtRp147
(dp148
g74
(dp149
sg83
g135
sg76
(lp150
g69
(g70
g71
NtRp151
(dp152
g74
(dp153
g82
I5
ssg83
g147
sg76
(lp154
g69
(g78
g71
NtRp155
(dp156
g74
(dp157
g82
I4
ssg83
Nsg76
(lp158
sbasbasbasbag69
(g85
g71
NtRp159
(dp160
g74
(dp161
sg83
g79
sg76
(lp162
g69
(g90
g71
NtRp163
(dp164
g74
(dp165
g94
g95
ssg83
g159
sg76
(lp166
S'body'
p167
asbag69
(g90
g71
NtRp168
(dp169
g74
(dp170
g101
g102
ssg83
g159
sg76
(lp171
S':'
asbag69
(g90
g71
NtRp172
(dp173
g74
(dp174
sg83
g159
sg76
(lp175
g69
(g70
g71
NtRp176
(dp177
g74
(dp178
g82
I5
ssg83
g172
sg76
(lp179
S'<cStringIO.StringO object at 0x7f92ac089298>'
p180
asbasbasbag69
(g85
g71
NtRp181
(dp182
g74
(dp183
sg83
g79
sg76
(lp184
g69
(g90
g71
NtRp185
(dp186
g74
(dp187
g94
g95
ssg83
g181
sg76
(lp188
S'client'
p189
asbag69
(g90
g71
NtRp190
(dp191
g74
(dp192
g101
g102
ssg83
g181
sg76
(lp193
S':'
asbag69
(g90
g71
NtRp194
(dp195
g74
(dp196
sg83
g181
sg76
(lp197
g69
(g70
g71
NtRp198
(dp199
g74
(dp200
g82
I5
ssg83
g194
sg76
(lp201
S'127.0.0.1'
p202
asbasbasbag69
(g85
g71
NtRp203
(dp204
g74
(dp205
sg83
g79
sg76
(lp206
g69
(g90
g71
NtRp207
(dp208
g74
(dp209
g94
g95
ssg83
g203
sg76
(lp210
S'controller'
p211
asbag69
(g90
g71
NtRp212
(dp213
g74
(dp214
g101
g102
ssg83
g203
sg76
(lp215
S':'
asbag69
(g90
g71
NtRp216
(dp217
g74
(dp218
sg83
g203
sg76
(lp219
g69
(g70
g71
NtRp220
(dp221
g74
(dp222
g82
I5
ssg83
g216
sg76
(lp223
S'default'
p224
asbasbasbag69
(g85
g71
NtRp225
(dp226
g74
(dp227
sg83
g79
sg76
(lp228
g69
(g90
g71
NtRp229
(dp230
g74
(dp231
g94
g95
ssg83
g225
sg76
(lp232
S'cookies'
p233
asbag69
(g90
g71
NtRp234
(dp235
g74
(dp236
g101
g102
ssg83
g225
sg76
(lp237
S':'
asbag69
(g90
g71
NtRp238
(dp239
g74
(dp240
sg83
g225
sg76
(lp241
g69
(g70
g71
NtRp242
(dp243
g74
(dp244
g82
I5
ssg83
g238
sg76
(lp245
g69
(g78
g71
NtRp246
(dp247
g74
(dp248
g82
I4
ssg83
Nsg76
(lp249
g69
(g85
g71
NtRp250
(dp251
g74
(dp252
sg83
g246
sg76
(lp253
g69
(g90
g71
NtRp254
(dp255
g74
(dp256
g94
g95
ssg83
g250
sg76
(lp257
S'session_id_admin'
p258
asbag69
(g90
g71
NtRp259
(dp260
g74
(dp261
g101
g102
ssg83
g250
sg76
(lp262
S':'
asbag69
(g90
g71
NtRp263
(dp264
g74
(dp265
sg83
g250
sg76
(lp266
g69
(g70
g71
NtRp267
(dp268
g74
(dp269
g82
I4
ssg83
g263
sg76
(lp270
g69
(g78
g71
NtRp271
(dp272
g74
(dp273
g82
I3
ssg83
Nsg76
(lp274
g69
(g85
g71
NtRp275
(dp276
g74
(dp277
sg83
g271
sg76
(lp278
g69
(g90
g71
NtRp279
(dp280
g74
(dp281
g94
g95
ssg83
g275
sg76
(lp282
S'comment'
p283
asbag69
(g90
g71
NtRp284
(dp285
g74
(dp286
g101
g102
ssg83
g275
sg76
(lp287
S':'
asbag69
(g90
g71
NtRp288
(dp289
g74
(dp290
sg83
g275
sg76
(lp291
g69
(g70
g71
NtRp292
(dp293
g74
(dp294
g82
I3
ssg83
g288
sg76
(lp295
S''
asbasbasbag69
(g85
g71
NtRp296
(dp297
g74
(dp298
sg83
g271
sg76
(lp299
g69
(g90
g71
NtRp300
(dp301
g74
(dp302
g94
g95
ssg83
g296
sg76
(lp303
S'domain'
p304
asbag69
(g90
g71
NtRp305
(dp306
g74
(dp307
g101
g102
ssg83
g296
sg76
(lp308
S':'
asbag69
(g90
g71
NtRp309
(dp310
g74
(dp311
sg83
g296
sg76
(lp312
g69
(g70
g71
NtRp313
(dp314
g74
(dp315
g82
I3
ssg83
g309
sg76
(lp316
S''
asbasbasbag69
(g85
g71
NtRp317
(dp318
g74
(dp319
sg83
g271
sg76
(lp320
g69
(g90
g71
NtRp321
(dp322
g74
(dp323
g94
g95
ssg83
g317
sg76
(lp324
S'expires'
p325
asbag69
(g90
g71
NtRp326
(dp327
g74
(dp328
g101
g102
ssg83
g317
sg76
(lp329
S':'
asbag69
(g90
g71
NtRp330
(dp331
g74
(dp332
sg83
g317
sg76
(lp333
g69
(g70
g71
NtRp334
(dp335
g74
(dp336
g82
I3
ssg83
g330
sg76
(lp337
S''
asbasbasbag69
(g85
g71
NtRp338
(dp339
g74
(dp340
sg83
g271
sg76
(lp341
g69
(g90
g71
NtRp342
(dp343
g74
(dp344
g94
g95
ssg83
g338
sg76
(lp345
S'httponly'
p346
asbag69
(g90
g71
NtRp347
(dp348
g74
(dp349
g101
g102
ssg83
g338
sg76
(lp350
S':'
asbag69
(g90
g71
NtRp351
(dp352
g74
(dp353
sg83
g338
sg76
(lp354
g69
(g70
g71
NtRp355
(dp356
g74
(dp357
g82
I3
ssg83
g351
sg76
(lp358
S''
asbasbasbag69
(g85
g71
NtRp359
(dp360
g74
(dp361
sg83
g271
sg76
(lp362
g69
(g90
g71
NtRp363
(dp364
g74
(dp365
g94
g95
ssg83
g359
sg76
(lp366
S'max-age'
p367
asbag69
(g90
g71
NtRp368
(dp369
g74
(dp370
g101
g102
ssg83
g359
sg76
(lp371
S':'
asbag69
(g90
g71
NtRp372
(dp373
g74
(dp374
sg83
g359
sg76
(lp375
g69
(g70
g71
NtRp376
(dp377
g74
(dp378
g82
I3
ssg83
g372
sg76
(lp379
S''
asbasbasbag69
(g85
g71
NtRp380
(dp381
g74
(dp382
sg83
g271
sg76
(lp383
g69
(g90
g71
NtRp384
(dp385
g74
(dp386
g94
g95
ssg83
g380
sg76
(lp387
S'path'
p388
asbag69
(g90
g71
NtRp389
(dp390
g74
(dp391
g101
g102
ssg83
g380
sg76
(lp392
S':'
asbag69
(g90
g71
NtRp393
(dp394
g74
(dp395
sg83
g380
sg76
(lp396
g69
(g70
g71
NtRp397
(dp398
g74
(dp399
g82
I3
ssg83
g393
sg76
(lp400
S''
asbasbasbag69
(g85
g71
NtRp401
(dp402
g74
(dp403
sg83
g271
sg76
(lp404
g69
(g90
g71
NtRp405
(dp406
g74
(dp407
g94
g95
ssg83
g401
sg76
(lp408
S'secure'
p409
asbag69
(g90
g71
NtRp410
(dp411
g74
(dp412
g101
g102
ssg83
g401
sg76
(lp413
S':'
asbag69
(g90
g71
NtRp414
(dp415
g74
(dp416
sg83
g401
sg76
(lp417
g69
(g70
g71
NtRp418
(dp419
g74
(dp420
g82
I3
ssg83
g414
sg76
(lp421
S''
asbasbasbag69
(g85
g71
NtRp422
(dp423
g74
(dp424
sg83
g271
sg76
(lp425
g69
(g90
g71
NtRp426
(dp427
g74
(dp428
g94
g95
ssg83
g422
sg76
(lp429
S'version'
p430
asbag69
(g90
g71
NtRp431
(dp432
g74
(dp433
g101
g102
ssg83
g422
sg76
(lp434
S':'
asbag69
(g90
g71
NtRp435
(dp436
g74
(dp437
sg83
g422
sg76
(lp438
g69
(g70
g71
NtRp439
(dp440
g74
(dp441
g82
I3
ssg83
g435
sg76
(lp442
S''
asbasbasbasbasbasbasbag69
(g85
g71
NtRp443
(dp444
g74
(dp445
sg83
g246
sg76
(lp446
g69
(g90
g71
NtRp447
(dp448
g74
(dp449
g94
g95
ssg83
g443
sg76
(lp450
S'session_id_cite_m'
p451
asbag69
(g90
g71
NtRp452
(dp453
g74
(dp454
g101
g102
ssg83
g443
sg76
(lp455
S':'
asbag69
(g90
g71
NtRp456
(dp457
g74
(dp458
sg83
g443
sg76
(lp459
g69
(g70
g71
NtRp460
(dp461
g74
(dp462
g82
I4
ssg83
g456
sg76
(lp463
g69
(g78
g71
NtRp464
(dp465
g74
(dp466
g82
I3
ssg83
Nsg76
(lp467
g69
(g85
g71
NtRp468
(dp469
g74
(dp470
sg83
g464
sg76
(lp471
g69
(g90
g71
NtRp472
(dp473
g74
(dp474
g94
g95
ssg83
g468
sg76
(lp475
g283
asbag69
(g90
g71
NtRp476
(dp477
g74
(dp478
g101
g102
ssg83
g468
sg76
(lp479
S':'
asbag69
(g90
g71
NtRp480
(dp481
g74
(dp482
sg83
g468
sg76
(lp483
g69
(g70
g71
NtRp484
(dp485
g74
(dp486
g82
I3
ssg83
g480
sg76
(lp487
S''
asbasbasbag69
(g85
g71
NtRp488
(dp489
g74
(dp490
sg83
g464
sg76
(lp491
g69
(g90
g71
NtRp492
(dp493
g74
(dp494
g94
g95
ssg83
g488
sg76
(lp495
g304
asbag69
(g90
g71
NtRp496
(dp497
g74
(dp498
g101
g102
ssg83
g488
sg76
(lp499
S':'
asbag69
(g90
g71
NtRp500
(dp501
g74
(dp502
sg83
g488
sg76
(lp503
g69
(g70
g71
NtRp504
(dp505
g74
(dp506
g82
I3
ssg83
g500
sg76
(lp507
S''
asbasbasbag69
(g85
g71
NtRp508
(dp509
g74
(dp510
sg83
g464
sg76
(lp511
g69
(g90
g71
NtRp512
(dp513
g74
(dp514
g94
g95
ssg83
g508
sg76
(lp515
g325
asbag69
(g90
g71
NtRp516
(dp517
g74
(dp518
g101
g102
ssg83
g508
sg76
(lp519
S':'
asbag69
(g90
g71
NtRp520
(dp521
g74
(dp522
sg83
g508
sg76
(lp523
g69
(g70
g71
NtRp524
(dp525
g74
(dp526
g82
I3
ssg83
g520
sg76
(lp527
S''
asbasbasbag69
(g85
g71
NtRp528
(dp529
g74
(dp530
sg83
g464
sg76
(lp531
g69
(g90
g71
NtRp532
(dp533
g74
(dp534
g94
g95
ssg83
g528
sg76
(lp535
g346
asbag69
(g90
g71
NtRp536
(dp537
g74
(dp538
g101
g102
ssg83
g528
sg76
(lp539
S':'
asbag69
(g90
g71
NtRp540
(dp541
g74
(dp542
sg83
g528
sg76
(lp543
g69
(g70
g71
NtRp544
(dp545
g74
(dp546
g82
I3
ssg83
g540
sg76
(lp547
S''
asbasbasbag69
(g85
g71
NtRp548
(dp549
g74
(dp550
sg83
g464
sg76
(lp551
g69
(g90
g71
NtRp552
(dp553
g74
(dp554
g94
g95
ssg83
g548
sg76
(lp555
g367
asbag69
(g90
g71
NtRp556
(dp557
g74
(dp558
g101
g102
ssg83
g548
sg76
(lp559
S':'
asbag69
(g90
g71
NtRp560
(dp561
g74
(dp562
sg83
g548
sg76
(lp563
g69
(g70
g71
NtRp564
(dp565
g74
(dp566
g82
I3
ssg83
g560
sg76
(lp567
S''
asbasbasbag69
(g85
g71
NtRp568
(dp569
g74
(dp570
sg83
g464
sg76
(lp571
g69
(g90
g71
NtRp572
(dp573
g74
(dp574
g94
g95
ssg83
g568
sg76
(lp575
g388
asbag69
(g90
g71
NtRp576
(dp577
g74
(dp578
g101
g102
ssg83
g568
sg76
(lp579
S':'
asbag69
(g90
g71
NtRp580
(dp581
g74
(dp582
sg83
g568
sg76
(lp583
g69
(g70
g71
NtRp584
(dp585
g74
(dp586
g82
I3
ssg83
g580
sg76
(lp587
S''
asbasbasbag69
(g85
g71
NtRp588
(dp589
g74
(dp590
sg83
g464
sg76
(lp591
g69
(g90
g71
NtRp592
(dp593
g74
(dp594
g94
g95
ssg83
g588
sg76
(lp595
g409
asbag69
(g90
g71
NtRp596
(dp597
g74
(dp598
g101
g102
ssg83
g588
sg76
(lp599
S':'
asbag69
(g90
g71
NtRp600
(dp601
g74
(dp602
sg83
g588
sg76
(lp603
g69
(g70
g71
NtRp604
(dp605
g74
(dp606
g82
I3
ssg83
g600
sg76
(lp607
S''
asbasbasbag69
(g85
g71
NtRp608
(dp609
g74
(dp610
sg83
g464
sg76
(lp611
g69
(g90
g71
NtRp612
(dp613
g74
(dp614
g94
g95
ssg83
g608
sg76
(lp615
g430
asbag69
(g90
g71
NtRp616
(dp617
g74
(dp618
g101
g102
ssg83
g608
sg76
(lp619
S':'
asbag69
(g90
g71
NtRp620
(dp621
g74
(dp622
sg83
g608
sg76
(lp623
g69
(g70
g71
NtRp624
(dp625
g74
(dp626
g82
I3
ssg83
g620
sg76
(lp627
S''
asbasbasbasbasbasbasbag69
(g85
g71
NtRp628
(dp629
g74
(dp630
sg83
g246
sg76
(lp631
g69
(g90
g71
NtRp632
(dp633
g74
(dp634
g94
g95
ssg83
g628
sg76
(lp635
S'session_id_cite_m1'
p636
asbag69
(g90
g71
NtRp637
(dp638
g74
(dp639
g101
g102
ssg83
g628
sg76
(lp640
S':'
asbag69
(g90
g71
NtRp641
(dp642
g74
(dp643
sg83
g628
sg76
(lp644
g69
(g70
g71
NtRp645
(dp646
g74
(dp647
g82
I4
ssg83
g641
sg76
(lp648
g69
(g78
g71
NtRp649
(dp650
g74
(dp651
g82
I3
ssg83
Nsg76
(lp652
g69
(g85
g71
NtRp653
(dp654
g74
(dp655
sg83
g649
sg76
(lp656
g69
(g90
g71
NtRp657
(dp658
g74
(dp659
g94
g95
ssg83
g653
sg76
(lp660
g283
asbag69
(g90
g71
NtRp661
(dp662
g74
(dp663
g101
g102
ssg83
g653
sg76
(lp664
S':'
asbag69
(g90
g71
NtRp665
(dp666
g74
(dp667
sg83
g653
sg76
(lp668
g69
(g70
g71
NtRp669
(dp670
g74
(dp671
g82
I3
ssg83
g665
sg76
(lp672
S''
asbasbasbag69
(g85
g71
NtRp673
(dp674
g74
(dp675
sg83
g649
sg76
(lp676
g69
(g90
g71
NtRp677
(dp678
g74
(dp679
g94
g95
ssg83
g673
sg76
(lp680
g304
asbag69
(g90
g71
NtRp681
(dp682
g74
(dp683
g101
g102
ssg83
g673
sg76
(lp684
S':'
asbag69
(g90
g71
NtRp685
(dp686
g74
(dp687
sg83
g673
sg76
(lp688
g69
(g70
g71
NtRp689
(dp690
g74
(dp691
g82
I3
ssg83
g685
sg76
(lp692
S''
asbasbasbag69
(g85
g71
NtRp693
(dp694
g74
(dp695
sg83
g649
sg76
(lp696
g69
(g90
g71
NtRp697
(dp698
g74
(dp699
g94
g95
ssg83
g693
sg76
(lp700
g325
asbag69
(g90
g71
NtRp701
(dp702
g74
(dp703
g101
g102
ssg83
g693
sg76
(lp704
S':'
asbag69
(g90
g71
NtRp705
(dp706
g74
(dp707
sg83
g693
sg76
(lp708
g69
(g70
g71
NtRp709
(dp710
g74
(dp711
g82
I3
ssg83
g705
sg76
(lp712
S''
asbasbasbag69
(g85
g71
NtRp713
(dp714
g74
(dp715
sg83
g649
sg76
(lp716
g69
(g90
g71
NtRp717
(dp718
g74
(dp719
g94
g95
ssg83
g713
sg76
(lp720
g346
asbag69
(g90
g71
NtRp721
(dp722
g74
(dp723
g101
g102
ssg83
g713
sg76
(lp724
S':'
asbag69
(g90
g71
NtRp725
(dp726
g74
(dp727
sg83
g713
sg76
(lp728
g69
(g70
g71
NtRp729
(dp730
g74
(dp731
g82
I3
ssg83
g725
sg76
(lp732
S''
asbasbasbag69
(g85
g71
NtRp733
(dp734
g74
(dp735
sg83
g649
sg76
(lp736
g69
(g90
g71
NtRp737
(dp738
g74
(dp739
g94
g95
ssg83
g733
sg76
(lp740
g367
asbag69
(g90
g71
NtRp741
(dp742
g74
(dp743
g101
g102
ssg83
g733
sg76
(lp744
S':'
asbag69
(g90
g71
NtRp745
(dp746
g74
(dp747
sg83
g733
sg76
(lp748
g69
(g70
g71
NtRp749
(dp750
g74
(dp751
g82
I3
ssg83
g745
sg76
(lp752
S''
asbasbasbag69
(g85
g71
NtRp753
(dp754
g74
(dp755
sg83
g649
sg76
(lp756
g69
(g90
g71
NtRp757
(dp758
g74
(dp759
g94
g95
ssg83
g753
sg76
(lp760
g388
asbag69
(g90
g71
NtRp761
(dp762
g74
(dp763
g101
g102
ssg83
g753
sg76
(lp764
S':'
asbag69
(g90
g71
NtRp765
(dp766
g74
(dp767
sg83
g753
sg76
(lp768
g69
(g70
g71
NtRp769
(dp770
g74
(dp771
g82
I3
ssg83
g765
sg76
(lp772
S''
asbasbasbag69
(g85
g71
NtRp773
(dp774
g74
(dp775
sg83
g649
sg76
(lp776
g69
(g90
g71
NtRp777
(dp778
g74
(dp779
g94
g95
ssg83
g773
sg76
(lp780
g409
asbag69
(g90
g71
NtRp781
(dp782
g74
(dp783
g101
g102
ssg83
g773
sg76
(lp784
S':'
asbag69
(g90
g71
NtRp785
(dp786
g74
(dp787
sg83
g773
sg76
(lp788
g69
(g70
g71
NtRp789
(dp790
g74
(dp791
g82
I3
ssg83
g785
sg76
(lp792
S''
asbasbasbag69
(g85
g71
NtRp793
(dp794
g74
(dp795
sg83
g649
sg76
(lp796
g69
(g90
g71
NtRp797
(dp798
g74
(dp799
g94
g95
ssg83
g793
sg76
(lp800
g430
asbag69
(g90
g71
NtRp801
(dp802
g74
(dp803
g101
g102
ssg83
g793
sg76
(lp804
S':'
asbag69
(g90
g71
NtRp805
(dp806
g74
(dp807
sg83
g793
sg76
(lp808
g69
(g70
g71
NtRp809
(dp810
g74
(dp811
g82
I3
ssg83
g805
sg76
(lp812
S''
asbasbasbasbasbasbasbag69
(g85
g71
NtRp813
(dp814
g74
(dp815
sg83
g246
sg76
(lp816
g69
(g90
g71
NtRp817
(dp818
g74
(dp819
g94
g95
ssg83
g813
sg76
(lp820
S'session_id_cite_m3'
p821
asbag69
(g90
g71
NtRp822
(dp823
g74
(dp824
g101
g102
ssg83
g813
sg76
(lp825
S':'
asbag69
(g90
g71
NtRp826
(dp827
g74
(dp828
sg83
g813
sg76
(lp829
g69
(g70
g71
NtRp830
(dp831
g74
(dp832
g82
I4
ssg83
g826
sg76
(lp833
g69
(g78
g71
NtRp834
(dp835
g74
(dp836
g82
I3
ssg83
Nsg76
(lp837
g69
(g85
g71
NtRp838
(dp839
g74
(dp840
sg83
g834
sg76
(lp841
g69
(g90
g71
NtRp842
(dp843
g74
(dp844
g94
g95
ssg83
g838
sg76
(lp845
g283
asbag69
(g90
g71
NtRp846
(dp847
g74
(dp848
g101
g102
ssg83
g838
sg76
(lp849
S':'
asbag69
(g90
g71
NtRp850
(dp851
g74
(dp852
sg83
g838
sg76
(lp853
g69
(g70
g71
NtRp854
(dp855
g74
(dp856
g82
I3
ssg83
g850
sg76
(lp857
S''
asbasbasbag69
(g85
g71
NtRp858
(dp859
g74
(dp860
sg83
g834
sg76
(lp861
g69
(g90
g71
NtRp862
(dp863
g74
(dp864
g94
g95
ssg83
g858
sg76
(lp865
g304
asbag69
(g90
g71
NtRp866
(dp867
g74
(dp868
g101
g102
ssg83
g858
sg76
(lp869
S':'
asbag69
(g90
g71
NtRp870
(dp871
g74
(dp872
sg83
g858
sg76
(lp873
g69
(g70
g71
NtRp874
(dp875
g74
(dp876
g82
I3
ssg83
g870
sg76
(lp877
S''
asbasbasbag69
(g85
g71
NtRp878
(dp879
g74
(dp880
sg83
g834
sg76
(lp881
g69
(g90
g71
NtRp882
(dp883
g74
(dp884
g94
g95
ssg83
g878
sg76
(lp885
g325
asbag69
(g90
g71
NtRp886
(dp887
g74
(dp888
g101
g102
ssg83
g878
sg76
(lp889
S':'
asbag69
(g90
g71
NtRp890
(dp891
g74
(dp892
sg83
g878
sg76
(lp893
g69
(g70
g71
NtRp894
(dp895
g74
(dp896
g82
I3
ssg83
g890
sg76
(lp897
S''
asbasbasbag69
(g85
g71
NtRp898
(dp899
g74
(dp900
sg83
g834
sg76
(lp901
g69
(g90
g71
NtRp902
(dp903
g74
(dp904
g94
g95
ssg83
g898
sg76
(lp905
g346
asbag69
(g90
g71
NtRp906
(dp907
g74
(dp908
g101
g102
ssg83
g898
sg76
(lp909
S':'
asbag69
(g90
g71
NtRp910
(dp911
g74
(dp912
sg83
g898
sg76
(lp913
g69
(g70
g71
NtRp914
(dp915
g74
(dp916
g82
I3
ssg83
g910
sg76
(lp917
S''
asbasbasbag69
(g85
g71
NtRp918
(dp919
g74
(dp920
sg83
g834
sg76
(lp921
g69
(g90
g71
NtRp922
(dp923
g74
(dp924
g94
g95
ssg83
g918
sg76
(lp925
g367
asbag69
(g90
g71
NtRp926
(dp927
g74
(dp928
g101
g102
ssg83
g918
sg76
(lp929
S':'
asbag69
(g90
g71
NtRp930
(dp931
g74
(dp932
sg83
g918
sg76
(lp933
g69
(g70
g71
NtRp934
(dp935
g74
(dp936
g82
I3
ssg83
g930
sg76
(lp937
S''
asbasbasbag69
(g85
g71
NtRp938
(dp939
g74
(dp940
sg83
g834
sg76
(lp941
g69
(g90
g71
NtRp942
(dp943
g74
(dp944
g94
g95
ssg83
g938
sg76
(lp945
g388
asbag69
(g90
g71
NtRp946
(dp947
g74
(dp948
g101
g102
ssg83
g938
sg76
(lp949
S':'
asbag69
(g90
g71
NtRp950
(dp951
g74
(dp952
sg83
g938
sg76
(lp953
g69
(g70
g71
NtRp954
(dp955
g74
(dp956
g82
I3
ssg83
g950
sg76
(lp957
S''
asbasbasbag69
(g85
g71
NtRp958
(dp959
g74
(dp960
sg83
g834
sg76
(lp961
g69
(g90
g71
NtRp962
(dp963
g74
(dp964
g94
g95
ssg83
g958
sg76
(lp965
g409
asbag69
(g90
g71
NtRp966
(dp967
g74
(dp968
g101
g102
ssg83
g958
sg76
(lp969
S':'
asbag69
(g90
g71
NtRp970
(dp971
g74
(dp972
sg83
g958
sg76
(lp973
g69
(g70
g71
NtRp974
(dp975
g74
(dp976
g82
I3
ssg83
g970
sg76
(lp977
S''
asbasbasbag69
(g85
g71
NtRp978
(dp979
g74
(dp980
sg83
g834
sg76
(lp981
g69
(g90
g71
NtRp982
(dp983
g74
(dp984
g94
g95
ssg83
g978
sg76
(lp985
g430
asbag69
(g90
g71
NtRp986
(dp987
g74
(dp988
g101
g102
ssg83
g978
sg76
(lp989
S':'
asbag69
(g90
g71
NtRp990
(dp991
g74
(dp992
sg83
g978
sg76
(lp993
g69
(g70
g71
NtRp994
(dp995
g74
(dp996
g82
I3
ssg83
g990
sg76
(lp997
S''
asbasbasbasbasbasbasbag69
(g85
g71
NtRp998
(dp999
g74
(dp1000
sg83
g246
sg76
(lp1001
g69
(g90
g71
NtRp1002
(dp1003
g74
(dp1004
g94
g95
ssg83
g998
sg76
(lp1005
S'session_id_welcome'
p1006
asbag69
(g90
g71
NtRp1007
(dp1008
g74
(dp1009
g101
g102
ssg83
g998
sg76
(lp1010
S':'
asbag69
(g90
g71
NtRp1011
(dp1012
g74
(dp1013
sg83
g998
sg76
(lp1014
g69
(g70
g71
NtRp1015
(dp1016
g74
(dp1017
g82
I4
ssg83
g1011
sg76
(lp1018
g69
(g78
g71
NtRp1019
(dp1020
g74
(dp1021
g82
I3
ssg83
Nsg76
(lp1022
g69
(g85
g71
NtRp1023
(dp1024
g74
(dp1025
sg83
g1019
sg76
(lp1026
g69
(g90
g71
NtRp1027
(dp1028
g74
(dp1029
g94
g95
ssg83
g1023
sg76
(lp1030
g283
asbag69
(g90
g71
NtRp1031
(dp1032
g74
(dp1033
g101
g102
ssg83
g1023
sg76
(lp1034
S':'
asbag69
(g90
g71
NtRp1035
(dp1036
g74
(dp1037
sg83
g1023
sg76
(lp1038
g69
(g70
g71
NtRp1039
(dp1040
g74
(dp1041
g82
I3
ssg83
g1035
sg76
(lp1042
S''
asbasbasbag69
(g85
g71
NtRp1043
(dp1044
g74
(dp1045
sg83
g1019
sg76
(lp1046
g69
(g90
g71
NtRp1047
(dp1048
g74
(dp1049
g94
g95
ssg83
g1043
sg76
(lp1050
g304
asbag69
(g90
g71
NtRp1051
(dp1052
g74
(dp1053
g101
g102
ssg83
g1043
sg76
(lp1054
S':'
asbag69
(g90
g71
NtRp1055
(dp1056
g74
(dp1057
sg83
g1043
sg76
(lp1058
g69
(g70
g71
NtRp1059
(dp1060
g74
(dp1061
g82
I3
ssg83
g1055
sg76
(lp1062
S''
asbasbasbag69
(g85
g71
NtRp1063
(dp1064
g74
(dp1065
sg83
g1019
sg76
(lp1066
g69
(g90
g71
NtRp1067
(dp1068
g74
(dp1069
g94
g95
ssg83
g1063
sg76
(lp1070
g325
asbag69
(g90
g71
NtRp1071
(dp1072
g74
(dp1073
g101
g102
ssg83
g1063
sg76
(lp1074
S':'
asbag69
(g90
g71
NtRp1075
(dp1076
g74
(dp1077
sg83
g1063
sg76
(lp1078
g69
(g70
g71
NtRp1079
(dp1080
g74
(dp1081
g82
I3
ssg83
g1075
sg76
(lp1082
S''
asbasbasbag69
(g85
g71
NtRp1083
(dp1084
g74
(dp1085
sg83
g1019
sg76
(lp1086
g69
(g90
g71
NtRp1087
(dp1088
g74
(dp1089
g94
g95
ssg83
g1083
sg76
(lp1090
g346
asbag69
(g90
g71
NtRp1091
(dp1092
g74
(dp1093
g101
g102
ssg83
g1083
sg76
(lp1094
S':'
asbag69
(g90
g71
NtRp1095
(dp1096
g74
(dp1097
sg83
g1083
sg76
(lp1098
g69
(g70
g71
NtRp1099
(dp1100
g74
(dp1101
g82
I3
ssg83
g1095
sg76
(lp1102
S''
asbasbasbag69
(g85
g71
NtRp1103
(dp1104
g74
(dp1105
sg83
g1019
sg76
(lp1106
g69
(g90
g71
NtRp1107
(dp1108
g74
(dp1109
g94
g95
ssg83
g1103
sg76
(lp1110
g367
asbag69
(g90
g71
NtRp1111
(dp1112
g74
(dp1113
g101
g102
ssg83
g1103
sg76
(lp1114
S':'
asbag69
(g90
g71
NtRp1115
(dp1116
g74
(dp1117
sg83
g1103
sg76
(lp1118
g69
(g70
g71
NtRp1119
(dp1120
g74
(dp1121
g82
I3
ssg83
g1115
sg76
(lp1122
S''
asbasbasbag69
(g85
g71
NtRp1123
(dp1124
g74
(dp1125
sg83
g1019
sg76
(lp1126
g69
(g90
g71
NtRp1127
(dp1128
g74
(dp1129
g94
g95
ssg83
g1123
sg76
(lp1130
g388
asbag69
(g90
g71
NtRp1131
(dp1132
g74
(dp1133
g101
g102
ssg83
g1123
sg76
(lp1134
S':'
asbag69
(g90
g71
NtRp1135
(dp1136
g74
(dp1137
sg83
g1123
sg76
(lp1138
g69
(g70
g71
NtRp1139
(dp1140
g74
(dp1141
g82
I3
ssg83
g1135
sg76
(lp1142
S''
asbasbasbag69
(g85
g71
NtRp1143
(dp1144
g74
(dp1145
sg83
g1019
sg76
(lp1146
g69
(g90
g71
NtRp1147
(dp1148
g74
(dp1149
g94
g95
ssg83
g1143
sg76
(lp1150
g409
asbag69
(g90
g71
NtRp1151
(dp1152
g74
(dp1153
g101
g102
ssg83
g1143
sg76
(lp1154
S':'
asbag69
(g90
g71
NtRp1155
(dp1156
g74
(dp1157
sg83
g1143
sg76
(lp1158
g69
(g70
g71
NtRp1159
(dp1160
g74
(dp1161
g82
I3
ssg83
g1155
sg76
(lp1162
S''
asbasbasbag69
(g85
g71
NtRp1163
(dp1164
g74
(dp1165
sg83
g1019
sg76
(lp1166
g69
(g90
g71
NtRp1167
(dp1168
g74
(dp1169
g94
g95
ssg83
g1163
sg76
(lp1170
g430
asbag69
(g90
g71
NtRp1171
(dp1172
g74
(dp1173
g101
g102
ssg83
g1163
sg76
(lp1174
S':'
asbag69
(g90
g71
NtRp1175
(dp1176
g74
(dp1177
sg83
g1163
sg76
(lp1178
g69
(g70
g71
NtRp1179
(dp1180
g74
(dp1181
g82
I3
ssg83
g1175
sg76
(lp1182
S''
asbasbasbasbasbasbasbasbasbasbasbag69
(g85
g71
NtRp1183
(dp1184
g74
(dp1185
sg83
g79
sg76
(lp1186
g69
(g90
g71
NtRp1187
(dp1188
g74
(dp1189
g94
g95
ssg83
g1183
sg76
(lp1190
S'env'
p1191
asbag69
(g90
g71
NtRp1192
(dp1193
g74
(dp1194
g101
g102
ssg83
g1183
sg76
(lp1195
S':'
asbag69
(g90
g71
NtRp1196
(dp1197
g74
(dp1198
sg83
g1183
sg76
(lp1199
g69
(g70
g71
NtRp1200
(dp1201
g74
(dp1202
g82
I5
ssg83
g1196
sg76
(lp1203
g69
(g78
g71
NtRp1204
(dp1205
g74
(dp1206
g82
I4
ssg83
Nsg76
(lp1207
g69
(g85
g71
NtRp1208
(dp1209
g74
(dp1210
sg83
g1204
sg76
(lp1211
g69
(g90
g71
NtRp1212
(dp1213
g74
(dp1214
g94
g95
ssg83
g1208
sg76
(lp1215
S'app_folders'
p1216
asbag69
(g90
g71
NtRp1217
(dp1218
g74
(dp1219
g101
g102
ssg83
g1208
sg76
(lp1220
S':'
asbag69
(g90
g71
NtRp1221
(dp1222
g74
(dp1223
sg83
g1208
sg76
(lp1224
g69
(g70
g71
NtRp1225
(dp1226
g74
(dp1227
g82
I4
ssg83
g1221
sg76
(lp1228
S"set(['/home/maneesha/Downloads/web2py/applications/cite_m/', '/home/maneesha/Downloads/web2py/applications/cite_m3/', '/home/maneesha/Downloads/web2py/applications/welcome/', '/home/maneesha/Downloads/web2py/applications/admin/', '/home/maneesha/Downloads/web2py/applications/cite_m1/', '/home/maneesha/Downloads/web2py/applications/proj_rough/'])"
p1229
asbasbasbag69
(g85
g71
NtRp1230
(dp1231
g74
(dp1232
sg83
g1204
sg76
(lp1233
g69
(g90
g71
NtRp1234
(dp1235
g74
(dp1236
g94
g95
ssg83
g1230
sg76
(lp1237
S'applications_parent'
p1238
asbag69
(g90
g71
NtRp1239
(dp1240
g74
(dp1241
g101
g102
ssg83
g1230
sg76
(lp1242
S':'
asbag69
(g90
g71
NtRp1243
(dp1244
g74
(dp1245
sg83
g1230
sg76
(lp1246
g69
(g70
g71
NtRp1247
(dp1248
g74
(dp1249
g82
I4
ssg83
g1243
sg76
(lp1250
S'/home/maneesha/Downloads/web2py'
p1251
asbasbasbag69
(g85
g71
NtRp1252
(dp1253
g74
(dp1254
sg83
g1204
sg76
(lp1255
g69
(g90
g71
NtRp1256
(dp1257
g74
(dp1258
g94
g95
ssg83
g1252
sg76
(lp1259
S'cmd_args'
p1260
asbag69
(g90
g71
NtRp1261
(dp1262
g74
(dp1263
g101
g102
ssg83
g1252
sg76
(lp1264
S':'
asbag69
(g90
g71
NtRp1265
(dp1266
g74
(dp1267
sg83
g1252
sg76
(lp1268
g69
(g70
g71
NtRp1269
(dp1270
g74
(dp1271
g82
I4
ssg83
g1265
sg76
(lp1272
g69
(g78
g71
NtRp1273
(dp1274
g74
(dp1275
g82
I3
ssg83
Nsg76
(lp1276
sbasbasbasbag69
(g85
g71
NtRp1277
(dp1278
g74
(dp1279
sg83
g1204
sg76
(lp1280
g69
(g90
g71
NtRp1281
(dp1282
g74
(dp1283
g94
g95
ssg83
g1277
sg76
(lp1284
S'cmd_options'
p1285
asbag69
(g90
g71
NtRp1286
(dp1287
g74
(dp1288
g101
g102
ssg83
g1277
sg76
(lp1289
S':'
asbag69
(g90
g71
NtRp1290
(dp1291
g74
(dp1292
sg83
g1277
sg76
(lp1293
g69
(g70
g71
NtRp1294
(dp1295
g74
(dp1296
g82
I4
ssg83
g1290
sg76
(lp1297
S"<Values at 0x1d0e950: {'verbose': False, 'ip': '127.0.0.1', 'shutdown_timeout': 5, 'taskbar': False, 'nocron': False, 'pid_filename': 'httpserver.pid', 'maxthreads': None, 'softcron': False, 'server_name': 'maneesha-Inspiron-N5050', 'bpython': False, 'nogui': False, 'port': 8000, 'extcron': False, 'debuglevel': 30, 'test': None, 'folder': '/home/maneesha/Downloads/web2py', 'config': '', 'import_models': False, 'winservice': '', 'shell': None, 'run': '', 'log_filename': 'httpserver.log', 'args': [''], 'socket_timeout': 5, 'ssl_ca_certificate': None, 'scheduler': None, 'profiler_filename': None, 'ssl_private_key': '', 'password': '<ask>', 'request_queue_size': 5, 'ssl_certificate': '', 'cronjob': False, 'numthreads': None, 'quiet': False, 'interfaces': None, 'minthreads': None, 'timeout': 10, 'plain': False, 'nobanner': False}>"
p1298
asbasbasbag69
(g85
g71
NtRp1299
(dp1300
g74
(dp1301
sg83
g1204
sg76
(lp1302
g69
(g90
g71
NtRp1303
(dp1304
g74
(dp1305
g94
g95
ssg83
g1299
sg76
(lp1306
S'db_sessions'
p1307
asbag69
(g90
g71
NtRp1308
(dp1309
g74
(dp1310
g101
g102
ssg83
g1299
sg76
(lp1311
S':'
asbag69
(g90
g71
NtRp1312
(dp1313
g74
(dp1314
sg83
g1299
sg76
(lp1315
g69
(g70
g71
NtRp1316
(dp1317
g74
(dp1318
g82
I4
ssg83
g1312
sg76
(lp1319
S'set([])'
p1320
asbasbasbag69
(g85
g71
NtRp1321
(dp1322
g74
(dp1323
sg83
g1204
sg76
(lp1324
g69
(g90
g71
NtRp1325
(dp1326
g74
(dp1327
g94
g95
ssg83
g1321
sg76
(lp1328
S'debugging'
p1329
asbag69
(g90
g71
NtRp1330
(dp1331
g74
(dp1332
g101
g102
ssg83
g1321
sg76
(lp1333
S':'
asbag69
(g90
g71
NtRp1334
(dp1335
g74
(dp1336
sg83
g1321
sg76
(lp1337
g69
(g70
g71
NtRp1338
(dp1339
g74
(dp1340
g82
I4
ssg83
g1334
sg76
(lp1341
g112
asbasbasbag69
(g85
g71
NtRp1342
(dp1343
g74
(dp1344
sg83
g1204
sg76
(lp1345
g69
(g90
g71
NtRp1346
(dp1347
g74
(dp1348
g94
g95
ssg83
g1342
sg76
(lp1349
S'gluon_parent'
p1350
asbag69
(g90
g71
NtRp1351
(dp1352
g74
(dp1353
g101
g102
ssg83
g1342
sg76
(lp1354
S':'
asbag69
(g90
g71
NtRp1355
(dp1356
g74
(dp1357
sg83
g1342
sg76
(lp1358
g69
(g70
g71
NtRp1359
(dp1360
g74
(dp1361
g82
I4
ssg83
g1355
sg76
(lp1362
S'/home/maneesha/Downloads/web2py'
p1363
asbasbasbag69
(g85
g71
NtRp1364
(dp1365
g74
(dp1366
sg83
g1204
sg76
(lp1367
g69
(g90
g71
NtRp1368
(dp1369
g74
(dp1370
g94
g95
ssg83
g1364
sg76
(lp1371
S'http_accept'
p1372
asbag69
(g90
g71
NtRp1373
(dp1374
g74
(dp1375
g101
g102
ssg83
g1364
sg76
(lp1376
S':'
asbag69
(g90
g71
NtRp1377
(dp1378
g74
(dp1379
sg83
g1364
sg76
(lp1380
g69
(g70
g71
NtRp1381
(dp1382
g74
(dp1383
g82
I4
ssg83
g1377
sg76
(lp1384
S'text/html,application/xhtml+xml,application/xml;q=0.9,*/*;q=0.8'
p1385
asbasbasbag69
(g85
g71
NtRp1386
(dp1387
g74
(dp1388
sg83
g1204
sg76
(lp1389
g69
(g90
g71
NtRp1390
(dp1391
g74
(dp1392
g94
g95
ssg83
g1386
sg76
(lp1393
S'http_accept_encoding'
p1394
asbag69
(g90
g71
NtRp1395
(dp1396
g74
(dp1397
g101
g102
ssg83
g1386
sg76
(lp1398
S':'
asbag69
(g90
g71
NtRp1399
(dp1400
g74
(dp1401
sg83
g1386
sg76
(lp1402
g69
(g70
g71
NtRp1403
(dp1404
g74
(dp1405
g82
I4
ssg83
g1399
sg76
(lp1406
S'gzip, deflate'
p1407
asbasbasbag69
(g85
g71
NtRp1408
(dp1409
g74
(dp1410
sg83
g1204
sg76
(lp1411
g69
(g90
g71
NtRp1412
(dp1413
g74
(dp1414
g94
g95
ssg83
g1408
sg76
(lp1415
S'http_accept_language'
p1416
asbag69
(g90
g71
NtRp1417
(dp1418
g74
(dp1419
g101
g102
ssg83
g1408
sg76
(lp1420
S':'
asbag69
(g90
g71
NtRp1421
(dp1422
g74
(dp1423
sg83
g1408
sg76
(lp1424
g69
(g70
g71
NtRp1425
(dp1426
g74
(dp1427
g82
I4
ssg83
g1421
sg76
(lp1428
S'en-US,en;q=0.5'
p1429
asbasbasbag69
(g85
g71
NtRp1430
(dp1431
g74
(dp1432
sg83
g1204
sg76
(lp1433
g69
(g90
g71
NtRp1434
(dp1435
g74
(dp1436
g94
g95
ssg83
g1430
sg76
(lp1437
S'http_connection'
p1438
asbag69
(g90
g71
NtRp1439
(dp1440
g74
(dp1441
g101
g102
ssg83
g1430
sg76
(lp1442
S':'
asbag69
(g90
g71
NtRp1443
(dp1444
g74
(dp1445
sg83
g1430
sg76
(lp1446
g69
(g70
g71
NtRp1447
(dp1448
g74
(dp1449
g82
I4
ssg83
g1443
sg76
(lp1450
S'keep-alive'
p1451
asbasbasbag69
(g85
g71
NtRp1452
(dp1453
g74
(dp1454
sg83
g1204
sg76
(lp1455
g69
(g90
g71
NtRp1456
(dp1457
g74
(dp1458
g94
g95
ssg83
g1452
sg76
(lp1459
S'http_cookie'
p1460
asbag69
(g90
g71
NtRp1461
(dp1462
g74
(dp1463
g101
g102
ssg83
g1452
sg76
(lp1464
S':'
asbag69
(g90
g71
NtRp1465
(dp1466
g74
(dp1467
sg83
g1452
sg76
(lp1468
g69
(g70
g71
NtRp1469
(dp1470
g74
(dp1471
g82
I4
ssg83
g1465
sg76
(lp1472
S'session_id_welcome=127.0.0.1-b0c176f1-09ef-440c-b002-5e5d8ad7334b; session_id_admin=127.0.0.1-4beefdd2-72e1-4fc0-be85-3a906a68618d; session_id_cite_m=127.0.0.1-b2dfb87e-d35c-4c23-92fb-8613e360d012; session_id_cite_m1=127.0.0.1-eae66d3b-bb7f-468e-8d8a-fd7d790f6a7e; session_id_cite_m3=127.0.0.1-47ff6b5b-ae2e-4fc8-851c-9fb23404d46e'
p1473
asbasbasbag69
(g85
g71
NtRp1474
(dp1475
g74
(dp1476
sg83
g1204
sg76
(lp1477
g69
(g90
g71
NtRp1478
(dp1479
g74
(dp1480
g94
g95
ssg83
g1474
sg76
(lp1481
S'http_host'
p1482
asbag69
(g90
g71
NtRp1483
(dp1484
g74
(dp1485
g101
g102
ssg83
g1474
sg76
(lp1486
S':'
asbag69
(g90
g71
NtRp1487
(dp1488
g74
(dp1489
sg83
g1474
sg76
(lp1490
g69
(g70
g71
NtRp1491
(dp1492
g74
(dp1493
g82
I4
ssg83
g1487
sg76
(lp1494
S'127.0.0.1:8000'
p1495
asbasbasbag69
(g85
g71
NtRp1496
(dp1497
g74
(dp1498
sg83
g1204
sg76
(lp1499
g69
(g90
g71
NtRp1500
(dp1501
g74
(dp1502
g94
g95
ssg83
g1496
sg76
(lp1503
S'http_referer'
p1504
asbag69
(g90
g71
NtRp1505
(dp1506
g74
(dp1507
g101
g102
ssg83
g1496
sg76
(lp1508
S':'
asbag69
(g90
g71
NtRp1509
(dp1510
g74
(dp1511
sg83
g1496
sg76
(lp1512
g69
(g70
g71
NtRp1513
(dp1514
g74
(dp1515
g82
I4
ssg83
g1509
sg76
(lp1516
S'http://127.0.0.1:8000/cite_m3/default/index'
p1517
asbasbasbag69
(g85
g71
NtRp1518
(dp1519
g74
(dp1520
sg83
g1204
sg76
(lp1521
g69
(g90
g71
NtRp1522
(dp1523
g74
(dp1524
g94
g95
ssg83
g1518
sg76
(lp1525
S'http_user_agent'
p1526
asbag69
(g90
g71
NtRp1527
(dp1528
g74
(dp1529
g101
g102
ssg83
g1518
sg76
(lp1530
S':'
asbag69
(g90
g71
NtRp1531
(dp1532
g74
(dp1533
sg83
g1518
sg76
(lp1534
g69
(g70
g71
NtRp1535
(dp1536
g74
(dp1537
g82
I4
ssg83
g1531
sg76
(lp1538
S'Mozilla/5.0 (X11; Ubuntu; Linux x86_64; rv:16.0) Gecko/20100101 Firefox/16.0'
p1539
asbasbasbag69
(g85
g71
NtRp1540
(dp1541
g74
(dp1542
sg83
g1204
sg76
(lp1543
g69
(g90
g71
NtRp1544
(dp1545
g74
(dp1546
g94
g95
ssg83
g1540
sg76
(lp1547
S'is_jython'
p1548
asbag69
(g90
g71
NtRp1549
(dp1550
g74
(dp1551
g101
g102
ssg83
g1540
sg76
(lp1552
S':'
asbag69
(g90
g71
NtRp1553
(dp1554
g74
(dp1555
sg83
g1540
sg76
(lp1556
g69
(g70
g71
NtRp1557
(dp1558
g74
(dp1559
g82
I4
ssg83
g1553
sg76
(lp1560
g112
asbasbasbag69
(g85
g71
NtRp1561
(dp1562
g74
(dp1563
sg83
g1204
sg76
(lp1564
g69
(g90
g71
NtRp1565
(dp1566
g74
(dp1567
g94
g95
ssg83
g1561
sg76
(lp1568
S'is_pypy'
p1569
asbag69
(g90
g71
NtRp1570
(dp1571
g74
(dp1572
g101
g102
ssg83
g1561
sg76
(lp1573
S':'
asbag69
(g90
g71
NtRp1574
(dp1575
g74
(dp1576
sg83
g1561
sg76
(lp1577
g69
(g70
g71
NtRp1578
(dp1579
g74
(dp1580
g82
I4
ssg83
g1574
sg76
(lp1581
g112
asbasbasbag69
(g85
g71
NtRp1582
(dp1583
g74
(dp1584
sg83
g1204
sg76
(lp1585
g69
(g90
g71
NtRp1586
(dp1587
g74
(dp1588
g94
g95
ssg83
g1582
sg76
(lp1589
S'path_info'
p1590
asbag69
(g90
g71
NtRp1591
(dp1592
g74
(dp1593
g101
g102
ssg83
g1582
sg76
(lp1594
S':'
asbag69
(g90
g71
NtRp1595
(dp1596
g74
(dp1597
sg83
g1582
sg76
(lp1598
g69
(g70
g71
NtRp1599
(dp1600
g74
(dp1601
g82
I4
ssg83
g1595
sg76
(lp1602
S'/cite_m3/default/final_ans'
p1603
asbasbasbag69
(g85
g71
NtRp1604
(dp1605
g74
(dp1606
sg83
g1204
sg76
(lp1607
g69
(g90
g71
NtRp1608
(dp1609
g74
(dp1610
g94
g95
ssg83
g1604
sg76
(lp1611
S'query_string'
p1612
asbag69
(g90
g71
NtRp1613
(dp1614
g74
(dp1615
g101
g102
ssg83
g1604
sg76
(lp1616
S':'
asbag69
(g90
g71
NtRp1617
(dp1618
g74
(dp1619
sg83
g1604
sg76
(lp1620
g69
(g70
g71
NtRp1621
(dp1622
g74
(dp1623
g82
I4
ssg83
g1617
sg76
(lp1624
S''
asbasbasbag69
(g85
g71
NtRp1625
(dp1626
g74
(dp1627
sg83
g1204
sg76
(lp1628
g69
(g90
g71
NtRp1629
(dp1630
g74
(dp1631
g94
g95
ssg83
g1625
sg76
(lp1632
S'remote_addr'
p1633
asbag69
(g90
g71
NtRp1634
(dp1635
g74
(dp1636
g101
g102
ssg83
g1625
sg76
(lp1637
S':'
asbag69
(g90
g71
NtRp1638
(dp1639
g74
(dp1640
sg83
g1625
sg76
(lp1641
g69
(g70
g71
NtRp1642
(dp1643
g74
(dp1644
g82
I4
ssg83
g1638
sg76
(lp1645
g202
asbasbasbag69
(g85
g71
NtRp1646
(dp1647
g74
(dp1648
sg83
g1204
sg76
(lp1649
g69
(g90
g71
NtRp1650
(dp1651
g74
(dp1652
g94
g95
ssg83
g1646
sg76
(lp1653
S'remote_port'
p1654
asbag69
(g90
g71
NtRp1655
(dp1656
g74
(dp1657
g101
g102
ssg83
g1646
sg76
(lp1658
S':'
asbag69
(g90
g71
NtRp1659
(dp1660
g74
(dp1661
sg83
g1646
sg76
(lp1662
g69
(g70
g71
NtRp1663
(dp1664
g74
(dp1665
g82
I4
ssg83
g1659
sg76
(lp1666
S'41372'
p1667
asbasbasbag69
(g85
g71
NtRp1668
(dp1669
g74
(dp1670
sg83
g1204
sg76
(lp1671
g69
(g90
g71
NtRp1672
(dp1673
g74
(dp1674
g94
g95
ssg83
g1668
sg76
(lp1675
S'request_method'
p1676
asbag69
(g90
g71
NtRp1677
(dp1678
g74
(dp1679
g101
g102
ssg83
g1668
sg76
(lp1680
S':'
asbag69
(g90
g71
NtRp1681
(dp1682
g74
(dp1683
sg83
g1668
sg76
(lp1684
g69
(g70
g71
NtRp1685
(dp1686
g74
(dp1687
g82
I4
ssg83
g1681
sg76
(lp1688
S'GET'
p1689
asbasbasbag69
(g85
g71
NtRp1690
(dp1691
g74
(dp1692
sg83
g1204
sg76
(lp1693
g69
(g90
g71
NtRp1694
(dp1695
g74
(dp1696
g94
g95
ssg83
g1690
sg76
(lp1697
S'script_name'
p1698
asbag69
(g90
g71
NtRp1699
(dp1700
g74
(dp1701
g101
g102
ssg83
g1690
sg76
(lp1702
S':'
asbag69
(g90
g71
NtRp1703
(dp1704
g74
(dp1705
sg83
g1690
sg76
(lp1706
g69
(g70
g71
NtRp1707
(dp1708
g74
(dp1709
g82
I4
ssg83
g1703
sg76
(lp1710
S''
asbasbasbag69
(g85
g71
NtRp1711
(dp1712
g74
(dp1713
sg83
g1204
sg76
(lp1714
g69
(g90
g71
NtRp1715
(dp1716
g74
(dp1717
g94
g95
ssg83
g1711
sg76
(lp1718
S'server_name'
p1719
asbag69
(g90
g71
NtRp1720
(dp1721
g74
(dp1722
g101
g102
ssg83
g1711
sg76
(lp1723
S':'
asbag69
(g90
g71
NtRp1724
(dp1725
g74
(dp1726
sg83
g1711
sg76
(lp1727
g69
(g70
g71
NtRp1728
(dp1729
g74
(dp1730
g82
I4
ssg83
g1724
sg76
(lp1731
S'maneesha-Inspiron-N5050'
p1732
asbasbasbag69
(g85
g71
NtRp1733
(dp1734
g74
(dp1735
sg83
g1204
sg76
(lp1736
g69
(g90
g71
NtRp1737
(dp1738
g74
(dp1739
g94
g95
ssg83
g1733
sg76
(lp1740
S'server_port'
p1741
asbag69
(g90
g71
NtRp1742
(dp1743
g74
(dp1744
g101
g102
ssg83
g1733
sg76
(lp1745
S':'
asbag69
(g90
g71
NtRp1746
(dp1747
g74
(dp1748
sg83
g1733
sg76
(lp1749
g69
(g70
g71
NtRp1750
(dp1751
g74
(dp1752
g82
I4
ssg83
g1746
sg76
(lp1753
S'8000'
p1754
asbasbasbag69
(g85
g71
NtRp1755
(dp1756
g74
(dp1757
sg83
g1204
sg76
(lp1758
g69
(g90
g71
NtRp1759
(dp1760
g74
(dp1761
g94
g95
ssg83
g1755
sg76
(lp1762
S'server_protocol'
p1763
asbag69
(g90
g71
NtRp1764
(dp1765
g74
(dp1766
g101
g102
ssg83
g1755
sg76
(lp1767
S':'
asbag69
(g90
g71
NtRp1768
(dp1769
g74
(dp1770
sg83
g1755
sg76
(lp1771
g69
(g70
g71
NtRp1772
(dp1773
g74
(dp1774
g82
I4
ssg83
g1768
sg76
(lp1775
S'HTTP/1.1'
p1776
asbasbasbag69
(g85
g71
NtRp1777
(dp1778
g74
(dp1779
sg83
g1204
sg76
(lp1780
g69
(g90
g71
NtRp1781
(dp1782
g74
(dp1783
g94
g95
ssg83
g1777
sg76
(lp1784
S'server_software'
p1785
asbag69
(g90
g71
NtRp1786
(dp1787
g74
(dp1788
g101
g102
ssg83
g1777
sg76
(lp1789
S':'
asbag69
(g90
g71
NtRp1790
(dp1791
g74
(dp1792
sg83
g1777
sg76
(lp1793
g69
(g70
g71
NtRp1794
(dp1795
g74
(dp1796
g82
I4
ssg83
g1790
sg76
(lp1797
S'Rocket 1.2.4'
p1798
asbasbasbag69
(g85
g71
NtRp1799
(dp1800
g74
(dp1801
sg83
g1204
sg76
(lp1802
g69
(g90
g71
NtRp1803
(dp1804
g74
(dp1805
g94
g95
ssg83
g1799
sg76
(lp1806
S'web2py_crontype'
p1807
asbag69
(g90
g71
NtRp1808
(dp1809
g74
(dp1810
g101
g102
ssg83
g1799
sg76
(lp1811
S':'
asbag69
(g90
g71
NtRp1812
(dp1813
g74
(dp1814
sg83
g1799
sg76
(lp1815
g69
(g70
g71
NtRp1816
(dp1817
g74
(dp1818
g82
I4
ssg83
g1812
sg76
(lp1819
S'hard'
p1820
asbasbasbag69
(g85
g71
NtRp1821
(dp1822
g74
(dp1823
sg83
g1204
sg76
(lp1824
g69
(g90
g71
NtRp1825
(dp1826
g74
(dp1827
g94
g95
ssg83
g1821
sg76
(lp1828
S'web2py_path'
p1829
asbag69
(g90
g71
NtRp1830
(dp1831
g74
(dp1832
g101
g102
ssg83
g1821
sg76
(lp1833
S':'
asbag69
(g90
g71
NtRp1834
(dp1835
g74
(dp1836
sg83
g1821
sg76
(lp1837
g69
(g70
g71
NtRp1838
(dp1839
g74
(dp1840
g82
I4
ssg83
g1834
sg76
(lp1841
g1251
asbasbasbag69
(g85
g71
NtRp1842
(dp1843
g74
(dp1844
sg83
g1204
sg76
(lp1845
g69
(g90
g71
NtRp1846
(dp1847
g74
(dp1848
g94
g95
ssg83
g1842
sg76
(lp1849
S'web2py_version'
p1850
asbag69
(g90
g71
NtRp1851
(dp1852
g74
(dp1853
g101
g102
ssg83
g1842
sg76
(lp1854
S':'
asbag69
(g90
g71
NtRp1855
(dp1856
g74
(dp1857
sg83
g1842
sg76
(lp1858
g69
(g70
g71
NtRp1859
(dp1860
g74
(dp1861
g82
I4
ssg83
g1855
sg76
(lp1862
g69
(g78
g71
NtRp1863
(dp1864
g74
(dp1865
g82
I3
ssg83
Nsg76
(lp1866
g69
(g85
g71
NtRp1867
(dp1868
g74
(dp1869
sg83
g1863
sg76
(lp1870
g69
(g90
g71
NtRp1871
(dp1872
g74
(dp1873
sg83
g1867
sg76
(lp1874
g69
(g70
g71
NtRp1875
(dp1876
g74
(dp1877
g82
I3
ssg83
g1871
sg76
(lp1878
S'1'
asbasbasbag69
(g85
g71
NtRp1879
(dp1880
g74
(dp1881
sg83
g1863
sg76
(lp1882
g69
(g90
g71
NtRp1883
(dp1884
g74
(dp1885
sg83
g1879
sg76
(lp1886
g69
(g70
g71
NtRp1887
(dp1888
g74
(dp1889
g82
I3
ssg83
g1883
sg76
(lp1890
S'99'
p1891
asbasbasbag69
(g85
g71
NtRp1892
(dp1893
g74
(dp1894
sg83
g1863
sg76
(lp1895
g69
(g90
g71
NtRp1896
(dp1897
g74
(dp1898
sg83
g1892
sg76
(lp1899
g69
(g70
g71
NtRp1900
(dp1901
g74
(dp1902
g82
I3
ssg83
g1896
sg76
(lp1903
S'7'
asbasbasbag69
(g85
g71
NtRp1904
(dp1905
g74
(dp1906
sg83
g1863
sg76
(lp1907
g69
(g90
g71
NtRp1908
(dp1909
g74
(dp1910
sg83
g1904
sg76
(lp1911
g69
(g70
g71
NtRp1912
(dp1913
g74
(dp1914
g82
I3
ssg83
g1908
sg76
(lp1915
S'datetime.datetime(2012, 3, 4, 22, 12, 8)'
p1916
asbasbasbag69
(g85
g71
NtRp1917
(dp1918
g74
(dp1919
sg83
g1863
sg76
(lp1920
g69
(g90
g71
NtRp1921
(dp1922
g74
(dp1923
sg83
g1917
sg76
(lp1924
g69
(g70
g71
NtRp1925
(dp1926
g74
(dp1927
g82
I3
ssg83
g1921
sg76
(lp1928
S'stable'
p1929
asbasbasbasbasbasbasbag69
(g85
g71
NtRp1930
(dp1931
g74
(dp1932
sg83
g1204
sg76
(lp1933
g69
(g90
g71
NtRp1934
(dp1935
g74
(dp1936
g94
g95
ssg83
g1930
sg76
(lp1937
S'wsgi_errors'
p1938
asbag69
(g90
g71
NtRp1939
(dp1940
g74
(dp1941
g101
g102
ssg83
g1930
sg76
(lp1942
S':'
asbag69
(g90
g71
NtRp1943
(dp1944
g74
(dp1945
sg83
g1930
sg76
(lp1946
g69
(g70
g71
NtRp1947
(dp1948
g74
(dp1949
g82
I4
ssg83
g1943
sg76
(lp1950
S"<open file '<stderr>', mode 'w' at 0x7f92edceb270>"
p1951
asbasbasbag69
(g85
g71
NtRp1952
(dp1953
g74
(dp1954
sg83
g1204
sg76
(lp1955
g69
(g90
g71
NtRp1956
(dp1957
g74
(dp1958
g94
g95
ssg83
g1952
sg76
(lp1959
S'wsgi_file_wrapper'
p1960
asbag69
(g90
g71
NtRp1961
(dp1962
g74
(dp1963
g101
g102
ssg83
g1952
sg76
(lp1964
S':'
asbag69
(g90
g71
NtRp1965
(dp1966
g74
(dp1967
sg83
g1952
sg76
(lp1968
g69
(g70
g71
NtRp1969
(dp1970
g74
(dp1971
g82
I4
ssg83
g1965
sg76
(lp1972
S'<class wsgiref.util.FileWrapper at 0x1bdeef0>'
p1973
asbasbasbag69
(g85
g71
NtRp1974
(dp1975
g74
(dp1976
sg83
g1204
sg76
(lp1977
g69
(g90
g71
NtRp1978
(dp1979
g74
(dp1980
g94
g95
ssg83
g1974
sg76
(lp1981
S'wsgi_input'
p1982
asbag69
(g90
g71
NtRp1983
(dp1984
g74
(dp1985
g101
g102
ssg83
g1974
sg76
(lp1986
S':'
asbag69
(g90
g71
NtRp1987
(dp1988
g74
(dp1989
sg83
g1974
sg76
(lp1990
g69
(g70
g71
NtRp1991
(dp1992
g74
(dp1993
g82
I4
ssg83
g1987
sg76
(lp1994
S'<socket._fileobject object at 0x7f92ac0aa5d0>'
p1995
asbasbasbag69
(g85
g71
NtRp1996
(dp1997
g74
(dp1998
sg83
g1204
sg76
(lp1999
g69
(g90
g71
NtRp2000
(dp2001
g74
(dp2002
g94
g95
ssg83
g1996
sg76
(lp2003
S'wsgi_multiprocess'
p2004
asbag69
(g90
g71
NtRp2005
(dp2006
g74
(dp2007
g101
g102
ssg83
g1996
sg76
(lp2008
S':'
asbag69
(g90
g71
NtRp2009
(dp2010
g74
(dp2011
sg83
g1996
sg76
(lp2012
g69
(g70
g71
NtRp2013
(dp2014
g74
(dp2015
g82
I4
ssg83
g2009
sg76
(lp2016
g112
asbasbasbag69
(g85
g71
NtRp2017
(dp2018
g74
(dp2019
sg83
g1204
sg76
(lp2020
g69
(g90
g71
NtRp2021
(dp2022
g74
(dp2023
g94
g95
ssg83
g2017
sg76
(lp2024
S'wsgi_multithread'
p2025
asbag69
(g90
g71
NtRp2026
(dp2027
g74
(dp2028
g101
g102
ssg83
g2017
sg76
(lp2029
S':'
asbag69
(g90
g71
NtRp2030
(dp2031
g74
(dp2032
sg83
g2017
sg76
(lp2033
g69
(g70
g71
NtRp2034
(dp2035
g74
(dp2036
g82
I4
ssg83
g2030
sg76
(lp2037
S'True'
p2038
asbasbasbag69
(g85
g71
NtRp2039
(dp2040
g74
(dp2041
sg83
g1204
sg76
(lp2042
g69
(g90
g71
NtRp2043
(dp2044
g74
(dp2045
g94
g95
ssg83
g2039
sg76
(lp2046
S'wsgi_run_once'
p2047
asbag69
(g90
g71
NtRp2048
(dp2049
g74
(dp2050
g101
g102
ssg83
g2039
sg76
(lp2051
S':'
asbag69
(g90
g71
NtRp2052
(dp2053
g74
(dp2054
sg83
g2039
sg76
(lp2055
g69
(g70
g71
NtRp2056
(dp2057
g74
(dp2058
g82
I4
ssg83
g2052
sg76
(lp2059
g112
asbasbasbag69
(g85
g71
NtRp2060
(dp2061
g74
(dp2062
sg83
g1204
sg76
(lp2063
g69
(g90
g71
NtRp2064
(dp2065
g74
(dp2066
g94
g95
ssg83
g2060
sg76
(lp2067
S'wsgi_url_scheme'
p2068
asbag69
(g90
g71
NtRp2069
(dp2070
g74
(dp2071
g101
g102
ssg83
g2060
sg76
(lp2072
S':'
asbag69
(g90
g71
NtRp2073
(dp2074
g74
(dp2075
sg83
g2060
sg76
(lp2076
g69
(g70
g71
NtRp2077
(dp2078
g74
(dp2079
g82
I4
ssg83
g2073
sg76
(lp2080
S'http'
p2081
asbasbasbag69
(g85
g71
NtRp2082
(dp2083
g74
(dp2084
sg83
g1204
sg76
(lp2085
g69
(g90
g71
NtRp2086
(dp2087
g74
(dp2088
g94
g95
ssg83
g2082
sg76
(lp2089
S'wsgi_version'
p2090
asbag69
(g90
g71
NtRp2091
(dp2092
g74
(dp2093
g101
g102
ssg83
g2082
sg76
(lp2094
S':'
asbag69
(g90
g71
NtRp2095
(dp2096
g74
(dp2097
sg83
g2082
sg76
(lp2098
g69
(g70
g71
NtRp2099
(dp2100
g74
(dp2101
g82
I4
ssg83
g2095
sg76
(lp2102
g69
(g78
g71
NtRp2103
(dp2104
g74
(dp2105
g82
I3
ssg83
Nsg76
(lp2106
g69
(g85
g71
NtRp2107
(dp2108
g74
(dp2109
sg83
g2103
sg76
(lp2110
g69
(g90
g71
NtRp2111
(dp2112
g74
(dp2113
sg83
g2107
sg76
(lp2114
g69
(g70
g71
NtRp2115
(dp2116
g74
(dp2117
g82
I3
ssg83
g2111
sg76
(lp2118
S'1'
asbasbasbag69
(g85
g71
NtRp2119
(dp2120
g74
(dp2121
sg83
g2103
sg76
(lp2122
g69
(g90
g71
NtRp2123
(dp2124
g74
(dp2125
sg83
g2119
sg76
(lp2126
g69
(g70
g71
NtRp2127
(dp2128
g74
(dp2129
g82
I3
ssg83
g2123
sg76
(lp2130
S'0'
asbasbasbasbasbasbasbasbasbasbasbag69
(g85
g71
NtRp2131
(dp2132
g74
(dp2133
sg83
g79
sg76
(lp2134
g69
(g90
g71
NtRp2135
(dp2136
g74
(dp2137
g94
g95
ssg83
g2131
sg76
(lp2138
S'extension'
p2139
asbag69
(g90
g71
NtRp2140
(dp2141
g74
(dp2142
g101
g102
ssg83
g2131
sg76
(lp2143
S':'
asbag69
(g90
g71
NtRp2144
(dp2145
g74
(dp2146
sg83
g2131
sg76
(lp2147
g69
(g70
g71
NtRp2148
(dp2149
g74
(dp2150
g82
I5
ssg83
g2144
sg76
(lp2151
S'html'
p2152
asbasbasbag69
(g85
g71
NtRp2153
(dp2154
g74
(dp2155
sg83
g79
sg76
(lp2156
g69
(g90
g71
NtRp2157
(dp2158
g74
(dp2159
g94
g95
ssg83
g2153
sg76
(lp2160
S'folder'
p2161
asbag69
(g90
g71
NtRp2162
(dp2163
g74
(dp2164
g101
g102
ssg83
g2153
sg76
(lp2165
S':'
asbag69
(g90
g71
NtRp2166
(dp2167
g74
(dp2168
sg83
g2153
sg76
(lp2169
g69
(g70
g71
NtRp2170
(dp2171
g74
(dp2172
g82
I5
ssg83
g2166
sg76
(lp2173
S'/home/maneesha/Downloads/web2py/applications/cite_m3/'
p2174
asbasbasbag69
(g85
g71
NtRp2175
(dp2176
g74
(dp2177
sg83
g79
sg76
(lp2178
g69
(g90
g71
NtRp2179
(dp2180
g74
(dp2181
g94
g95
ssg83
g2175
sg76
(lp2182
S'function'
p2183
asbag69
(g90
g71
NtRp2184
(dp2185
g74
(dp2186
g101
g102
ssg83
g2175
sg76
(lp2187
S':'
asbag69
(g90
g71
NtRp2188
(dp2189
g74
(dp2190
sg83
g2175
sg76
(lp2191
g69
(g70
g71
NtRp2192
(dp2193
g74
(dp2194
g82
I5
ssg83
g2188
sg76
(lp2195
S'final_ans'
p2196
asbasbasbag69
(g85
g71
NtRp2197
(dp2198
g74
(dp2199
sg83
g79
sg76
(lp2200
g69
(g90
g71
NtRp2201
(dp2202
g74
(dp2203
g94
g95
ssg83
g2197
sg76
(lp2204
S'get_vars'
p2205
asbag69
(g90
g71
NtRp2206
(dp2207
g74
(dp2208
g101
g102
ssg83
g2197
sg76
(lp2209
S':'
asbag69
(g90
g71
NtRp2210
(dp2211
g74
(dp2212
sg83
g2197
sg76
(lp2213
g69
(g70
g71
NtRp2214
(dp2215
g74
(dp2216
g82
I5
ssg83
g2210
sg76
(lp2217
g69
(g78
g71
NtRp2218
(dp2219
g74
(dp2220
g82
I4
ssg83
Nsg76
(lp2221
sbasbasbasbag69
(g85
g71
NtRp2222
(dp2223
g74
(dp2224
sg83
g79
sg76
(lp2225
g69
(g90
g71
NtRp2226
(dp2227
g74
(dp2228
g94
g95
ssg83
g2222
sg76
(lp2229
S'global_settings'
p2230
asbag69
(g90
g71
NtRp2231
(dp2232
g74
(dp2233
g101
g102
ssg83
g2222
sg76
(lp2234
S':'
asbag69
(g90
g71
NtRp2235
(dp2236
g74
(dp2237
sg83
g2222
sg76
(lp2238
g69
(g70
g71
NtRp2239
(dp2240
g74
(dp2241
g82
I5
ssg83
g2235
sg76
(lp2242
g69
(g78
g71
NtRp2243
(dp2244
g74
(dp2245
g82
I4
ssg83
Nsg76
(lp2246
g69
(g85
g71
NtRp2247
(dp2248
g74
(dp2249
sg83
g2243
sg76
(lp2250
g69
(g90
g71
NtRp2251
(dp2252
g74
(dp2253
g94
g95
ssg83
g2247
sg76
(lp2254
g1216
asbag69
(g90
g71
NtRp2255
(dp2256
g74
(dp2257
g101
g102
ssg83
g2247
sg76
(lp2258
S':'
asbag69
(g90
g71
NtRp2259
(dp2260
g74
(dp2261
sg83
g2247
sg76
(lp2262
g69
(g70
g71
NtRp2263
(dp2264
g74
(dp2265
g82
I4
ssg83
g2259
sg76
(lp2266
S"set(['/home/maneesha/Downloads/web2py/applications/cite_m/', '/home/maneesha/Downloads/web2py/applications/cite_m3/', '/home/maneesha/Downloads/web2py/applications/welcome/', '/home/maneesha/Downloads/web2py/applications/admin/', '/home/maneesha/Downloads/web2py/applications/cite_m1/', '/home/maneesha/Downloads/web2py/applications/proj_rough/'])"
p2267
asbasbasbag69
(g85
g71
NtRp2268
(dp2269
g74
(dp2270
sg83
g2243
sg76
(lp2271
g69
(g90
g71
NtRp2272
(dp2273
g74
(dp2274
g94
g95
ssg83
g2268
sg76
(lp2275
g1238
asbag69
(g90
g71
NtRp2276
(dp2277
g74
(dp2278
g101
g102
ssg83
g2268
sg76
(lp2279
S':'
asbag69
(g90
g71
NtRp2280
(dp2281
g74
(dp2282
sg83
g2268
sg76
(lp2283
g69
(g70
g71
NtRp2284
(dp2285
g74
(dp2286
g82
I4
ssg83
g2280
sg76
(lp2287
g1251
asbasbasbag69
(g85
g71
NtRp2288
(dp2289
g74
(dp2290
sg83
g2243
sg76
(lp2291
g69
(g90
g71
NtRp2292
(dp2293
g74
(dp2294
g94
g95
ssg83
g2288
sg76
(lp2295
g1260
asbag69
(g90
g71
NtRp2296
(dp2297
g74
(dp2298
g101
g102
ssg83
g2288
sg76
(lp2299
S':'
asbag69
(g90
g71
NtRp2300
(dp2301
g74
(dp2302
sg83
g2288
sg76
(lp2303
g69
(g70
g71
NtRp2304
(dp2305
g74
(dp2306
g82
I4
ssg83
g2300
sg76
(lp2307
g69
(g78
g71
NtRp2308
(dp2309
g74
(dp2310
g82
I3
ssg83
Nsg76
(lp2311
sbasbasbasbag69
(g85
g71
NtRp2312
(dp2313
g74
(dp2314
sg83
g2243
sg76
(lp2315
g69
(g90
g71
NtRp2316
(dp2317
g74
(dp2318
g94
g95
ssg83
g2312
sg76
(lp2319
g1285
asbag69
(g90
g71
NtRp2320
(dp2321
g74
(dp2322
g101
g102
ssg83
g2312
sg76
(lp2323
S':'
asbag69
(g90
g71
NtRp2324
(dp2325
g74
(dp2326
sg83
g2312
sg76
(lp2327
g69
(g70
g71
NtRp2328
(dp2329
g74
(dp2330
g82
I4
ssg83
g2324
sg76
(lp2331
S"<Values at 0x1d0e950: {'verbose': False, 'ip': '127.0.0.1', 'shutdown_timeout': 5, 'taskbar': False, 'nocron': False, 'pid_filename': 'httpserver.pid', 'maxthreads': None, 'softcron': False, 'server_name': 'maneesha-Inspiron-N5050', 'bpython': False, 'nogui': False, 'port': 8000, 'extcron': False, 'debuglevel': 30, 'test': None, 'folder': '/home/maneesha/Downloads/web2py', 'config': '', 'import_models': False, 'winservice': '', 'shell': None, 'run': '', 'log_filename': 'httpserver.log', 'args': [''], 'socket_timeout': 5, 'ssl_ca_certificate': None, 'scheduler': None, 'profiler_filename': None, 'ssl_private_key': '', 'password': '<ask>', 'request_queue_size': 5, 'ssl_certificate': '', 'cronjob': False, 'numthreads': None, 'quiet': False, 'interfaces': None, 'minthreads': None, 'timeout': 10, 'plain': False, 'nobanner': False}>"
p2332
asbasbasbag69
(g85
g71
NtRp2333
(dp2334
g74
(dp2335
sg83
g2243
sg76
(lp2336
g69
(g90
g71
NtRp2337
(dp2338
g74
(dp2339
g94
g95
ssg83
g2333
sg76
(lp2340
g1307
asbag69
(g90
g71
NtRp2341
(dp2342
g74
(dp2343
g101
g102
ssg83
g2333
sg76
(lp2344
S':'
asbag69
(g90
g71
NtRp2345
(dp2346
g74
(dp2347
sg83
g2333
sg76
(lp2348
g69
(g70
g71
NtRp2349
(dp2350
g74
(dp2351
g82
I4
ssg83
g2345
sg76
(lp2352
S'set([])'
p2353
asbasbasbag69
(g85
g71
NtRp2354
(dp2355
g74
(dp2356
sg83
g2243
sg76
(lp2357
g69
(g90
g71
NtRp2358
(dp2359
g74
(dp2360
g94
g95
ssg83
g2354
sg76
(lp2361
g1329
asbag69
(g90
g71
NtRp2362
(dp2363
g74
(dp2364
g101
g102
ssg83
g2354
sg76
(lp2365
S':'
asbag69
(g90
g71
NtRp2366
(dp2367
g74
(dp2368
sg83
g2354
sg76
(lp2369
g69
(g70
g71
NtRp2370
(dp2371
g74
(dp2372
g82
I4
ssg83
g2366
sg76
(lp2373
g112
asbasbasbag69
(g85
g71
NtRp2374
(dp2375
g74
(dp2376
sg83
g2243
sg76
(lp2377
g69
(g90
g71
NtRp2378
(dp2379
g74
(dp2380
g94
g95
ssg83
g2374
sg76
(lp2381
g1350
asbag69
(g90
g71
NtRp2382
(dp2383
g74
(dp2384
g101
g102
ssg83
g2374
sg76
(lp2385
S':'
asbag69
(g90
g71
NtRp2386
(dp2387
g74
(dp2388
sg83
g2374
sg76
(lp2389
g69
(g70
g71
NtRp2390
(dp2391
g74
(dp2392
g82
I4
ssg83
g2386
sg76
(lp2393
g1363
asbasbasbag69
(g85
g71
NtRp2394
(dp2395
g74
(dp2396
sg83
g2243
sg76
(lp2397
g69
(g90
g71
NtRp2398
(dp2399
g74
(dp2400
g94
g95
ssg83
g2394
sg76
(lp2401
g1548
asbag69
(g90
g71
NtRp2402
(dp2403
g74
(dp2404
g101
g102
ssg83
g2394
sg76
(lp2405
S':'
asbag69
(g90
g71
NtRp2406
(dp2407
g74
(dp2408
sg83
g2394
sg76
(lp2409
g69
(g70
g71
NtRp2410
(dp2411
g74
(dp2412
g82
I4
ssg83
g2406
sg76
(lp2413
g112
asbasbasbag69
(g85
g71
NtRp2414
(dp2415
g74
(dp2416
sg83
g2243
sg76
(lp2417
g69
(g90
g71
NtRp2418
(dp2419
g74
(dp2420
g94
g95
ssg83
g2414
sg76
(lp2421
g1569
asbag69
(g90
g71
NtRp2422
(dp2423
g74
(dp2424
g101
g102
ssg83
g2414
sg76
(lp2425
S':'
asbag69
(g90
g71
NtRp2426
(dp2427
g74
(dp2428
sg83
g2414
sg76
(lp2429
g69
(g70
g71
NtRp2430
(dp2431
g74
(dp2432
g82
I4
ssg83
g2426
sg76
(lp2433
g112
asbasbasbag69
(g85
g71
NtRp2434
(dp2435
g74
(dp2436
sg83
g2243
sg76
(lp2437
g69
(g90
g71
NtRp2438
(dp2439
g74
(dp2440
g94
g95
ssg83
g2434
sg76
(lp2441
g1807
asbag69
(g90
g71
NtRp2442
(dp2443
g74
(dp2444
g101
g102
ssg83
g2434
sg76
(lp2445
S':'
asbag69
(g90
g71
NtRp2446
(dp2447
g74
(dp2448
sg83
g2434
sg76
(lp2449
g69
(g70
g71
NtRp2450
(dp2451
g74
(dp2452
g82
I4
ssg83
g2446
sg76
(lp2453
g1820
asbasbasbag69
(g85
g71
NtRp2454
(dp2455
g74
(dp2456
sg83
g2243
sg76
(lp2457
g69
(g90
g71
NtRp2458
(dp2459
g74
(dp2460
g94
g95
ssg83
g2454
sg76
(lp2461
g1850
asbag69
(g90
g71
NtRp2462
(dp2463
g74
(dp2464
g101
g102
ssg83
g2454
sg76
(lp2465
S':'
asbag69
(g90
g71
NtRp2466
(dp2467
g74
(dp2468
sg83
g2454
sg76
(lp2469
g69
(g70
g71
NtRp2470
(dp2471
g74
(dp2472
g82
I4
ssg83
g2466
sg76
(lp2473
g69
(g78
g71
NtRp2474
(dp2475
g74
(dp2476
g82
I3
ssg83
Nsg76
(lp2477
g69
(g85
g71
NtRp2478
(dp2479
g74
(dp2480
sg83
g2474
sg76
(lp2481
g69
(g90
g71
NtRp2482
(dp2483
g74
(dp2484
sg83
g2478
sg76
(lp2485
g69
(g70
g71
NtRp2486
(dp2487
g74
(dp2488
g82
I3
ssg83
g2482
sg76
(lp2489
S'1'
asbasbasbag69
(g85
g71
NtRp2490
(dp2491
g74
(dp2492
sg83
g2474
sg76
(lp2493
g69
(g90
g71
NtRp2494
(dp2495
g74
(dp2496
sg83
g2490
sg76
(lp2497
g69
(g70
g71
NtRp2498
(dp2499
g74
(dp2500
g82
I3
ssg83
g2494
sg76
(lp2501
S'99'
p2502
asbasbasbag69
(g85
g71
NtRp2503
(dp2504
g74
(dp2505
sg83
g2474
sg76
(lp2506
g69
(g90
g71
NtRp2507
(dp2508
g74
(dp2509
sg83
g2503
sg76
(lp2510
g69
(g70
g71
NtRp2511
(dp2512
g74
(dp2513
g82
I3
ssg83
g2507
sg76
(lp2514
S'7'
asbasbasbag69
(g85
g71
NtRp2515
(dp2516
g74
(dp2517
sg83
g2474
sg76
(lp2518
g69
(g90
g71
NtRp2519
(dp2520
g74
(dp2521
sg83
g2515
sg76
(lp2522
g69
(g70
g71
NtRp2523
(dp2524
g74
(dp2525
g82
I3
ssg83
g2519
sg76
(lp2526
S'datetime.datetime(2012, 3, 4, 22, 12, 8)'
p2527
asbasbasbag69
(g85
g71
NtRp2528
(dp2529
g74
(dp2530
sg83
g2474
sg76
(lp2531
g69
(g90
g71
NtRp2532
(dp2533
g74
(dp2534
sg83
g2528
sg76
(lp2535
g69
(g70
g71
NtRp2536
(dp2537
g74
(dp2538
g82
I3
ssg83
g2532
sg76
(lp2539
g1929
asbasbasbasbasbasbasbasbasbasbasbag69
(g85
g71
NtRp2540
(dp2541
g74
(dp2542
sg83
g79
sg76
(lp2543
g69
(g90
g71
NtRp2544
(dp2545
g74
(dp2546
g94
g95
ssg83
g2540
sg76
(lp2547
S'is_https'
p2548
asbag69
(g90
g71
NtRp2549
(dp2550
g74
(dp2551
g101
g102
ssg83
g2540
sg76
(lp2552
S':'
asbag69
(g90
g71
NtRp2553
(dp2554
g74
(dp2555
sg83
g2540
sg76
(lp2556
g69
(g70
g71
NtRp2557
(dp2558
g74
(dp2559
g82
I5
ssg83
g2553
sg76
(lp2560
g112
asbasbasbag69
(g85
g71
NtRp2561
(dp2562
g74
(dp2563
sg83
g79
sg76
(lp2564
g69
(g90
g71
NtRp2565
(dp2566
g74
(dp2567
g94
g95
ssg83
g2561
sg76
(lp2568
S'is_local'
p2569
asbag69
(g90
g71
NtRp2570
(dp2571
g74
(dp2572
g101
g102
ssg83
g2561
sg76
(lp2573
S':'
asbag69
(g90
g71
NtRp2574
(dp2575
g74
(dp2576
sg83
g2561
sg76
(lp2577
g69
(g70
g71
NtRp2578
(dp2579
g74
(dp2580
g82
I5
ssg83
g2574
sg76
(lp2581
g2038
asbasbasbag69
(g85
g71
NtRp2582
(dp2583
g74
(dp2584
sg83
g79
sg76
(lp2585
g69
(g90
g71
NtRp2586
(dp2587
g74
(dp2588
g94
g95
ssg83
g2582
sg76
(lp2589
S'is_restful'
p2590
asbag69
(g90
g71
NtRp2591
(dp2592
g74
(dp2593
g101
g102
ssg83
g2582
sg76
(lp2594
S':'
asbag69
(g90
g71
NtRp2595
(dp2596
g74
(dp2597
sg83
g2582
sg76
(lp2598
g69
(g70
g71
NtRp2599
(dp2600
g74
(dp2601
g82
I5
ssg83
g2595
sg76
(lp2602
g112
asbasbasbag69
(g85
g71
NtRp2603
(dp2604
g74
(dp2605
sg83
g79
sg76
(lp2606
g69
(g90
g71
NtRp2607
(dp2608
g74
(dp2609
g94
g95
ssg83
g2603
sg76
(lp2610
S'now'
p2611
asbag69
(g90
g71
NtRp2612
(dp2613
g74
(dp2614
g101
g102
ssg83
g2603
sg76
(lp2615
S':'
asbag69
(g90
g71
NtRp2616
(dp2617
g74
(dp2618
sg83
g2603
sg76
(lp2619
g69
(g70
g71
NtRp2620
(dp2621
g74
(dp2622
g82
I5
ssg83
g2616
sg76
(lp2623
S'datetime.datetime(2012, 11, 10, 21, 34, 50, 382954)'
p2624
asbasbasbag69
(g85
g71
NtRp2625
(dp2626
g74
(dp2627
sg83
g79
sg76
(lp2628
g69
(g90
g71
NtRp2629
(dp2630
g74
(dp2631
g94
g95
ssg83
g2625
sg76
(lp2632
S'post_vars'
p2633
asbag69
(g90
g71
NtRp2634
(dp2635
g74
(dp2636
g101
g102
ssg83
g2625
sg76
(lp2637
S':'
asbag69
(g90
g71
NtRp2638
(dp2639
g74
(dp2640
sg83
g2625
sg76
(lp2641
g69
(g70
g71
NtRp2642
(dp2643
g74
(dp2644
g82
I5
ssg83
g2638
sg76
(lp2645
g69
(g78
g71
NtRp2646
(dp2647
g74
(dp2648
g82
I4
ssg83
Nsg76
(lp2649
sbasbasbasbag69
(g85
g71
NtRp2650
(dp2651
g74
(dp2652
sg83
g79
sg76
(lp2653
g69
(g90
g71
NtRp2654
(dp2655
g74
(dp2656
g94
g95
ssg83
g2650
sg76
(lp2657
S'url'
p2658
asbag69
(g90
g71
NtRp2659
(dp2660
g74
(dp2661
g101
g102
ssg83
g2650
sg76
(lp2662
S':'
asbag69
(g90
g71
NtRp2663
(dp2664
g74
(dp2665
sg83
g2650
sg76
(lp2666
g69
(g70
g71
NtRp2667
(dp2668
g74
(dp2669
g82
I5
ssg83
g2663
sg76
(lp2670
S'/cite_m3/default/final_ans'
p2671
asbasbasbag69
(g85
g71
NtRp2672
(dp2673
g74
(dp2674
sg83
g79
sg76
(lp2675
g69
(g90
g71
NtRp2676
(dp2677
g74
(dp2678
g94
g95
ssg83
g2672
sg76
(lp2679
S'utcnow'
p2680
asbag69
(g90
g71
NtRp2681
(dp2682
g74
(dp2683
g101
g102
ssg83
g2672
sg76
(lp2684
S':'
asbag69
(g90
g71
NtRp2685
(dp2686
g74
(dp2687
sg83
g2672
sg76
(lp2688
g69
(g70
g71
NtRp2689
(dp2690
g74
(dp2691
g82
I5
ssg83
g2685
sg76
(lp2692
S'datetime.datetime(2012, 11, 10, 16, 4, 50, 382978)'
p2693
asbasbasbag69
(g85
g71
NtRp2694
(dp2695
g74
(dp2696
sg83
g79
sg76
(lp2697
g69
(g90
g71
NtRp2698
(dp2699
g74
(dp2700
g94
g95
ssg83
g2694
sg76
(lp2701
S'uuid'
p2702
asbag69
(g90
g71
NtRp2703
(dp2704
g74
(dp2705
g101
g102
ssg83
g2694
sg76
(lp2706
S':'
asbag69
(g90
g71
NtRp2707
(dp2708
g74
(dp2709
sg83
g2694
sg76
(lp2710
g69
(g70
g71
NtRp2711
(dp2712
g74
(dp2713
g82
I5
ssg83
g2707
sg76
(lp2714
S'cite_m3/127.0.0.1.2012-11-10.21-34-50.8c0d0c74-84b3-4b38-ae94-e60f7329995f'
p2715
asbasbasbag69
(g85
g71
NtRp2716
(dp2717
g74
(dp2718
sg83
g79
sg76
(lp2719
g69
(g90
g71
NtRp2720
(dp2721
g74
(dp2722
g94
g95
ssg83
g2716
sg76
(lp2723
S'vars'
p2724
asbag69
(g90
g71
NtRp2725
(dp2726
g74
(dp2727
g101
g102
ssg83
g2716
sg76
(lp2728
S':'
asbag69
(g90
g71
NtRp2729
(dp2730
g74
(dp2731
sg83
g2716
sg76
(lp2732
g69
(g70
g71
NtRp2733
(dp2734
g74
(dp2735
g82
I5
ssg83
g2729
sg76
(lp2736
g69
(g78
g71
NtRp2737
(dp2738
g74
(dp2739
g82
I4
ssg83
Nsg76
(lp2740
sbasbasbasbag69
(g85
g71
NtRp2741
(dp2742
g74
(dp2743
sg83
g79
sg76
(lp2744
g69
(g90
g71
NtRp2745
(dp2746
g74
(dp2747
g94
g95
ssg83
g2741
sg76
(lp2748
S'wsgi'
p2749
asbag69
(g90
g71
NtRp2750
(dp2751
g74
(dp2752
g101
g102
ssg83
g2741
sg76
(lp2753
S':'
asbag69
(g90
g71
NtRp2754
(dp2755
g74
(dp2756
sg83
g2741
sg76
(lp2757
g69
(g70
g71
NtRp2758
(dp2759
g74
(dp2760
g82
I5
ssg83
g2754
sg76
(lp2761
g69
(g78
g71
NtRp2762
(dp2763
g74
(dp2764
g82
I4
ssg83
Nsg76
(lp2765
g69
(g85
g71
NtRp2766
(dp2767
g74
(dp2768
sg83
g2762
sg76
(lp2769
g69
(g90
g71
NtRp2770
(dp2771
g74
(dp2772
g94
g95
ssg83
g2766
sg76
(lp2773
S'environ'
p2774
asbag69
(g90
g71
NtRp2775
(dp2776
g74
(dp2777
g101
g102
ssg83
g2766
sg76
(lp2778
S':'
asbag69
(g90
g71
NtRp2779
(dp2780
g74
(dp2781
sg83
g2766
sg76
(lp2782
g69
(g70
g71
NtRp2783
(dp2784
g74
(dp2785
g82
I4
ssg83
g2779
sg76
(lp2786
g69
(g78
g71
NtRp2787
(dp2788
g74
(dp2789
g82
I3
ssg83
Nsg76
(lp2790
g69
(g85
g71
NtRp2791
(dp2792
g74
(dp2793
sg83
g2787
sg76
(lp2794
g69
(g90
g71
NtRp2795
(dp2796
g74
(dp2797
g94
g95
ssg83
g2791
sg76
(lp2798
S'HTTP_ACCEPT'
p2799
asbag69
(g90
g71
NtRp2800
(dp2801
g74
(dp2802
g101
g102
ssg83
g2791
sg76
(lp2803
S':'
asbag69
(g90
g71
NtRp2804
(dp2805
g74
(dp2806
sg83
g2791
sg76
(lp2807
g69
(g70
g71
NtRp2808
(dp2809
g74
(dp2810
g82
I3
ssg83
g2804
sg76
(lp2811
g1385
asbasbasbag69
(g85
g71
NtRp2812
(dp2813
g74
(dp2814
sg83
g2787
sg76
(lp2815
g69
(g90
g71
NtRp2816
(dp2817
g74
(dp2818
g94
g95
ssg83
g2812
sg76
(lp2819
S'HTTP_ACCEPT_ENCODING'
p2820
asbag69
(g90
g71
NtRp2821
(dp2822
g74
(dp2823
g101
g102
ssg83
g2812
sg76
(lp2824
S':'
asbag69
(g90
g71
NtRp2825
(dp2826
g74
(dp2827
sg83
g2812
sg76
(lp2828
g69
(g70
g71
NtRp2829
(dp2830
g74
(dp2831
g82
I3
ssg83
g2825
sg76
(lp2832
g1407
asbasbasbag69
(g85
g71
NtRp2833
(dp2834
g74
(dp2835
sg83
g2787
sg76
(lp2836
g69
(g90
g71
NtRp2837
(dp2838
g74
(dp2839
g94
g95
ssg83
g2833
sg76
(lp2840
S'HTTP_ACCEPT_LANGUAGE'
p2841
asbag69
(g90
g71
NtRp2842
(dp2843
g74
(dp2844
g101
g102
ssg83
g2833
sg76
(lp2845
S':'
asbag69
(g90
g71
NtRp2846
(dp2847
g74
(dp2848
sg83
g2833
sg76
(lp2849
g69
(g70
g71
NtRp2850
(dp2851
g74
(dp2852
g82
I3
ssg83
g2846
sg76
(lp2853
g1429
asbasbasbag69
(g85
g71
NtRp2854
(dp2855
g74
(dp2856
sg83
g2787
sg76
(lp2857
g69
(g90
g71
NtRp2858
(dp2859
g74
(dp2860
g94
g95
ssg83
g2854
sg76
(lp2861
S'HTTP_CONNECTION'
p2862
asbag69
(g90
g71
NtRp2863
(dp2864
g74
(dp2865
g101
g102
ssg83
g2854
sg76
(lp2866
S':'
asbag69
(g90
g71
NtRp2867
(dp2868
g74
(dp2869
sg83
g2854
sg76
(lp2870
g69
(g70
g71
NtRp2871
(dp2872
g74
(dp2873
g82
I3
ssg83
g2867
sg76
(lp2874
g1451
asbasbasbag69
(g85
g71
NtRp2875
(dp2876
g74
(dp2877
sg83
g2787
sg76
(lp2878
g69
(g90
g71
NtRp2879
(dp2880
g74
(dp2881
g94
g95
ssg83
g2875
sg76
(lp2882
S'HTTP_COOKIE'
p2883
asbag69
(g90
g71
NtRp2884
(dp2885
g74
(dp2886
g101
g102
ssg83
g2875
sg76
(lp2887
S':'
asbag69
(g90
g71
NtRp2888
(dp2889
g74
(dp2890
sg83
g2875
sg76
(lp2891
g69
(g70
g71
NtRp2892
(dp2893
g74
(dp2894
g82
I3
ssg83
g2888
sg76
(lp2895
g1473
asbasbasbag69
(g85
g71
NtRp2896
(dp2897
g74
(dp2898
sg83
g2787
sg76
(lp2899
g69
(g90
g71
NtRp2900
(dp2901
g74
(dp2902
g94
g95
ssg83
g2896
sg76
(lp2903
S'HTTP_HOST'
p2904
asbag69
(g90
g71
NtRp2905
(dp2906
g74
(dp2907
g101
g102
ssg83
g2896
sg76
(lp2908
S':'
asbag69
(g90
g71
NtRp2909
(dp2910
g74
(dp2911
sg83
g2896
sg76
(lp2912
g69
(g70
g71
NtRp2913
(dp2914
g74
(dp2915
g82
I3
ssg83
g2909
sg76
(lp2916
g1495
asbasbasbag69
(g85
g71
NtRp2917
(dp2918
g74
(dp2919
sg83
g2787
sg76
(lp2920
g69
(g90
g71
NtRp2921
(dp2922
g74
(dp2923
g94
g95
ssg83
g2917
sg76
(lp2924
S'HTTP_REFERER'
p2925
asbag69
(g90
g71
NtRp2926
(dp2927
g74
(dp2928
g101
g102
ssg83
g2917
sg76
(lp2929
S':'
asbag69
(g90
g71
NtRp2930
(dp2931
g74
(dp2932
sg83
g2917
sg76
(lp2933
g69
(g70
g71
NtRp2934
(dp2935
g74
(dp2936
g82
I3
ssg83
g2930
sg76
(lp2937
g1517
asbasbasbag69
(g85
g71
NtRp2938
(dp2939
g74
(dp2940
sg83
g2787
sg76
(lp2941
g69
(g90
g71
NtRp2942
(dp2943
g74
(dp2944
g94
g95
ssg83
g2938
sg76
(lp2945
S'HTTP_USER_AGENT'
p2946
asbag69
(g90
g71
NtRp2947
(dp2948
g74
(dp2949
g101
g102
ssg83
g2938
sg76
(lp2950
S':'
asbag69
(g90
g71
NtRp2951
(dp2952
g74
(dp2953
sg83
g2938
sg76
(lp2954
g69
(g70
g71
NtRp2955
(dp2956
g74
(dp2957
g82
I3
ssg83
g2951
sg76
(lp2958
g1539
asbasbasbag69
(g85
g71
NtRp2959
(dp2960
g74
(dp2961
sg83
g2787
sg76
(lp2962
g69
(g90
g71
NtRp2963
(dp2964
g74
(dp2965
g94
g95
ssg83
g2959
sg76
(lp2966
S'PATH_INFO'
p2967
asbag69
(g90
g71
NtRp2968
(dp2969
g74
(dp2970
g101
g102
ssg83
g2959
sg76
(lp2971
S':'
asbag69
(g90
g71
NtRp2972
(dp2973
g74
(dp2974
sg83
g2959
sg76
(lp2975
g69
(g70
g71
NtRp2976
(dp2977
g74
(dp2978
g82
I3
ssg83
g2972
sg76
(lp2979
g1603
asbasbasbag69
(g85
g71
NtRp2980
(dp2981
g74
(dp2982
sg83
g2787
sg76
(lp2983
g69
(g90
g71
NtRp2984
(dp2985
g74
(dp2986
g94
g95
ssg83
g2980
sg76
(lp2987
S'QUERY_STRING'
p2988
asbag69
(g90
g71
NtRp2989
(dp2990
g74
(dp2991
g101
g102
ssg83
g2980
sg76
(lp2992
S':'
asbag69
(g90
g71
NtRp2993
(dp2994
g74
(dp2995
sg83
g2980
sg76
(lp2996
g69
(g70
g71
NtRp2997
(dp2998
g74
(dp2999
g82
I3
ssg83
g2993
sg76
(lp3000
S''
asbasbasbag69
(g85
g71
NtRp3001
(dp3002
g74
(dp3003
sg83
g2787
sg76
(lp3004
g69
(g90
g71
NtRp3005
(dp3006
g74
(dp3007
g94
g95
ssg83
g3001
sg76
(lp3008
S'REMOTE_ADDR'
p3009
asbag69
(g90
g71
NtRp3010
(dp3011
g74
(dp3012
g101
g102
ssg83
g3001
sg76
(lp3013
S':'
asbag69
(g90
g71
NtRp3014
(dp3015
g74
(dp3016
sg83
g3001
sg76
(lp3017
g69
(g70
g71
NtRp3018
(dp3019
g74
(dp3020
g82
I3
ssg83
g3014
sg76
(lp3021
g202
asbasbasbag69
(g85
g71
NtRp3022
(dp3023
g74
(dp3024
sg83
g2787
sg76
(lp3025
g69
(g90
g71
NtRp3026
(dp3027
g74
(dp3028
g94
g95
ssg83
g3022
sg76
(lp3029
S'REMOTE_PORT'
p3030
asbag69
(g90
g71
NtRp3031
(dp3032
g74
(dp3033
g101
g102
ssg83
g3022
sg76
(lp3034
S':'
asbag69
(g90
g71
NtRp3035
(dp3036
g74
(dp3037
sg83
g3022
sg76
(lp3038
g69
(g70
g71
NtRp3039
(dp3040
g74
(dp3041
g82
I3
ssg83
g3035
sg76
(lp3042
g1667
asbasbasbag69
(g85
g71
NtRp3043
(dp3044
g74
(dp3045
sg83
g2787
sg76
(lp3046
g69
(g90
g71
NtRp3047
(dp3048
g74
(dp3049
g94
g95
ssg83
g3043
sg76
(lp3050
S'REQUEST_METHOD'
p3051
asbag69
(g90
g71
NtRp3052
(dp3053
g74
(dp3054
g101
g102
ssg83
g3043
sg76
(lp3055
S':'
asbag69
(g90
g71
NtRp3056
(dp3057
g74
(dp3058
sg83
g3043
sg76
(lp3059
g69
(g70
g71
NtRp3060
(dp3061
g74
(dp3062
g82
I3
ssg83
g3056
sg76
(lp3063
g1689
asbasbasbag69
(g85
g71
NtRp3064
(dp3065
g74
(dp3066
sg83
g2787
sg76
(lp3067
g69
(g90
g71
NtRp3068
(dp3069
g74
(dp3070
g94
g95
ssg83
g3064
sg76
(lp3071
S'SCRIPT_NAME'
p3072
asbag69
(g90
g71
NtRp3073
(dp3074
g74
(dp3075
g101
g102
ssg83
g3064
sg76
(lp3076
S':'
asbag69
(g90
g71
NtRp3077
(dp3078
g74
(dp3079
sg83
g3064
sg76
(lp3080
g69
(g70
g71
NtRp3081
(dp3082
g74
(dp3083
g82
I3
ssg83
g3077
sg76
(lp3084
S''
asbasbasbag69
(g85
g71
NtRp3085
(dp3086
g74
(dp3087
sg83
g2787
sg76
(lp3088
g69
(g90
g71
NtRp3089
(dp3090
g74
(dp3091
g94
g95
ssg83
g3085
sg76
(lp3092
S'SERVER_NAME'
p3093
asbag69
(g90
g71
NtRp3094
(dp3095
g74
(dp3096
g101
g102
ssg83
g3085
sg76
(lp3097
S':'
asbag69
(g90
g71
NtRp3098
(dp3099
g74
(dp3100
sg83
g3085
sg76
(lp3101
g69
(g70
g71
NtRp3102
(dp3103
g74
(dp3104
g82
I3
ssg83
g3098
sg76
(lp3105
g1732
asbasbasbag69
(g85
g71
NtRp3106
(dp3107
g74
(dp3108
sg83
g2787
sg76
(lp3109
g69
(g90
g71
NtRp3110
(dp3111
g74
(dp3112
g94
g95
ssg83
g3106
sg76
(lp3113
S'SERVER_PORT'
p3114
asbag69
(g90
g71
NtRp3115
(dp3116
g74
(dp3117
g101
g102
ssg83
g3106
sg76
(lp3118
S':'
asbag69
(g90
g71
NtRp3119
(dp3120
g74
(dp3121
sg83
g3106
sg76
(lp3122
g69
(g70
g71
NtRp3123
(dp3124
g74
(dp3125
g82
I3
ssg83
g3119
sg76
(lp3126
g1754
asbasbasbag69
(g85
g71
NtRp3127
(dp3128
g74
(dp3129
sg83
g2787
sg76
(lp3130
g69
(g90
g71
NtRp3131
(dp3132
g74
(dp3133
g94
g95
ssg83
g3127
sg76
(lp3134
S'SERVER_PROTOCOL'
p3135
asbag69
(g90
g71
NtRp3136
(dp3137
g74
(dp3138
g101
g102
ssg83
g3127
sg76
(lp3139
S':'
asbag69
(g90
g71
NtRp3140
(dp3141
g74
(dp3142
sg83
g3127
sg76
(lp3143
g69
(g70
g71
NtRp3144
(dp3145
g74
(dp3146
g82
I3
ssg83
g3140
sg76
(lp3147
g1776
asbasbasbag69
(g85
g71
NtRp3148
(dp3149
g74
(dp3150
sg83
g2787
sg76
(lp3151
g69
(g90
g71
NtRp3152
(dp3153
g74
(dp3154
g94
g95
ssg83
g3148
sg76
(lp3155
S'SERVER_SOFTWARE'
p3156
asbag69
(g90
g71
NtRp3157
(dp3158
g74
(dp3159
g101
g102
ssg83
g3148
sg76
(lp3160
S':'
asbag69
(g90
g71
NtRp3161
(dp3162
g74
(dp3163
sg83
g3148
sg76
(lp3164
g69
(g70
g71
NtRp3165
(dp3166
g74
(dp3167
g82
I3
ssg83
g3161
sg76
(lp3168
g1798
asbasbasbag69
(g85
g71
NtRp3169
(dp3170
g74
(dp3171
sg83
g2787
sg76
(lp3172
g69
(g90
g71
NtRp3173
(dp3174
g74
(dp3175
g94
g95
ssg83
g3169
sg76
(lp3176
S'wsgi.errors'
p3177
asbag69
(g90
g71
NtRp3178
(dp3179
g74
(dp3180
g101
g102
ssg83
g3169
sg76
(lp3181
S':'
asbag69
(g90
g71
NtRp3182
(dp3183
g74
(dp3184
sg83
g3169
sg76
(lp3185
g69
(g70
g71
NtRp3186
(dp3187
g74
(dp3188
g82
I3
ssg83
g3182
sg76
(lp3189
S"<open file '<stderr>', mode 'w' at 0x7f92edceb270>"
p3190
asbasbasbag69
(g85
g71
NtRp3191
(dp3192
g74
(dp3193
sg83
g2787
sg76
(lp3194
g69
(g90
g71
NtRp3195
(dp3196
g74
(dp3197
g94
g95
ssg83
g3191
sg76
(lp3198
S'wsgi.file_wrapper'
p3199
asbag69
(g90
g71
NtRp3200
(dp3201
g74
(dp3202
g101
g102
ssg83
g3191
sg76
(lp3203
S':'
asbag69
(g90
g71
NtRp3204
(dp3205
g74
(dp3206
sg83
g3191
sg76
(lp3207
g69
(g70
g71
NtRp3208
(dp3209
g74
(dp3210
g82
I3
ssg83
g3204
sg76
(lp3211
S'<class wsgiref.util.FileWrapper at 0x1bdeef0>'
p3212
asbasbasbag69
(g85
g71
NtRp3213
(dp3214
g74
(dp3215
sg83
g2787
sg76
(lp3216
g69
(g90
g71
NtRp3217
(dp3218
g74
(dp3219
g94
g95
ssg83
g3213
sg76
(lp3220
S'wsgi.input'
p3221
asbag69
(g90
g71
NtRp3222
(dp3223
g74
(dp3224
g101
g102
ssg83
g3213
sg76
(lp3225
S':'
asbag69
(g90
g71
NtRp3226
(dp3227
g74
(dp3228
sg83
g3213
sg76
(lp3229
g69
(g70
g71
NtRp3230
(dp3231
g74
(dp3232
g82
I3
ssg83
g3226
sg76
(lp3233
S'<cStringIO.StringO object at 0x7f92ac089298>'
p3234
asbasbasbag69
(g85
g71
NtRp3235
(dp3236
g74
(dp3237
sg83
g2787
sg76
(lp3238
g69
(g90
g71
NtRp3239
(dp3240
g74
(dp3241
g94
g95
ssg83
g3235
sg76
(lp3242
S'wsgi.multiprocess'
p3243
asbag69
(g90
g71
NtRp3244
(dp3245
g74
(dp3246
g101
g102
ssg83
g3235
sg76
(lp3247
S':'
asbag69
(g90
g71
NtRp3248
(dp3249
g74
(dp3250
sg83
g3235
sg76
(lp3251
g69
(g70
g71
NtRp3252
(dp3253
g74
(dp3254
g82
I3
ssg83
g3248
sg76
(lp3255
g112
asbasbasbag69
(g85
g71
NtRp3256
(dp3257
g74
(dp3258
sg83
g2787
sg76
(lp3259
g69
(g90
g71
NtRp3260
(dp3261
g74
(dp3262
g94
g95
ssg83
g3256
sg76
(lp3263
S'wsgi.multithread'
p3264
asbag69
(g90
g71
NtRp3265
(dp3266
g74
(dp3267
g101
g102
ssg83
g3256
sg76
(lp3268
S':'
asbag69
(g90
g71
NtRp3269
(dp3270
g74
(dp3271
sg83
g3256
sg76
(lp3272
g69
(g70
g71
NtRp3273
(dp3274
g74
(dp3275
g82
I3
ssg83
g3269
sg76
(lp3276
g2038
asbasbasbag69
(g85
g71
NtRp3277
(dp3278
g74
(dp3279
sg83
g2787
sg76
(lp3280
g69
(g90
g71
NtRp3281
(dp3282
g74
(dp3283
g94
g95
ssg83
g3277
sg76
(lp3284
S'wsgi.run_once'
p3285
asbag69
(g90
g71
NtRp3286
(dp3287
g74
(dp3288
g101
g102
ssg83
g3277
sg76
(lp3289
S':'
asbag69
(g90
g71
NtRp3290
(dp3291
g74
(dp3292
sg83
g3277
sg76
(lp3293
g69
(g70
g71
NtRp3294
(dp3295
g74
(dp3296
g82
I3
ssg83
g3290
sg76
(lp3297
g112
asbasbasbag69
(g85
g71
NtRp3298
(dp3299
g74
(dp3300
sg83
g2787
sg76
(lp3301
g69
(g90
g71
NtRp3302
(dp3303
g74
(dp3304
g94
g95
ssg83
g3298
sg76
(lp3305
S'wsgi.url_scheme'
p3306
asbag69
(g90
g71
NtRp3307
(dp3308
g74
(dp3309
g101
g102
ssg83
g3298
sg76
(lp3310
S':'
asbag69
(g90
g71
NtRp3311
(dp3312
g74
(dp3313
sg83
g3298
sg76
(lp3314
g69
(g70
g71
NtRp3315
(dp3316
g74
(dp3317
g82
I3
ssg83
g3311
sg76
(lp3318
g2081
asbasbasbag69
(g85
g71
NtRp3319
(dp3320
g74
(dp3321
sg83
g2787
sg76
(lp3322
g69
(g90
g71
NtRp3323
(dp3324
g74
(dp3325
g94
g95
ssg83
g3319
sg76
(lp3326
S'wsgi.version'
p3327
asbag69
(g90
g71
NtRp3328
(dp3329
g74
(dp3330
g101
g102
ssg83
g3319
sg76
(lp3331
S':'
asbag69
(g90
g71
NtRp3332
(dp3333
g74
(dp3334
sg83
g3319
sg76
(lp3335
g69
(g70
g71
NtRp3336
(dp3337
g74
(dp3338
g82
I3
ssg83
g3332
sg76
(lp3339
S'1'
asbasbasbasbasbasbasbasbasbasbasbasbasbsS'frames'
p3340
(lp3341
(dp3342
S'file'
p3343
S'/home/maneesha/Downloads/web2py/gluon/restricted.py'
p3344
sS'dump'
p3345
(dp3346
S'environment'
p3347
S"{'A': <class 'gluon.html.A'>, 'Auth': <class 'gluon.tools.Auth'>, 'B': <class 'gluon.html.B'>, 'BEAUTIFY': <class 'gluon.html.BEAUTIFY'>, 'BODY': <class 'gluon.html.BODY'>, 'BR': <class 'gluon.html.BR'>, 'BUTTON': <class 'gluon.html.BUTTON'>, 'CAT': <class 'gluon.html.CAT'>, 'CENTER': <class 'gluon.html.CENTER'>, 'CLEANUP': <class 'gluon.validators.CLEANUP'>, ...}"
p3348
sS'ccode'
p3349
S'<code object <module> at 0x7f92ac0aac30, file "/...ications/cite_m3/controllers/default.py", line 3>'
p3350
ssS'lnum'
p3351
I205
sS'lines'
p3352
(dp3353
I200
S'    try:'
p3354
sI201
S'        if type(code) == types.CodeType:'
p3355
sI202
S'            ccode = code'
p3356
sI203
S'        else:'
p3357
sI204
S'            ccode = compile2(code,layer)'
p3358
sI205
S'        exec ccode in environment'
p3359
sI206
S'    except HTTP:'
p3360
sI207
S'        raise'
p3361
sI208
S'    except RestrictedError:'
p3362
sI209
S'        # do not encapsulate (obfuscate) the original RestrictedError'
p3363
ssS'call'
p3364
S"(code='# -*- coding: utf-8 -*-\\n### required - do no del...=h1)\\n\\nresponse._vars=response._caller(final_ans)\\n', environment={'A': <class 'gluon.html.A'>, 'Auth': <class 'gluon.tools.Auth'>, 'B': <class 'gluon.html.B'>, 'BEAUTIFY': <class 'gluon.html.BEAUTIFY'>, 'BODY': <class 'gluon.html.BODY'>, 'BR': <class 'gluon.html.BR'>, 'BUTTON': <class 'gluon.html.BUTTON'>, 'CAT': <class 'gluon.html.CAT'>, 'CENTER': <class 'gluon.html.CENTER'>, 'CLEANUP': <class 'gluon.validators.CLEANUP'>, ...}, layer='/home/maneesha/Downloads/web2py/applications/cite_m3/controllers/default.py')"
p3365
sS'func'
p3366
S'restricted'
p3367
sa(dp3368
g3343
S'/home/maneesha/Downloads/web2py/applications/cite_m3/controllers/default.py'
p3369
sg3345
(dp3370
sg3351
I211
sg3352
(dp3371
I200
S'    h=re.search(\'<A NAME="abstract" class="small-text">ABSTRACT[\\w\\W]*?</div>\',html)'
p3372
sI201
S'    if h!=None:'
p3373
sI202
S'        h=h.group()'
p3374
sI203
S'        h=bold(h)'
p3375
sI204
S'        h.replace("<par>","")'
p3376
sI205
S'        h.replace("</par>","")'
p3377
sI206
S'        h1=h.split("</div>")[0]'
p3378
sI207
S'        h1=h1.split("<div style=\\"display:inline\\">")[1]'
p3379
sI208
S'        h1=remove(h1)'
p3380
sI209
S'    return dict(abst=h1)'
p3381
ssg3364
S'()'
p3382
sg3366
S'<module>'
p3383
sa(dp3384
g3343
S'/home/maneesha/Downloads/web2py/gluon/globals.py'
p3385
sg3345
(dp3386
S'self'
p3387
S'undefined'
p3388
sS'f'
S'<function final_ans>'
p3389
ssg3351
I173
sg3352
(dp3390
I168
S'        self.menu = []             # used by the default view layout'
p3391
sI169
S'        self.files = []            # used by web2py_ajax.html'
p3392
sI170
S'        self.generic_patterns = [] # patterns to allow generic views'
p3393
sI171
S"        self.delimiters = ('{{','}}')"
p3394
sI172
S'        self._vars = None'
p3395
sI173
S'        self._caller = lambda f: f()'
p3396
sI174
S'        self._view_environment = None'
p3397
sI175
S'        self._custom_commit = None'
p3398
sI176
S'        self._custom_rollback = None'
p3399
sI177
S''
ssg3364
S'(f=<function final_ans>)'
p3400
sg3366
S'<lambda>'
p3401
sa(dp3402
g3343
S'/home/maneesha/Downloads/web2py/applications/cite_m3/controllers/default.py'
p3403
sg3345
(dp3404
S'global extract1'
p3405
S'<function extract1>'
p3406
sS'url'
p3407
S"'http://dl.acm.org/results.cfm?h=1&query=database+design'"
p3408
sS'ret1'
p3409
S'[]'
p3410
sS'l1'
p3411
S"['database design', 2, 3, True, True, True]"
p3412
sS'fst_l'
p3413
S'[]'
p3414
ssg3351
I77
sg3352
(dp3415
I72
S'    bigans=[]'
p3416
sI73
S'    l1=u_filter()'
p3417
sI74
S'    url="http://dl.acm.org/results.cfm?h=1&query="+\'+\'.join(l1[0].split())'
p3418
sI75
S'    fst_l=[]'
p3419
sI76
S'    ret1=[]'
p3420
sI77
S'    fst_l,ret1=extract1(url,l1)'
p3421
sI78
S'    rec(fst_l,l1,bigans)'
p3422
sI79
S'    return dict(bigans=bigans,level=l1[1],top=l1[2],ret1=ret1)'
p3423
sI80
S'def rec(list1,l1,bigans):'
p3424
sI81
S'    global count'
p3425
ssg3364
S'()'
p3426
sg3366
S'final_ans'
p3427
sa(dp3428
g3343
S'/home/maneesha/Downloads/web2py/applications/cite_m3/controllers/default.py'
p3429
sg3345
(dp3430
S'url'
p3431
S"'http://dl.acm.org/results.cfm?h=1&query=database+design'"
p3432
sS'html'
p3433
g3388
sS'global fetch'
p3434
S'<function fetch>'
p3435
ssg3351
I33
sg3352
(dp3436
I32
S'    ret1=[]'
p3437
sI33
S'    html=fetch(url)'
p3438
sI34
S'    html_splitted=html.split("<A HREF=\\"citation.cfm")'
p3439
sI35
S'    ht=html_splitted[0]'
p3440
sI36
S'    del html_splitted[0]'
p3441
sI37
S"    k=html_splitted[0].split('>')"
p3442
sI28
S'    flag=0'
p3443
sI29
S'    #return dict(ans=ll1[0],l_yr=ll1[1])'
p3444
sI30
S'def extract1(url,l1):'
p3445
sI31
S'    ret=[]'
p3446
ssg3364
S"(url='http://dl.acm.org/results.cfm?h=1&query=database+design', l1=['database design', 2, 3, True, True, True])"
p3447
sg3366
S'extract1'
p3448
sa(dp3449
g3343
S'/home/maneesha/Downloads/web2py/gluon/tools.py'
p3450
sg3345
(dp3451
S'urllib2.urlopen'
p3452
S'<function urlopen>'
p3453
sS'global urllib2'
p3454
S"<module 'urllib2' from '/usr/lib/python2.7/urllib2.pyc'>"
p3455
sS'html'
p3456
g3388
sS'req'
p3457
S'<urllib2.Request instance>'
p3458
sS').read'
p3459
g3388
ssg3351
I3424
sg3352
(dp3460
I3424
S'        html = urllib2.urlopen(req).read()'
p3461
sI3425
S'    else:'
p3462
sI3426
S'        method = ((data is None) and urlfetch.GET) or urlfetch.POST'
p3463
sI3427
S'        while url is not None:'
p3464
sI3428
S'            response = urlfetch.fetch(url=url, payload=data,'
p3465
sI3419
S"    headers['Cookie'] = ' '.join(['%s=%s;'%(c.key,c.value) for c in cookie.values()])"
p3466
sI3420
S'    try:'
p3467
sI3421
S'        from google.appengine.api import urlfetch'
p3468
sI3422
S'    except ImportError:'
p3469
sI3423
S'        req = urllib2.Request(url, data, headers)'
p3470
ssg3364
S"(url='http://dl.acm.org/results.cfm?h=1&query=database+design', data=None, headers={'Cookie': '', 'User-agent': 'Mozilla/5.0'}, cookie=<SimpleCookie: >, user_agent='Mozilla/5.0')"
p3471
sg3366
S'fetch'
p3472
sa(dp3473
g3343
S'/usr/lib/python2.7/urllib2.py'
p3474
sg3345
(dp3475
S'_opener.open'
p3476
S'<bound method OpenerDirector.open of <urllib2.OpenerDirector instance>>'
p3477
sS'url'
p3478
S'<urllib2.Request instance>'
p3479
sS'data'
p3480
S'None'
p3481
sS'global _opener'
p3482
S'<urllib2.OpenerDirector instance>'
p3483
sS'timeout'
p3484
S'<object object>'
p3485
ssg3351
I126
sg3352
(dp3486
I128
S'def install_opener(opener):'
p3487
sI129
S'    global _opener'
p3488
sI130
S'    _opener = opener'
p3489
sI121
S'_opener = None'
p3490
sI122
S'def urlopen(url, data=None, timeout=socket._GLOBAL_DEFAULT_TIMEOUT):'
p3491
sI123
S'    global _opener'
p3492
sI124
S'    if _opener is None:'
p3493
sI125
S'        _opener = build_opener()'
p3494
sI126
S'    return _opener.open(url, data, timeout)'
p3495
sI127
S''
ssg3364
S'(url=<urllib2.Request instance>, data=None, timeout=<object object>)'
p3496
sg3366
S'urlopen'
p3497
sa(dp3498
g3343
S'/usr/lib/python2.7/urllib2.py'
p3499
sg3345
(dp3500
S'self'
p3501
S'<urllib2.OpenerDirector instance>'
p3502
sS'req'
p3503
S'<urllib2.Request instance>'
p3504
sS'data'
p3505
S'None'
p3506
sS'response'
p3507
g3388
sS'self._open'
p3508
S'<bound method OpenerDirector._open of <urllib2.OpenerDirector instance>>'
p3509
ssg3351
I400
sg3352
(dp3510
I395
S'        meth_name = protocol+"_request"'
p3511
sI396
S'        for processor in self.process_request.get(protocol, []):'
p3512
sI397
S'            meth = getattr(processor, meth_name)'
p3513
sI398
S'            req = meth(req)'
p3514
sI399
S''
sI400
S'        response = self._open(req, data)'
p3515
sI401
S''
sI402
S'        # post-process response'
p3516
sI403
S'        meth_name = protocol+"_response"'
p3517
sI404
S'        for processor in self.process_response.get(protocol, []):'
p3518
ssg3364
S'(self=<urllib2.OpenerDirector instance>, fullurl=<urllib2.Request instance>, data=None, timeout=<object object>)'
p3519
sg3366
S'open'
p3520
sa(dp3521
g3343
S'/usr/lib/python2.7/urllib2.py'
p3522
sg3345
(dp3523
S'req'
p3524
S'<urllib2.Request instance>'
p3525
ssg3351
I418
sg3352
(dp3526
I416
S'        protocol = req.get_type()'
p3527
sI417
S'        result = self._call_chain(self.handle_open, protocol, protocol +'
p3528
sI418
S"                                  '_open', req)"
p3529
sI419
S'        if result:'
p3530
sI420
S'            return result'
p3531
sI421
S''
sI422
S"        return self._call_chain(self.handle_open, 'unknown',"
p3532
sI413
S'        if result:'
p3533
sI414
S'            return result'
p3534
sI415
S''
ssg3364
S'(self=<urllib2.OpenerDirector instance>, req=<urllib2.Request instance>, data=None)'
p3535
sg3366
S'_open'
p3536
sa(dp3537
g3343
S'/usr/lib/python2.7/urllib2.py'
p3538
sg3345
(dp3539
S'args'
p3540
S'(<urllib2.Request instance>,)'
p3541
sS'result'
p3542
g3388
sS'func'
p3543
S'<bound method HTTPHandler.http_open of <urllib2.HTTPHandler instance>>'
p3544
ssg3351
I378
sg3352
(dp3545
I373
S'        # could.  Otherwise, they return the response.'
p3546
sI374
S'        handlers = chain.get(kind, ())'
p3547
sI375
S'        for handler in handlers:'
p3548
sI376
S'            func = getattr(handler, meth_name)'
p3549
sI377
S''
sI378
S'            result = func(*args)'
p3550
sI379
S'            if result is not None:'
p3551
sI380
S'                return result'
p3552
sI381
S''
sI382
S'    def open(self, fullurl, data=None, timeout=socket._GLOBAL_DEFAULT_TIMEOUT):'
p3553
ssg3364
S"(self=<urllib2.OpenerDirector instance>, chain={'file': [<urllib2.FileHandler instance>], 'ftp': [<urllib2.FTPHandler instance>], 'http': [<urllib2.HTTPHandler instance>], 'https': [<urllib2.HTTPSHandler instance>], 'unknown': [<urllib2.UnknownHandler instance>]}, kind='http', meth_name='http_open', *args=(<urllib2.Request instance>,))"
p3554
sg3366
S'_call_chain'
p3555
sa(dp3556
g3343
S'/usr/lib/python2.7/urllib2.py'
p3557
sg3345
(dp3558
S'self'
p3559
S'<urllib2.HTTPHandler instance>'
p3560
sS'req'
p3561
S'<urllib2.Request instance>'
p3562
sS'global httplib'
p3563
S"<module 'httplib' from '/usr/lib/python2.7/httplib.pyc'>"
p3564
sS'self.do_open'
p3565
S'<bound method HTTPHandler.do_open of <urllib2.HTTPHandler instance>>'
p3566
sS'httplib.HTTPConnection'
p3567
S'<class httplib.HTTPConnection>'
p3568
ssg3351
I1207
sg3352
(dp3569
I1202
S''
sI1203
S''
sI1204
S'class HTTPHandler(AbstractHTTPHandler):'
p3570
sI1205
S''
sI1206
S'    def http_open(self, req):'
p3571
sI1207
S'        return self.do_open(httplib.HTTPConnection, req)'
p3572
sI1208
S''
sI1209
S'    http_request = AbstractHTTPHandler.do_request_'
p3573
sI1210
S''
sI1211
S"if hasattr(httplib, 'HTTPS'):"
p3574
ssg3364
S'(self=<urllib2.HTTPHandler instance>, req=<urllib2.Request instance>)'
p3575
sg3366
S'http_open'
p3576
sa(dp3577
g3343
S'/usr/lib/python2.7/urllib2.py'
p3578
sg3345
(dp3579
S'err'
p3580
S"gaierror(-2, 'Name or service not known')"
p3581
sS'global URLError'
p3582
S"<class 'urllib2.URLError'>"
p3583
ssg3351
I1177
sg3352
(dp3584
I1172
S''
sI1173
S'        try:'
p3585
sI1174
S'            h.request(req.get_method(), req.get_selector(), req.data, headers)'
p3586
sI1175
S'        except socket.error, err: # XXX what error?'
p3587
sI1176
S'            h.close()'
p3588
sI1177
S'            raise URLError(err)'
p3589
sI1178
S'        else:'
p3590
sI1179
S'            try:'
p3591
sI1180
S'                r = h.getresponse(buffering=True)'
p3592
sI1181
S'            except TypeError: # buffering kw not supported'
p3593
ssg3364
S'(self=<urllib2.HTTPHandler instance>, http_class=<class httplib.HTTPConnection>, req=<urllib2.Request instance>)'
p3594
sg3366
S'do_open'
p3595
sasS'pyver'
p3596
S'Python 2.7.3: /usr/bin/python'
p3597
sS'session'
p3598
g69
(g70
g71
NtRp3599
(dp3600
g74
(dp3601
sg76
(lp3602
g69
(g78
g71
NtRp3603
(dp3604
g74
(dp3605
g82
I5
ssg83
Nsg76
(lp3606
g69
(g85
g71
NtRp3607
(dp3608
g74
(dp3609
sg83
g3603
sg76
(lp3610
g69
(g90
g71
NtRp3611
(dp3612
g74
(dp3613
g94
g95
ssg83
g3607
sg76
(lp3614
S'auth'
p3615
asbag69
(g90
g71
NtRp3616
(dp3617
g74
(dp3618
g101
g102
ssg83
g3607
sg76
(lp3619
S':'
asbag69
(g90
g71
NtRp3620
(dp3621
g74
(dp3622
sg83
g3607
sg76
(lp3623
g69
(g70
g71
NtRp3624
(dp3625
g74
(dp3626
g82
I5
ssg83
g3620
sg76
(lp3627
g69
(g78
g71
NtRp3628
(dp3629
g74
(dp3630
g82
I4
ssg83
Nsg76
(lp3631
g69
(g85
g71
NtRp3632
(dp3633
g74
(dp3634
sg83
g3628
sg76
(lp3635
g69
(g90
g71
NtRp3636
(dp3637
g74
(dp3638
g94
g95
ssg83
g3632
sg76
(lp3639
S'expiration'
p3640
asbag69
(g90
g71
NtRp3641
(dp3642
g74
(dp3643
g101
g102
ssg83
g3632
sg76
(lp3644
S':'
asbag69
(g90
g71
NtRp3645
(dp3646
g74
(dp3647
sg83
g3632
sg76
(lp3648
g69
(g70
g71
NtRp3649
(dp3650
g74
(dp3651
g82
I4
ssg83
g3645
sg76
(lp3652
S'3600'
p3653
asbasbasbag69
(g85
g71
NtRp3654
(dp3655
g74
(dp3656
sg83
g3628
sg76
(lp3657
g69
(g90
g71
NtRp3658
(dp3659
g74
(dp3660
g94
g95
ssg83
g3654
sg76
(lp3661
S'hmac_key'
p3662
asbag69
(g90
g71
NtRp3663
(dp3664
g74
(dp3665
g101
g102
ssg83
g3654
sg76
(lp3666
S':'
asbag69
(g90
g71
NtRp3667
(dp3668
g74
(dp3669
sg83
g3654
sg76
(lp3670
g69
(g70
g71
NtRp3671
(dp3672
g74
(dp3673
g82
I4
ssg83
g3667
sg76
(lp3674
S'93d3dcb6-21be-4d36-98aa-c5acb40b10a4'
p3675
asbasbasbag69
(g85
g71
NtRp3676
(dp3677
g74
(dp3678
sg83
g3628
sg76
(lp3679
g69
(g90
g71
NtRp3680
(dp3681
g74
(dp3682
g94
g95
ssg83
g3676
sg76
(lp3683
S'last_visit'
p3684
asbag69
(g90
g71
NtRp3685
(dp3686
g74
(dp3687
g101
g102
ssg83
g3676
sg76
(lp3688
S':'
asbag69
(g90
g71
NtRp3689
(dp3690
g74
(dp3691
sg83
g3676
sg76
(lp3692
g69
(g70
g71
NtRp3693
(dp3694
g74
(dp3695
g82
I4
ssg83
g3689
sg76
(lp3696
S'datetime.datetime(2012, 11, 10, 21, 34, 40, 618369)'
p3697
asbasbasbag69
(g85
g71
NtRp3698
(dp3699
g74
(dp3700
sg83
g3628
sg76
(lp3701
g69
(g90
g71
NtRp3702
(dp3703
g74
(dp3704
g94
g95
ssg83
g3698
sg76
(lp3705
S'remember'
p3706
asbag69
(g90
g71
NtRp3707
(dp3708
g74
(dp3709
g101
g102
ssg83
g3698
sg76
(lp3710
S':'
asbag69
(g90
g71
NtRp3711
(dp3712
g74
(dp3713
sg83
g3698
sg76
(lp3714
g69
(g70
g71
NtRp3715
(dp3716
g74
(dp3717
g82
I4
ssg83
g3711
sg76
(lp3718
g112
asbasbasbag69
(g85
g71
NtRp3719
(dp3720
g74
(dp3721
sg83
g3628
sg76
(lp3722
g69
(g90
g71
NtRp3723
(dp3724
g74
(dp3725
g94
g95
ssg83
g3719
sg76
(lp3726
S'user'
p3727
asbag69
(g90
g71
NtRp3728
(dp3729
g74
(dp3730
g101
g102
ssg83
g3719
sg76
(lp3731
S':'
asbag69
(g90
g71
NtRp3732
(dp3733
g74
(dp3734
sg83
g3719
sg76
(lp3735
g69
(g70
g71
NtRp3736
(dp3737
g74
(dp3738
g82
I4
ssg83
g3732
sg76
(lp3739
g69
(g78
g71
NtRp3740
(dp3741
g74
(dp3742
g82
I3
ssg83
Nsg76
(lp3743
g69
(g85
g71
NtRp3744
(dp3745
g74
(dp3746
sg83
g3740
sg76
(lp3747
g69
(g90
g71
NtRp3748
(dp3749
g74
(dp3750
g94
g95
ssg83
g3744
sg76
(lp3751
S'created_on'
p3752
asbag69
(g90
g71
NtRp3753
(dp3754
g74
(dp3755
g101
g102
ssg83
g3744
sg76
(lp3756
S':'
asbag69
(g90
g71
NtRp3757
(dp3758
g74
(dp3759
sg83
g3744
sg76
(lp3760
g69
(g70
g71
NtRp3761
(dp3762
g74
(dp3763
g82
I3
ssg83
g3757
sg76
(lp3764
S'datetime.datetime(2012, 10, 23, 2, 28, 41)'
p3765
asbasbasbag69
(g85
g71
NtRp3766
(dp3767
g74
(dp3768
sg83
g3740
sg76
(lp3769
g69
(g90
g71
NtRp3770
(dp3771
g74
(dp3772
g94
g95
ssg83
g3766
sg76
(lp3773
S'email'
p3774
asbag69
(g90
g71
NtRp3775
(dp3776
g74
(dp3777
g101
g102
ssg83
g3766
sg76
(lp3778
S':'
asbag69
(g90
g71
NtRp3779
(dp3780
g74
(dp3781
sg83
g3766
sg76
(lp3782
g69
(g70
g71
NtRp3783
(dp3784
g74
(dp3785
g82
I3
ssg83
g3779
sg76
(lp3786
S'manu@gmail.com'
p3787
asbasbasbag69
(g85
g71
NtRp3788
(dp3789
g74
(dp3790
sg83
g3740
sg76
(lp3791
g69
(g90
g71
NtRp3792
(dp3793
g74
(dp3794
g94
g95
ssg83
g3788
sg76
(lp3795
S'first_name'
p3796
asbag69
(g90
g71
NtRp3797
(dp3798
g74
(dp3799
g101
g102
ssg83
g3788
sg76
(lp3800
S':'
asbag69
(g90
g71
NtRp3801
(dp3802
g74
(dp3803
sg83
g3788
sg76
(lp3804
g69
(g70
g71
NtRp3805
(dp3806
g74
(dp3807
g82
I3
ssg83
g3801
sg76
(lp3808
S'manu'
p3809
asbasbasbag69
(g85
g71
NtRp3810
(dp3811
g74
(dp3812
sg83
g3740
sg76
(lp3813
g69
(g90
g71
NtRp3814
(dp3815
g74
(dp3816
g94
g95
ssg83
g3810
sg76
(lp3817
S'id'
p3818
asbag69
(g90
g71
NtRp3819
(dp3820
g74
(dp3821
g101
g102
ssg83
g3810
sg76
(lp3822
S':'
asbag69
(g90
g71
NtRp3823
(dp3824
g74
(dp3825
sg83
g3810
sg76
(lp3826
g69
(g70
g71
NtRp3827
(dp3828
g74
(dp3829
g82
I3
ssg83
g3823
sg76
(lp3830
S'11'
p3831
asbasbasbag69
(g85
g71
NtRp3832
(dp3833
g74
(dp3834
sg83
g3740
sg76
(lp3835
g69
(g90
g71
NtRp3836
(dp3837
g74
(dp3838
g94
g95
ssg83
g3832
sg76
(lp3839
S'last_name'
p3840
asbag69
(g90
g71
NtRp3841
(dp3842
g74
(dp3843
g101
g102
ssg83
g3832
sg76
(lp3844
S':'
asbag69
(g90
g71
NtRp3845
(dp3846
g74
(dp3847
sg83
g3832
sg76
(lp3848
g69
(g70
g71
NtRp3849
(dp3850
g74
(dp3851
g82
I3
ssg83
g3845
sg76
(lp3852
S'p'
asbasbasbag69
(g85
g71
NtRp3853
(dp3854
g74
(dp3855
sg83
g3740
sg76
(lp3856
g69
(g90
g71
NtRp3857
(dp3858
g74
(dp3859
g94
g95
ssg83
g3853
sg76
(lp3860
S'modified_on'
p3861
asbag69
(g90
g71
NtRp3862
(dp3863
g74
(dp3864
g101
g102
ssg83
g3853
sg76
(lp3865
S':'
asbag69
(g90
g71
NtRp3866
(dp3867
g74
(dp3868
sg83
g3853
sg76
(lp3869
g69
(g70
g71
NtRp3870
(dp3871
g74
(dp3872
g82
I3
ssg83
g3866
sg76
(lp3873
S'datetime.datetime(2012, 10, 23, 2, 28, 41)'
p3874
asbasbasbag69
(g85
g71
NtRp3875
(dp3876
g74
(dp3877
sg83
g3740
sg76
(lp3878
g69
(g90
g71
NtRp3879
(dp3880
g74
(dp3881
g94
g95
ssg83
g3875
sg76
(lp3882
S'password'
p3883
asbag69
(g90
g71
NtRp3884
(dp3885
g74
(dp3886
g101
g102
ssg83
g3875
sg76
(lp3887
S':'
asbag69
(g90
g71
NtRp3888
(dp3889
g74
(dp3890
sg83
g3875
sg76
(lp3891
g69
(g70
g71
NtRp3892
(dp3893
g74
(dp3894
g82
I3
ssg83
g3888
sg76
(lp3895
S'32371e3190f8e63e16755b2e6bf663a2'
p3896
asbasbasbag69
(g85
g71
NtRp3897
(dp3898
g74
(dp3899
sg83
g3740
sg76
(lp3900
g69
(g90
g71
NtRp3901
(dp3902
g74
(dp3903
g94
g95
ssg83
g3897
sg76
(lp3904
S'registration_id'
p3905
asbag69
(g90
g71
NtRp3906
(dp3907
g74
(dp3908
g101
g102
ssg83
g3897
sg76
(lp3909
S':'
asbag69
(g90
g71
NtRp3910
(dp3911
g74
(dp3912
sg83
g3897
sg76
(lp3913
g69
(g70
g71
NtRp3914
(dp3915
g74
(dp3916
g82
I3
ssg83
g3910
sg76
(lp3917
S''
asbasbasbag69
(g85
g71
NtRp3918
(dp3919
g74
(dp3920
sg83
g3740
sg76
(lp3921
g69
(g90
g71
NtRp3922
(dp3923
g74
(dp3924
g94
g95
ssg83
g3918
sg76
(lp3925
S'registration_key'
p3926
asbag69
(g90
g71
NtRp3927
(dp3928
g74
(dp3929
g101
g102
ssg83
g3918
sg76
(lp3930
S':'
asbag69
(g90
g71
NtRp3931
(dp3932
g74
(dp3933
sg83
g3918
sg76
(lp3934
g69
(g70
g71
NtRp3935
(dp3936
g74
(dp3937
g82
I3
ssg83
g3931
sg76
(lp3938
S''
asbasbasbag69
(g85
g71
NtRp3939
(dp3940
g74
(dp3941
sg83
g3740
sg76
(lp3942
g69
(g90
g71
NtRp3943
(dp3944
g74
(dp3945
g94
g95
ssg83
g3939
sg76
(lp3946
S'reset_password_key'
p3947
asbag69
(g90
g71
NtRp3948
(dp3949
g74
(dp3950
g101
g102
ssg83
g3939
sg76
(lp3951
S':'
asbag69
(g90
g71
NtRp3952
(dp3953
g74
(dp3954
sg83
g3939
sg76
(lp3955
g69
(g70
g71
NtRp3956
(dp3957
g74
(dp3958
g82
I3
ssg83
g3952
sg76
(lp3959
S''
asbasbasbag69
(g85
g71
NtRp3960
(dp3961
g74
(dp3962
sg83
g3740
sg76
(lp3963
g69
(g90
g71
NtRp3964
(dp3965
g74
(dp3966
g94
g95
ssg83
g3960
sg76
(lp3967
S'username'
p3968
asbag69
(g90
g71
NtRp3969
(dp3970
g74
(dp3971
g101
g102
ssg83
g3960
sg76
(lp3972
S':'
asbag69
(g90
g71
NtRp3973
(dp3974
g74
(dp3975
sg83
g3960
sg76
(lp3976
g69
(g70
g71
NtRp3977
(dp3978
g74
(dp3979
g82
I3
ssg83
g3973
sg76
(lp3980
S'manu1'
p3981
asbasbasbasbasbasbasbag69
(g85
g71
NtRp3982
(dp3983
g74
(dp3984
sg83
g3628
sg76
(lp3985
g69
(g90
g71
NtRp3986
(dp3987
g74
(dp3988
g94
g95
ssg83
g3982
sg76
(lp3989
S'user_groups'
p3990
asbag69
(g90
g71
NtRp3991
(dp3992
g74
(dp3993
g101
g102
ssg83
g3982
sg76
(lp3994
S':'
asbag69
(g90
g71
NtRp3995
(dp3996
g74
(dp3997
sg83
g3982
sg76
(lp3998
g69
(g70
g71
NtRp3999
(dp4000
g74
(dp4001
g82
I4
ssg83
g3995
sg76
(lp4002
g69
(g78
g71
NtRp4003
(dp4004
g74
(dp4005
g82
I3
ssg83
Nsg76
(lp4006
g69
(g85
g71
NtRp4007
(dp4008
g74
(dp4009
sg83
g4003
sg76
(lp4010
g69
(g90
g71
NtRp4011
(dp4012
g74
(dp4013
g94
g95
ssg83
g4007
sg76
(lp4014
S'1'
asbag69
(g90
g71
NtRp4015
(dp4016
g74
(dp4017
g101
g102
ssg83
g4007
sg76
(lp4018
S':'
asbag69
(g90
g71
NtRp4019
(dp4020
g74
(dp4021
sg83
g4007
sg76
(lp4022
g69
(g70
g71
NtRp4023
(dp4024
g74
(dp4025
g82
I3
ssg83
g4019
sg76
(lp4026
S'user_11'
p4027
asbasbasbasbasbasbasbasbasbasbasbasbasbsS'etype'
p4028
S"<class 'urllib2.URLError'>"
p4029
sS'date'
p4030
S'Sat Nov 10 21:35:30 2012'
p4031
sS'response'
p4032
g69
(g70
g71
NtRp4033
(dp4034
g74
(dp4035
sg76
(lp4036
g69
(g78
g71
NtRp4037
(dp4038
g74
(dp4039
g82
I5
ssg83
Nsg76
(lp4040
g69
(g85
g71
NtRp4041
(dp4042
g74
(dp4043
sg83
g4037
sg76
(lp4044
g69
(g90
g71
NtRp4045
(dp4046
g74
(dp4047
g94
g95
ssg83
g4041
sg76
(lp4048
g167
asbag69
(g90
g71
NtRp4049
(dp4050
g74
(dp4051
g101
g102
ssg83
g4041
sg76
(lp4052
S':'
asbag69
(g90
g71
NtRp4053
(dp4054
g74
(dp4055
sg83
g4041
sg76
(lp4056
g69
(g70
g71
NtRp4057
(dp4058
g74
(dp4059
g82
I5
ssg83
g4053
sg76
(lp4060
S'<cStringIO.StringO object at 0x7f92ac0890d8>'
p4061
asbasbasbag69
(g85
g71
NtRp4062
(dp4063
g74
(dp4064
sg83
g4037
sg76
(lp4065
g69
(g90
g71
NtRp4066
(dp4067
g74
(dp4068
g94
g95
ssg83
g4062
sg76
(lp4069
g233
asbag69
(g90
g71
NtRp4070
(dp4071
g74
(dp4072
g101
g102
ssg83
g4062
sg76
(lp4073
S':'
asbag69
(g90
g71
NtRp4074
(dp4075
g74
(dp4076
sg83
g4062
sg76
(lp4077
g69
(g70
g71
NtRp4078
(dp4079
g74
(dp4080
g82
I5
ssg83
g4074
sg76
(lp4081
g69
(g78
g71
NtRp4082
(dp4083
g74
(dp4084
g82
I4
ssg83
Nsg76
(lp4085
g69
(g85
g71
NtRp4086
(dp4087
g74
(dp4088
sg83
g4082
sg76
(lp4089
g69
(g90
g71
NtRp4090
(dp4091
g74
(dp4092
g94
g95
ssg83
g4086
sg76
(lp4093
S'session_id_cite_m3'
p4094
asbag69
(g90
g71
NtRp4095
(dp4096
g74
(dp4097
g101
g102
ssg83
g4086
sg76
(lp4098
S':'
asbag69
(g90
g71
NtRp4099
(dp4100
g74
(dp4101
sg83
g4086
sg76
(lp4102
g69
(g70
g71
NtRp4103
(dp4104
g74
(dp4105
g82
I4
ssg83
g4099
sg76
(lp4106
g69
(g78
g71
NtRp4107
(dp4108
g74
(dp4109
g82
I3
ssg83
Nsg76
(lp4110
g69
(g85
g71
NtRp4111
(dp4112
g74
(dp4113
sg83
g4107
sg76
(lp4114
g69
(g90
g71
NtRp4115
(dp4116
g74
(dp4117
g94
g95
ssg83
g4111
sg76
(lp4118
g283
asbag69
(g90
g71
NtRp4119
(dp4120
g74
(dp4121
g101
g102
ssg83
g4111
sg76
(lp4122
S':'
asbag69
(g90
g71
NtRp4123
(dp4124
g74
(dp4125
sg83
g4111
sg76
(lp4126
g69
(g70
g71
NtRp4127
(dp4128
g74
(dp4129
g82
I3
ssg83
g4123
sg76
(lp4130
S''
asbasbasbag69
(g85
g71
NtRp4131
(dp4132
g74
(dp4133
sg83
g4107
sg76
(lp4134
g69
(g90
g71
NtRp4135
(dp4136
g74
(dp4137
g94
g95
ssg83
g4131
sg76
(lp4138
g304
asbag69
(g90
g71
NtRp4139
(dp4140
g74
(dp4141
g101
g102
ssg83
g4131
sg76
(lp4142
S':'
asbag69
(g90
g71
NtRp4143
(dp4144
g74
(dp4145
sg83
g4131
sg76
(lp4146
g69
(g70
g71
NtRp4147
(dp4148
g74
(dp4149
g82
I3
ssg83
g4143
sg76
(lp4150
S''
asbasbasbag69
(g85
g71
NtRp4151
(dp4152
g74
(dp4153
sg83
g4107
sg76
(lp4154
g69
(g90
g71
NtRp4155
(dp4156
g74
(dp4157
g94
g95
ssg83
g4151
sg76
(lp4158
g325
asbag69
(g90
g71
NtRp4159
(dp4160
g74
(dp4161
g101
g102
ssg83
g4151
sg76
(lp4162
S':'
asbag69
(g90
g71
NtRp4163
(dp4164
g74
(dp4165
sg83
g4151
sg76
(lp4166
g69
(g70
g71
NtRp4167
(dp4168
g74
(dp4169
g82
I3
ssg83
g4163
sg76
(lp4170
S''
asbasbasbag69
(g85
g71
NtRp4171
(dp4172
g74
(dp4173
sg83
g4107
sg76
(lp4174
g69
(g90
g71
NtRp4175
(dp4176
g74
(dp4177
g94
g95
ssg83
g4171
sg76
(lp4178
g346
asbag69
(g90
g71
NtRp4179
(dp4180
g74
(dp4181
g101
g102
ssg83
g4171
sg76
(lp4182
S':'
asbag69
(g90
g71
NtRp4183
(dp4184
g74
(dp4185
sg83
g4171
sg76
(lp4186
g69
(g70
g71
NtRp4187
(dp4188
g74
(dp4189
g82
I3
ssg83
g4183
sg76
(lp4190
S''
asbasbasbag69
(g85
g71
NtRp4191
(dp4192
g74
(dp4193
sg83
g4107
sg76
(lp4194
g69
(g90
g71
NtRp4195
(dp4196
g74
(dp4197
g94
g95
ssg83
g4191
sg76
(lp4198
g367
asbag69
(g90
g71
NtRp4199
(dp4200
g74
(dp4201
g101
g102
ssg83
g4191
sg76
(lp4202
S':'
asbag69
(g90
g71
NtRp4203
(dp4204
g74
(dp4205
sg83
g4191
sg76
(lp4206
g69
(g70
g71
NtRp4207
(dp4208
g74
(dp4209
g82
I3
ssg83
g4203
sg76
(lp4210
S''
asbasbasbag69
(g85
g71
NtRp4211
(dp4212
g74
(dp4213
sg83
g4107
sg76
(lp4214
g69
(g90
g71
NtRp4215
(dp4216
g74
(dp4217
g94
g95
ssg83
g4211
sg76
(lp4218
g388
asbag69
(g90
g71
NtRp4219
(dp4220
g74
(dp4221
g101
g102
ssg83
g4211
sg76
(lp4222
S':'
asbag69
(g90
g71
NtRp4223
(dp4224
g74
(dp4225
sg83
g4211
sg76
(lp4226
g69
(g70
g71
NtRp4227
(dp4228
g74
(dp4229
g82
I3
ssg83
g4223
sg76
(lp4230
S'/'
asbasbasbag69
(g85
g71
NtRp4231
(dp4232
g74
(dp4233
sg83
g4107
sg76
(lp4234
g69
(g90
g71
NtRp4235
(dp4236
g74
(dp4237
g94
g95
ssg83
g4231
sg76
(lp4238
g409
asbag69
(g90
g71
NtRp4239
(dp4240
g74
(dp4241
g101
g102
ssg83
g4231
sg76
(lp4242
S':'
asbag69
(g90
g71
NtRp4243
(dp4244
g74
(dp4245
sg83
g4231
sg76
(lp4246
g69
(g70
g71
NtRp4247
(dp4248
g74
(dp4249
g82
I3
ssg83
g4243
sg76
(lp4250
S''
asbasbasbag69
(g85
g71
NtRp4251
(dp4252
g74
(dp4253
sg83
g4107
sg76
(lp4254
g69
(g90
g71
NtRp4255
(dp4256
g74
(dp4257
g94
g95
ssg83
g4251
sg76
(lp4258
g430
asbag69
(g90
g71
NtRp4259
(dp4260
g74
(dp4261
g101
g102
ssg83
g4251
sg76
(lp4262
S':'
asbag69
(g90
g71
NtRp4263
(dp4264
g74
(dp4265
sg83
g4251
sg76
(lp4266
g69
(g70
g71
NtRp4267
(dp4268
g74
(dp4269
g82
I3
ssg83
g4263
sg76
(lp4270
S''
asbasbasbasbasbasbasbasbasbasbasbag69
(g85
g71
NtRp4271
(dp4272
g74
(dp4273
sg83
g4037
sg76
(lp4274
g69
(g90
g71
NtRp4275
(dp4276
g74
(dp4277
g94
g95
ssg83
g4271
sg76
(lp4278
S'delimiters'
p4279
asbag69
(g90
g71
NtRp4280
(dp4281
g74
(dp4282
g101
g102
ssg83
g4271
sg76
(lp4283
S':'
asbag69
(g90
g71
NtRp4284
(dp4285
g74
(dp4286
sg83
g4271
sg76
(lp4287
g69
(g70
g71
NtRp4288
(dp4289
g74
(dp4290
g82
I5
ssg83
g4284
sg76
(lp4291
g69
(g78
g71
NtRp4292
(dp4293
g74
(dp4294
g82
I4
ssg83
Nsg76
(lp4295
g69
(g85
g71
NtRp4296
(dp4297
g74
(dp4298
sg83
g4292
sg76
(lp4299
g69
(g90
g71
NtRp4300
(dp4301
g74
(dp4302
sg83
g4296
sg76
(lp4303
g69
(g70
g71
NtRp4304
(dp4305
g74
(dp4306
g82
I4
ssg83
g4300
sg76
(lp4307
S'{{'
p4308
asbasbasbag69
(g85
g71
NtRp4309
(dp4310
g74
(dp4311
sg83
g4292
sg76
(lp4312
g69
(g90
g71
NtRp4313
(dp4314
g74
(dp4315
sg83
g4309
sg76
(lp4316
g69
(g70
g71
NtRp4317
(dp4318
g74
(dp4319
g82
I4
ssg83
g4313
sg76
(lp4320
S'}}'
p4321
asbasbasbasbasbasbasbag69
(g85
g71
NtRp4322
(dp4323
g74
(dp4324
sg83
g4037
sg76
(lp4325
g69
(g90
g71
NtRp4326
(dp4327
g74
(dp4328
g94
g95
ssg83
g4322
sg76
(lp4329
S'files'
p4330
asbag69
(g90
g71
NtRp4331
(dp4332
g74
(dp4333
g101
g102
ssg83
g4322
sg76
(lp4334
S':'
asbag69
(g90
g71
NtRp4335
(dp4336
g74
(dp4337
sg83
g4322
sg76
(lp4338
g69
(g70
g71
NtRp4339
(dp4340
g74
(dp4341
g82
I5
ssg83
g4335
sg76
(lp4342
g69
(g78
g71
NtRp4343
(dp4344
g74
(dp4345
g82
I4
ssg83
Nsg76
(lp4346
sbasbasbasbag69
(g85
g71
NtRp4347
(dp4348
g74
(dp4349
sg83
g4037
sg76
(lp4350
g69
(g90
g71
NtRp4351
(dp4352
g74
(dp4353
g94
g95
ssg83
g4347
sg76
(lp4354
S'flash'
p4355
asbag69
(g90
g71
NtRp4356
(dp4357
g74
(dp4358
g101
g102
ssg83
g4347
sg76
(lp4359
S':'
asbag69
(g90
g71
NtRp4360
(dp4361
g74
(dp4362
sg83
g4347
sg76
(lp4363
g69
(g70
g71
NtRp4364
(dp4365
g74
(dp4366
g82
I5
ssg83
g4360
sg76
(lp4367
S''
asbasbasbag69
(g85
g71
NtRp4368
(dp4369
g74
(dp4370
sg83
g4037
sg76
(lp4371
g69
(g90
g71
NtRp4372
(dp4373
g74
(dp4374
g94
g95
ssg83
g4368
sg76
(lp4375
S'generic_patterns'
p4376
asbag69
(g90
g71
NtRp4377
(dp4378
g74
(dp4379
g101
g102
ssg83
g4368
sg76
(lp4380
S':'
asbag69
(g90
g71
NtRp4381
(dp4382
g74
(dp4383
sg83
g4368
sg76
(lp4384
g69
(g70
g71
NtRp4385
(dp4386
g74
(dp4387
g82
I5
ssg83
g4381
sg76
(lp4388
g69
(g78
g71
NtRp4389
(dp4390
g74
(dp4391
g82
I4
ssg83
Nsg76
(lp4392
g69
(g85
g71
NtRp4393
(dp4394
g74
(dp4395
sg83
g4389
sg76
(lp4396
g69
(g90
g71
NtRp4397
(dp4398
g74
(dp4399
sg83
g4393
sg76
(lp4400
g69
(g70
g71
NtRp4401
(dp4402
g74
(dp4403
g82
I4
ssg83
g4397
sg76
(lp4404
S'*'
asbasbasbasbasbasbasbag69
(g85
g71
NtRp4405
(dp4406
g74
(dp4407
sg83
g4037
sg76
(lp4408
g69
(g90
g71
NtRp4409
(dp4410
g74
(dp4411
g94
g95
ssg83
g4405
sg76
(lp4412
S'headers'
p4413
asbag69
(g90
g71
NtRp4414
(dp4415
g74
(dp4416
g101
g102
ssg83
g4405
sg76
(lp4417
S':'
asbag69
(g90
g71
NtRp4418
(dp4419
g74
(dp4420
sg83
g4405
sg76
(lp4421
g69
(g70
g71
NtRp4422
(dp4423
g74
(dp4424
g82
I5
ssg83
g4418
sg76
(lp4425
g69
(g78
g71
NtRp4426
(dp4427
g74
(dp4428
g82
I4
ssg83
Nsg76
(lp4429
g69
(g85
g71
NtRp4430
(dp4431
g74
(dp4432
sg83
g4426
sg76
(lp4433
g69
(g90
g71
NtRp4434
(dp4435
g74
(dp4436
g94
g95
ssg83
g4430
sg76
(lp4437
S'Cache-Control'
p4438
asbag69
(g90
g71
NtRp4439
(dp4440
g74
(dp4441
g101
g102
ssg83
g4430
sg76
(lp4442
S':'
asbag69
(g90
g71
NtRp4443
(dp4444
g74
(dp4445
sg83
g4430
sg76
(lp4446
g69
(g70
g71
NtRp4447
(dp4448
g74
(dp4449
g82
I4
ssg83
g4443
sg76
(lp4450
S'no-store, no-cache, must-revalidate, post-check=0, pre-check=0'
p4451
asbasbasbag69
(g85
g71
NtRp4452
(dp4453
g74
(dp4454
sg83
g4426
sg76
(lp4455
g69
(g90
g71
NtRp4456
(dp4457
g74
(dp4458
g94
g95
ssg83
g4452
sg76
(lp4459
S'Content-Type'
p4460
asbag69
(g90
g71
NtRp4461
(dp4462
g74
(dp4463
g101
g102
ssg83
g4452
sg76
(lp4464
S':'
asbag69
(g90
g71
NtRp4465
(dp4466
g74
(dp4467
sg83
g4452
sg76
(lp4468
g69
(g70
g71
NtRp4469
(dp4470
g74
(dp4471
g82
I4
ssg83
g4465
sg76
(lp4472
S'text/html; charset=utf-8'
p4473
asbasbasbag69
(g85
g71
NtRp4474
(dp4475
g74
(dp4476
sg83
g4426
sg76
(lp4477
g69
(g90
g71
NtRp4478
(dp4479
g74
(dp4480
g94
g95
ssg83
g4474
sg76
(lp4481
S'Expires'
p4482
asbag69
(g90
g71
NtRp4483
(dp4484
g74
(dp4485
g101
g102
ssg83
g4474
sg76
(lp4486
S':'
asbag69
(g90
g71
NtRp4487
(dp4488
g74
(dp4489
sg83
g4474
sg76
(lp4490
g69
(g70
g71
NtRp4491
(dp4492
g74
(dp4493
g82
I4
ssg83
g4487
sg76
(lp4494
S'Sat, 10 Nov 2012 16:04:50 GMT'
p4495
asbasbasbag69
(g85
g71
NtRp4496
(dp4497
g74
(dp4498
sg83
g4426
sg76
(lp4499
g69
(g90
g71
NtRp4500
(dp4501
g74
(dp4502
g94
g95
ssg83
g4496
sg76
(lp4503
S'Pragma'
p4504
asbag69
(g90
g71
NtRp4505
(dp4506
g74
(dp4507
g101
g102
ssg83
g4496
sg76
(lp4508
S':'
asbag69
(g90
g71
NtRp4509
(dp4510
g74
(dp4511
sg83
g4496
sg76
(lp4512
g69
(g70
g71
NtRp4513
(dp4514
g74
(dp4515
g82
I4
ssg83
g4509
sg76
(lp4516
S'no-cache'
p4517
asbasbasbag69
(g85
g71
NtRp4518
(dp4519
g74
(dp4520
sg83
g4426
sg76
(lp4521
g69
(g90
g71
NtRp4522
(dp4523
g74
(dp4524
g94
g95
ssg83
g4518
sg76
(lp4525
S'X-Powered-By'
p4526
asbag69
(g90
g71
NtRp4527
(dp4528
g74
(dp4529
g101
g102
ssg83
g4518
sg76
(lp4530
S':'
asbag69
(g90
g71
NtRp4531
(dp4532
g74
(dp4533
sg83
g4518
sg76
(lp4534
g69
(g70
g71
NtRp4535
(dp4536
g74
(dp4537
g82
I4
ssg83
g4531
sg76
(lp4538
S'web2py'
p4539
asbasbasbasbasbasbasbag69
(g85
g71
NtRp4540
(dp4541
g74
(dp4542
sg83
g4037
sg76
(lp4543
g69
(g90
g71
NtRp4544
(dp4545
g74
(dp4546
g94
g95
ssg83
g4540
sg76
(lp4547
S'menu'
p4548
asbag69
(g90
g71
NtRp4549
(dp4550
g74
(dp4551
g101
g102
ssg83
g4540
sg76
(lp4552
S':'
asbag69
(g90
g71
NtRp4553
(dp4554
g74
(dp4555
sg83
g4540
sg76
(lp4556
g69
(g70
g71
NtRp4557
(dp4558
g74
(dp4559
g82
I5
ssg83
g4553
sg76
(lp4560
g69
(g78
g71
NtRp4561
(dp4562
g74
(dp4563
g82
I4
ssg83
Nsg76
(lp4564
g69
(g85
g71
NtRp4565
(dp4566
g74
(dp4567
sg83
g4561
sg76
(lp4568
g69
(g90
g71
NtRp4569
(dp4570
g74
(dp4571
sg83
g4565
sg76
(lp4572
g69
(g70
g71
NtRp4573
(dp4574
g74
(dp4575
g82
I4
ssg83
g4569
sg76
(lp4576
g69
(g78
g71
NtRp4577
(dp4578
g74
(dp4579
g82
I3
ssg83
Nsg76
(lp4580
g69
(g85
g71
NtRp4581
(dp4582
g74
(dp4583
sg83
g4577
sg76
(lp4584
g69
(g90
g71
NtRp4585
(dp4586
g74
(dp4587
sg83
g4581
sg76
(lp4588
g69
(g70
g71
NtRp4589
(dp4590
g74
(dp4591
g82
I3
ssg83
g4585
sg76
(lp4592
cgluon.languages
lazyT_unpickle
p4593
(S't\x05\x00\x00\x00Index'
tRp4594
asbasbasbag69
(g85
g71
NtRp4595
(dp4596
g74
(dp4597
sg83
g4577
sg76
(lp4598
g69
(g90
g71
NtRp4599
(dp4600
g74
(dp4601
sg83
g4595
sg76
(lp4602
g69
(g70
g71
NtRp4603
(dp4604
g74
(dp4605
g82
I3
ssg83
g4599
sg76
(lp4606
g112
asbasbasbag69
(g85
g71
NtRp4607
(dp4608
g74
(dp4609
sg83
g4577
sg76
(lp4610
g69
(g90
g71
NtRp4611
(dp4612
g74
(dp4613
sg83
g4607
sg76
(lp4614
g69
(g70
g71
NtRp4615
(dp4616
g74
(dp4617
g82
I3
ssg83
g4611
sg76
(lp4618
S'/cite_m3/default/index'
p4619
asbasbasbag69
(g85
g71
NtRp4620
(dp4621
g74
(dp4622
sg83
g4577
sg76
(lp4623
g69
(g90
g71
NtRp4624
(dp4625
g74
(dp4626
sg83
g4620
sg76
(lp4627
g69
(g70
g71
NtRp4628
(dp4629
g74
(dp4630
g82
I3
ssg83
g4624
sg76
(lp4631
g69
(g78
g71
NtRp4632
(dp4633
g74
(dp4634
g82
I2
ssg83
Nsg76
(lp4635
sbasbasbasbasbasbasbasbasbasbasbasbag69
(g85
g71
NtRp4636
(dp4637
g74
(dp4638
sg83
g4037
sg76
(lp4639
g69
(g90
g71
NtRp4640
(dp4641
g74
(dp4642
g94
g95
ssg83
g4636
sg76
(lp4643
S'meta'
p4644
asbag69
(g90
g71
NtRp4645
(dp4646
g74
(dp4647
g101
g102
ssg83
g4636
sg76
(lp4648
S':'
asbag69
(g90
g71
NtRp4649
(dp4650
g74
(dp4651
sg83
g4636
sg76
(lp4652
g69
(g70
g71
NtRp4653
(dp4654
g74
(dp4655
g82
I5
ssg83
g4649
sg76
(lp4656
g69
(g78
g71
NtRp4657
(dp4658
g74
(dp4659
g82
I4
ssg83
Nsg76
(lp4660
g69
(g85
g71
NtRp4661
(dp4662
g74
(dp4663
sg83
g4657
sg76
(lp4664
g69
(g90
g71
NtRp4665
(dp4666
g74
(dp4667
g94
g95
ssg83
g4661
sg76
(lp4668
S'author'
p4669
asbag69
(g90
g71
NtRp4670
(dp4671
g74
(dp4672
g101
g102
ssg83
g4661
sg76
(lp4673
S':'
asbag69
(g90
g71
NtRp4674
(dp4675
g74
(dp4676
sg83
g4661
sg76
(lp4677
g69
(g70
g71
NtRp4678
(dp4679
g74
(dp4680
g82
I4
ssg83
g4674
sg76
(lp4681
S'you <you@example.com>'
p4682
asbasbasbag69
(g85
g71
NtRp4683
(dp4684
g74
(dp4685
sg83
g4657
sg76
(lp4686
g69
(g90
g71
NtRp4687
(dp4688
g74
(dp4689
g94
g95
ssg83
g4683
sg76
(lp4690
S'description'
p4691
asbag69
(g90
g71
NtRp4692
(dp4693
g74
(dp4694
g101
g102
ssg83
g4683
sg76
(lp4695
S':'
asbag69
(g90
g71
NtRp4696
(dp4697
g74
(dp4698
sg83
g4683
sg76
(lp4699
g69
(g70
g71
NtRp4700
(dp4701
g74
(dp4702
g82
I4
ssg83
g4696
sg76
(lp4703
S''
asbasbasbag69
(g85
g71
NtRp4704
(dp4705
g74
(dp4706
sg83
g4657
sg76
(lp4707
g69
(g90
g71
NtRp4708
(dp4709
g74
(dp4710
g94
g95
ssg83
g4704
sg76
(lp4711
S'keywords'
p4712
asbag69
(g90
g71
NtRp4713
(dp4714
g74
(dp4715
g101
g102
ssg83
g4704
sg76
(lp4716
S':'
asbag69
(g90
g71
NtRp4717
(dp4718
g74
(dp4719
sg83
g4704
sg76
(lp4720
g69
(g70
g71
NtRp4721
(dp4722
g74
(dp4723
g82
I4
ssg83
g4717
sg76
(lp4724
S''
asbasbasbasbasbasbasbag69
(g85
g71
NtRp4725
(dp4726
g74
(dp4727
sg83
g4037
sg76
(lp4728
g69
(g90
g71
NtRp4729
(dp4730
g74
(dp4731
g94
g95
ssg83
g4725
sg76
(lp4732
S'postprocessing'
p4733
asbag69
(g90
g71
NtRp4734
(dp4735
g74
(dp4736
g101
g102
ssg83
g4725
sg76
(lp4737
S':'
asbag69
(g90
g71
NtRp4738
(dp4739
g74
(dp4740
sg83
g4725
sg76
(lp4741
g69
(g70
g71
NtRp4742
(dp4743
g74
(dp4744
g82
I5
ssg83
g4738
sg76
(lp4745
g69
(g78
g71
NtRp4746
(dp4747
g74
(dp4748
g82
I4
ssg83
Nsg76
(lp4749
sbasbasbasbag69
(g85
g71
NtRp4750
(dp4751
g74
(dp4752
sg83
g4037
sg76
(lp4753
g69
(g90
g71
NtRp4754
(dp4755
g74
(dp4756
g94
g95
ssg83
g4750
sg76
(lp4757
S'session_file'
p4758
asbag69
(g90
g71
NtRp4759
(dp4760
g74
(dp4761
g101
g102
ssg83
g4750
sg76
(lp4762
S':'
asbag69
(g90
g71
NtRp4763
(dp4764
g74
(dp4765
sg83
g4750
sg76
(lp4766
g69
(g70
g71
NtRp4767
(dp4768
g74
(dp4769
g82
I5
ssg83
g4763
sg76
(lp4770
S"<open file '/home/maneesha/Downloads/web2py/applications/cite_m3/sessions/127.0.0.1-47ff6b5b-ae2e-4fc8-851c-9fb23404d46e', mode 'rb+' at 0x7f92b427fc90>"
p4771
asbasbasbag69
(g85
g71
NtRp4772
(dp4773
g74
(dp4774
sg83
g4037
sg76
(lp4775
g69
(g90
g71
NtRp4776
(dp4777
g74
(dp4778
g94
g95
ssg83
g4772
sg76
(lp4779
S'session_filename'
p4780
asbag69
(g90
g71
NtRp4781
(dp4782
g74
(dp4783
g101
g102
ssg83
g4772
sg76
(lp4784
S':'
asbag69
(g90
g71
NtRp4785
(dp4786
g74
(dp4787
sg83
g4772
sg76
(lp4788
g69
(g70
g71
NtRp4789
(dp4790
g74
(dp4791
g82
I5
ssg83
g4785
sg76
(lp4792
S'/home/maneesha/Downloads/web2py/applications/cite_m3/sessions/127.0.0.1-47ff6b5b-ae2e-4fc8-851c-9fb23404d46e'
p4793
asbasbasbag69
(g85
g71
NtRp4794
(dp4795
g74
(dp4796
sg83
g4037
sg76
(lp4797
g69
(g90
g71
NtRp4798
(dp4799
g74
(dp4800
g94
g95
ssg83
g4794
sg76
(lp4801
S'session_id'
p4802
asbag69
(g90
g71
NtRp4803
(dp4804
g74
(dp4805
g101
g102
ssg83
g4794
sg76
(lp4806
S':'
asbag69
(g90
g71
NtRp4807
(dp4808
g74
(dp4809
sg83
g4794
sg76
(lp4810
g69
(g70
g71
NtRp4811
(dp4812
g74
(dp4813
g82
I5
ssg83
g4807
sg76
(lp4814
S'127.0.0.1-47ff6b5b-ae2e-4fc8-851c-9fb23404d46e'
p4815
asbasbasbag69
(g85
g71
NtRp4816
(dp4817
g74
(dp4818
sg83
g4037
sg76
(lp4819
g69
(g90
g71
NtRp4820
(dp4821
g74
(dp4822
g94
g95
ssg83
g4816
sg76
(lp4823
S'session_id_name'
p4824
asbag69
(g90
g71
NtRp4825
(dp4826
g74
(dp4827
g101
g102
ssg83
g4816
sg76
(lp4828
S':'
asbag69
(g90
g71
NtRp4829
(dp4830
g74
(dp4831
sg83
g4816
sg76
(lp4832
g69
(g70
g71
NtRp4833
(dp4834
g74
(dp4835
g82
I5
ssg83
g4829
sg76
(lp4836
g4094
asbasbasbag69
(g85
g71
NtRp4837
(dp4838
g74
(dp4839
sg83
g4037
sg76
(lp4840
g69
(g90
g71
NtRp4841
(dp4842
g74
(dp4843
g94
g95
ssg83
g4837
sg76
(lp4844
S'session_locked'
p4845
asbag69
(g90
g71
NtRp4846
(dp4847
g74
(dp4848
g101
g102
ssg83
g4837
sg76
(lp4849
S':'
asbag69
(g90
g71
NtRp4850
(dp4851
g74
(dp4852
sg83
g4837
sg76
(lp4853
g69
(g70
g71
NtRp4854
(dp4855
g74
(dp4856
g82
I5
ssg83
g4850
sg76
(lp4857
g2038
asbasbasbag69
(g85
g71
NtRp4858
(dp4859
g74
(dp4860
sg83
g4037
sg76
(lp4861
g69
(g90
g71
NtRp4862
(dp4863
g74
(dp4864
g94
g95
ssg83
g4858
sg76
(lp4865
S'session_new'
p4866
asbag69
(g90
g71
NtRp4867
(dp4868
g74
(dp4869
g101
g102
ssg83
g4858
sg76
(lp4870
S':'
asbag69
(g90
g71
NtRp4871
(dp4872
g74
(dp4873
sg83
g4858
sg76
(lp4874
g69
(g70
g71
NtRp4875
(dp4876
g74
(dp4877
g82
I5
ssg83
g4871
sg76
(lp4878
g112
asbasbasbag69
(g85
g71
NtRp4879
(dp4880
g74
(dp4881
sg83
g4037
sg76
(lp4882
g69
(g90
g71
NtRp4883
(dp4884
g74
(dp4885
g94
g95
ssg83
g4879
sg76
(lp4886
S'status'
p4887
asbag69
(g90
g71
NtRp4888
(dp4889
g74
(dp4890
g101
g102
ssg83
g4879
sg76
(lp4891
S':'
asbag69
(g90
g71
NtRp4892
(dp4893
g74
(dp4894
sg83
g4879
sg76
(lp4895
g69
(g70
g71
NtRp4896
(dp4897
g74
(dp4898
g82
I5
ssg83
g4892
sg76
(lp4899
S'200'
p4900
asbasbasbag69
(g85
g71
NtRp4901
(dp4902
g74
(dp4903
sg83
g4037
sg76
(lp4904
g69
(g90
g71
NtRp4905
(dp4906
g74
(dp4907
g94
g95
ssg83
g4901
sg76
(lp4908
S'subtitle'
p4909
asbag69
(g90
g71
NtRp4910
(dp4911
g74
(dp4912
g101
g102
ssg83
g4901
sg76
(lp4913
S':'
asbag69
(g90
g71
NtRp4914
(dp4915
g74
(dp4916
sg83
g4901
sg76
(lp4917
g69
(g70
g71
NtRp4918
(dp4919
g74
(dp4920
g82
I5
ssg83
g4914
sg76
(lp4921
S'powered by web2py'
p4922
asbasbasbag69
(g85
g71
NtRp4923
(dp4924
g74
(dp4925
sg83
g4037
sg76
(lp4926
g69
(g90
g71
NtRp4927
(dp4928
g74
(dp4929
g94
g95
ssg83
g4923
sg76
(lp4930
S'title'
p4931
asbag69
(g90
g71
NtRp4932
(dp4933
g74
(dp4934
g101
g102
ssg83
g4923
sg76
(lp4935
S':'
asbag69
(g90
g71
NtRp4936
(dp4937
g74
(dp4938
sg83
g4923
sg76
(lp4939
g69
(g70
g71
NtRp4940
(dp4941
g74
(dp4942
g82
I5
ssg83
g4936
sg76
(lp4943
S'My New App'
p4944
asbasbasbag69
(g85
g71
NtRp4945
(dp4946
g74
(dp4947
sg83
g4037
sg76
(lp4948
g69
(g90
g71
NtRp4949
(dp4950
g74
(dp4951
g94
g95
ssg83
g4945
sg76
(lp4952
g2702
asbag69
(g90
g71
NtRp4953
(dp4954
g74
(dp4955
g101
g102
ssg83
g4945
sg76
(lp4956
S':'
asbag69
(g90
g71
NtRp4957
(dp4958
g74
(dp4959
sg83
g4945
sg76
(lp4960
g69
(g70
g71
NtRp4961
(dp4962
g74
(dp4963
g82
I5
ssg83
g4957
sg76
(lp4964
g2715
asbasbasbag69
(g85
g71
NtRp4965
(dp4966
g74
(dp4967
sg83
g4037
sg76
(lp4968
g69
(g90
g71
NtRp4969
(dp4970
g74
(dp4971
g94
g95
ssg83
g4965
sg76
(lp4972
S'view'
p4973
asbag69
(g90
g71
NtRp4974
(dp4975
g74
(dp4976
g101
g102
ssg83
g4965
sg76
(lp4977
S':'
asbag69
(g90
g71
NtRp4978
(dp4979
g74
(dp4980
sg83
g4965
sg76
(lp4981
g69
(g70
g71
NtRp4982
(dp4983
g74
(dp4984
g82
I5
ssg83
g4978
sg76
(lp4985
S'default/final_ans.html'
p4986
asbasbasbasbasbsS'locals'
p4987
(dp4988
S'err'
p4989
S"gaierror(-2, 'Name or service not known')"
p4990
sS'h'
S'<httplib.HTTPConnection instance>'
p4991
sS'self'
p4992
S'<urllib2.HTTPHandler instance>'
p4993
sS'req'
p4994
S'<urllib2.Request instance>'
p4995
sg4413
S"{'Connection': 'close', 'Cookie': '', 'Host': 'dl.acm.org', 'User-Agent': 'Mozilla/5.0'}"
p4996
sS'host'
p4997
S"'dl.acm.org'"
p4998
sS'http_class'
p4999
S'<class httplib.HTTPConnection>'
p5000
sssS'traceback'
p5001
S'Traceback (most recent call last):\n  File "/home/maneesha/Downloads/web2py/gluon/restricted.py", line 205, in restricted\n    exec ccode in environment\n  File "/home/maneesha/Downloads/web2py/applications/cite_m3/controllers/default.py", line 211, in <module>\n  File "/home/maneesha/Downloads/web2py/gluon/globals.py", line 173, in <lambda>\n    self._caller = lambda f: f()\n  File "/home/maneesha/Downloads/web2py/applications/cite_m3/controllers/default.py", line 77, in final_ans\n    fst_l,ret1=extract1(url,l1)\n  File "/home/maneesha/Downloads/web2py/applications/cite_m3/controllers/default.py", line 33, in extract1\n    html=fetch(url)\n  File "/home/maneesha/Downloads/web2py/gluon/tools.py", line 3424, in fetch\n    html = urllib2.urlopen(req).read()\n  File "/usr/lib/python2.7/urllib2.py", line 126, in urlopen\n    return _opener.open(url, data, timeout)\n  File "/usr/lib/python2.7/urllib2.py", line 400, in open\n    response = self._open(req, data)\n  File "/usr/lib/python2.7/urllib2.py", line 418, in _open\n    \'_open\', req)\n  File "/usr/lib/python2.7/urllib2.py", line 378, in _call_chain\n    result = func(*args)\n  File "/usr/lib/python2.7/urllib2.py", line 1207, in http_open\n    return self.do_open(httplib.HTTPConnection, req)\n  File "/usr/lib/python2.7/urllib2.py", line 1177, in do_open\n    raise URLError(err)\nURLError: <urlopen error [Errno -2] Name or service not known>\n'
p5002
s.