(dp1
S'output'
p2
S"<class 'urllib2.HTTPError'> HTTP Error 403: Forbidden"
p3
sS'layer'
p4
S'/home/chitra/courses/SSAD/web2py/applications/cite_m5/controllers/default.py'
p5
sS'code'
p6
S'# -*- coding: utf-8 -*-\n### required - do no delete\ndef user(): return dict(form=auth())\n#def download(): return response.download(request,db)\n#def call(): return service()\n### end requires\n#def index():\n #   return dict()\n\n#def error():\n #   return dict()\nfrom gluon.tools import fetch\nimport re\nlistf=[]\n#ret1=[]\ncount=0\nbigans=[]\n@auth.requires_login()\ndef index():\n    form=SQLFORM(db.input)\n    if form.process().accepted:\n        response.flash = \'you entred\'\n        redirect(URL(\'final_ans\'))\n    return dict(form=form)\ndef year_user(index_yr):   #index_yr - only in this code not in main one\n    flag=index_yr\n    redirect(URL(\'final_ans()\'))\n    flag=0\n    #return dict(ans=ll1[0],l_yr=ll1[1])\ndef extract1(url,l1):\n    ret=[]\n    ret1=[]\n    html=fetch(url)\n    html_splitted=html.split("<A HREF=\\"citation.cfm")\n    ht=html_splitted[0]\n    del html_splitted[0]\n    k=html_splitted[0].split(\'>\')\n    if k[1][:-3]==l1[0]:\n        k=html_splitted[0].find(\'\\"\')\n        s="http://dl.acm.org/citation.cfm"+html_splitted[0][:k]\n        ret.append(s.split(\'&preflayout\')[0]+\'&preflayout=flat\')\n        ret1.append(\'0\')\n        ret1.append(\'0\')\n    else:\n        ret1=[\'0\',\'1\']\n        for i in range(0,l1[2]):\n            k=html_splitted[i].find(\'\\"\')\n            s="http://dl.acm.org/citation.cfm"+html_splitted[i][:k]\n            ret.append(s.split(\'&preflayout\')[0]+\'&preflayout=flat\')\n    return ret,ret1\ndef sorting():\n    bigans=[]\n    l1=u_filter()\n    url="http://dl.acm.org/results.cfm?h=1&query="+\'+\'.join(l1[0].split())\n    fst_l=[]\n    ret1=[]\n    fst_l,ret1=extract1(url,l1)\n    rec(fst_l,l1,bigans)\n    if request.args(0)==\'0\':\n        pass\n    else:\n        bigans=sorted(bigans,key=lambda x:(x[4][6:]*360+x[4][:2]*30+x[4][3:5]),reverse=True)\n    return dict(bigans=bigans,level=l1[1],top=l1[2],ret1=ret1)\ndef final_ans():\n    bigans=[]\n    l1=u_filter() \n    url="http://dl.acm.org/results.cfm?h=1&query="+\'+\'.join(l1[0].split())\n    fst_l=[]\n    ret1=[]\n    fst_l,ret1=extract1(url,l1)\n    rec(fst_l,l1,bigans)\n    return dict(bigans=bigans,level=l1[1],top=l1[2],ret1=ret1)\ndef rec(list1,l1,bigans):\n    global count\n    count=count+1\n    global listf\n    listf.append([])\n    for x in list1:\n        if x!=\'\':\n            z=cite(x)\n            #global listf\n            #listf[count-1].append(z)\n            bigans.append(z)\n            if count < l1[1]:\n                rec(z[7],l1,bigans[-1])\n    count=count-1\n    return\ndef cite(url):\n    if url==\'\':\n        return []\n    l1=u_filter()\n    html=fetch(url)\n    temp=[]\n        #temp=[]\n    d=re.search(\'<meta name="citation_title"[\\w\\W]*?>\',html).group()\n    d=bold(d)\n        #temp.append(d.split(\'>\')[0][9:-1])\n    temp.append(d.split(\'=\')[2][1:-2])\n    temp.append(url)\n    f=re.search(\'\\"ft_gateway.cfm[\\w\\W]*?\\"\',html)\n    if f!=None:\n        f=f.group()\n        f=bold(f)\n        temp.append(\'http://dl.acm.org/\'+f[1:-1])\n    else:\n        temp.append(url)\n    c=re.search(\'<meta name="citation_authors"[\\w\\W]*?>\',html).group()\n    c=bold(c)\n    if l1[3]==1:\n       #temp.append(d.split(\'>\')[0][9:-1])\n        temp.append(c.split(\'=\')[2][1:-2])\n    else:\n        temp.append(-1)\n    b=re.search(\'<meta name="citation_date"[\\w\\W]*?>\',html).group()\n    b=bold(b)\n    if l1[5]==1:\n        temp.append(b.split(\'=\')[2][1:-2])\n    else:\n        temp.append(-1)\n    h=re.search(\'<A NAME="abstract" class="small-text">ABSTRACT[\\w\\W]*?</div>\',html)\n    if h!=None:\n        h=h.group()\n        h=bold(h)\n        h.replace("<par>","")\n        h.replace("</par>","")\n        h1=h.split("</div>")[0]\n        h1=h1.split("<p>")[1]\n        h1=remove(h1)\n    else:\n        h1=-1\n    temp.append(h1)\n    s=re.search(\'CITED BY[\\w\\W]*?INDEX TERMS\',html).group()\n    if \'Citings are not available\' not in s:\n        e=re.search(\'\\d* Citations\',s)\n        if l1[4]!=1:\n            temp.append(-1)\n        elif e!=None:\n            temp.append(e.group().split()[0])\n        else:                                                                            \n            temp.append(1)\n        i=0\n        cit=[]\n        while i < l1[2]:\n            i+=1\n            s1=re.search(\'<a href[\\w\\W]*?</a>\',s)\n            if s1==None:\n                cit.append(\'\')\n            elif s1!=None:\n                k=s.find(s1.group())\n                #k1=s[:k]\n                cit.append(("http://dl.acm.org/"+s1.group().split(\'\\"\')[1]).split(\'&preflayout\')[0]+\'&preflayout=flat\')\n                s=s[k+2:]\n           \n        temp.append(cit)\n    else:\n        if l1[4]==1:\n            temp.append(0)\n        else:\n            temp.append(-1)\n        temp.append([])\n    return temp\ndef u_filter():\n    inpu=db().select(db.input.ALL)\n    for inp in inpu:\n        key=inp.keywords\n        level=inp.Recursion_levels\n        top=inp.Top_results\n        auth=inp.Show_author\n        cited_by=inp.Show_no_of_citations\n        year=inp.Show_release_date\n    return [key,level,top,auth,cited_by,year]\ndef bold(d):\n    pre=""\n    while pre!=d:\n        pre=d\n        d=d.replace("<b>","")\n        d=d.replace("</b>","")\n    return d\ndef remove(d):\n    pre=""\n    while pre!=d:\n        pre=d\n        d=d.replace("<p>","")\n        d=d.replace("</p>","")\n    pre=""\n    while pre!=d:\n        pre=d\n        d=d.replace("<div style=\\"display:inline\\">","")\n        d=d.replace("</div>","")\n    pre=""\n    while pre!=d:\n        pre=d\n        d=d.replace("<br>","")\n    return d\ndef abstract():\n    h1=request.args(0)\n    h1=XML(h1)\n    return dict(abst=h1)\ndef abstract1():\n    abss=request.args[0]\n    pre=""\n    while pre!=abss:\n        pre=abss\n        abss=abss.replace("_"," ")\n        #d=d.replace("","")\n    abss1=abss.split(".")       \n    return dict(abss1=abss1)\n\nresponse._vars=response._caller(final_ans)\n'
p7
sS'snapshot'
p8
(dp9
S'exception'
p10
(dp11
S'__module__'
p12
S"'urllib2'"
p13
sg6
S'403'
p14
sS'__getslice__'
p15
S"<method-wrapper '__getslice__' of HTTPError object>"
p16
sS'__str__'
p17
S'<bound method HTTPError.__str__ of HTTPError()>'
p18
sS'__reduce__'
p19
S'<built-in method __reduce__ of HTTPError object>'
p20
sS'strerror'
p21
S'None'
p22
sS'__dict__'
p23
S"{'__iter__': <bound method _fileobject.__iter__ of <socket._fileobject object>>, 'code': 403, 'fileno': <bound method _fileobject.fileno of <socket._fileobject object>>, 'fp': <addinfourl at 140452281536168 whose fp = <socket._fileobject object>>, 'hdrs': <httplib.HTTPMessage instance>, 'headers': <httplib.HTTPMessage instance>, 'msg': 'Forbidden', 'next': <bound method _fileobject.next of <socket._fileobject object>>, 'read': <bound method _fileobject.read of <socket._fileobject object>>, 'readline': <bound method _fileobject.readline of <socket._fileobject object>>, ...}"
p24
sS'close'
p25
S'<bound method HTTPError.close of HTTPError()>'
p26
sS'__sizeof__'
p27
S'<built-in method __sizeof__ of HTTPError object>'
p28
sS'next'
p29
S'<bound method _fileobject.next of <socket._fileobject object>>'
p30
sS'__weakref__'
p31
S'None'
p32
sS'__init__'
p33
S'<bound method HTTPError.__init__ of HTTPError()>'
p34
sS'__setattr__'
p35
S"<method-wrapper '__setattr__' of HTTPError object>"
p36
sS'__reduce_ex__'
p37
S'<built-in method __reduce_ex__ of HTTPError object>'
p38
sS'__new__'
p39
S'<built-in method __new__ of type object>'
p40
sS'headers'
p41
S'<httplib.HTTPMessage instance>'
p42
sS'errno'
p43
S'None'
p44
sS'readlines'
p45
S'<bound method _fileobject.readlines of <socket._fileobject object>>'
p46
sS'__format__'
p47
S'<built-in method __format__ of HTTPError object>'
p48
sS'__class__'
p49
S"<class 'urllib2.HTTPError'>"
p50
sS'filename'
p51
S"'http://dl.acm.org/citation.cfm?id=2176506&CFID=140261464&CFTOKEN=53881816&preflayout=flat'"
p52
sS'_HTTPError__super_init'
p53
S'<bound method HTTPError.__init__ of HTTPError()>'
p54
sS'msg'
p55
S"'Forbidden'"
p56
sS'__doc__'
p57
S"'Raised when HTTP error occurs, but also acts like non-error return'"
p58
sS'fp'
p59
S'<addinfourl at 140452281536168 whose fp = <socket._fileobject object>>'
p60
sS'hdrs'
p61
S'<httplib.HTTPMessage instance>'
p62
sS'__getitem__'
p63
S"<method-wrapper '__getitem__' of HTTPError object>"
p64
sS'__setstate__'
p65
S'<built-in method __setstate__ of HTTPError object>'
p66
sS'read'
p67
S'<bound method _fileobject.read of <socket._fileobject object>>'
p68
sS'__getattribute__'
p69
S"<method-wrapper '__getattribute__' of HTTPError object>"
p70
sS'args'
p71
S'()'
p72
sS'__iter__'
p73
S'<bound method _fileobject.__iter__ of <socket._fileobject object>>'
p74
sS'__subclasshook__'
p75
S'<built-in method __subclasshook__ of type object>'
p76
sS'readline'
p77
S'<bound method _fileobject.readline of <socket._fileobject object>>'
p78
sS'__unicode__'
p79
S'<built-in method __unicode__ of HTTPError object>'
p80
sS'info'
p81
S'<bound method HTTPError.info of HTTPError()>'
p82
sS'fileno'
p83
S'<bound method _fileobject.fileno of <socket._fileobject object>>'
p84
sS'getcode'
p85
S'<bound method HTTPError.getcode of HTTPError()>'
p86
sS'url'
p87
S"'http://dl.acm.org/citation.cfm?id=2176506&CFID=140261464&CFTOKEN=53881816&preflayout=flat'"
p88
sS'reason'
p89
S"'Forbidden'"
p90
sS'geturl'
p91
S'<bound method HTTPError.geturl of HTTPError()>'
p92
sS'__delattr__'
p93
S"<method-wrapper '__delattr__' of HTTPError object>"
p94
sS'__repr__'
p95
S"<method-wrapper '__repr__' of HTTPError object>"
p96
sS'__hash__'
p97
S"<method-wrapper '__hash__' of HTTPError object>"
p98
ssS'evalue'
p99
S'HTTP Error 403: Forbidden'
p100
sS'request'
p101
ccopy_reg
_reconstructor
p102
(cgluon.html
BEAUTIFY
p103
c__builtin__
object
p104
NtRp105
(dp106
S'attributes'
p107
(dp108
sS'components'
p109
(lp110
g102
(cgluon.html
TABLE
p111
g104
NtRp112
(dp113
g107
(dp114
S'level'
p115
I5
ssS'parent'
p116
Nsg109
(lp117
g102
(cgluon.html
TR
p118
g104
NtRp119
(dp120
g107
(dp121
sg116
g112
sg109
(lp122
g102
(cgluon.html
TD
p123
g104
NtRp124
(dp125
g107
(dp126
S'_style'
p127
S'font-weight:bold;vertical-align:top'
p128
ssg116
g119
sg109
(lp129
S'ajax'
p130
asbag102
(g123
g104
NtRp131
(dp132
g107
(dp133
S'_valign'
p134
S'top'
p135
ssg116
g119
sg109
(lp136
S':'
asbag102
(g123
g104
NtRp137
(dp138
g107
(dp139
sg116
g119
sg109
(lp140
g102
(g103
g104
NtRp141
(dp142
g107
(dp143
g115
I5
ssg116
g137
sg109
(lp144
S'False'
p145
asbasbasbag102
(g118
g104
NtRp146
(dp147
g107
(dp148
sg116
g112
sg109
(lp149
g102
(g123
g104
NtRp150
(dp151
g107
(dp152
g127
g128
ssg116
g146
sg109
(lp153
S'application'
p154
asbag102
(g123
g104
NtRp155
(dp156
g107
(dp157
g134
g135
ssg116
g146
sg109
(lp158
S':'
asbag102
(g123
g104
NtRp159
(dp160
g107
(dp161
sg116
g146
sg109
(lp162
g102
(g103
g104
NtRp163
(dp164
g107
(dp165
g115
I5
ssg116
g159
sg109
(lp166
S'cite_m5'
p167
asbasbasbag102
(g118
g104
NtRp168
(dp169
g107
(dp170
sg116
g112
sg109
(lp171
g102
(g123
g104
NtRp172
(dp173
g107
(dp174
g127
g128
ssg116
g168
sg109
(lp175
g71
asbag102
(g123
g104
NtRp176
(dp177
g107
(dp178
g134
g135
ssg116
g168
sg109
(lp179
S':'
asbag102
(g123
g104
NtRp180
(dp181
g107
(dp182
sg116
g168
sg109
(lp183
g102
(g103
g104
NtRp184
(dp185
g107
(dp186
g115
I5
ssg116
g180
sg109
(lp187
g102
(g111
g104
NtRp188
(dp189
g107
(dp190
g115
I4
ssg116
Nsg109
(lp191
sbasbasbasbag102
(g118
g104
NtRp192
(dp193
g107
(dp194
sg116
g112
sg109
(lp195
g102
(g123
g104
NtRp196
(dp197
g107
(dp198
g127
g128
ssg116
g192
sg109
(lp199
S'body'
p200
asbag102
(g123
g104
NtRp201
(dp202
g107
(dp203
g134
g135
ssg116
g192
sg109
(lp204
S':'
asbag102
(g123
g104
NtRp205
(dp206
g107
(dp207
sg116
g192
sg109
(lp208
g102
(g103
g104
NtRp209
(dp210
g107
(dp211
g115
I5
ssg116
g205
sg109
(lp212
S'<cStringIO.StringO object at 0x7fbd800b77d8>'
p213
asbasbasbag102
(g118
g104
NtRp214
(dp215
g107
(dp216
sg116
g112
sg109
(lp217
g102
(g123
g104
NtRp218
(dp219
g107
(dp220
g127
g128
ssg116
g214
sg109
(lp221
S'client'
p222
asbag102
(g123
g104
NtRp223
(dp224
g107
(dp225
g134
g135
ssg116
g214
sg109
(lp226
S':'
asbag102
(g123
g104
NtRp227
(dp228
g107
(dp229
sg116
g214
sg109
(lp230
g102
(g103
g104
NtRp231
(dp232
g107
(dp233
g115
I5
ssg116
g227
sg109
(lp234
S'127.0.0.1'
p235
asbasbasbag102
(g118
g104
NtRp236
(dp237
g107
(dp238
sg116
g112
sg109
(lp239
g102
(g123
g104
NtRp240
(dp241
g107
(dp242
g127
g128
ssg116
g236
sg109
(lp243
S'controller'
p244
asbag102
(g123
g104
NtRp245
(dp246
g107
(dp247
g134
g135
ssg116
g236
sg109
(lp248
S':'
asbag102
(g123
g104
NtRp249
(dp250
g107
(dp251
sg116
g236
sg109
(lp252
g102
(g103
g104
NtRp253
(dp254
g107
(dp255
g115
I5
ssg116
g249
sg109
(lp256
S'default'
p257
asbasbasbag102
(g118
g104
NtRp258
(dp259
g107
(dp260
sg116
g112
sg109
(lp261
g102
(g123
g104
NtRp262
(dp263
g107
(dp264
g127
g128
ssg116
g258
sg109
(lp265
S'cookies'
p266
asbag102
(g123
g104
NtRp267
(dp268
g107
(dp269
g134
g135
ssg116
g258
sg109
(lp270
S':'
asbag102
(g123
g104
NtRp271
(dp272
g107
(dp273
sg116
g258
sg109
(lp274
g102
(g103
g104
NtRp275
(dp276
g107
(dp277
g115
I5
ssg116
g271
sg109
(lp278
g102
(g111
g104
NtRp279
(dp280
g107
(dp281
g115
I4
ssg116
Nsg109
(lp282
g102
(g118
g104
NtRp283
(dp284
g107
(dp285
sg116
g279
sg109
(lp286
g102
(g123
g104
NtRp287
(dp288
g107
(dp289
g127
g128
ssg116
g283
sg109
(lp290
S'session_id_admin'
p291
asbag102
(g123
g104
NtRp292
(dp293
g107
(dp294
g134
g135
ssg116
g283
sg109
(lp295
S':'
asbag102
(g123
g104
NtRp296
(dp297
g107
(dp298
sg116
g283
sg109
(lp299
g102
(g103
g104
NtRp300
(dp301
g107
(dp302
g115
I4
ssg116
g296
sg109
(lp303
g102
(g111
g104
NtRp304
(dp305
g107
(dp306
g115
I3
ssg116
Nsg109
(lp307
g102
(g118
g104
NtRp308
(dp309
g107
(dp310
sg116
g304
sg109
(lp311
g102
(g123
g104
NtRp312
(dp313
g107
(dp314
g127
g128
ssg116
g308
sg109
(lp315
S'comment'
p316
asbag102
(g123
g104
NtRp317
(dp318
g107
(dp319
g134
g135
ssg116
g308
sg109
(lp320
S':'
asbag102
(g123
g104
NtRp321
(dp322
g107
(dp323
sg116
g308
sg109
(lp324
g102
(g103
g104
NtRp325
(dp326
g107
(dp327
g115
I3
ssg116
g321
sg109
(lp328
S''
asbasbasbag102
(g118
g104
NtRp329
(dp330
g107
(dp331
sg116
g304
sg109
(lp332
g102
(g123
g104
NtRp333
(dp334
g107
(dp335
g127
g128
ssg116
g329
sg109
(lp336
S'domain'
p337
asbag102
(g123
g104
NtRp338
(dp339
g107
(dp340
g134
g135
ssg116
g329
sg109
(lp341
S':'
asbag102
(g123
g104
NtRp342
(dp343
g107
(dp344
sg116
g329
sg109
(lp345
g102
(g103
g104
NtRp346
(dp347
g107
(dp348
g115
I3
ssg116
g342
sg109
(lp349
S''
asbasbasbag102
(g118
g104
NtRp350
(dp351
g107
(dp352
sg116
g304
sg109
(lp353
g102
(g123
g104
NtRp354
(dp355
g107
(dp356
g127
g128
ssg116
g350
sg109
(lp357
S'expires'
p358
asbag102
(g123
g104
NtRp359
(dp360
g107
(dp361
g134
g135
ssg116
g350
sg109
(lp362
S':'
asbag102
(g123
g104
NtRp363
(dp364
g107
(dp365
sg116
g350
sg109
(lp366
g102
(g103
g104
NtRp367
(dp368
g107
(dp369
g115
I3
ssg116
g363
sg109
(lp370
S''
asbasbasbag102
(g118
g104
NtRp371
(dp372
g107
(dp373
sg116
g304
sg109
(lp374
g102
(g123
g104
NtRp375
(dp376
g107
(dp377
g127
g128
ssg116
g371
sg109
(lp378
S'httponly'
p379
asbag102
(g123
g104
NtRp380
(dp381
g107
(dp382
g134
g135
ssg116
g371
sg109
(lp383
S':'
asbag102
(g123
g104
NtRp384
(dp385
g107
(dp386
sg116
g371
sg109
(lp387
g102
(g103
g104
NtRp388
(dp389
g107
(dp390
g115
I3
ssg116
g384
sg109
(lp391
S''
asbasbasbag102
(g118
g104
NtRp392
(dp393
g107
(dp394
sg116
g304
sg109
(lp395
g102
(g123
g104
NtRp396
(dp397
g107
(dp398
g127
g128
ssg116
g392
sg109
(lp399
S'max-age'
p400
asbag102
(g123
g104
NtRp401
(dp402
g107
(dp403
g134
g135
ssg116
g392
sg109
(lp404
S':'
asbag102
(g123
g104
NtRp405
(dp406
g107
(dp407
sg116
g392
sg109
(lp408
g102
(g103
g104
NtRp409
(dp410
g107
(dp411
g115
I3
ssg116
g405
sg109
(lp412
S''
asbasbasbag102
(g118
g104
NtRp413
(dp414
g107
(dp415
sg116
g304
sg109
(lp416
g102
(g123
g104
NtRp417
(dp418
g107
(dp419
g127
g128
ssg116
g413
sg109
(lp420
S'path'
p421
asbag102
(g123
g104
NtRp422
(dp423
g107
(dp424
g134
g135
ssg116
g413
sg109
(lp425
S':'
asbag102
(g123
g104
NtRp426
(dp427
g107
(dp428
sg116
g413
sg109
(lp429
g102
(g103
g104
NtRp430
(dp431
g107
(dp432
g115
I3
ssg116
g426
sg109
(lp433
S''
asbasbasbag102
(g118
g104
NtRp434
(dp435
g107
(dp436
sg116
g304
sg109
(lp437
g102
(g123
g104
NtRp438
(dp439
g107
(dp440
g127
g128
ssg116
g434
sg109
(lp441
S'secure'
p442
asbag102
(g123
g104
NtRp443
(dp444
g107
(dp445
g134
g135
ssg116
g434
sg109
(lp446
S':'
asbag102
(g123
g104
NtRp447
(dp448
g107
(dp449
sg116
g434
sg109
(lp450
g102
(g103
g104
NtRp451
(dp452
g107
(dp453
g115
I3
ssg116
g447
sg109
(lp454
S''
asbasbasbag102
(g118
g104
NtRp455
(dp456
g107
(dp457
sg116
g304
sg109
(lp458
g102
(g123
g104
NtRp459
(dp460
g107
(dp461
g127
g128
ssg116
g455
sg109
(lp462
S'version'
p463
asbag102
(g123
g104
NtRp464
(dp465
g107
(dp466
g134
g135
ssg116
g455
sg109
(lp467
S':'
asbag102
(g123
g104
NtRp468
(dp469
g107
(dp470
sg116
g455
sg109
(lp471
g102
(g103
g104
NtRp472
(dp473
g107
(dp474
g115
I3
ssg116
g468
sg109
(lp475
S''
asbasbasbasbasbasbasbag102
(g118
g104
NtRp476
(dp477
g107
(dp478
sg116
g279
sg109
(lp479
g102
(g123
g104
NtRp480
(dp481
g107
(dp482
g127
g128
ssg116
g476
sg109
(lp483
S'session_id_cite_m22'
p484
asbag102
(g123
g104
NtRp485
(dp486
g107
(dp487
g134
g135
ssg116
g476
sg109
(lp488
S':'
asbag102
(g123
g104
NtRp489
(dp490
g107
(dp491
sg116
g476
sg109
(lp492
g102
(g103
g104
NtRp493
(dp494
g107
(dp495
g115
I4
ssg116
g489
sg109
(lp496
g102
(g111
g104
NtRp497
(dp498
g107
(dp499
g115
I3
ssg116
Nsg109
(lp500
g102
(g118
g104
NtRp501
(dp502
g107
(dp503
sg116
g497
sg109
(lp504
g102
(g123
g104
NtRp505
(dp506
g107
(dp507
g127
g128
ssg116
g501
sg109
(lp508
g316
asbag102
(g123
g104
NtRp509
(dp510
g107
(dp511
g134
g135
ssg116
g501
sg109
(lp512
S':'
asbag102
(g123
g104
NtRp513
(dp514
g107
(dp515
sg116
g501
sg109
(lp516
g102
(g103
g104
NtRp517
(dp518
g107
(dp519
g115
I3
ssg116
g513
sg109
(lp520
S''
asbasbasbag102
(g118
g104
NtRp521
(dp522
g107
(dp523
sg116
g497
sg109
(lp524
g102
(g123
g104
NtRp525
(dp526
g107
(dp527
g127
g128
ssg116
g521
sg109
(lp528
g337
asbag102
(g123
g104
NtRp529
(dp530
g107
(dp531
g134
g135
ssg116
g521
sg109
(lp532
S':'
asbag102
(g123
g104
NtRp533
(dp534
g107
(dp535
sg116
g521
sg109
(lp536
g102
(g103
g104
NtRp537
(dp538
g107
(dp539
g115
I3
ssg116
g533
sg109
(lp540
S''
asbasbasbag102
(g118
g104
NtRp541
(dp542
g107
(dp543
sg116
g497
sg109
(lp544
g102
(g123
g104
NtRp545
(dp546
g107
(dp547
g127
g128
ssg116
g541
sg109
(lp548
g358
asbag102
(g123
g104
NtRp549
(dp550
g107
(dp551
g134
g135
ssg116
g541
sg109
(lp552
S':'
asbag102
(g123
g104
NtRp553
(dp554
g107
(dp555
sg116
g541
sg109
(lp556
g102
(g103
g104
NtRp557
(dp558
g107
(dp559
g115
I3
ssg116
g553
sg109
(lp560
S''
asbasbasbag102
(g118
g104
NtRp561
(dp562
g107
(dp563
sg116
g497
sg109
(lp564
g102
(g123
g104
NtRp565
(dp566
g107
(dp567
g127
g128
ssg116
g561
sg109
(lp568
g379
asbag102
(g123
g104
NtRp569
(dp570
g107
(dp571
g134
g135
ssg116
g561
sg109
(lp572
S':'
asbag102
(g123
g104
NtRp573
(dp574
g107
(dp575
sg116
g561
sg109
(lp576
g102
(g103
g104
NtRp577
(dp578
g107
(dp579
g115
I3
ssg116
g573
sg109
(lp580
S''
asbasbasbag102
(g118
g104
NtRp581
(dp582
g107
(dp583
sg116
g497
sg109
(lp584
g102
(g123
g104
NtRp585
(dp586
g107
(dp587
g127
g128
ssg116
g581
sg109
(lp588
g400
asbag102
(g123
g104
NtRp589
(dp590
g107
(dp591
g134
g135
ssg116
g581
sg109
(lp592
S':'
asbag102
(g123
g104
NtRp593
(dp594
g107
(dp595
sg116
g581
sg109
(lp596
g102
(g103
g104
NtRp597
(dp598
g107
(dp599
g115
I3
ssg116
g593
sg109
(lp600
S''
asbasbasbag102
(g118
g104
NtRp601
(dp602
g107
(dp603
sg116
g497
sg109
(lp604
g102
(g123
g104
NtRp605
(dp606
g107
(dp607
g127
g128
ssg116
g601
sg109
(lp608
g421
asbag102
(g123
g104
NtRp609
(dp610
g107
(dp611
g134
g135
ssg116
g601
sg109
(lp612
S':'
asbag102
(g123
g104
NtRp613
(dp614
g107
(dp615
sg116
g601
sg109
(lp616
g102
(g103
g104
NtRp617
(dp618
g107
(dp619
g115
I3
ssg116
g613
sg109
(lp620
S''
asbasbasbag102
(g118
g104
NtRp621
(dp622
g107
(dp623
sg116
g497
sg109
(lp624
g102
(g123
g104
NtRp625
(dp626
g107
(dp627
g127
g128
ssg116
g621
sg109
(lp628
g442
asbag102
(g123
g104
NtRp629
(dp630
g107
(dp631
g134
g135
ssg116
g621
sg109
(lp632
S':'
asbag102
(g123
g104
NtRp633
(dp634
g107
(dp635
sg116
g621
sg109
(lp636
g102
(g103
g104
NtRp637
(dp638
g107
(dp639
g115
I3
ssg116
g633
sg109
(lp640
S''
asbasbasbag102
(g118
g104
NtRp641
(dp642
g107
(dp643
sg116
g497
sg109
(lp644
g102
(g123
g104
NtRp645
(dp646
g107
(dp647
g127
g128
ssg116
g641
sg109
(lp648
g463
asbag102
(g123
g104
NtRp649
(dp650
g107
(dp651
g134
g135
ssg116
g641
sg109
(lp652
S':'
asbag102
(g123
g104
NtRp653
(dp654
g107
(dp655
sg116
g641
sg109
(lp656
g102
(g103
g104
NtRp657
(dp658
g107
(dp659
g115
I3
ssg116
g653
sg109
(lp660
S''
asbasbasbasbasbasbasbag102
(g118
g104
NtRp661
(dp662
g107
(dp663
sg116
g279
sg109
(lp664
g102
(g123
g104
NtRp665
(dp666
g107
(dp667
g127
g128
ssg116
g661
sg109
(lp668
S'session_id_cite_m5'
p669
asbag102
(g123
g104
NtRp670
(dp671
g107
(dp672
g134
g135
ssg116
g661
sg109
(lp673
S':'
asbag102
(g123
g104
NtRp674
(dp675
g107
(dp676
sg116
g661
sg109
(lp677
g102
(g103
g104
NtRp678
(dp679
g107
(dp680
g115
I4
ssg116
g674
sg109
(lp681
g102
(g111
g104
NtRp682
(dp683
g107
(dp684
g115
I3
ssg116
Nsg109
(lp685
g102
(g118
g104
NtRp686
(dp687
g107
(dp688
sg116
g682
sg109
(lp689
g102
(g123
g104
NtRp690
(dp691
g107
(dp692
g127
g128
ssg116
g686
sg109
(lp693
g316
asbag102
(g123
g104
NtRp694
(dp695
g107
(dp696
g134
g135
ssg116
g686
sg109
(lp697
S':'
asbag102
(g123
g104
NtRp698
(dp699
g107
(dp700
sg116
g686
sg109
(lp701
g102
(g103
g104
NtRp702
(dp703
g107
(dp704
g115
I3
ssg116
g698
sg109
(lp705
S''
asbasbasbag102
(g118
g104
NtRp706
(dp707
g107
(dp708
sg116
g682
sg109
(lp709
g102
(g123
g104
NtRp710
(dp711
g107
(dp712
g127
g128
ssg116
g706
sg109
(lp713
g337
asbag102
(g123
g104
NtRp714
(dp715
g107
(dp716
g134
g135
ssg116
g706
sg109
(lp717
S':'
asbag102
(g123
g104
NtRp718
(dp719
g107
(dp720
sg116
g706
sg109
(lp721
g102
(g103
g104
NtRp722
(dp723
g107
(dp724
g115
I3
ssg116
g718
sg109
(lp725
S''
asbasbasbag102
(g118
g104
NtRp726
(dp727
g107
(dp728
sg116
g682
sg109
(lp729
g102
(g123
g104
NtRp730
(dp731
g107
(dp732
g127
g128
ssg116
g726
sg109
(lp733
g358
asbag102
(g123
g104
NtRp734
(dp735
g107
(dp736
g134
g135
ssg116
g726
sg109
(lp737
S':'
asbag102
(g123
g104
NtRp738
(dp739
g107
(dp740
sg116
g726
sg109
(lp741
g102
(g103
g104
NtRp742
(dp743
g107
(dp744
g115
I3
ssg116
g738
sg109
(lp745
S''
asbasbasbag102
(g118
g104
NtRp746
(dp747
g107
(dp748
sg116
g682
sg109
(lp749
g102
(g123
g104
NtRp750
(dp751
g107
(dp752
g127
g128
ssg116
g746
sg109
(lp753
g379
asbag102
(g123
g104
NtRp754
(dp755
g107
(dp756
g134
g135
ssg116
g746
sg109
(lp757
S':'
asbag102
(g123
g104
NtRp758
(dp759
g107
(dp760
sg116
g746
sg109
(lp761
g102
(g103
g104
NtRp762
(dp763
g107
(dp764
g115
I3
ssg116
g758
sg109
(lp765
S''
asbasbasbag102
(g118
g104
NtRp766
(dp767
g107
(dp768
sg116
g682
sg109
(lp769
g102
(g123
g104
NtRp770
(dp771
g107
(dp772
g127
g128
ssg116
g766
sg109
(lp773
g400
asbag102
(g123
g104
NtRp774
(dp775
g107
(dp776
g134
g135
ssg116
g766
sg109
(lp777
S':'
asbag102
(g123
g104
NtRp778
(dp779
g107
(dp780
sg116
g766
sg109
(lp781
g102
(g103
g104
NtRp782
(dp783
g107
(dp784
g115
I3
ssg116
g778
sg109
(lp785
S''
asbasbasbag102
(g118
g104
NtRp786
(dp787
g107
(dp788
sg116
g682
sg109
(lp789
g102
(g123
g104
NtRp790
(dp791
g107
(dp792
g127
g128
ssg116
g786
sg109
(lp793
g421
asbag102
(g123
g104
NtRp794
(dp795
g107
(dp796
g134
g135
ssg116
g786
sg109
(lp797
S':'
asbag102
(g123
g104
NtRp798
(dp799
g107
(dp800
sg116
g786
sg109
(lp801
g102
(g103
g104
NtRp802
(dp803
g107
(dp804
g115
I3
ssg116
g798
sg109
(lp805
S''
asbasbasbag102
(g118
g104
NtRp806
(dp807
g107
(dp808
sg116
g682
sg109
(lp809
g102
(g123
g104
NtRp810
(dp811
g107
(dp812
g127
g128
ssg116
g806
sg109
(lp813
g442
asbag102
(g123
g104
NtRp814
(dp815
g107
(dp816
g134
g135
ssg116
g806
sg109
(lp817
S':'
asbag102
(g123
g104
NtRp818
(dp819
g107
(dp820
sg116
g806
sg109
(lp821
g102
(g103
g104
NtRp822
(dp823
g107
(dp824
g115
I3
ssg116
g818
sg109
(lp825
S''
asbasbasbag102
(g118
g104
NtRp826
(dp827
g107
(dp828
sg116
g682
sg109
(lp829
g102
(g123
g104
NtRp830
(dp831
g107
(dp832
g127
g128
ssg116
g826
sg109
(lp833
g463
asbag102
(g123
g104
NtRp834
(dp835
g107
(dp836
g134
g135
ssg116
g826
sg109
(lp837
S':'
asbag102
(g123
g104
NtRp838
(dp839
g107
(dp840
sg116
g826
sg109
(lp841
g102
(g103
g104
NtRp842
(dp843
g107
(dp844
g115
I3
ssg116
g838
sg109
(lp845
S''
asbasbasbasbasbasbasbag102
(g118
g104
NtRp846
(dp847
g107
(dp848
sg116
g279
sg109
(lp849
g102
(g123
g104
NtRp850
(dp851
g107
(dp852
g127
g128
ssg116
g846
sg109
(lp853
S'session_id_welcome'
p854
asbag102
(g123
g104
NtRp855
(dp856
g107
(dp857
g134
g135
ssg116
g846
sg109
(lp858
S':'
asbag102
(g123
g104
NtRp859
(dp860
g107
(dp861
sg116
g846
sg109
(lp862
g102
(g103
g104
NtRp863
(dp864
g107
(dp865
g115
I4
ssg116
g859
sg109
(lp866
g102
(g111
g104
NtRp867
(dp868
g107
(dp869
g115
I3
ssg116
Nsg109
(lp870
g102
(g118
g104
NtRp871
(dp872
g107
(dp873
sg116
g867
sg109
(lp874
g102
(g123
g104
NtRp875
(dp876
g107
(dp877
g127
g128
ssg116
g871
sg109
(lp878
g316
asbag102
(g123
g104
NtRp879
(dp880
g107
(dp881
g134
g135
ssg116
g871
sg109
(lp882
S':'
asbag102
(g123
g104
NtRp883
(dp884
g107
(dp885
sg116
g871
sg109
(lp886
g102
(g103
g104
NtRp887
(dp888
g107
(dp889
g115
I3
ssg116
g883
sg109
(lp890
S''
asbasbasbag102
(g118
g104
NtRp891
(dp892
g107
(dp893
sg116
g867
sg109
(lp894
g102
(g123
g104
NtRp895
(dp896
g107
(dp897
g127
g128
ssg116
g891
sg109
(lp898
g337
asbag102
(g123
g104
NtRp899
(dp900
g107
(dp901
g134
g135
ssg116
g891
sg109
(lp902
S':'
asbag102
(g123
g104
NtRp903
(dp904
g107
(dp905
sg116
g891
sg109
(lp906
g102
(g103
g104
NtRp907
(dp908
g107
(dp909
g115
I3
ssg116
g903
sg109
(lp910
S''
asbasbasbag102
(g118
g104
NtRp911
(dp912
g107
(dp913
sg116
g867
sg109
(lp914
g102
(g123
g104
NtRp915
(dp916
g107
(dp917
g127
g128
ssg116
g911
sg109
(lp918
g358
asbag102
(g123
g104
NtRp919
(dp920
g107
(dp921
g134
g135
ssg116
g911
sg109
(lp922
S':'
asbag102
(g123
g104
NtRp923
(dp924
g107
(dp925
sg116
g911
sg109
(lp926
g102
(g103
g104
NtRp927
(dp928
g107
(dp929
g115
I3
ssg116
g923
sg109
(lp930
S''
asbasbasbag102
(g118
g104
NtRp931
(dp932
g107
(dp933
sg116
g867
sg109
(lp934
g102
(g123
g104
NtRp935
(dp936
g107
(dp937
g127
g128
ssg116
g931
sg109
(lp938
g379
asbag102
(g123
g104
NtRp939
(dp940
g107
(dp941
g134
g135
ssg116
g931
sg109
(lp942
S':'
asbag102
(g123
g104
NtRp943
(dp944
g107
(dp945
sg116
g931
sg109
(lp946
g102
(g103
g104
NtRp947
(dp948
g107
(dp949
g115
I3
ssg116
g943
sg109
(lp950
S''
asbasbasbag102
(g118
g104
NtRp951
(dp952
g107
(dp953
sg116
g867
sg109
(lp954
g102
(g123
g104
NtRp955
(dp956
g107
(dp957
g127
g128
ssg116
g951
sg109
(lp958
g400
asbag102
(g123
g104
NtRp959
(dp960
g107
(dp961
g134
g135
ssg116
g951
sg109
(lp962
S':'
asbag102
(g123
g104
NtRp963
(dp964
g107
(dp965
sg116
g951
sg109
(lp966
g102
(g103
g104
NtRp967
(dp968
g107
(dp969
g115
I3
ssg116
g963
sg109
(lp970
S''
asbasbasbag102
(g118
g104
NtRp971
(dp972
g107
(dp973
sg116
g867
sg109
(lp974
g102
(g123
g104
NtRp975
(dp976
g107
(dp977
g127
g128
ssg116
g971
sg109
(lp978
g421
asbag102
(g123
g104
NtRp979
(dp980
g107
(dp981
g134
g135
ssg116
g971
sg109
(lp982
S':'
asbag102
(g123
g104
NtRp983
(dp984
g107
(dp985
sg116
g971
sg109
(lp986
g102
(g103
g104
NtRp987
(dp988
g107
(dp989
g115
I3
ssg116
g983
sg109
(lp990
S''
asbasbasbag102
(g118
g104
NtRp991
(dp992
g107
(dp993
sg116
g867
sg109
(lp994
g102
(g123
g104
NtRp995
(dp996
g107
(dp997
g127
g128
ssg116
g991
sg109
(lp998
g442
asbag102
(g123
g104
NtRp999
(dp1000
g107
(dp1001
g134
g135
ssg116
g991
sg109
(lp1002
S':'
asbag102
(g123
g104
NtRp1003
(dp1004
g107
(dp1005
sg116
g991
sg109
(lp1006
g102
(g103
g104
NtRp1007
(dp1008
g107
(dp1009
g115
I3
ssg116
g1003
sg109
(lp1010
S''
asbasbasbag102
(g118
g104
NtRp1011
(dp1012
g107
(dp1013
sg116
g867
sg109
(lp1014
g102
(g123
g104
NtRp1015
(dp1016
g107
(dp1017
g127
g128
ssg116
g1011
sg109
(lp1018
g463
asbag102
(g123
g104
NtRp1019
(dp1020
g107
(dp1021
g134
g135
ssg116
g1011
sg109
(lp1022
S':'
asbag102
(g123
g104
NtRp1023
(dp1024
g107
(dp1025
sg116
g1011
sg109
(lp1026
g102
(g103
g104
NtRp1027
(dp1028
g107
(dp1029
g115
I3
ssg116
g1023
sg109
(lp1030
S''
asbasbasbasbasbasbasbasbasbasbasbag102
(g118
g104
NtRp1031
(dp1032
g107
(dp1033
sg116
g112
sg109
(lp1034
g102
(g123
g104
NtRp1035
(dp1036
g107
(dp1037
g127
g128
ssg116
g1031
sg109
(lp1038
S'env'
p1039
asbag102
(g123
g104
NtRp1040
(dp1041
g107
(dp1042
g134
g135
ssg116
g1031
sg109
(lp1043
S':'
asbag102
(g123
g104
NtRp1044
(dp1045
g107
(dp1046
sg116
g1031
sg109
(lp1047
g102
(g103
g104
NtRp1048
(dp1049
g107
(dp1050
g115
I5
ssg116
g1044
sg109
(lp1051
g102
(g111
g104
NtRp1052
(dp1053
g107
(dp1054
g115
I4
ssg116
Nsg109
(lp1055
g102
(g118
g104
NtRp1056
(dp1057
g107
(dp1058
sg116
g1052
sg109
(lp1059
g102
(g123
g104
NtRp1060
(dp1061
g107
(dp1062
g127
g128
ssg116
g1056
sg109
(lp1063
S'app_folders'
p1064
asbag102
(g123
g104
NtRp1065
(dp1066
g107
(dp1067
g134
g135
ssg116
g1056
sg109
(lp1068
S':'
asbag102
(g123
g104
NtRp1069
(dp1070
g107
(dp1071
sg116
g1056
sg109
(lp1072
g102
(g103
g104
NtRp1073
(dp1074
g107
(dp1075
g115
I4
ssg116
g1069
sg109
(lp1076
S"set(['/home/chitra/courses/SSAD/web2py/applications/cite_m22/', '/home/chitra/courses/SSAD/web2py/applications/welcome/', '/home/chitra/courses/SSAD/web2py/applications/cite_m5/', '/home/chitra/courses/SSAD/web2py/applications/admin/'])"
p1077
asbasbasbag102
(g118
g104
NtRp1078
(dp1079
g107
(dp1080
sg116
g1052
sg109
(lp1081
g102
(g123
g104
NtRp1082
(dp1083
g107
(dp1084
g127
g128
ssg116
g1078
sg109
(lp1085
S'applications_parent'
p1086
asbag102
(g123
g104
NtRp1087
(dp1088
g107
(dp1089
g134
g135
ssg116
g1078
sg109
(lp1090
S':'
asbag102
(g123
g104
NtRp1091
(dp1092
g107
(dp1093
sg116
g1078
sg109
(lp1094
g102
(g103
g104
NtRp1095
(dp1096
g107
(dp1097
g115
I4
ssg116
g1091
sg109
(lp1098
S'/home/chitra/courses/SSAD/web2py'
p1099
asbasbasbag102
(g118
g104
NtRp1100
(dp1101
g107
(dp1102
sg116
g1052
sg109
(lp1103
g102
(g123
g104
NtRp1104
(dp1105
g107
(dp1106
g127
g128
ssg116
g1100
sg109
(lp1107
S'cmd_args'
p1108
asbag102
(g123
g104
NtRp1109
(dp1110
g107
(dp1111
g134
g135
ssg116
g1100
sg109
(lp1112
S':'
asbag102
(g123
g104
NtRp1113
(dp1114
g107
(dp1115
sg116
g1100
sg109
(lp1116
g102
(g103
g104
NtRp1117
(dp1118
g107
(dp1119
g115
I4
ssg116
g1113
sg109
(lp1120
g102
(g111
g104
NtRp1121
(dp1122
g107
(dp1123
g115
I3
ssg116
Nsg109
(lp1124
sbasbasbasbag102
(g118
g104
NtRp1125
(dp1126
g107
(dp1127
sg116
g1052
sg109
(lp1128
g102
(g123
g104
NtRp1129
(dp1130
g107
(dp1131
g127
g128
ssg116
g1125
sg109
(lp1132
S'cmd_options'
p1133
asbag102
(g123
g104
NtRp1134
(dp1135
g107
(dp1136
g134
g135
ssg116
g1125
sg109
(lp1137
S':'
asbag102
(g123
g104
NtRp1138
(dp1139
g107
(dp1140
sg116
g1125
sg109
(lp1141
g102
(g103
g104
NtRp1142
(dp1143
g107
(dp1144
g115
I4
ssg116
g1138
sg109
(lp1145
S"<Values at 0x2bd8b48: {'verbose': False, 'ip': '127.0.0.1', 'shutdown_timeout': 5, 'taskbar': False, 'nocron': False, 'pid_filename': 'httpserver.pid', 'maxthreads': None, 'softcron': False, 'server_name': 'chitra-HP-Pavilion-dv6-Notebook-PC', 'bpython': False, 'nogui': False, 'port': 8000, 'extcron': False, 'debuglevel': 30, 'test': None, 'folder': '/home/chitra/courses/SSAD/web2py', 'config': '', 'import_models': False, 'winservice': '', 'shell': None, 'run': '', 'log_filename': 'httpserver.log', 'args': [''], 'socket_timeout': 5, 'ssl_ca_certificate': None, 'scheduler': None, 'profiler_filename': None, 'ssl_private_key': '', 'password': '<ask>', 'request_queue_size': 5, 'ssl_certificate': '', 'cronjob': False, 'numthreads': None, 'quiet': False, 'interfaces': None, 'minthreads': None, 'timeout': 10, 'plain': False, 'nobanner': False}>"
p1146
asbasbasbag102
(g118
g104
NtRp1147
(dp1148
g107
(dp1149
sg116
g1052
sg109
(lp1150
g102
(g123
g104
NtRp1151
(dp1152
g107
(dp1153
g127
g128
ssg116
g1147
sg109
(lp1154
S'db_sessions'
p1155
asbag102
(g123
g104
NtRp1156
(dp1157
g107
(dp1158
g134
g135
ssg116
g1147
sg109
(lp1159
S':'
asbag102
(g123
g104
NtRp1160
(dp1161
g107
(dp1162
sg116
g1147
sg109
(lp1163
g102
(g103
g104
NtRp1164
(dp1165
g107
(dp1166
g115
I4
ssg116
g1160
sg109
(lp1167
S'set([])'
p1168
asbasbasbag102
(g118
g104
NtRp1169
(dp1170
g107
(dp1171
sg116
g1052
sg109
(lp1172
g102
(g123
g104
NtRp1173
(dp1174
g107
(dp1175
g127
g128
ssg116
g1169
sg109
(lp1176
S'debugging'
p1177
asbag102
(g123
g104
NtRp1178
(dp1179
g107
(dp1180
g134
g135
ssg116
g1169
sg109
(lp1181
S':'
asbag102
(g123
g104
NtRp1182
(dp1183
g107
(dp1184
sg116
g1169
sg109
(lp1185
g102
(g103
g104
NtRp1186
(dp1187
g107
(dp1188
g115
I4
ssg116
g1182
sg109
(lp1189
g145
asbasbasbag102
(g118
g104
NtRp1190
(dp1191
g107
(dp1192
sg116
g1052
sg109
(lp1193
g102
(g123
g104
NtRp1194
(dp1195
g107
(dp1196
g127
g128
ssg116
g1190
sg109
(lp1197
S'gluon_parent'
p1198
asbag102
(g123
g104
NtRp1199
(dp1200
g107
(dp1201
g134
g135
ssg116
g1190
sg109
(lp1202
S':'
asbag102
(g123
g104
NtRp1203
(dp1204
g107
(dp1205
sg116
g1190
sg109
(lp1206
g102
(g103
g104
NtRp1207
(dp1208
g107
(dp1209
g115
I4
ssg116
g1203
sg109
(lp1210
S'/home/chitra/courses/SSAD/web2py'
p1211
asbasbasbag102
(g118
g104
NtRp1212
(dp1213
g107
(dp1214
sg116
g1052
sg109
(lp1215
g102
(g123
g104
NtRp1216
(dp1217
g107
(dp1218
g127
g128
ssg116
g1212
sg109
(lp1219
S'http_accept'
p1220
asbag102
(g123
g104
NtRp1221
(dp1222
g107
(dp1223
g134
g135
ssg116
g1212
sg109
(lp1224
S':'
asbag102
(g123
g104
NtRp1225
(dp1226
g107
(dp1227
sg116
g1212
sg109
(lp1228
g102
(g103
g104
NtRp1229
(dp1230
g107
(dp1231
g115
I4
ssg116
g1225
sg109
(lp1232
S'text/html,application/xhtml+xml,application/xml;q=0.9,*/*;q=0.8'
p1233
asbasbasbag102
(g118
g104
NtRp1234
(dp1235
g107
(dp1236
sg116
g1052
sg109
(lp1237
g102
(g123
g104
NtRp1238
(dp1239
g107
(dp1240
g127
g128
ssg116
g1234
sg109
(lp1241
S'http_accept_encoding'
p1242
asbag102
(g123
g104
NtRp1243
(dp1244
g107
(dp1245
g134
g135
ssg116
g1234
sg109
(lp1246
S':'
asbag102
(g123
g104
NtRp1247
(dp1248
g107
(dp1249
sg116
g1234
sg109
(lp1250
g102
(g103
g104
NtRp1251
(dp1252
g107
(dp1253
g115
I4
ssg116
g1247
sg109
(lp1254
S'gzip, deflate'
p1255
asbasbasbag102
(g118
g104
NtRp1256
(dp1257
g107
(dp1258
sg116
g1052
sg109
(lp1259
g102
(g123
g104
NtRp1260
(dp1261
g107
(dp1262
g127
g128
ssg116
g1256
sg109
(lp1263
S'http_accept_language'
p1264
asbag102
(g123
g104
NtRp1265
(dp1266
g107
(dp1267
g134
g135
ssg116
g1256
sg109
(lp1268
S':'
asbag102
(g123
g104
NtRp1269
(dp1270
g107
(dp1271
sg116
g1256
sg109
(lp1272
g102
(g103
g104
NtRp1273
(dp1274
g107
(dp1275
g115
I4
ssg116
g1269
sg109
(lp1276
S'en-us,en;q=0.5'
p1277
asbasbasbag102
(g118
g104
NtRp1278
(dp1279
g107
(dp1280
sg116
g1052
sg109
(lp1281
g102
(g123
g104
NtRp1282
(dp1283
g107
(dp1284
g127
g128
ssg116
g1278
sg109
(lp1285
S'http_connection'
p1286
asbag102
(g123
g104
NtRp1287
(dp1288
g107
(dp1289
g134
g135
ssg116
g1278
sg109
(lp1290
S':'
asbag102
(g123
g104
NtRp1291
(dp1292
g107
(dp1293
sg116
g1278
sg109
(lp1294
g102
(g103
g104
NtRp1295
(dp1296
g107
(dp1297
g115
I4
ssg116
g1291
sg109
(lp1298
S'keep-alive'
p1299
asbasbasbag102
(g118
g104
NtRp1300
(dp1301
g107
(dp1302
sg116
g1052
sg109
(lp1303
g102
(g123
g104
NtRp1304
(dp1305
g107
(dp1306
g127
g128
ssg116
g1300
sg109
(lp1307
S'http_cookie'
p1308
asbag102
(g123
g104
NtRp1309
(dp1310
g107
(dp1311
g134
g135
ssg116
g1300
sg109
(lp1312
S':'
asbag102
(g123
g104
NtRp1313
(dp1314
g107
(dp1315
sg116
g1300
sg109
(lp1316
g102
(g103
g104
NtRp1317
(dp1318
g107
(dp1319
g115
I4
ssg116
g1313
sg109
(lp1320
S'session_id_welcome=127.0.0.1-a6c88c71-9608-4012-94c8-79cd2d75eafa; session_id_cite_m22=127.0.0.1-e3dcd446-1fd1-4868-b5d1-7f33d9a6d234; session_id_cite_m5=127.0.0.1-6b5fef13-ab11-4a8b-a8a1-45e33faa95ff; session_id_admin=127.0.0.1-70cad1ca-c74c-4e34-a495-678fca9189ef'
p1321
asbasbasbag102
(g118
g104
NtRp1322
(dp1323
g107
(dp1324
sg116
g1052
sg109
(lp1325
g102
(g123
g104
NtRp1326
(dp1327
g107
(dp1328
g127
g128
ssg116
g1322
sg109
(lp1329
S'http_host'
p1330
asbag102
(g123
g104
NtRp1331
(dp1332
g107
(dp1333
g134
g135
ssg116
g1322
sg109
(lp1334
S':'
asbag102
(g123
g104
NtRp1335
(dp1336
g107
(dp1337
sg116
g1322
sg109
(lp1338
g102
(g103
g104
NtRp1339
(dp1340
g107
(dp1341
g115
I4
ssg116
g1335
sg109
(lp1342
S'127.0.0.1:8000'
p1343
asbasbasbag102
(g118
g104
NtRp1344
(dp1345
g107
(dp1346
sg116
g1052
sg109
(lp1347
g102
(g123
g104
NtRp1348
(dp1349
g107
(dp1350
g127
g128
ssg116
g1344
sg109
(lp1351
S'http_referer'
p1352
asbag102
(g123
g104
NtRp1353
(dp1354
g107
(dp1355
g134
g135
ssg116
g1344
sg109
(lp1356
S':'
asbag102
(g123
g104
NtRp1357
(dp1358
g107
(dp1359
sg116
g1344
sg109
(lp1360
g102
(g103
g104
NtRp1361
(dp1362
g107
(dp1363
g115
I4
ssg116
g1357
sg109
(lp1364
S'http://127.0.0.1:8000/cite_m5/default/index'
p1365
asbasbasbag102
(g118
g104
NtRp1366
(dp1367
g107
(dp1368
sg116
g1052
sg109
(lp1369
g102
(g123
g104
NtRp1370
(dp1371
g107
(dp1372
g127
g128
ssg116
g1366
sg109
(lp1373
S'http_user_agent'
p1374
asbag102
(g123
g104
NtRp1375
(dp1376
g107
(dp1377
g134
g135
ssg116
g1366
sg109
(lp1378
S':'
asbag102
(g123
g104
NtRp1379
(dp1380
g107
(dp1381
sg116
g1366
sg109
(lp1382
g102
(g103
g104
NtRp1383
(dp1384
g107
(dp1385
g115
I4
ssg116
g1379
sg109
(lp1386
S'Mozilla/5.0 (X11; Ubuntu; Linux x86_64; rv:13.0) Gecko/20100101 Firefox/13.0.1'
p1387
asbasbasbag102
(g118
g104
NtRp1388
(dp1389
g107
(dp1390
sg116
g1052
sg109
(lp1391
g102
(g123
g104
NtRp1392
(dp1393
g107
(dp1394
g127
g128
ssg116
g1388
sg109
(lp1395
S'is_jython'
p1396
asbag102
(g123
g104
NtRp1397
(dp1398
g107
(dp1399
g134
g135
ssg116
g1388
sg109
(lp1400
S':'
asbag102
(g123
g104
NtRp1401
(dp1402
g107
(dp1403
sg116
g1388
sg109
(lp1404
g102
(g103
g104
NtRp1405
(dp1406
g107
(dp1407
g115
I4
ssg116
g1401
sg109
(lp1408
g145
asbasbasbag102
(g118
g104
NtRp1409
(dp1410
g107
(dp1411
sg116
g1052
sg109
(lp1412
g102
(g123
g104
NtRp1413
(dp1414
g107
(dp1415
g127
g128
ssg116
g1409
sg109
(lp1416
S'is_pypy'
p1417
asbag102
(g123
g104
NtRp1418
(dp1419
g107
(dp1420
g134
g135
ssg116
g1409
sg109
(lp1421
S':'
asbag102
(g123
g104
NtRp1422
(dp1423
g107
(dp1424
sg116
g1409
sg109
(lp1425
g102
(g103
g104
NtRp1426
(dp1427
g107
(dp1428
g115
I4
ssg116
g1422
sg109
(lp1429
g145
asbasbasbag102
(g118
g104
NtRp1430
(dp1431
g107
(dp1432
sg116
g1052
sg109
(lp1433
g102
(g123
g104
NtRp1434
(dp1435
g107
(dp1436
g127
g128
ssg116
g1430
sg109
(lp1437
S'path_info'
p1438
asbag102
(g123
g104
NtRp1439
(dp1440
g107
(dp1441
g134
g135
ssg116
g1430
sg109
(lp1442
S':'
asbag102
(g123
g104
NtRp1443
(dp1444
g107
(dp1445
sg116
g1430
sg109
(lp1446
g102
(g103
g104
NtRp1447
(dp1448
g107
(dp1449
g115
I4
ssg116
g1443
sg109
(lp1450
S'/cite_m5/default/final_ans'
p1451
asbasbasbag102
(g118
g104
NtRp1452
(dp1453
g107
(dp1454
sg116
g1052
sg109
(lp1455
g102
(g123
g104
NtRp1456
(dp1457
g107
(dp1458
g127
g128
ssg116
g1452
sg109
(lp1459
S'query_string'
p1460
asbag102
(g123
g104
NtRp1461
(dp1462
g107
(dp1463
g134
g135
ssg116
g1452
sg109
(lp1464
S':'
asbag102
(g123
g104
NtRp1465
(dp1466
g107
(dp1467
sg116
g1452
sg109
(lp1468
g102
(g103
g104
NtRp1469
(dp1470
g107
(dp1471
g115
I4
ssg116
g1465
sg109
(lp1472
S''
asbasbasbag102
(g118
g104
NtRp1473
(dp1474
g107
(dp1475
sg116
g1052
sg109
(lp1476
g102
(g123
g104
NtRp1477
(dp1478
g107
(dp1479
g127
g128
ssg116
g1473
sg109
(lp1480
S'remote_addr'
p1481
asbag102
(g123
g104
NtRp1482
(dp1483
g107
(dp1484
g134
g135
ssg116
g1473
sg109
(lp1485
S':'
asbag102
(g123
g104
NtRp1486
(dp1487
g107
(dp1488
sg116
g1473
sg109
(lp1489
g102
(g103
g104
NtRp1490
(dp1491
g107
(dp1492
g115
I4
ssg116
g1486
sg109
(lp1493
g235
asbasbasbag102
(g118
g104
NtRp1494
(dp1495
g107
(dp1496
sg116
g1052
sg109
(lp1497
g102
(g123
g104
NtRp1498
(dp1499
g107
(dp1500
g127
g128
ssg116
g1494
sg109
(lp1501
S'remote_port'
p1502
asbag102
(g123
g104
NtRp1503
(dp1504
g107
(dp1505
g134
g135
ssg116
g1494
sg109
(lp1506
S':'
asbag102
(g123
g104
NtRp1507
(dp1508
g107
(dp1509
sg116
g1494
sg109
(lp1510
g102
(g103
g104
NtRp1511
(dp1512
g107
(dp1513
g115
I4
ssg116
g1507
sg109
(lp1514
S'43502'
p1515
asbasbasbag102
(g118
g104
NtRp1516
(dp1517
g107
(dp1518
sg116
g1052
sg109
(lp1519
g102
(g123
g104
NtRp1520
(dp1521
g107
(dp1522
g127
g128
ssg116
g1516
sg109
(lp1523
S'request_method'
p1524
asbag102
(g123
g104
NtRp1525
(dp1526
g107
(dp1527
g134
g135
ssg116
g1516
sg109
(lp1528
S':'
asbag102
(g123
g104
NtRp1529
(dp1530
g107
(dp1531
sg116
g1516
sg109
(lp1532
g102
(g103
g104
NtRp1533
(dp1534
g107
(dp1535
g115
I4
ssg116
g1529
sg109
(lp1536
S'GET'
p1537
asbasbasbag102
(g118
g104
NtRp1538
(dp1539
g107
(dp1540
sg116
g1052
sg109
(lp1541
g102
(g123
g104
NtRp1542
(dp1543
g107
(dp1544
g127
g128
ssg116
g1538
sg109
(lp1545
S'script_name'
p1546
asbag102
(g123
g104
NtRp1547
(dp1548
g107
(dp1549
g134
g135
ssg116
g1538
sg109
(lp1550
S':'
asbag102
(g123
g104
NtRp1551
(dp1552
g107
(dp1553
sg116
g1538
sg109
(lp1554
g102
(g103
g104
NtRp1555
(dp1556
g107
(dp1557
g115
I4
ssg116
g1551
sg109
(lp1558
S''
asbasbasbag102
(g118
g104
NtRp1559
(dp1560
g107
(dp1561
sg116
g1052
sg109
(lp1562
g102
(g123
g104
NtRp1563
(dp1564
g107
(dp1565
g127
g128
ssg116
g1559
sg109
(lp1566
S'server_name'
p1567
asbag102
(g123
g104
NtRp1568
(dp1569
g107
(dp1570
g134
g135
ssg116
g1559
sg109
(lp1571
S':'
asbag102
(g123
g104
NtRp1572
(dp1573
g107
(dp1574
sg116
g1559
sg109
(lp1575
g102
(g103
g104
NtRp1576
(dp1577
g107
(dp1578
g115
I4
ssg116
g1572
sg109
(lp1579
S'chitra-HP-Pavilion-dv6-Notebook-PC'
p1580
asbasbasbag102
(g118
g104
NtRp1581
(dp1582
g107
(dp1583
sg116
g1052
sg109
(lp1584
g102
(g123
g104
NtRp1585
(dp1586
g107
(dp1587
g127
g128
ssg116
g1581
sg109
(lp1588
S'server_port'
p1589
asbag102
(g123
g104
NtRp1590
(dp1591
g107
(dp1592
g134
g135
ssg116
g1581
sg109
(lp1593
S':'
asbag102
(g123
g104
NtRp1594
(dp1595
g107
(dp1596
sg116
g1581
sg109
(lp1597
g102
(g103
g104
NtRp1598
(dp1599
g107
(dp1600
g115
I4
ssg116
g1594
sg109
(lp1601
S'8000'
p1602
asbasbasbag102
(g118
g104
NtRp1603
(dp1604
g107
(dp1605
sg116
g1052
sg109
(lp1606
g102
(g123
g104
NtRp1607
(dp1608
g107
(dp1609
g127
g128
ssg116
g1603
sg109
(lp1610
S'server_protocol'
p1611
asbag102
(g123
g104
NtRp1612
(dp1613
g107
(dp1614
g134
g135
ssg116
g1603
sg109
(lp1615
S':'
asbag102
(g123
g104
NtRp1616
(dp1617
g107
(dp1618
sg116
g1603
sg109
(lp1619
g102
(g103
g104
NtRp1620
(dp1621
g107
(dp1622
g115
I4
ssg116
g1616
sg109
(lp1623
S'HTTP/1.1'
p1624
asbasbasbag102
(g118
g104
NtRp1625
(dp1626
g107
(dp1627
sg116
g1052
sg109
(lp1628
g102
(g123
g104
NtRp1629
(dp1630
g107
(dp1631
g127
g128
ssg116
g1625
sg109
(lp1632
S'server_software'
p1633
asbag102
(g123
g104
NtRp1634
(dp1635
g107
(dp1636
g134
g135
ssg116
g1625
sg109
(lp1637
S':'
asbag102
(g123
g104
NtRp1638
(dp1639
g107
(dp1640
sg116
g1625
sg109
(lp1641
g102
(g103
g104
NtRp1642
(dp1643
g107
(dp1644
g115
I4
ssg116
g1638
sg109
(lp1645
S'Rocket 1.2.4'
p1646
asbasbasbag102
(g118
g104
NtRp1647
(dp1648
g107
(dp1649
sg116
g1052
sg109
(lp1650
g102
(g123
g104
NtRp1651
(dp1652
g107
(dp1653
g127
g128
ssg116
g1647
sg109
(lp1654
S'web2py_crontype'
p1655
asbag102
(g123
g104
NtRp1656
(dp1657
g107
(dp1658
g134
g135
ssg116
g1647
sg109
(lp1659
S':'
asbag102
(g123
g104
NtRp1660
(dp1661
g107
(dp1662
sg116
g1647
sg109
(lp1663
g102
(g103
g104
NtRp1664
(dp1665
g107
(dp1666
g115
I4
ssg116
g1660
sg109
(lp1667
S'hard'
p1668
asbasbasbag102
(g118
g104
NtRp1669
(dp1670
g107
(dp1671
sg116
g1052
sg109
(lp1672
g102
(g123
g104
NtRp1673
(dp1674
g107
(dp1675
g127
g128
ssg116
g1669
sg109
(lp1676
S'web2py_path'
p1677
asbag102
(g123
g104
NtRp1678
(dp1679
g107
(dp1680
g134
g135
ssg116
g1669
sg109
(lp1681
S':'
asbag102
(g123
g104
NtRp1682
(dp1683
g107
(dp1684
sg116
g1669
sg109
(lp1685
g102
(g103
g104
NtRp1686
(dp1687
g107
(dp1688
g115
I4
ssg116
g1682
sg109
(lp1689
g1099
asbasbasbag102
(g118
g104
NtRp1690
(dp1691
g107
(dp1692
sg116
g1052
sg109
(lp1693
g102
(g123
g104
NtRp1694
(dp1695
g107
(dp1696
g127
g128
ssg116
g1690
sg109
(lp1697
S'web2py_version'
p1698
asbag102
(g123
g104
NtRp1699
(dp1700
g107
(dp1701
g134
g135
ssg116
g1690
sg109
(lp1702
S':'
asbag102
(g123
g104
NtRp1703
(dp1704
g107
(dp1705
sg116
g1690
sg109
(lp1706
g102
(g103
g104
NtRp1707
(dp1708
g107
(dp1709
g115
I4
ssg116
g1703
sg109
(lp1710
g102
(g111
g104
NtRp1711
(dp1712
g107
(dp1713
g115
I3
ssg116
Nsg109
(lp1714
g102
(g118
g104
NtRp1715
(dp1716
g107
(dp1717
sg116
g1711
sg109
(lp1718
g102
(g123
g104
NtRp1719
(dp1720
g107
(dp1721
sg116
g1715
sg109
(lp1722
g102
(g103
g104
NtRp1723
(dp1724
g107
(dp1725
g115
I3
ssg116
g1719
sg109
(lp1726
S'1'
asbasbasbag102
(g118
g104
NtRp1727
(dp1728
g107
(dp1729
sg116
g1711
sg109
(lp1730
g102
(g123
g104
NtRp1731
(dp1732
g107
(dp1733
sg116
g1727
sg109
(lp1734
g102
(g103
g104
NtRp1735
(dp1736
g107
(dp1737
g115
I3
ssg116
g1731
sg109
(lp1738
S'99'
p1739
asbasbasbag102
(g118
g104
NtRp1740
(dp1741
g107
(dp1742
sg116
g1711
sg109
(lp1743
g102
(g123
g104
NtRp1744
(dp1745
g107
(dp1746
sg116
g1740
sg109
(lp1747
g102
(g103
g104
NtRp1748
(dp1749
g107
(dp1750
g115
I3
ssg116
g1744
sg109
(lp1751
S'7'
asbasbasbag102
(g118
g104
NtRp1752
(dp1753
g107
(dp1754
sg116
g1711
sg109
(lp1755
g102
(g123
g104
NtRp1756
(dp1757
g107
(dp1758
sg116
g1752
sg109
(lp1759
g102
(g103
g104
NtRp1760
(dp1761
g107
(dp1762
g115
I3
ssg116
g1756
sg109
(lp1763
S'datetime.datetime(2012, 3, 4, 22, 12, 8)'
p1764
asbasbasbag102
(g118
g104
NtRp1765
(dp1766
g107
(dp1767
sg116
g1711
sg109
(lp1768
g102
(g123
g104
NtRp1769
(dp1770
g107
(dp1771
sg116
g1765
sg109
(lp1772
g102
(g103
g104
NtRp1773
(dp1774
g107
(dp1775
g115
I3
ssg116
g1769
sg109
(lp1776
S'stable'
p1777
asbasbasbasbasbasbasbag102
(g118
g104
NtRp1778
(dp1779
g107
(dp1780
sg116
g1052
sg109
(lp1781
g102
(g123
g104
NtRp1782
(dp1783
g107
(dp1784
g127
g128
ssg116
g1778
sg109
(lp1785
S'wsgi_errors'
p1786
asbag102
(g123
g104
NtRp1787
(dp1788
g107
(dp1789
g134
g135
ssg116
g1778
sg109
(lp1790
S':'
asbag102
(g123
g104
NtRp1791
(dp1792
g107
(dp1793
sg116
g1778
sg109
(lp1794
g102
(g103
g104
NtRp1795
(dp1796
g107
(dp1797
g115
I4
ssg116
g1791
sg109
(lp1798
S"<open file '<stderr>', mode 'w' at 0x7fbdb8040270>"
p1799
asbasbasbag102
(g118
g104
NtRp1800
(dp1801
g107
(dp1802
sg116
g1052
sg109
(lp1803
g102
(g123
g104
NtRp1804
(dp1805
g107
(dp1806
g127
g128
ssg116
g1800
sg109
(lp1807
S'wsgi_file_wrapper'
p1808
asbag102
(g123
g104
NtRp1809
(dp1810
g107
(dp1811
g134
g135
ssg116
g1800
sg109
(lp1812
S':'
asbag102
(g123
g104
NtRp1813
(dp1814
g107
(dp1815
sg116
g1800
sg109
(lp1816
g102
(g103
g104
NtRp1817
(dp1818
g107
(dp1819
g115
I4
ssg116
g1813
sg109
(lp1820
S'<class wsgiref.util.FileWrapper at 0x2ac6120>'
p1821
asbasbasbag102
(g118
g104
NtRp1822
(dp1823
g107
(dp1824
sg116
g1052
sg109
(lp1825
g102
(g123
g104
NtRp1826
(dp1827
g107
(dp1828
g127
g128
ssg116
g1822
sg109
(lp1829
S'wsgi_input'
p1830
asbag102
(g123
g104
NtRp1831
(dp1832
g107
(dp1833
g134
g135
ssg116
g1822
sg109
(lp1834
S':'
asbag102
(g123
g104
NtRp1835
(dp1836
g107
(dp1837
sg116
g1822
sg109
(lp1838
g102
(g103
g104
NtRp1839
(dp1840
g107
(dp1841
g115
I4
ssg116
g1835
sg109
(lp1842
S'<socket._fileobject object at 0x7fbd887483d0>'
p1843
asbasbasbag102
(g118
g104
NtRp1844
(dp1845
g107
(dp1846
sg116
g1052
sg109
(lp1847
g102
(g123
g104
NtRp1848
(dp1849
g107
(dp1850
g127
g128
ssg116
g1844
sg109
(lp1851
S'wsgi_multiprocess'
p1852
asbag102
(g123
g104
NtRp1853
(dp1854
g107
(dp1855
g134
g135
ssg116
g1844
sg109
(lp1856
S':'
asbag102
(g123
g104
NtRp1857
(dp1858
g107
(dp1859
sg116
g1844
sg109
(lp1860
g102
(g103
g104
NtRp1861
(dp1862
g107
(dp1863
g115
I4
ssg116
g1857
sg109
(lp1864
g145
asbasbasbag102
(g118
g104
NtRp1865
(dp1866
g107
(dp1867
sg116
g1052
sg109
(lp1868
g102
(g123
g104
NtRp1869
(dp1870
g107
(dp1871
g127
g128
ssg116
g1865
sg109
(lp1872
S'wsgi_multithread'
p1873
asbag102
(g123
g104
NtRp1874
(dp1875
g107
(dp1876
g134
g135
ssg116
g1865
sg109
(lp1877
S':'
asbag102
(g123
g104
NtRp1878
(dp1879
g107
(dp1880
sg116
g1865
sg109
(lp1881
g102
(g103
g104
NtRp1882
(dp1883
g107
(dp1884
g115
I4
ssg116
g1878
sg109
(lp1885
S'True'
p1886
asbasbasbag102
(g118
g104
NtRp1887
(dp1888
g107
(dp1889
sg116
g1052
sg109
(lp1890
g102
(g123
g104
NtRp1891
(dp1892
g107
(dp1893
g127
g128
ssg116
g1887
sg109
(lp1894
S'wsgi_run_once'
p1895
asbag102
(g123
g104
NtRp1896
(dp1897
g107
(dp1898
g134
g135
ssg116
g1887
sg109
(lp1899
S':'
asbag102
(g123
g104
NtRp1900
(dp1901
g107
(dp1902
sg116
g1887
sg109
(lp1903
g102
(g103
g104
NtRp1904
(dp1905
g107
(dp1906
g115
I4
ssg116
g1900
sg109
(lp1907
g145
asbasbasbag102
(g118
g104
NtRp1908
(dp1909
g107
(dp1910
sg116
g1052
sg109
(lp1911
g102
(g123
g104
NtRp1912
(dp1913
g107
(dp1914
g127
g128
ssg116
g1908
sg109
(lp1915
S'wsgi_url_scheme'
p1916
asbag102
(g123
g104
NtRp1917
(dp1918
g107
(dp1919
g134
g135
ssg116
g1908
sg109
(lp1920
S':'
asbag102
(g123
g104
NtRp1921
(dp1922
g107
(dp1923
sg116
g1908
sg109
(lp1924
g102
(g103
g104
NtRp1925
(dp1926
g107
(dp1927
g115
I4
ssg116
g1921
sg109
(lp1928
S'http'
p1929
asbasbasbag102
(g118
g104
NtRp1930
(dp1931
g107
(dp1932
sg116
g1052
sg109
(lp1933
g102
(g123
g104
NtRp1934
(dp1935
g107
(dp1936
g127
g128
ssg116
g1930
sg109
(lp1937
S'wsgi_version'
p1938
asbag102
(g123
g104
NtRp1939
(dp1940
g107
(dp1941
g134
g135
ssg116
g1930
sg109
(lp1942
S':'
asbag102
(g123
g104
NtRp1943
(dp1944
g107
(dp1945
sg116
g1930
sg109
(lp1946
g102
(g103
g104
NtRp1947
(dp1948
g107
(dp1949
g115
I4
ssg116
g1943
sg109
(lp1950
g102
(g111
g104
NtRp1951
(dp1952
g107
(dp1953
g115
I3
ssg116
Nsg109
(lp1954
g102
(g118
g104
NtRp1955
(dp1956
g107
(dp1957
sg116
g1951
sg109
(lp1958
g102
(g123
g104
NtRp1959
(dp1960
g107
(dp1961
sg116
g1955
sg109
(lp1962
g102
(g103
g104
NtRp1963
(dp1964
g107
(dp1965
g115
I3
ssg116
g1959
sg109
(lp1966
S'1'
asbasbasbag102
(g118
g104
NtRp1967
(dp1968
g107
(dp1969
sg116
g1951
sg109
(lp1970
g102
(g123
g104
NtRp1971
(dp1972
g107
(dp1973
sg116
g1967
sg109
(lp1974
g102
(g103
g104
NtRp1975
(dp1976
g107
(dp1977
g115
I3
ssg116
g1971
sg109
(lp1978
S'0'
asbasbasbasbasbasbasbasbasbasbasbag102
(g118
g104
NtRp1979
(dp1980
g107
(dp1981
sg116
g112
sg109
(lp1982
g102
(g123
g104
NtRp1983
(dp1984
g107
(dp1985
g127
g128
ssg116
g1979
sg109
(lp1986
S'extension'
p1987
asbag102
(g123
g104
NtRp1988
(dp1989
g107
(dp1990
g134
g135
ssg116
g1979
sg109
(lp1991
S':'
asbag102
(g123
g104
NtRp1992
(dp1993
g107
(dp1994
sg116
g1979
sg109
(lp1995
g102
(g103
g104
NtRp1996
(dp1997
g107
(dp1998
g115
I5
ssg116
g1992
sg109
(lp1999
S'html'
p2000
asbasbasbag102
(g118
g104
NtRp2001
(dp2002
g107
(dp2003
sg116
g112
sg109
(lp2004
g102
(g123
g104
NtRp2005
(dp2006
g107
(dp2007
g127
g128
ssg116
g2001
sg109
(lp2008
S'folder'
p2009
asbag102
(g123
g104
NtRp2010
(dp2011
g107
(dp2012
g134
g135
ssg116
g2001
sg109
(lp2013
S':'
asbag102
(g123
g104
NtRp2014
(dp2015
g107
(dp2016
sg116
g2001
sg109
(lp2017
g102
(g103
g104
NtRp2018
(dp2019
g107
(dp2020
g115
I5
ssg116
g2014
sg109
(lp2021
S'/home/chitra/courses/SSAD/web2py/applications/cite_m5/'
p2022
asbasbasbag102
(g118
g104
NtRp2023
(dp2024
g107
(dp2025
sg116
g112
sg109
(lp2026
g102
(g123
g104
NtRp2027
(dp2028
g107
(dp2029
g127
g128
ssg116
g2023
sg109
(lp2030
S'function'
p2031
asbag102
(g123
g104
NtRp2032
(dp2033
g107
(dp2034
g134
g135
ssg116
g2023
sg109
(lp2035
S':'
asbag102
(g123
g104
NtRp2036
(dp2037
g107
(dp2038
sg116
g2023
sg109
(lp2039
g102
(g103
g104
NtRp2040
(dp2041
g107
(dp2042
g115
I5
ssg116
g2036
sg109
(lp2043
S'final_ans'
p2044
asbasbasbag102
(g118
g104
NtRp2045
(dp2046
g107
(dp2047
sg116
g112
sg109
(lp2048
g102
(g123
g104
NtRp2049
(dp2050
g107
(dp2051
g127
g128
ssg116
g2045
sg109
(lp2052
S'get_vars'
p2053
asbag102
(g123
g104
NtRp2054
(dp2055
g107
(dp2056
g134
g135
ssg116
g2045
sg109
(lp2057
S':'
asbag102
(g123
g104
NtRp2058
(dp2059
g107
(dp2060
sg116
g2045
sg109
(lp2061
g102
(g103
g104
NtRp2062
(dp2063
g107
(dp2064
g115
I5
ssg116
g2058
sg109
(lp2065
g102
(g111
g104
NtRp2066
(dp2067
g107
(dp2068
g115
I4
ssg116
Nsg109
(lp2069
sbasbasbasbag102
(g118
g104
NtRp2070
(dp2071
g107
(dp2072
sg116
g112
sg109
(lp2073
g102
(g123
g104
NtRp2074
(dp2075
g107
(dp2076
g127
g128
ssg116
g2070
sg109
(lp2077
S'global_settings'
p2078
asbag102
(g123
g104
NtRp2079
(dp2080
g107
(dp2081
g134
g135
ssg116
g2070
sg109
(lp2082
S':'
asbag102
(g123
g104
NtRp2083
(dp2084
g107
(dp2085
sg116
g2070
sg109
(lp2086
g102
(g103
g104
NtRp2087
(dp2088
g107
(dp2089
g115
I5
ssg116
g2083
sg109
(lp2090
g102
(g111
g104
NtRp2091
(dp2092
g107
(dp2093
g115
I4
ssg116
Nsg109
(lp2094
g102
(g118
g104
NtRp2095
(dp2096
g107
(dp2097
sg116
g2091
sg109
(lp2098
g102
(g123
g104
NtRp2099
(dp2100
g107
(dp2101
g127
g128
ssg116
g2095
sg109
(lp2102
g1064
asbag102
(g123
g104
NtRp2103
(dp2104
g107
(dp2105
g134
g135
ssg116
g2095
sg109
(lp2106
S':'
asbag102
(g123
g104
NtRp2107
(dp2108
g107
(dp2109
sg116
g2095
sg109
(lp2110
g102
(g103
g104
NtRp2111
(dp2112
g107
(dp2113
g115
I4
ssg116
g2107
sg109
(lp2114
S"set(['/home/chitra/courses/SSAD/web2py/applications/cite_m22/', '/home/chitra/courses/SSAD/web2py/applications/welcome/', '/home/chitra/courses/SSAD/web2py/applications/cite_m5/', '/home/chitra/courses/SSAD/web2py/applications/admin/'])"
p2115
asbasbasbag102
(g118
g104
NtRp2116
(dp2117
g107
(dp2118
sg116
g2091
sg109
(lp2119
g102
(g123
g104
NtRp2120
(dp2121
g107
(dp2122
g127
g128
ssg116
g2116
sg109
(lp2123
g1086
asbag102
(g123
g104
NtRp2124
(dp2125
g107
(dp2126
g134
g135
ssg116
g2116
sg109
(lp2127
S':'
asbag102
(g123
g104
NtRp2128
(dp2129
g107
(dp2130
sg116
g2116
sg109
(lp2131
g102
(g103
g104
NtRp2132
(dp2133
g107
(dp2134
g115
I4
ssg116
g2128
sg109
(lp2135
g1099
asbasbasbag102
(g118
g104
NtRp2136
(dp2137
g107
(dp2138
sg116
g2091
sg109
(lp2139
g102
(g123
g104
NtRp2140
(dp2141
g107
(dp2142
g127
g128
ssg116
g2136
sg109
(lp2143
g1108
asbag102
(g123
g104
NtRp2144
(dp2145
g107
(dp2146
g134
g135
ssg116
g2136
sg109
(lp2147
S':'
asbag102
(g123
g104
NtRp2148
(dp2149
g107
(dp2150
sg116
g2136
sg109
(lp2151
g102
(g103
g104
NtRp2152
(dp2153
g107
(dp2154
g115
I4
ssg116
g2148
sg109
(lp2155
g102
(g111
g104
NtRp2156
(dp2157
g107
(dp2158
g115
I3
ssg116
Nsg109
(lp2159
sbasbasbasbag102
(g118
g104
NtRp2160
(dp2161
g107
(dp2162
sg116
g2091
sg109
(lp2163
g102
(g123
g104
NtRp2164
(dp2165
g107
(dp2166
g127
g128
ssg116
g2160
sg109
(lp2167
g1133
asbag102
(g123
g104
NtRp2168
(dp2169
g107
(dp2170
g134
g135
ssg116
g2160
sg109
(lp2171
S':'
asbag102
(g123
g104
NtRp2172
(dp2173
g107
(dp2174
sg116
g2160
sg109
(lp2175
g102
(g103
g104
NtRp2176
(dp2177
g107
(dp2178
g115
I4
ssg116
g2172
sg109
(lp2179
S"<Values at 0x2bd8b48: {'verbose': False, 'ip': '127.0.0.1', 'shutdown_timeout': 5, 'taskbar': False, 'nocron': False, 'pid_filename': 'httpserver.pid', 'maxthreads': None, 'softcron': False, 'server_name': 'chitra-HP-Pavilion-dv6-Notebook-PC', 'bpython': False, 'nogui': False, 'port': 8000, 'extcron': False, 'debuglevel': 30, 'test': None, 'folder': '/home/chitra/courses/SSAD/web2py', 'config': '', 'import_models': False, 'winservice': '', 'shell': None, 'run': '', 'log_filename': 'httpserver.log', 'args': [''], 'socket_timeout': 5, 'ssl_ca_certificate': None, 'scheduler': None, 'profiler_filename': None, 'ssl_private_key': '', 'password': '<ask>', 'request_queue_size': 5, 'ssl_certificate': '', 'cronjob': False, 'numthreads': None, 'quiet': False, 'interfaces': None, 'minthreads': None, 'timeout': 10, 'plain': False, 'nobanner': False}>"
p2180
asbasbasbag102
(g118
g104
NtRp2181
(dp2182
g107
(dp2183
sg116
g2091
sg109
(lp2184
g102
(g123
g104
NtRp2185
(dp2186
g107
(dp2187
g127
g128
ssg116
g2181
sg109
(lp2188
g1155
asbag102
(g123
g104
NtRp2189
(dp2190
g107
(dp2191
g134
g135
ssg116
g2181
sg109
(lp2192
S':'
asbag102
(g123
g104
NtRp2193
(dp2194
g107
(dp2195
sg116
g2181
sg109
(lp2196
g102
(g103
g104
NtRp2197
(dp2198
g107
(dp2199
g115
I4
ssg116
g2193
sg109
(lp2200
S'set([])'
p2201
asbasbasbag102
(g118
g104
NtRp2202
(dp2203
g107
(dp2204
sg116
g2091
sg109
(lp2205
g102
(g123
g104
NtRp2206
(dp2207
g107
(dp2208
g127
g128
ssg116
g2202
sg109
(lp2209
g1177
asbag102
(g123
g104
NtRp2210
(dp2211
g107
(dp2212
g134
g135
ssg116
g2202
sg109
(lp2213
S':'
asbag102
(g123
g104
NtRp2214
(dp2215
g107
(dp2216
sg116
g2202
sg109
(lp2217
g102
(g103
g104
NtRp2218
(dp2219
g107
(dp2220
g115
I4
ssg116
g2214
sg109
(lp2221
g145
asbasbasbag102
(g118
g104
NtRp2222
(dp2223
g107
(dp2224
sg116
g2091
sg109
(lp2225
g102
(g123
g104
NtRp2226
(dp2227
g107
(dp2228
g127
g128
ssg116
g2222
sg109
(lp2229
g1198
asbag102
(g123
g104
NtRp2230
(dp2231
g107
(dp2232
g134
g135
ssg116
g2222
sg109
(lp2233
S':'
asbag102
(g123
g104
NtRp2234
(dp2235
g107
(dp2236
sg116
g2222
sg109
(lp2237
g102
(g103
g104
NtRp2238
(dp2239
g107
(dp2240
g115
I4
ssg116
g2234
sg109
(lp2241
g1211
asbasbasbag102
(g118
g104
NtRp2242
(dp2243
g107
(dp2244
sg116
g2091
sg109
(lp2245
g102
(g123
g104
NtRp2246
(dp2247
g107
(dp2248
g127
g128
ssg116
g2242
sg109
(lp2249
g1396
asbag102
(g123
g104
NtRp2250
(dp2251
g107
(dp2252
g134
g135
ssg116
g2242
sg109
(lp2253
S':'
asbag102
(g123
g104
NtRp2254
(dp2255
g107
(dp2256
sg116
g2242
sg109
(lp2257
g102
(g103
g104
NtRp2258
(dp2259
g107
(dp2260
g115
I4
ssg116
g2254
sg109
(lp2261
g145
asbasbasbag102
(g118
g104
NtRp2262
(dp2263
g107
(dp2264
sg116
g2091
sg109
(lp2265
g102
(g123
g104
NtRp2266
(dp2267
g107
(dp2268
g127
g128
ssg116
g2262
sg109
(lp2269
g1417
asbag102
(g123
g104
NtRp2270
(dp2271
g107
(dp2272
g134
g135
ssg116
g2262
sg109
(lp2273
S':'
asbag102
(g123
g104
NtRp2274
(dp2275
g107
(dp2276
sg116
g2262
sg109
(lp2277
g102
(g103
g104
NtRp2278
(dp2279
g107
(dp2280
g115
I4
ssg116
g2274
sg109
(lp2281
g145
asbasbasbag102
(g118
g104
NtRp2282
(dp2283
g107
(dp2284
sg116
g2091
sg109
(lp2285
g102
(g123
g104
NtRp2286
(dp2287
g107
(dp2288
g127
g128
ssg116
g2282
sg109
(lp2289
g1655
asbag102
(g123
g104
NtRp2290
(dp2291
g107
(dp2292
g134
g135
ssg116
g2282
sg109
(lp2293
S':'
asbag102
(g123
g104
NtRp2294
(dp2295
g107
(dp2296
sg116
g2282
sg109
(lp2297
g102
(g103
g104
NtRp2298
(dp2299
g107
(dp2300
g115
I4
ssg116
g2294
sg109
(lp2301
g1668
asbasbasbag102
(g118
g104
NtRp2302
(dp2303
g107
(dp2304
sg116
g2091
sg109
(lp2305
g102
(g123
g104
NtRp2306
(dp2307
g107
(dp2308
g127
g128
ssg116
g2302
sg109
(lp2309
g1698
asbag102
(g123
g104
NtRp2310
(dp2311
g107
(dp2312
g134
g135
ssg116
g2302
sg109
(lp2313
S':'
asbag102
(g123
g104
NtRp2314
(dp2315
g107
(dp2316
sg116
g2302
sg109
(lp2317
g102
(g103
g104
NtRp2318
(dp2319
g107
(dp2320
g115
I4
ssg116
g2314
sg109
(lp2321
g102
(g111
g104
NtRp2322
(dp2323
g107
(dp2324
g115
I3
ssg116
Nsg109
(lp2325
g102
(g118
g104
NtRp2326
(dp2327
g107
(dp2328
sg116
g2322
sg109
(lp2329
g102
(g123
g104
NtRp2330
(dp2331
g107
(dp2332
sg116
g2326
sg109
(lp2333
g102
(g103
g104
NtRp2334
(dp2335
g107
(dp2336
g115
I3
ssg116
g2330
sg109
(lp2337
S'1'
asbasbasbag102
(g118
g104
NtRp2338
(dp2339
g107
(dp2340
sg116
g2322
sg109
(lp2341
g102
(g123
g104
NtRp2342
(dp2343
g107
(dp2344
sg116
g2338
sg109
(lp2345
g102
(g103
g104
NtRp2346
(dp2347
g107
(dp2348
g115
I3
ssg116
g2342
sg109
(lp2349
S'99'
p2350
asbasbasbag102
(g118
g104
NtRp2351
(dp2352
g107
(dp2353
sg116
g2322
sg109
(lp2354
g102
(g123
g104
NtRp2355
(dp2356
g107
(dp2357
sg116
g2351
sg109
(lp2358
g102
(g103
g104
NtRp2359
(dp2360
g107
(dp2361
g115
I3
ssg116
g2355
sg109
(lp2362
S'7'
asbasbasbag102
(g118
g104
NtRp2363
(dp2364
g107
(dp2365
sg116
g2322
sg109
(lp2366
g102
(g123
g104
NtRp2367
(dp2368
g107
(dp2369
sg116
g2363
sg109
(lp2370
g102
(g103
g104
NtRp2371
(dp2372
g107
(dp2373
g115
I3
ssg116
g2367
sg109
(lp2374
S'datetime.datetime(2012, 3, 4, 22, 12, 8)'
p2375
asbasbasbag102
(g118
g104
NtRp2376
(dp2377
g107
(dp2378
sg116
g2322
sg109
(lp2379
g102
(g123
g104
NtRp2380
(dp2381
g107
(dp2382
sg116
g2376
sg109
(lp2383
g102
(g103
g104
NtRp2384
(dp2385
g107
(dp2386
g115
I3
ssg116
g2380
sg109
(lp2387
g1777
asbasbasbasbasbasbasbasbasbasbasbag102
(g118
g104
NtRp2388
(dp2389
g107
(dp2390
sg116
g112
sg109
(lp2391
g102
(g123
g104
NtRp2392
(dp2393
g107
(dp2394
g127
g128
ssg116
g2388
sg109
(lp2395
S'is_https'
p2396
asbag102
(g123
g104
NtRp2397
(dp2398
g107
(dp2399
g134
g135
ssg116
g2388
sg109
(lp2400
S':'
asbag102
(g123
g104
NtRp2401
(dp2402
g107
(dp2403
sg116
g2388
sg109
(lp2404
g102
(g103
g104
NtRp2405
(dp2406
g107
(dp2407
g115
I5
ssg116
g2401
sg109
(lp2408
g145
asbasbasbag102
(g118
g104
NtRp2409
(dp2410
g107
(dp2411
sg116
g112
sg109
(lp2412
g102
(g123
g104
NtRp2413
(dp2414
g107
(dp2415
g127
g128
ssg116
g2409
sg109
(lp2416
S'is_local'
p2417
asbag102
(g123
g104
NtRp2418
(dp2419
g107
(dp2420
g134
g135
ssg116
g2409
sg109
(lp2421
S':'
asbag102
(g123
g104
NtRp2422
(dp2423
g107
(dp2424
sg116
g2409
sg109
(lp2425
g102
(g103
g104
NtRp2426
(dp2427
g107
(dp2428
g115
I5
ssg116
g2422
sg109
(lp2429
g1886
asbasbasbag102
(g118
g104
NtRp2430
(dp2431
g107
(dp2432
sg116
g112
sg109
(lp2433
g102
(g123
g104
NtRp2434
(dp2435
g107
(dp2436
g127
g128
ssg116
g2430
sg109
(lp2437
S'is_restful'
p2438
asbag102
(g123
g104
NtRp2439
(dp2440
g107
(dp2441
g134
g135
ssg116
g2430
sg109
(lp2442
S':'
asbag102
(g123
g104
NtRp2443
(dp2444
g107
(dp2445
sg116
g2430
sg109
(lp2446
g102
(g103
g104
NtRp2447
(dp2448
g107
(dp2449
g115
I5
ssg116
g2443
sg109
(lp2450
g145
asbasbasbag102
(g118
g104
NtRp2451
(dp2452
g107
(dp2453
sg116
g112
sg109
(lp2454
g102
(g123
g104
NtRp2455
(dp2456
g107
(dp2457
g127
g128
ssg116
g2451
sg109
(lp2458
S'now'
p2459
asbag102
(g123
g104
NtRp2460
(dp2461
g107
(dp2462
g134
g135
ssg116
g2451
sg109
(lp2463
S':'
asbag102
(g123
g104
NtRp2464
(dp2465
g107
(dp2466
sg116
g2451
sg109
(lp2467
g102
(g103
g104
NtRp2468
(dp2469
g107
(dp2470
g115
I5
ssg116
g2464
sg109
(lp2471
S'datetime.datetime(2012, 11, 12, 2, 48, 5, 683764)'
p2472
asbasbasbag102
(g118
g104
NtRp2473
(dp2474
g107
(dp2475
sg116
g112
sg109
(lp2476
g102
(g123
g104
NtRp2477
(dp2478
g107
(dp2479
g127
g128
ssg116
g2473
sg109
(lp2480
S'post_vars'
p2481
asbag102
(g123
g104
NtRp2482
(dp2483
g107
(dp2484
g134
g135
ssg116
g2473
sg109
(lp2485
S':'
asbag102
(g123
g104
NtRp2486
(dp2487
g107
(dp2488
sg116
g2473
sg109
(lp2489
g102
(g103
g104
NtRp2490
(dp2491
g107
(dp2492
g115
I5
ssg116
g2486
sg109
(lp2493
g102
(g111
g104
NtRp2494
(dp2495
g107
(dp2496
g115
I4
ssg116
Nsg109
(lp2497
sbasbasbasbag102
(g118
g104
NtRp2498
(dp2499
g107
(dp2500
sg116
g112
sg109
(lp2501
g102
(g123
g104
NtRp2502
(dp2503
g107
(dp2504
g127
g128
ssg116
g2498
sg109
(lp2505
g87
asbag102
(g123
g104
NtRp2506
(dp2507
g107
(dp2508
g134
g135
ssg116
g2498
sg109
(lp2509
S':'
asbag102
(g123
g104
NtRp2510
(dp2511
g107
(dp2512
sg116
g2498
sg109
(lp2513
g102
(g103
g104
NtRp2514
(dp2515
g107
(dp2516
g115
I5
ssg116
g2510
sg109
(lp2517
S'/cite_m5/default/final_ans'
p2518
asbasbasbag102
(g118
g104
NtRp2519
(dp2520
g107
(dp2521
sg116
g112
sg109
(lp2522
g102
(g123
g104
NtRp2523
(dp2524
g107
(dp2525
g127
g128
ssg116
g2519
sg109
(lp2526
S'utcnow'
p2527
asbag102
(g123
g104
NtRp2528
(dp2529
g107
(dp2530
g134
g135
ssg116
g2519
sg109
(lp2531
S':'
asbag102
(g123
g104
NtRp2532
(dp2533
g107
(dp2534
sg116
g2519
sg109
(lp2535
g102
(g103
g104
NtRp2536
(dp2537
g107
(dp2538
g115
I5
ssg116
g2532
sg109
(lp2539
S'datetime.datetime(2012, 11, 11, 21, 18, 5, 683804)'
p2540
asbasbasbag102
(g118
g104
NtRp2541
(dp2542
g107
(dp2543
sg116
g112
sg109
(lp2544
g102
(g123
g104
NtRp2545
(dp2546
g107
(dp2547
g127
g128
ssg116
g2541
sg109
(lp2548
S'uuid'
p2549
asbag102
(g123
g104
NtRp2550
(dp2551
g107
(dp2552
g134
g135
ssg116
g2541
sg109
(lp2553
S':'
asbag102
(g123
g104
NtRp2554
(dp2555
g107
(dp2556
sg116
g2541
sg109
(lp2557
g102
(g103
g104
NtRp2558
(dp2559
g107
(dp2560
g115
I5
ssg116
g2554
sg109
(lp2561
S'cite_m5/127.0.0.1.2012-11-12.02-48-05.4429aed3-7392-4f9b-984f-b75ac0cfc18e'
p2562
asbasbasbag102
(g118
g104
NtRp2563
(dp2564
g107
(dp2565
sg116
g112
sg109
(lp2566
g102
(g123
g104
NtRp2567
(dp2568
g107
(dp2569
g127
g128
ssg116
g2563
sg109
(lp2570
S'vars'
p2571
asbag102
(g123
g104
NtRp2572
(dp2573
g107
(dp2574
g134
g135
ssg116
g2563
sg109
(lp2575
S':'
asbag102
(g123
g104
NtRp2576
(dp2577
g107
(dp2578
sg116
g2563
sg109
(lp2579
g102
(g103
g104
NtRp2580
(dp2581
g107
(dp2582
g115
I5
ssg116
g2576
sg109
(lp2583
g102
(g111
g104
NtRp2584
(dp2585
g107
(dp2586
g115
I4
ssg116
Nsg109
(lp2587
sbasbasbasbag102
(g118
g104
NtRp2588
(dp2589
g107
(dp2590
sg116
g112
sg109
(lp2591
g102
(g123
g104
NtRp2592
(dp2593
g107
(dp2594
g127
g128
ssg116
g2588
sg109
(lp2595
S'wsgi'
p2596
asbag102
(g123
g104
NtRp2597
(dp2598
g107
(dp2599
g134
g135
ssg116
g2588
sg109
(lp2600
S':'
asbag102
(g123
g104
NtRp2601
(dp2602
g107
(dp2603
sg116
g2588
sg109
(lp2604
g102
(g103
g104
NtRp2605
(dp2606
g107
(dp2607
g115
I5
ssg116
g2601
sg109
(lp2608
g102
(g111
g104
NtRp2609
(dp2610
g107
(dp2611
g115
I4
ssg116
Nsg109
(lp2612
g102
(g118
g104
NtRp2613
(dp2614
g107
(dp2615
sg116
g2609
sg109
(lp2616
g102
(g123
g104
NtRp2617
(dp2618
g107
(dp2619
g127
g128
ssg116
g2613
sg109
(lp2620
S'environ'
p2621
asbag102
(g123
g104
NtRp2622
(dp2623
g107
(dp2624
g134
g135
ssg116
g2613
sg109
(lp2625
S':'
asbag102
(g123
g104
NtRp2626
(dp2627
g107
(dp2628
sg116
g2613
sg109
(lp2629
g102
(g103
g104
NtRp2630
(dp2631
g107
(dp2632
g115
I4
ssg116
g2626
sg109
(lp2633
g102
(g111
g104
NtRp2634
(dp2635
g107
(dp2636
g115
I3
ssg116
Nsg109
(lp2637
g102
(g118
g104
NtRp2638
(dp2639
g107
(dp2640
sg116
g2634
sg109
(lp2641
g102
(g123
g104
NtRp2642
(dp2643
g107
(dp2644
g127
g128
ssg116
g2638
sg109
(lp2645
S'HTTP_ACCEPT'
p2646
asbag102
(g123
g104
NtRp2647
(dp2648
g107
(dp2649
g134
g135
ssg116
g2638
sg109
(lp2650
S':'
asbag102
(g123
g104
NtRp2651
(dp2652
g107
(dp2653
sg116
g2638
sg109
(lp2654
g102
(g103
g104
NtRp2655
(dp2656
g107
(dp2657
g115
I3
ssg116
g2651
sg109
(lp2658
g1233
asbasbasbag102
(g118
g104
NtRp2659
(dp2660
g107
(dp2661
sg116
g2634
sg109
(lp2662
g102
(g123
g104
NtRp2663
(dp2664
g107
(dp2665
g127
g128
ssg116
g2659
sg109
(lp2666
S'HTTP_ACCEPT_ENCODING'
p2667
asbag102
(g123
g104
NtRp2668
(dp2669
g107
(dp2670
g134
g135
ssg116
g2659
sg109
(lp2671
S':'
asbag102
(g123
g104
NtRp2672
(dp2673
g107
(dp2674
sg116
g2659
sg109
(lp2675
g102
(g103
g104
NtRp2676
(dp2677
g107
(dp2678
g115
I3
ssg116
g2672
sg109
(lp2679
g1255
asbasbasbag102
(g118
g104
NtRp2680
(dp2681
g107
(dp2682
sg116
g2634
sg109
(lp2683
g102
(g123
g104
NtRp2684
(dp2685
g107
(dp2686
g127
g128
ssg116
g2680
sg109
(lp2687
S'HTTP_ACCEPT_LANGUAGE'
p2688
asbag102
(g123
g104
NtRp2689
(dp2690
g107
(dp2691
g134
g135
ssg116
g2680
sg109
(lp2692
S':'
asbag102
(g123
g104
NtRp2693
(dp2694
g107
(dp2695
sg116
g2680
sg109
(lp2696
g102
(g103
g104
NtRp2697
(dp2698
g107
(dp2699
g115
I3
ssg116
g2693
sg109
(lp2700
g1277
asbasbasbag102
(g118
g104
NtRp2701
(dp2702
g107
(dp2703
sg116
g2634
sg109
(lp2704
g102
(g123
g104
NtRp2705
(dp2706
g107
(dp2707
g127
g128
ssg116
g2701
sg109
(lp2708
S'HTTP_CONNECTION'
p2709
asbag102
(g123
g104
NtRp2710
(dp2711
g107
(dp2712
g134
g135
ssg116
g2701
sg109
(lp2713
S':'
asbag102
(g123
g104
NtRp2714
(dp2715
g107
(dp2716
sg116
g2701
sg109
(lp2717
g102
(g103
g104
NtRp2718
(dp2719
g107
(dp2720
g115
I3
ssg116
g2714
sg109
(lp2721
g1299
asbasbasbag102
(g118
g104
NtRp2722
(dp2723
g107
(dp2724
sg116
g2634
sg109
(lp2725
g102
(g123
g104
NtRp2726
(dp2727
g107
(dp2728
g127
g128
ssg116
g2722
sg109
(lp2729
S'HTTP_COOKIE'
p2730
asbag102
(g123
g104
NtRp2731
(dp2732
g107
(dp2733
g134
g135
ssg116
g2722
sg109
(lp2734
S':'
asbag102
(g123
g104
NtRp2735
(dp2736
g107
(dp2737
sg116
g2722
sg109
(lp2738
g102
(g103
g104
NtRp2739
(dp2740
g107
(dp2741
g115
I3
ssg116
g2735
sg109
(lp2742
g1321
asbasbasbag102
(g118
g104
NtRp2743
(dp2744
g107
(dp2745
sg116
g2634
sg109
(lp2746
g102
(g123
g104
NtRp2747
(dp2748
g107
(dp2749
g127
g128
ssg116
g2743
sg109
(lp2750
S'HTTP_HOST'
p2751
asbag102
(g123
g104
NtRp2752
(dp2753
g107
(dp2754
g134
g135
ssg116
g2743
sg109
(lp2755
S':'
asbag102
(g123
g104
NtRp2756
(dp2757
g107
(dp2758
sg116
g2743
sg109
(lp2759
g102
(g103
g104
NtRp2760
(dp2761
g107
(dp2762
g115
I3
ssg116
g2756
sg109
(lp2763
g1343
asbasbasbag102
(g118
g104
NtRp2764
(dp2765
g107
(dp2766
sg116
g2634
sg109
(lp2767
g102
(g123
g104
NtRp2768
(dp2769
g107
(dp2770
g127
g128
ssg116
g2764
sg109
(lp2771
S'HTTP_REFERER'
p2772
asbag102
(g123
g104
NtRp2773
(dp2774
g107
(dp2775
g134
g135
ssg116
g2764
sg109
(lp2776
S':'
asbag102
(g123
g104
NtRp2777
(dp2778
g107
(dp2779
sg116
g2764
sg109
(lp2780
g102
(g103
g104
NtRp2781
(dp2782
g107
(dp2783
g115
I3
ssg116
g2777
sg109
(lp2784
g1365
asbasbasbag102
(g118
g104
NtRp2785
(dp2786
g107
(dp2787
sg116
g2634
sg109
(lp2788
g102
(g123
g104
NtRp2789
(dp2790
g107
(dp2791
g127
g128
ssg116
g2785
sg109
(lp2792
S'HTTP_USER_AGENT'
p2793
asbag102
(g123
g104
NtRp2794
(dp2795
g107
(dp2796
g134
g135
ssg116
g2785
sg109
(lp2797
S':'
asbag102
(g123
g104
NtRp2798
(dp2799
g107
(dp2800
sg116
g2785
sg109
(lp2801
g102
(g103
g104
NtRp2802
(dp2803
g107
(dp2804
g115
I3
ssg116
g2798
sg109
(lp2805
g1387
asbasbasbag102
(g118
g104
NtRp2806
(dp2807
g107
(dp2808
sg116
g2634
sg109
(lp2809
g102
(g123
g104
NtRp2810
(dp2811
g107
(dp2812
g127
g128
ssg116
g2806
sg109
(lp2813
S'PATH_INFO'
p2814
asbag102
(g123
g104
NtRp2815
(dp2816
g107
(dp2817
g134
g135
ssg116
g2806
sg109
(lp2818
S':'
asbag102
(g123
g104
NtRp2819
(dp2820
g107
(dp2821
sg116
g2806
sg109
(lp2822
g102
(g103
g104
NtRp2823
(dp2824
g107
(dp2825
g115
I3
ssg116
g2819
sg109
(lp2826
g1451
asbasbasbag102
(g118
g104
NtRp2827
(dp2828
g107
(dp2829
sg116
g2634
sg109
(lp2830
g102
(g123
g104
NtRp2831
(dp2832
g107
(dp2833
g127
g128
ssg116
g2827
sg109
(lp2834
S'QUERY_STRING'
p2835
asbag102
(g123
g104
NtRp2836
(dp2837
g107
(dp2838
g134
g135
ssg116
g2827
sg109
(lp2839
S':'
asbag102
(g123
g104
NtRp2840
(dp2841
g107
(dp2842
sg116
g2827
sg109
(lp2843
g102
(g103
g104
NtRp2844
(dp2845
g107
(dp2846
g115
I3
ssg116
g2840
sg109
(lp2847
S''
asbasbasbag102
(g118
g104
NtRp2848
(dp2849
g107
(dp2850
sg116
g2634
sg109
(lp2851
g102
(g123
g104
NtRp2852
(dp2853
g107
(dp2854
g127
g128
ssg116
g2848
sg109
(lp2855
S'REMOTE_ADDR'
p2856
asbag102
(g123
g104
NtRp2857
(dp2858
g107
(dp2859
g134
g135
ssg116
g2848
sg109
(lp2860
S':'
asbag102
(g123
g104
NtRp2861
(dp2862
g107
(dp2863
sg116
g2848
sg109
(lp2864
g102
(g103
g104
NtRp2865
(dp2866
g107
(dp2867
g115
I3
ssg116
g2861
sg109
(lp2868
g235
asbasbasbag102
(g118
g104
NtRp2869
(dp2870
g107
(dp2871
sg116
g2634
sg109
(lp2872
g102
(g123
g104
NtRp2873
(dp2874
g107
(dp2875
g127
g128
ssg116
g2869
sg109
(lp2876
S'REMOTE_PORT'
p2877
asbag102
(g123
g104
NtRp2878
(dp2879
g107
(dp2880
g134
g135
ssg116
g2869
sg109
(lp2881
S':'
asbag102
(g123
g104
NtRp2882
(dp2883
g107
(dp2884
sg116
g2869
sg109
(lp2885
g102
(g103
g104
NtRp2886
(dp2887
g107
(dp2888
g115
I3
ssg116
g2882
sg109
(lp2889
g1515
asbasbasbag102
(g118
g104
NtRp2890
(dp2891
g107
(dp2892
sg116
g2634
sg109
(lp2893
g102
(g123
g104
NtRp2894
(dp2895
g107
(dp2896
g127
g128
ssg116
g2890
sg109
(lp2897
S'REQUEST_METHOD'
p2898
asbag102
(g123
g104
NtRp2899
(dp2900
g107
(dp2901
g134
g135
ssg116
g2890
sg109
(lp2902
S':'
asbag102
(g123
g104
NtRp2903
(dp2904
g107
(dp2905
sg116
g2890
sg109
(lp2906
g102
(g103
g104
NtRp2907
(dp2908
g107
(dp2909
g115
I3
ssg116
g2903
sg109
(lp2910
g1537
asbasbasbag102
(g118
g104
NtRp2911
(dp2912
g107
(dp2913
sg116
g2634
sg109
(lp2914
g102
(g123
g104
NtRp2915
(dp2916
g107
(dp2917
g127
g128
ssg116
g2911
sg109
(lp2918
S'SCRIPT_NAME'
p2919
asbag102
(g123
g104
NtRp2920
(dp2921
g107
(dp2922
g134
g135
ssg116
g2911
sg109
(lp2923
S':'
asbag102
(g123
g104
NtRp2924
(dp2925
g107
(dp2926
sg116
g2911
sg109
(lp2927
g102
(g103
g104
NtRp2928
(dp2929
g107
(dp2930
g115
I3
ssg116
g2924
sg109
(lp2931
S''
asbasbasbag102
(g118
g104
NtRp2932
(dp2933
g107
(dp2934
sg116
g2634
sg109
(lp2935
g102
(g123
g104
NtRp2936
(dp2937
g107
(dp2938
g127
g128
ssg116
g2932
sg109
(lp2939
S'SERVER_NAME'
p2940
asbag102
(g123
g104
NtRp2941
(dp2942
g107
(dp2943
g134
g135
ssg116
g2932
sg109
(lp2944
S':'
asbag102
(g123
g104
NtRp2945
(dp2946
g107
(dp2947
sg116
g2932
sg109
(lp2948
g102
(g103
g104
NtRp2949
(dp2950
g107
(dp2951
g115
I3
ssg116
g2945
sg109
(lp2952
g1580
asbasbasbag102
(g118
g104
NtRp2953
(dp2954
g107
(dp2955
sg116
g2634
sg109
(lp2956
g102
(g123
g104
NtRp2957
(dp2958
g107
(dp2959
g127
g128
ssg116
g2953
sg109
(lp2960
S'SERVER_PORT'
p2961
asbag102
(g123
g104
NtRp2962
(dp2963
g107
(dp2964
g134
g135
ssg116
g2953
sg109
(lp2965
S':'
asbag102
(g123
g104
NtRp2966
(dp2967
g107
(dp2968
sg116
g2953
sg109
(lp2969
g102
(g103
g104
NtRp2970
(dp2971
g107
(dp2972
g115
I3
ssg116
g2966
sg109
(lp2973
g1602
asbasbasbag102
(g118
g104
NtRp2974
(dp2975
g107
(dp2976
sg116
g2634
sg109
(lp2977
g102
(g123
g104
NtRp2978
(dp2979
g107
(dp2980
g127
g128
ssg116
g2974
sg109
(lp2981
S'SERVER_PROTOCOL'
p2982
asbag102
(g123
g104
NtRp2983
(dp2984
g107
(dp2985
g134
g135
ssg116
g2974
sg109
(lp2986
S':'
asbag102
(g123
g104
NtRp2987
(dp2988
g107
(dp2989
sg116
g2974
sg109
(lp2990
g102
(g103
g104
NtRp2991
(dp2992
g107
(dp2993
g115
I3
ssg116
g2987
sg109
(lp2994
g1624
asbasbasbag102
(g118
g104
NtRp2995
(dp2996
g107
(dp2997
sg116
g2634
sg109
(lp2998
g102
(g123
g104
NtRp2999
(dp3000
g107
(dp3001
g127
g128
ssg116
g2995
sg109
(lp3002
S'SERVER_SOFTWARE'
p3003
asbag102
(g123
g104
NtRp3004
(dp3005
g107
(dp3006
g134
g135
ssg116
g2995
sg109
(lp3007
S':'
asbag102
(g123
g104
NtRp3008
(dp3009
g107
(dp3010
sg116
g2995
sg109
(lp3011
g102
(g103
g104
NtRp3012
(dp3013
g107
(dp3014
g115
I3
ssg116
g3008
sg109
(lp3015
g1646
asbasbasbag102
(g118
g104
NtRp3016
(dp3017
g107
(dp3018
sg116
g2634
sg109
(lp3019
g102
(g123
g104
NtRp3020
(dp3021
g107
(dp3022
g127
g128
ssg116
g3016
sg109
(lp3023
S'wsgi.errors'
p3024
asbag102
(g123
g104
NtRp3025
(dp3026
g107
(dp3027
g134
g135
ssg116
g3016
sg109
(lp3028
S':'
asbag102
(g123
g104
NtRp3029
(dp3030
g107
(dp3031
sg116
g3016
sg109
(lp3032
g102
(g103
g104
NtRp3033
(dp3034
g107
(dp3035
g115
I3
ssg116
g3029
sg109
(lp3036
S"<open file '<stderr>', mode 'w' at 0x7fbdb8040270>"
p3037
asbasbasbag102
(g118
g104
NtRp3038
(dp3039
g107
(dp3040
sg116
g2634
sg109
(lp3041
g102
(g123
g104
NtRp3042
(dp3043
g107
(dp3044
g127
g128
ssg116
g3038
sg109
(lp3045
S'wsgi.file_wrapper'
p3046
asbag102
(g123
g104
NtRp3047
(dp3048
g107
(dp3049
g134
g135
ssg116
g3038
sg109
(lp3050
S':'
asbag102
(g123
g104
NtRp3051
(dp3052
g107
(dp3053
sg116
g3038
sg109
(lp3054
g102
(g103
g104
NtRp3055
(dp3056
g107
(dp3057
g115
I3
ssg116
g3051
sg109
(lp3058
S'<class wsgiref.util.FileWrapper at 0x2ac6120>'
p3059
asbasbasbag102
(g118
g104
NtRp3060
(dp3061
g107
(dp3062
sg116
g2634
sg109
(lp3063
g102
(g123
g104
NtRp3064
(dp3065
g107
(dp3066
g127
g128
ssg116
g3060
sg109
(lp3067
S'wsgi.input'
p3068
asbag102
(g123
g104
NtRp3069
(dp3070
g107
(dp3071
g134
g135
ssg116
g3060
sg109
(lp3072
S':'
asbag102
(g123
g104
NtRp3073
(dp3074
g107
(dp3075
sg116
g3060
sg109
(lp3076
g102
(g103
g104
NtRp3077
(dp3078
g107
(dp3079
g115
I3
ssg116
g3073
sg109
(lp3080
S'<cStringIO.StringO object at 0x7fbd800b77d8>'
p3081
asbasbasbag102
(g118
g104
NtRp3082
(dp3083
g107
(dp3084
sg116
g2634
sg109
(lp3085
g102
(g123
g104
NtRp3086
(dp3087
g107
(dp3088
g127
g128
ssg116
g3082
sg109
(lp3089
S'wsgi.multiprocess'
p3090
asbag102
(g123
g104
NtRp3091
(dp3092
g107
(dp3093
g134
g135
ssg116
g3082
sg109
(lp3094
S':'
asbag102
(g123
g104
NtRp3095
(dp3096
g107
(dp3097
sg116
g3082
sg109
(lp3098
g102
(g103
g104
NtRp3099
(dp3100
g107
(dp3101
g115
I3
ssg116
g3095
sg109
(lp3102
g145
asbasbasbag102
(g118
g104
NtRp3103
(dp3104
g107
(dp3105
sg116
g2634
sg109
(lp3106
g102
(g123
g104
NtRp3107
(dp3108
g107
(dp3109
g127
g128
ssg116
g3103
sg109
(lp3110
S'wsgi.multithread'
p3111
asbag102
(g123
g104
NtRp3112
(dp3113
g107
(dp3114
g134
g135
ssg116
g3103
sg109
(lp3115
S':'
asbag102
(g123
g104
NtRp3116
(dp3117
g107
(dp3118
sg116
g3103
sg109
(lp3119
g102
(g103
g104
NtRp3120
(dp3121
g107
(dp3122
g115
I3
ssg116
g3116
sg109
(lp3123
g1886
asbasbasbag102
(g118
g104
NtRp3124
(dp3125
g107
(dp3126
sg116
g2634
sg109
(lp3127
g102
(g123
g104
NtRp3128
(dp3129
g107
(dp3130
g127
g128
ssg116
g3124
sg109
(lp3131
S'wsgi.run_once'
p3132
asbag102
(g123
g104
NtRp3133
(dp3134
g107
(dp3135
g134
g135
ssg116
g3124
sg109
(lp3136
S':'
asbag102
(g123
g104
NtRp3137
(dp3138
g107
(dp3139
sg116
g3124
sg109
(lp3140
g102
(g103
g104
NtRp3141
(dp3142
g107
(dp3143
g115
I3
ssg116
g3137
sg109
(lp3144
g145
asbasbasbag102
(g118
g104
NtRp3145
(dp3146
g107
(dp3147
sg116
g2634
sg109
(lp3148
g102
(g123
g104
NtRp3149
(dp3150
g107
(dp3151
g127
g128
ssg116
g3145
sg109
(lp3152
S'wsgi.url_scheme'
p3153
asbag102
(g123
g104
NtRp3154
(dp3155
g107
(dp3156
g134
g135
ssg116
g3145
sg109
(lp3157
S':'
asbag102
(g123
g104
NtRp3158
(dp3159
g107
(dp3160
sg116
g3145
sg109
(lp3161
g102
(g103
g104
NtRp3162
(dp3163
g107
(dp3164
g115
I3
ssg116
g3158
sg109
(lp3165
g1929
asbasbasbag102
(g118
g104
NtRp3166
(dp3167
g107
(dp3168
sg116
g2634
sg109
(lp3169
g102
(g123
g104
NtRp3170
(dp3171
g107
(dp3172
g127
g128
ssg116
g3166
sg109
(lp3173
S'wsgi.version'
p3174
asbag102
(g123
g104
NtRp3175
(dp3176
g107
(dp3177
g134
g135
ssg116
g3166
sg109
(lp3178
S':'
asbag102
(g123
g104
NtRp3179
(dp3180
g107
(dp3181
sg116
g3166
sg109
(lp3182
g102
(g103
g104
NtRp3183
(dp3184
g107
(dp3185
g115
I3
ssg116
g3179
sg109
(lp3186
S'1'
asbasbasbasbasbasbasbasbasbasbasbasbasbsS'frames'
p3187
(lp3188
(dp3189
S'file'
p3190
S'/home/chitra/courses/SSAD/web2py/gluon/restricted.py'
p3191
sS'dump'
p3192
(dp3193
S'environment'
p3194
S"{'A': <class 'gluon.html.A'>, 'Auth': <class 'gluon.tools.Auth'>, 'B': <class 'gluon.html.B'>, 'BEAUTIFY': <class 'gluon.html.BEAUTIFY'>, 'BODY': <class 'gluon.html.BODY'>, 'BR': <class 'gluon.html.BR'>, 'BUTTON': <class 'gluon.html.BUTTON'>, 'CAT': <class 'gluon.html.CAT'>, 'CENTER': <class 'gluon.html.CENTER'>, 'CLEANUP': <class 'gluon.validators.CLEANUP'>, ...}"
p3195
sS'ccode'
p3196
S'<code object <module> at 0x7fbd9825a2b0, file "/...ications/cite_m5/controllers/default.py", line 3>'
p3197
ssS'lnum'
p3198
I205
sS'lines'
p3199
(dp3200
I200
S'    try:'
p3201
sI201
S'        if type(code) == types.CodeType:'
p3202
sI202
S'            ccode = code'
p3203
sI203
S'        else:'
p3204
sI204
S'            ccode = compile2(code,layer)'
p3205
sI205
S'        exec ccode in environment'
p3206
sI206
S'    except HTTP:'
p3207
sI207
S'        raise'
p3208
sI208
S'    except RestrictedError:'
p3209
sI209
S'        # do not encapsulate (obfuscate) the original RestrictedError'
p3210
ssS'call'
p3211
S"(code='# -*- coding: utf-8 -*-\\n### required - do no del...ss1)\\n\\nresponse._vars=response._caller(final_ans)\\n', environment={'A': <class 'gluon.html.A'>, 'Auth': <class 'gluon.tools.Auth'>, 'B': <class 'gluon.html.B'>, 'BEAUTIFY': <class 'gluon.html.BEAUTIFY'>, 'BODY': <class 'gluon.html.BODY'>, 'BR': <class 'gluon.html.BR'>, 'BUTTON': <class 'gluon.html.BUTTON'>, 'CAT': <class 'gluon.html.CAT'>, 'CENTER': <class 'gluon.html.CENTER'>, 'CLEANUP': <class 'gluon.validators.CLEANUP'>, ...}, layer='/home/chitra/courses/SSAD/web2py/applications/cite_m5/controllers/default.py')"
p3212
sS'func'
p3213
S'restricted'
p3214
sa(dp3215
g3190
S'/home/chitra/courses/SSAD/web2py/applications/cite_m5/controllers/default.py'
p3216
sg3192
(dp3217
sg3198
I209
sg3199
(dp3218
I198
S'    return dict(abst=h1)'
p3219
sI199
S'def abstract1():'
p3220
sI200
S'    abss=request.args[0]'
p3221
sI201
S'    pre=""'
p3222
sI202
S'    while pre!=abss:'
p3223
sI203
S'        pre=abss'
p3224
sI204
S'        abss=abss.replace("_"," ")'
p3225
sI205
S'        #d=d.replace("","")'
p3226
sI206
S'    abss1=abss.split(".")'
p3227
sI207
S'    return dict(abss1=abss1)'
p3228
ssg3211
S'()'
p3229
sg3213
S'<module>'
p3230
sa(dp3231
g3190
S'/home/chitra/courses/SSAD/web2py/gluon/globals.py'
p3232
sg3192
(dp3233
S'self'
p3234
S'undefined'
p3235
sS'f'
S'<function final_ans>'
p3236
ssg3198
I173
sg3199
(dp3237
I168
S'        self.menu = []             # used by the default view layout'
p3238
sI169
S'        self.files = []            # used by web2py_ajax.html'
p3239
sI170
S'        self.generic_patterns = [] # patterns to allow generic views'
p3240
sI171
S"        self.delimiters = ('{{','}}')"
p3241
sI172
S'        self._vars = None'
p3242
sI173
S'        self._caller = lambda f: f()'
p3243
sI174
S'        self._view_environment = None'
p3244
sI175
S'        self._custom_commit = None'
p3245
sI176
S'        self._custom_rollback = None'
p3246
sI177
S''
ssg3211
S'(f=<function final_ans>)'
p3247
sg3213
S'<lambda>'
p3248
sa(dp3249
g3190
S'/home/chitra/courses/SSAD/web2py/applications/cite_m5/controllers/default.py'
p3250
sg3192
(dp3251
S'global rec'
p3252
S'<function rec>'
p3253
sS'l1'
p3254
S"['computer science', 4, 4, True, True, True]"
p3255
sS'bigans'
p3256
S"[['A model for high school computer science education: the four key elements that make it!', 'http://dl.acm.org/citation.cfm?id=1352135.135223...M&CFID=140261464&CFTOKEN=53881816&preflayout=flat', 'http://dl.acm.org/ft_gateway.cfm?id=1352233&ftid=502628&dwn=1&CFID=140261464&CFTOKEN=53881816', 'Hazzan, Orit; Gal-Ezer, Judith; Blum, Lenore', '03/12/2008', '\\r\\n\\t\\t\\t\\t\\t', '11', ['http://dl.acm.org/citation.cfm?id=2189861&CFID=140261464&CFTOKEN=53881816&preflayout=flat', 'http://dl.acm.org/citation.cfm?id=2157154&CFID=140261464&CFTOKEN=53881816&preflayout=flat', 'http://dl.acm.org/citation.cfm?id=1508965&CFID=140261464&CFTOKEN=53881816&preflayout=flat', 'http://dl.acm.org/citation.cfm?id=1508967&CFID=140261464&CFTOKEN=53881816&preflayout=flat'], ['Status update: high school CS internationally', 'http://dl.acm.org/citation.cfm?id=2189861&CFID=140261464&CFTOKEN=53881816&preflayout=flat', 'http://dl.acm.org/ft_gateway.cfm?id=2189861&ftid=1226249&dwn=1&CFID=140261464&CFTOKEN=53881816', 'Snyder, Lawrence', '06/01/2012', '\\r\\n\\t\\t\\t\\t\\t', 0, []], ['Design and evaluation of a braided teaching course in sixth grade computer science education', 'http://dl.acm.org/citation.cfm?id=2157154&CFID=140261464&CFTOKEN=53881816&preflayout=flat', 'http://dl.acm.org/ft_gateway.cfm?id=2157154&ftid=1161236&dwn=1&CFID=140261464&CFTOKEN=53881816', 'Pasternak, Arno; Vahrenhold, Jan', '02/29/2012', '\\r\\n\\t\\t\\t\\t\\t', 0, []], ['Preparation of high school computer science teachers: the Israeli perspective', 'http://dl.acm.org/citation.cfm?id=1508965&CFID=140261464&CFTOKEN=53881816&preflayout=flat', 'http://dl.acm.org/ft_gateway.cfm?id=1508965&ftid=600411&dwn=1&CFID=140261464&CFTOKEN=53881816', 'Gal-Ezer, Judith; Hazzan, Orit; Ragonis, Noa', '03/04/2009', '\\r\\n\\t\\t\\t\\t\\t', '3', ['http://dl.acm.org/citation.cfm?id=2189861&CFID=140261464&CFTOKEN=53881816&preflayout=flat', 'http://dl.acm.org/citation.cfm?id=2176506&CFID=140261464&CFTOKEN=53881816&preflayout=flat', 'http://dl.acm.org/citation.cfm?id=2048934&CFID=140261464&CFTOKEN=53881816&preflayout=flat', ''], ['Status update: high school CS internationally', 'http://dl.acm.org/citation.cfm?id=2189861&CFID=140261464&CFTOKEN=53881816&preflayout=flat', 'http://dl.acm.org/ft_gateway.cfm?id=2189861&ftid=1226249&dwn=1&CFID=140261464&CFTOKEN=53881816', 'Snyder, Lawrence', '06/01/2012', '\\r\\n\\t\\t\\t\\t\\t', 0, []]]]]"
p3257
sS'fst_l'
p3258
S"['http://dl.acm.org/citation.cfm?id=1352135.135223...M&CFID=140261464&CFTOKEN=53881816&preflayout=flat', 'http://dl.acm.org/citation.cfm?id=1121341.112135...M&CFID=140261464&CFTOKEN=53881816&preflayout=flat', 'http://dl.acm.org/citation.cfm?id=1121341.112147...M&CFID=140261464&CFTOKEN=53881816&preflayout=flat', 'http://dl.acm.org/citation.cfm?id=1227310.122745...M&CFID=140261464&CFTOKEN=53881816&preflayout=flat']"
p3259
ssg3198
I71
sg3199
(dp3260
I66
S'    l1=u_filter()'
p3261
sI67
S'    url="http://dl.acm.org/results.cfm?h=1&query="+\'+\'.join(l1[0].split())'
p3262
sI68
S'    fst_l=[]'
p3263
sI69
S'    ret1=[]'
p3264
sI70
S'    fst_l,ret1=extract1(url,l1)'
p3265
sI71
S'    rec(fst_l,l1,bigans)'
p3266
sI72
S'    return dict(bigans=bigans,level=l1[1],top=l1[2],ret1=ret1)'
p3267
sI73
S'def rec(list1,l1,bigans):'
p3268
sI74
S'    global count'
p3269
sI75
S'    count=count+1'
p3270
ssg3211
S'()'
p3271
sg3213
S'final_ans'
p3272
sa(dp3273
g3190
S'/home/chitra/courses/SSAD/web2py/applications/cite_m5/controllers/default.py'
p3274
sg3192
(dp3275
S'global rec'
p3276
S'<function rec>'
p3277
sS'z'
S"['A model for high school computer science education: the four key elements that make it!', 'http://dl.acm.org/citation.cfm?id=1352135.135223...M&CFID=140261464&CFTOKEN=53881816&preflayout=flat', 'http://dl.acm.org/ft_gateway.cfm?id=1352233&ftid=502628&dwn=1&CFID=140261464&CFTOKEN=53881816', 'Hazzan, Orit; Gal-Ezer, Judith; Blum, Lenore', '03/12/2008', '\\r\\n\\t\\t\\t\\t\\t', '11', ['http://dl.acm.org/citation.cfm?id=2189861&CFID=140261464&CFTOKEN=53881816&preflayout=flat', 'http://dl.acm.org/citation.cfm?id=2157154&CFID=140261464&CFTOKEN=53881816&preflayout=flat', 'http://dl.acm.org/citation.cfm?id=1508965&CFID=140261464&CFTOKEN=53881816&preflayout=flat', 'http://dl.acm.org/citation.cfm?id=1508967&CFID=140261464&CFTOKEN=53881816&preflayout=flat'], ['Status update: high school CS internationally', 'http://dl.acm.org/citation.cfm?id=2189861&CFID=140261464&CFTOKEN=53881816&preflayout=flat', 'http://dl.acm.org/ft_gateway.cfm?id=2189861&ftid=1226249&dwn=1&CFID=140261464&CFTOKEN=53881816', 'Snyder, Lawrence', '06/01/2012', '\\r\\n\\t\\t\\t\\t\\t', 0, []], ['Design and evaluation of a braided teaching course in sixth grade computer science education', 'http://dl.acm.org/citation.cfm?id=2157154&CFID=140261464&CFTOKEN=53881816&preflayout=flat', 'http://dl.acm.org/ft_gateway.cfm?id=2157154&ftid=1161236&dwn=1&CFID=140261464&CFTOKEN=53881816', 'Pasternak, Arno; Vahrenhold, Jan', '02/29/2012', '\\r\\n\\t\\t\\t\\t\\t', 0, []], ['Preparation of high school computer science teachers: the Israeli perspective', 'http://dl.acm.org/citation.cfm?id=1508965&CFID=140261464&CFTOKEN=53881816&preflayout=flat', 'http://dl.acm.org/ft_gateway.cfm?id=1508965&ftid=600411&dwn=1&CFID=140261464&CFTOKEN=53881816', 'Gal-Ezer, Judith; Hazzan, Orit; Ragonis, Noa', '03/04/2009', '\\r\\n\\t\\t\\t\\t\\t', '3', ['http://dl.acm.org/citation.cfm?id=2189861&CFID=140261464&CFTOKEN=53881816&preflayout=flat', 'http://dl.acm.org/citation.cfm?id=2176506&CFID=140261464&CFTOKEN=53881816&preflayout=flat', 'http://dl.acm.org/citation.cfm?id=2048934&CFID=140261464&CFTOKEN=53881816&preflayout=flat', ''], ['Status update: high school CS internationally', 'http://dl.acm.org/citation.cfm?id=2189861&CFID=140261464&CFTOKEN=53881816&preflayout=flat', 'http://dl.acm.org/ft_gateway.cfm?id=2189861&ftid=1226249&dwn=1&CFID=140261464&CFTOKEN=53881816', 'Snyder, Lawrence', '06/01/2012', '\\r\\n\\t\\t\\t\\t\\t', 0, []]]]"
p3278
sS'bigans'
p3279
S"[['A model for high school computer science education: the four key elements that make it!', 'http://dl.acm.org/citation.cfm?id=1352135.135223...M&CFID=140261464&CFTOKEN=53881816&preflayout=flat', 'http://dl.acm.org/ft_gateway.cfm?id=1352233&ftid=502628&dwn=1&CFID=140261464&CFTOKEN=53881816', 'Hazzan, Orit; Gal-Ezer, Judith; Blum, Lenore', '03/12/2008', '\\r\\n\\t\\t\\t\\t\\t', '11', ['http://dl.acm.org/citation.cfm?id=2189861&CFID=140261464&CFTOKEN=53881816&preflayout=flat', 'http://dl.acm.org/citation.cfm?id=2157154&CFID=140261464&CFTOKEN=53881816&preflayout=flat', 'http://dl.acm.org/citation.cfm?id=1508965&CFID=140261464&CFTOKEN=53881816&preflayout=flat', 'http://dl.acm.org/citation.cfm?id=1508967&CFID=140261464&CFTOKEN=53881816&preflayout=flat'], ['Status update: high school CS internationally', 'http://dl.acm.org/citation.cfm?id=2189861&CFID=140261464&CFTOKEN=53881816&preflayout=flat', 'http://dl.acm.org/ft_gateway.cfm?id=2189861&ftid=1226249&dwn=1&CFID=140261464&CFTOKEN=53881816', 'Snyder, Lawrence', '06/01/2012', '\\r\\n\\t\\t\\t\\t\\t', 0, []], ['Design and evaluation of a braided teaching course in sixth grade computer science education', 'http://dl.acm.org/citation.cfm?id=2157154&CFID=140261464&CFTOKEN=53881816&preflayout=flat', 'http://dl.acm.org/ft_gateway.cfm?id=2157154&ftid=1161236&dwn=1&CFID=140261464&CFTOKEN=53881816', 'Pasternak, Arno; Vahrenhold, Jan', '02/29/2012', '\\r\\n\\t\\t\\t\\t\\t', 0, []], ['Preparation of high school computer science teachers: the Israeli perspective', 'http://dl.acm.org/citation.cfm?id=1508965&CFID=140261464&CFTOKEN=53881816&preflayout=flat', 'http://dl.acm.org/ft_gateway.cfm?id=1508965&ftid=600411&dwn=1&CFID=140261464&CFTOKEN=53881816', 'Gal-Ezer, Judith; Hazzan, Orit; Ragonis, Noa', '03/04/2009', '\\r\\n\\t\\t\\t\\t\\t', '3', ['http://dl.acm.org/citation.cfm?id=2189861&CFID=140261464&CFTOKEN=53881816&preflayout=flat', 'http://dl.acm.org/citation.cfm?id=2176506&CFID=140261464&CFTOKEN=53881816&preflayout=flat', 'http://dl.acm.org/citation.cfm?id=2048934&CFID=140261464&CFTOKEN=53881816&preflayout=flat', ''], ['Status update: high school CS internationally', 'http://dl.acm.org/citation.cfm?id=2189861&CFID=140261464&CFTOKEN=53881816&preflayout=flat', 'http://dl.acm.org/ft_gateway.cfm?id=2189861&ftid=1226249&dwn=1&CFID=140261464&CFTOKEN=53881816', 'Snyder, Lawrence', '06/01/2012', '\\r\\n\\t\\t\\t\\t\\t', 0, []]]]]"
p3280
sS'l1'
p3281
S"['computer science', 4, 4, True, True, True]"
p3282
ssg3198
I85
sg3199
(dp3283
I80
S'            z=cite(x)'
p3284
sI81
S'            #global listf'
p3285
sI82
S'            #listf[count-1].append(z)'
p3286
sI83
S'            bigans.append(z)'
p3287
sI84
S'            if count < l1[1]:'
p3288
sI85
S'                rec(z[7],l1,bigans[-1])'
p3289
sI86
S'    count=count-1'
p3290
sI87
S'    return'
p3291
sI88
S'def cite(url):'
p3292
sI89
S"    if url=='':"
p3293
ssg3211
S"(list1=['http://dl.acm.org/citation.cfm?id=1352135.135223...M&CFID=140261464&CFTOKEN=53881816&preflayout=flat', 'http://dl.acm.org/citation.cfm?id=1121341.112135...M&CFID=140261464&CFTOKEN=53881816&preflayout=flat', 'http://dl.acm.org/citation.cfm?id=1121341.112147...M&CFID=140261464&CFTOKEN=53881816&preflayout=flat', 'http://dl.acm.org/citation.cfm?id=1227310.122745...M&CFID=140261464&CFTOKEN=53881816&preflayout=flat'], l1=['computer science', 4, 4, True, True, True], bigans=[['A model for high school computer science education: the four key elements that make it!', 'http://dl.acm.org/citation.cfm?id=1352135.135223...M&CFID=140261464&CFTOKEN=53881816&preflayout=flat', 'http://dl.acm.org/ft_gateway.cfm?id=1352233&ftid=502628&dwn=1&CFID=140261464&CFTOKEN=53881816', 'Hazzan, Orit; Gal-Ezer, Judith; Blum, Lenore', '03/12/2008', '\\r\\n\\t\\t\\t\\t\\t', '11', ['http://dl.acm.org/citation.cfm?id=2189861&CFID=140261464&CFTOKEN=53881816&preflayout=flat', 'http://dl.acm.org/citation.cfm?id=2157154&CFID=140261464&CFTOKEN=53881816&preflayout=flat', 'http://dl.acm.org/citation.cfm?id=1508965&CFID=140261464&CFTOKEN=53881816&preflayout=flat', 'http://dl.acm.org/citation.cfm?id=1508967&CFID=140261464&CFTOKEN=53881816&preflayout=flat'], ['Status update: high school CS internationally', 'http://dl.acm.org/citation.cfm?id=2189861&CFID=140261464&CFTOKEN=53881816&preflayout=flat', 'http://dl.acm.org/ft_gateway.cfm?id=2189861&ftid=1226249&dwn=1&CFID=140261464&CFTOKEN=53881816', 'Snyder, Lawrence', '06/01/2012', '\\r\\n\\t\\t\\t\\t\\t', 0, []], ['Design and evaluation of a braided teaching course in sixth grade computer science education', 'http://dl.acm.org/citation.cfm?id=2157154&CFID=140261464&CFTOKEN=53881816&preflayout=flat', 'http://dl.acm.org/ft_gateway.cfm?id=2157154&ftid=1161236&dwn=1&CFID=140261464&CFTOKEN=53881816', 'Pasternak, Arno; Vahrenhold, Jan', '02/29/2012', '\\r\\n\\t\\t\\t\\t\\t', 0, []], ['Preparation of high school computer science teachers: the Israeli perspective', 'http://dl.acm.org/citation.cfm?id=1508965&CFID=140261464&CFTOKEN=53881816&preflayout=flat', 'http://dl.acm.org/ft_gateway.cfm?id=1508965&ftid=600411&dwn=1&CFID=140261464&CFTOKEN=53881816', 'Gal-Ezer, Judith; Hazzan, Orit; Ragonis, Noa', '03/04/2009', '\\r\\n\\t\\t\\t\\t\\t', '3', ['http://dl.acm.org/citation.cfm?id=2189861&CFID=140261464&CFTOKEN=53881816&preflayout=flat', 'http://dl.acm.org/citation.cfm?id=2176506&CFID=140261464&CFTOKEN=53881816&preflayout=flat', 'http://dl.acm.org/citation.cfm?id=2048934&CFID=140261464&CFTOKEN=53881816&preflayout=flat', ''], ['Status update: high school CS internationally', 'http://dl.acm.org/citation.cfm?id=2189861&CFID=140261464&CFTOKEN=53881816&preflayout=flat', 'http://dl.acm.org/ft_gateway.cfm?id=2189861&ftid=1226249&dwn=1&CFID=140261464&CFTOKEN=53881816', 'Snyder, Lawrence', '06/01/2012', '\\r\\n\\t\\t\\t\\t\\t', 0, []]]]])"
p3294
sg3213
S'rec'
p3295
sa(dp3296
g3190
S'/home/chitra/courses/SSAD/web2py/applications/cite_m5/controllers/default.py'
p3297
sg3192
(dp3298
S'global rec'
p3299
S'<function rec>'
p3300
sS'z'
S"['Preparation of high school computer science teachers: the Israeli perspective', 'http://dl.acm.org/citation.cfm?id=1508965&CFID=140261464&CFTOKEN=53881816&preflayout=flat', 'http://dl.acm.org/ft_gateway.cfm?id=1508965&ftid=600411&dwn=1&CFID=140261464&CFTOKEN=53881816', 'Gal-Ezer, Judith; Hazzan, Orit; Ragonis, Noa', '03/04/2009', '\\r\\n\\t\\t\\t\\t\\t', '3', ['http://dl.acm.org/citation.cfm?id=2189861&CFID=140261464&CFTOKEN=53881816&preflayout=flat', 'http://dl.acm.org/citation.cfm?id=2176506&CFID=140261464&CFTOKEN=53881816&preflayout=flat', 'http://dl.acm.org/citation.cfm?id=2048934&CFID=140261464&CFTOKEN=53881816&preflayout=flat', ''], ['Status update: high school CS internationally', 'http://dl.acm.org/citation.cfm?id=2189861&CFID=140261464&CFTOKEN=53881816&preflayout=flat', 'http://dl.acm.org/ft_gateway.cfm?id=2189861&ftid=1226249&dwn=1&CFID=140261464&CFTOKEN=53881816', 'Snyder, Lawrence', '06/01/2012', '\\r\\n\\t\\t\\t\\t\\t', 0, []]]"
p3301
sS'bigans'
p3302
S"['A model for high school computer science education: the four key elements that make it!', 'http://dl.acm.org/citation.cfm?id=1352135.135223...M&CFID=140261464&CFTOKEN=53881816&preflayout=flat', 'http://dl.acm.org/ft_gateway.cfm?id=1352233&ftid=502628&dwn=1&CFID=140261464&CFTOKEN=53881816', 'Hazzan, Orit; Gal-Ezer, Judith; Blum, Lenore', '03/12/2008', '\\r\\n\\t\\t\\t\\t\\t', '11', ['http://dl.acm.org/citation.cfm?id=2189861&CFID=140261464&CFTOKEN=53881816&preflayout=flat', 'http://dl.acm.org/citation.cfm?id=2157154&CFID=140261464&CFTOKEN=53881816&preflayout=flat', 'http://dl.acm.org/citation.cfm?id=1508965&CFID=140261464&CFTOKEN=53881816&preflayout=flat', 'http://dl.acm.org/citation.cfm?id=1508967&CFID=140261464&CFTOKEN=53881816&preflayout=flat'], ['Status update: high school CS internationally', 'http://dl.acm.org/citation.cfm?id=2189861&CFID=140261464&CFTOKEN=53881816&preflayout=flat', 'http://dl.acm.org/ft_gateway.cfm?id=2189861&ftid=1226249&dwn=1&CFID=140261464&CFTOKEN=53881816', 'Snyder, Lawrence', '06/01/2012', '\\r\\n\\t\\t\\t\\t\\t', 0, []], ['Design and evaluation of a braided teaching course in sixth grade computer science education', 'http://dl.acm.org/citation.cfm?id=2157154&CFID=140261464&CFTOKEN=53881816&preflayout=flat', 'http://dl.acm.org/ft_gateway.cfm?id=2157154&ftid=1161236&dwn=1&CFID=140261464&CFTOKEN=53881816', 'Pasternak, Arno; Vahrenhold, Jan', '02/29/2012', '\\r\\n\\t\\t\\t\\t\\t', 0, []], ['Preparation of high school computer science teachers: the Israeli perspective', 'http://dl.acm.org/citation.cfm?id=1508965&CFID=140261464&CFTOKEN=53881816&preflayout=flat', 'http://dl.acm.org/ft_gateway.cfm?id=1508965&ftid=600411&dwn=1&CFID=140261464&CFTOKEN=53881816', 'Gal-Ezer, Judith; Hazzan, Orit; Ragonis, Noa', '03/04/2009', '\\r\\n\\t\\t\\t\\t\\t', '3', ['http://dl.acm.org/citation.cfm?id=2189861&CFID=140261464&CFTOKEN=53881816&preflayout=flat', 'http://dl.acm.org/citation.cfm?id=2176506&CFID=140261464&CFTOKEN=53881816&preflayout=flat', 'http://dl.acm.org/citation.cfm?id=2048934&CFID=140261464&CFTOKEN=53881816&preflayout=flat', ''], ['Status update: high school CS internationally', 'http://dl.acm.org/citation.cfm?id=2189861&CFID=140261464&CFTOKEN=53881816&preflayout=flat', 'http://dl.acm.org/ft_gateway.cfm?id=2189861&ftid=1226249&dwn=1&CFID=140261464&CFTOKEN=53881816', 'Snyder, Lawrence', '06/01/2012', '\\r\\n\\t\\t\\t\\t\\t', 0, []]]]"
p3303
sS'l1'
p3304
S"['computer science', 4, 4, True, True, True]"
p3305
ssg3198
I85
sg3199
(dp3306
I80
S'            z=cite(x)'
p3307
sI81
S'            #global listf'
p3308
sI82
S'            #listf[count-1].append(z)'
p3309
sI83
S'            bigans.append(z)'
p3310
sI84
S'            if count < l1[1]:'
p3311
sI85
S'                rec(z[7],l1,bigans[-1])'
p3312
sI86
S'    count=count-1'
p3313
sI87
S'    return'
p3314
sI88
S'def cite(url):'
p3315
sI89
S"    if url=='':"
p3316
ssg3211
S"(list1=['http://dl.acm.org/citation.cfm?id=2189861&CFID=140261464&CFTOKEN=53881816&preflayout=flat', 'http://dl.acm.org/citation.cfm?id=2157154&CFID=140261464&CFTOKEN=53881816&preflayout=flat', 'http://dl.acm.org/citation.cfm?id=1508965&CFID=140261464&CFTOKEN=53881816&preflayout=flat', 'http://dl.acm.org/citation.cfm?id=1508967&CFID=140261464&CFTOKEN=53881816&preflayout=flat'], l1=['computer science', 4, 4, True, True, True], bigans=['A model for high school computer science education: the four key elements that make it!', 'http://dl.acm.org/citation.cfm?id=1352135.135223...M&CFID=140261464&CFTOKEN=53881816&preflayout=flat', 'http://dl.acm.org/ft_gateway.cfm?id=1352233&ftid=502628&dwn=1&CFID=140261464&CFTOKEN=53881816', 'Hazzan, Orit; Gal-Ezer, Judith; Blum, Lenore', '03/12/2008', '\\r\\n\\t\\t\\t\\t\\t', '11', ['http://dl.acm.org/citation.cfm?id=2189861&CFID=140261464&CFTOKEN=53881816&preflayout=flat', 'http://dl.acm.org/citation.cfm?id=2157154&CFID=140261464&CFTOKEN=53881816&preflayout=flat', 'http://dl.acm.org/citation.cfm?id=1508965&CFID=140261464&CFTOKEN=53881816&preflayout=flat', 'http://dl.acm.org/citation.cfm?id=1508967&CFID=140261464&CFTOKEN=53881816&preflayout=flat'], ['Status update: high school CS internationally', 'http://dl.acm.org/citation.cfm?id=2189861&CFID=140261464&CFTOKEN=53881816&preflayout=flat', 'http://dl.acm.org/ft_gateway.cfm?id=2189861&ftid=1226249&dwn=1&CFID=140261464&CFTOKEN=53881816', 'Snyder, Lawrence', '06/01/2012', '\\r\\n\\t\\t\\t\\t\\t', 0, []], ['Design and evaluation of a braided teaching course in sixth grade computer science education', 'http://dl.acm.org/citation.cfm?id=2157154&CFID=140261464&CFTOKEN=53881816&preflayout=flat', 'http://dl.acm.org/ft_gateway.cfm?id=2157154&ftid=1161236&dwn=1&CFID=140261464&CFTOKEN=53881816', 'Pasternak, Arno; Vahrenhold, Jan', '02/29/2012', '\\r\\n\\t\\t\\t\\t\\t', 0, []], ['Preparation of high school computer science teachers: the Israeli perspective', 'http://dl.acm.org/citation.cfm?id=1508965&CFID=140261464&CFTOKEN=53881816&preflayout=flat', 'http://dl.acm.org/ft_gateway.cfm?id=1508965&ftid=600411&dwn=1&CFID=140261464&CFTOKEN=53881816', 'Gal-Ezer, Judith; Hazzan, Orit; Ragonis, Noa', '03/04/2009', '\\r\\n\\t\\t\\t\\t\\t', '3', ['http://dl.acm.org/citation.cfm?id=2189861&CFID=140261464&CFTOKEN=53881816&preflayout=flat', 'http://dl.acm.org/citation.cfm?id=2176506&CFID=140261464&CFTOKEN=53881816&preflayout=flat', 'http://dl.acm.org/citation.cfm?id=2048934&CFID=140261464&CFTOKEN=53881816&preflayout=flat', ''], ['Status update: high school CS internationally', 'http://dl.acm.org/citation.cfm?id=2189861&CFID=140261464&CFTOKEN=53881816&preflayout=flat', 'http://dl.acm.org/ft_gateway.cfm?id=2189861&ftid=1226249&dwn=1&CFID=140261464&CFTOKEN=53881816', 'Snyder, Lawrence', '06/01/2012', '\\r\\n\\t\\t\\t\\t\\t', 0, []]]])"
p3317
sg3213
g3295
sa(dp3318
g3190
S'/home/chitra/courses/SSAD/web2py/applications/cite_m5/controllers/default.py'
p3319
sg3192
(dp3320
S'global cite'
p3321
S'<function cite>'
p3322
sS'z'
S"['Status update: high school CS internationally', 'http://dl.acm.org/citation.cfm?id=2189861&CFID=140261464&CFTOKEN=53881816&preflayout=flat', 'http://dl.acm.org/ft_gateway.cfm?id=2189861&ftid=1226249&dwn=1&CFID=140261464&CFTOKEN=53881816', 'Snyder, Lawrence', '06/01/2012', '\\r\\n\\t\\t\\t\\t\\t', 0, []]"
p3323
sS'x'
S"'http://dl.acm.org/citation.cfm?id=2176506&CFID=140261464&CFTOKEN=53881816&preflayout=flat'"
p3324
ssg3198
I80
sg3199
(dp3325
I75
S'    count=count+1'
p3326
sI76
S'    global listf'
p3327
sI77
S'    listf.append([])'
p3328
sI78
S'    for x in list1:'
p3329
sI79
S"        if x!='':"
p3330
sI80
S'            z=cite(x)'
p3331
sI81
S'            #global listf'
p3332
sI82
S'            #listf[count-1].append(z)'
p3333
sI83
S'            bigans.append(z)'
p3334
sI84
S'            if count < l1[1]:'
p3335
ssg3211
S"(list1=['http://dl.acm.org/citation.cfm?id=2189861&CFID=140261464&CFTOKEN=53881816&preflayout=flat', 'http://dl.acm.org/citation.cfm?id=2176506&CFID=140261464&CFTOKEN=53881816&preflayout=flat', 'http://dl.acm.org/citation.cfm?id=2048934&CFID=140261464&CFTOKEN=53881816&preflayout=flat', ''], l1=['computer science', 4, 4, True, True, True], bigans=['Preparation of high school computer science teachers: the Israeli perspective', 'http://dl.acm.org/citation.cfm?id=1508965&CFID=140261464&CFTOKEN=53881816&preflayout=flat', 'http://dl.acm.org/ft_gateway.cfm?id=1508965&ftid=600411&dwn=1&CFID=140261464&CFTOKEN=53881816', 'Gal-Ezer, Judith; Hazzan, Orit; Ragonis, Noa', '03/04/2009', '\\r\\n\\t\\t\\t\\t\\t', '3', ['http://dl.acm.org/citation.cfm?id=2189861&CFID=140261464&CFTOKEN=53881816&preflayout=flat', 'http://dl.acm.org/citation.cfm?id=2176506&CFID=140261464&CFTOKEN=53881816&preflayout=flat', 'http://dl.acm.org/citation.cfm?id=2048934&CFID=140261464&CFTOKEN=53881816&preflayout=flat', ''], ['Status update: high school CS internationally', 'http://dl.acm.org/citation.cfm?id=2189861&CFID=140261464&CFTOKEN=53881816&preflayout=flat', 'http://dl.acm.org/ft_gateway.cfm?id=2189861&ftid=1226249&dwn=1&CFID=140261464&CFTOKEN=53881816', 'Snyder, Lawrence', '06/01/2012', '\\r\\n\\t\\t\\t\\t\\t', 0, []]])"
p3336
sg3213
g3295
sa(dp3337
g3190
S'/home/chitra/courses/SSAD/web2py/applications/cite_m5/controllers/default.py'
p3338
sg3192
(dp3339
S'url'
p3340
S"'http://dl.acm.org/citation.cfm?id=2176506&CFID=140261464&CFTOKEN=53881816&preflayout=flat'"
p3341
sS'html'
p3342
g3235
sS'global fetch'
p3343
S'<function fetch>'
p3344
ssg3198
I92
sg3199
(dp3345
I96
S'    d=bold(d)'
p3346
sI87
S'    return'
p3347
sI88
S'def cite(url):'
p3348
sI89
S"    if url=='':"
p3349
sI90
S'        return []'
p3350
sI91
S'    l1=u_filter()'
p3351
sI92
S'    html=fetch(url)'
p3352
sI93
S'    temp=[]'
p3353
sI94
S'        #temp=[]'
p3354
sI95
S'    d=re.search(\'<meta name="citation_title"[\\w\\W]*?>\',html).group()'
p3355
ssg3211
S"(url='http://dl.acm.org/citation.cfm?id=2176506&CFID=140261464&CFTOKEN=53881816&preflayout=flat')"
p3356
sg3213
S'cite'
p3357
sa(dp3358
g3190
S'/home/chitra/courses/SSAD/web2py/gluon/tools.py'
p3359
sg3192
(dp3360
S'urllib2.urlopen'
p3361
S'<function urlopen>'
p3362
sS'global urllib2'
p3363
S"<module 'urllib2' from '/usr/lib/python2.7/urllib2.pyc'>"
p3364
sS'html'
p3365
g3235
sS'req'
p3366
S'<urllib2.Request instance>'
p3367
sS').read'
p3368
g3235
ssg3198
I3424
sg3199
(dp3369
I3424
S'        html = urllib2.urlopen(req).read()'
p3370
sI3425
S'    else:'
p3371
sI3426
S'        method = ((data is None) and urlfetch.GET) or urlfetch.POST'
p3372
sI3427
S'        while url is not None:'
p3373
sI3428
S'            response = urlfetch.fetch(url=url, payload=data,'
p3374
sI3419
S"    headers['Cookie'] = ' '.join(['%s=%s;'%(c.key,c.value) for c in cookie.values()])"
p3375
sI3420
S'    try:'
p3376
sI3421
S'        from google.appengine.api import urlfetch'
p3377
sI3422
S'    except ImportError:'
p3378
sI3423
S'        req = urllib2.Request(url, data, headers)'
p3379
ssg3211
S"(url='http://dl.acm.org/citation.cfm?id=2176506&CFID=140261464&CFTOKEN=53881816&preflayout=flat', data=None, headers={'Cookie': '', 'User-agent': 'Mozilla/5.0'}, cookie=<SimpleCookie: >, user_agent='Mozilla/5.0')"
p3380
sg3213
S'fetch'
p3381
sa(dp3382
g3190
S'/usr/lib/python2.7/urllib2.py'
p3383
sg3192
(dp3384
S'_opener.open'
p3385
S'<bound method OpenerDirector.open of <urllib2.OpenerDirector instance>>'
p3386
sS'url'
p3387
S'<urllib2.Request instance>'
p3388
sS'data'
p3389
S'None'
p3390
sS'global _opener'
p3391
S'<urllib2.OpenerDirector instance>'
p3392
sS'timeout'
p3393
S'<object object>'
p3394
ssg3198
I126
sg3199
(dp3395
I128
S'def install_opener(opener):'
p3396
sI129
S'    global _opener'
p3397
sI130
S'    _opener = opener'
p3398
sI121
S'_opener = None'
p3399
sI122
S'def urlopen(url, data=None, timeout=socket._GLOBAL_DEFAULT_TIMEOUT):'
p3400
sI123
S'    global _opener'
p3401
sI124
S'    if _opener is None:'
p3402
sI125
S'        _opener = build_opener()'
p3403
sI126
S'    return _opener.open(url, data, timeout)'
p3404
sI127
S''
ssg3211
S'(url=<urllib2.Request instance>, data=None, timeout=<object object>)'
p3405
sg3213
S'urlopen'
p3406
sa(dp3407
g3190
S'/usr/lib/python2.7/urllib2.py'
p3408
sg3192
(dp3409
S'meth'
p3410
S'<bound method HTTPErrorProcessor.http_response of <urllib2.HTTPErrorProcessor instance>>'
p3411
sS'req'
p3412
S'<urllib2.Request instance>'
p3413
sS'response'
p3414
S'<addinfourl at 140452281536168 whose fp = <socket._fileobject object>>'
p3415
ssg3198
I406
sg3199
(dp3416
I401
S''
sI402
S'        # post-process response'
p3417
sI403
S'        meth_name = protocol+"_response"'
p3418
sI404
S'        for processor in self.process_response.get(protocol, []):'
p3419
sI405
S'            meth = getattr(processor, meth_name)'
p3420
sI406
S'            response = meth(req, response)'
p3421
sI407
S''
sI408
S'        return response'
p3422
sI409
S''
sI410
S'    def _open(self, req, data=None):'
p3423
ssg3211
S'(self=<urllib2.OpenerDirector instance>, fullurl=<urllib2.Request instance>, data=None, timeout=<object object>)'
p3424
sg3213
S'open'
p3425
sa(dp3426
g3190
S'/usr/lib/python2.7/urllib2.py'
p3427
sg3192
(dp3428
S'msg'
p3429
S"'Forbidden'"
p3430
sS'code'
p3431
S'403'
p3432
sS'request'
p3433
S'<urllib2.Request instance>'
p3434
sS'response'
p3435
S'<addinfourl at 140452281536168 whose fp = <socket._fileobject object>>'
p3436
sS'hdrs'
p3437
S'<httplib.HTTPMessage instance>'
p3438
ssg3198
I519
sg3199
(dp3439
I514
S''
sI515
S'        # According to RFC 2616, "2xx" code indicates that the client\'s'
p3440
sI516
S'        # request was successfully received, understood, and accepted.'
p3441
sI517
S'        if not (200 <= code < 300):'
p3442
sI518
S'            response = self.parent.error('
p3443
sI519
S"                'http', request, response, code, msg, hdrs)"
p3444
sI520
S''
sI521
S'        return response'
p3445
sI522
S''
sI523
S'    https_response = http_response'
p3446
ssg3211
S'(self=<urllib2.HTTPErrorProcessor instance>, request=<urllib2.Request instance>, response=<addinfourl at 140452281536168 whose fp = <socket._fileobject object>>)'
p3447
sg3213
S'http_response'
p3448
sa(dp3449
g3190
S'/usr/lib/python2.7/urllib2.py'
p3450
sg3192
(dp3451
S'self._call_chain'
p3452
S'<bound method OpenerDirector._call_chain of <urllib2.OpenerDirector instance>>'
p3453
sS'self'
p3454
S'<urllib2.OpenerDirector instance>'
p3455
sS'args'
p3456
S"({301: [<urllib2.HTTPRedirectHandler instance>], 302: [<urllib2.HTTPRedirectHandler instance>], 303: [<urllib2.HTTPRedirectHandler instance>], 307: [<urllib2.HTTPRedirectHandler instance>], 'default': [<urllib2.HTTPDefaultErrorHandler instance>]}, 'default', 'http_error_default', <urllib2.Request instance>, <addinfourl at 140452281536168 whose fp = <socket._fileobject object>>, 403, 'Forbidden', <httplib.HTTPMessage instance>)"
p3457
ssg3198
I444
sg3199
(dp3458
I448
S'# make sense to include both'
p3459
sI439
S'        if result:'
p3460
sI440
S'            return result'
p3461
sI441
S''
sI442
S'        if http_err:'
p3462
sI443
S"            args = (dict, 'default', 'http_error_default') + orig_args"
p3463
sI444
S'            return self._call_chain(*args)'
p3464
sI445
S''
sI446
S'# XXX probably also want an abstract factory that knows when it makes'
p3465
sI447
S'# sense to skip a superclass in favor of a subclass and when it might'
p3466
ssg3211
S"(self=<urllib2.OpenerDirector instance>, proto=403, *args=({301: [<urllib2.HTTPRedirectHandler instance>], 302: [<urllib2.HTTPRedirectHandler instance>], 303: [<urllib2.HTTPRedirectHandler instance>], 307: [<urllib2.HTTPRedirectHandler instance>], 'default': [<urllib2.HTTPDefaultErrorHandler instance>]}, 'default', 'http_error_default', <urllib2.Request instance>, <addinfourl at 140452281536168 whose fp = <socket._fileobject object>>, 403, 'Forbidden', <httplib.HTTPMessage instance>))"
p3467
sg3213
S'error'
p3468
sa(dp3469
g3190
S'/usr/lib/python2.7/urllib2.py'
p3470
sg3192
(dp3471
S'args'
p3472
S"(<urllib2.Request instance>, <addinfourl at 140452281536168 whose fp = <socket._fileobject object>>, 403, 'Forbidden', <httplib.HTTPMessage instance>)"
p3473
sS'result'
p3474
g3235
sS'func'
p3475
S'<bound method HTTPDefaultErrorHandler.http_error...lt of <urllib2.HTTPDefaultErrorHandler instance>>'
p3476
ssg3198
I378
sg3199
(dp3477
I373
S'        # could.  Otherwise, they return the response.'
p3478
sI374
S'        handlers = chain.get(kind, ())'
p3479
sI375
S'        for handler in handlers:'
p3480
sI376
S'            func = getattr(handler, meth_name)'
p3481
sI377
S''
sI378
S'            result = func(*args)'
p3482
sI379
S'            if result is not None:'
p3483
sI380
S'                return result'
p3484
sI381
S''
sI382
S'    def open(self, fullurl, data=None, timeout=socket._GLOBAL_DEFAULT_TIMEOUT):'
p3485
ssg3211
S"(self=<urllib2.OpenerDirector instance>, chain={301: [<urllib2.HTTPRedirectHandler instance>], 302: [<urllib2.HTTPRedirectHandler instance>], 303: [<urllib2.HTTPRedirectHandler instance>], 307: [<urllib2.HTTPRedirectHandler instance>], 'default': [<urllib2.HTTPDefaultErrorHandler instance>]}, kind='default', meth_name='http_error_default', *args=(<urllib2.Request instance>, <addinfourl at 140452281536168 whose fp = <socket._fileobject object>>, 403, 'Forbidden', <httplib.HTTPMessage instance>))"
p3486
sg3213
S'_call_chain'
p3487
sa(dp3488
g3190
S'/usr/lib/python2.7/urllib2.py'
p3489
sg3192
(dp3490
S'fp'
p3491
S'<addinfourl at 140452281536168 whose fp = <socket._fileobject object>>'
p3492
sS'code'
p3493
S'403'
p3494
sS'hdrs'
p3495
S'<httplib.HTTPMessage instance>'
p3496
sS'req'
p3497
S'<urllib2.Request instance>'
p3498
sS'req.get_full_url'
p3499
S'<bound method Request.get_full_url of <urllib2.Request instance>>'
p3500
sS'msg'
p3501
S"'Forbidden'"
p3502
sS'global HTTPError'
p3503
S"<class 'urllib2.HTTPError'>"
p3504
ssg3198
I527
sg3199
(dp3505
I522
S''
sI523
S'    https_response = http_response'
p3506
sI524
S''
sI525
S'class HTTPDefaultErrorHandler(BaseHandler):'
p3507
sI526
S'    def http_error_default(self, req, fp, code, msg, hdrs):'
p3508
sI527
S'        raise HTTPError(req.get_full_url(), code, msg, hdrs, fp)'
p3509
sI528
S''
sI529
S'class HTTPRedirectHandler(BaseHandler):'
p3510
sI530
S'    # maximum number of redirections to any single URL'
p3511
sI531
S'    # this is needed because of the state that cookies introduce'
p3512
ssg3211
S"(self=<urllib2.HTTPDefaultErrorHandler instance>, req=<urllib2.Request instance>, fp=<addinfourl at 140452281536168 whose fp = <socket._fileobject object>>, code=403, msg='Forbidden', hdrs=<httplib.HTTPMessage instance>)"
p3513
sg3213
S'http_error_default'
p3514
sasS'pyver'
p3515
S'Python 2.7.3: /usr/bin/python'
p3516
sS'session'
p3517
g102
(g103
g104
NtRp3518
(dp3519
g107
(dp3520
sg109
(lp3521
g102
(g111
g104
NtRp3522
(dp3523
g107
(dp3524
g115
I5
ssg116
Nsg109
(lp3525
g102
(g118
g104
NtRp3526
(dp3527
g107
(dp3528
sg116
g3522
sg109
(lp3529
g102
(g123
g104
NtRp3530
(dp3531
g107
(dp3532
g127
g128
ssg116
g3526
sg109
(lp3533
S'auth'
p3534
asbag102
(g123
g104
NtRp3535
(dp3536
g107
(dp3537
g134
g135
ssg116
g3526
sg109
(lp3538
S':'
asbag102
(g123
g104
NtRp3539
(dp3540
g107
(dp3541
sg116
g3526
sg109
(lp3542
g102
(g103
g104
NtRp3543
(dp3544
g107
(dp3545
g115
I5
ssg116
g3539
sg109
(lp3546
g102
(g111
g104
NtRp3547
(dp3548
g107
(dp3549
g115
I4
ssg116
Nsg109
(lp3550
g102
(g118
g104
NtRp3551
(dp3552
g107
(dp3553
sg116
g3547
sg109
(lp3554
g102
(g123
g104
NtRp3555
(dp3556
g107
(dp3557
g127
g128
ssg116
g3551
sg109
(lp3558
S'expiration'
p3559
asbag102
(g123
g104
NtRp3560
(dp3561
g107
(dp3562
g134
g135
ssg116
g3551
sg109
(lp3563
S':'
asbag102
(g123
g104
NtRp3564
(dp3565
g107
(dp3566
sg116
g3551
sg109
(lp3567
g102
(g103
g104
NtRp3568
(dp3569
g107
(dp3570
g115
I4
ssg116
g3564
sg109
(lp3571
S'3600'
p3572
asbasbasbag102
(g118
g104
NtRp3573
(dp3574
g107
(dp3575
sg116
g3547
sg109
(lp3576
g102
(g123
g104
NtRp3577
(dp3578
g107
(dp3579
g127
g128
ssg116
g3573
sg109
(lp3580
S'hmac_key'
p3581
asbag102
(g123
g104
NtRp3582
(dp3583
g107
(dp3584
g134
g135
ssg116
g3573
sg109
(lp3585
S':'
asbag102
(g123
g104
NtRp3586
(dp3587
g107
(dp3588
sg116
g3573
sg109
(lp3589
g102
(g103
g104
NtRp3590
(dp3591
g107
(dp3592
g115
I4
ssg116
g3586
sg109
(lp3593
S'd0f1366c-267a-49b6-901c-66d517e6ac29'
p3594
asbasbasbag102
(g118
g104
NtRp3595
(dp3596
g107
(dp3597
sg116
g3547
sg109
(lp3598
g102
(g123
g104
NtRp3599
(dp3600
g107
(dp3601
g127
g128
ssg116
g3595
sg109
(lp3602
S'last_visit'
p3603
asbag102
(g123
g104
NtRp3604
(dp3605
g107
(dp3606
g134
g135
ssg116
g3595
sg109
(lp3607
S':'
asbag102
(g123
g104
NtRp3608
(dp3609
g107
(dp3610
sg116
g3595
sg109
(lp3611
g102
(g103
g104
NtRp3612
(dp3613
g107
(dp3614
g115
I4
ssg116
g3608
sg109
(lp3615
S'datetime.datetime(2012, 11, 12, 2, 48, 5, 683764)'
p3616
asbasbasbag102
(g118
g104
NtRp3617
(dp3618
g107
(dp3619
sg116
g3547
sg109
(lp3620
g102
(g123
g104
NtRp3621
(dp3622
g107
(dp3623
g127
g128
ssg116
g3617
sg109
(lp3624
S'remember'
p3625
asbag102
(g123
g104
NtRp3626
(dp3627
g107
(dp3628
g134
g135
ssg116
g3617
sg109
(lp3629
S':'
asbag102
(g123
g104
NtRp3630
(dp3631
g107
(dp3632
sg116
g3617
sg109
(lp3633
g102
(g103
g104
NtRp3634
(dp3635
g107
(dp3636
g115
I4
ssg116
g3630
sg109
(lp3637
g145
asbasbasbag102
(g118
g104
NtRp3638
(dp3639
g107
(dp3640
sg116
g3547
sg109
(lp3641
g102
(g123
g104
NtRp3642
(dp3643
g107
(dp3644
g127
g128
ssg116
g3638
sg109
(lp3645
S'user'
p3646
asbag102
(g123
g104
NtRp3647
(dp3648
g107
(dp3649
g134
g135
ssg116
g3638
sg109
(lp3650
S':'
asbag102
(g123
g104
NtRp3651
(dp3652
g107
(dp3653
sg116
g3638
sg109
(lp3654
g102
(g103
g104
NtRp3655
(dp3656
g107
(dp3657
g115
I4
ssg116
g3651
sg109
(lp3658
g102
(g111
g104
NtRp3659
(dp3660
g107
(dp3661
g115
I3
ssg116
Nsg109
(lp3662
g102
(g118
g104
NtRp3663
(dp3664
g107
(dp3665
sg116
g3659
sg109
(lp3666
g102
(g123
g104
NtRp3667
(dp3668
g107
(dp3669
g127
g128
ssg116
g3663
sg109
(lp3670
S'created_on'
p3671
asbag102
(g123
g104
NtRp3672
(dp3673
g107
(dp3674
g134
g135
ssg116
g3663
sg109
(lp3675
S':'
asbag102
(g123
g104
NtRp3676
(dp3677
g107
(dp3678
sg116
g3663
sg109
(lp3679
g102
(g103
g104
NtRp3680
(dp3681
g107
(dp3682
g115
I3
ssg116
g3676
sg109
(lp3683
S'datetime.datetime(2012, 10, 23, 2, 28, 41)'
p3684
asbasbasbag102
(g118
g104
NtRp3685
(dp3686
g107
(dp3687
sg116
g3659
sg109
(lp3688
g102
(g123
g104
NtRp3689
(dp3690
g107
(dp3691
g127
g128
ssg116
g3685
sg109
(lp3692
S'email'
p3693
asbag102
(g123
g104
NtRp3694
(dp3695
g107
(dp3696
g134
g135
ssg116
g3685
sg109
(lp3697
S':'
asbag102
(g123
g104
NtRp3698
(dp3699
g107
(dp3700
sg116
g3685
sg109
(lp3701
g102
(g103
g104
NtRp3702
(dp3703
g107
(dp3704
g115
I3
ssg116
g3698
sg109
(lp3705
S'manu@gmail.com'
p3706
asbasbasbag102
(g118
g104
NtRp3707
(dp3708
g107
(dp3709
sg116
g3659
sg109
(lp3710
g102
(g123
g104
NtRp3711
(dp3712
g107
(dp3713
g127
g128
ssg116
g3707
sg109
(lp3714
S'first_name'
p3715
asbag102
(g123
g104
NtRp3716
(dp3717
g107
(dp3718
g134
g135
ssg116
g3707
sg109
(lp3719
S':'
asbag102
(g123
g104
NtRp3720
(dp3721
g107
(dp3722
sg116
g3707
sg109
(lp3723
g102
(g103
g104
NtRp3724
(dp3725
g107
(dp3726
g115
I3
ssg116
g3720
sg109
(lp3727
S'manu'
p3728
asbasbasbag102
(g118
g104
NtRp3729
(dp3730
g107
(dp3731
sg116
g3659
sg109
(lp3732
g102
(g123
g104
NtRp3733
(dp3734
g107
(dp3735
g127
g128
ssg116
g3729
sg109
(lp3736
S'id'
p3737
asbag102
(g123
g104
NtRp3738
(dp3739
g107
(dp3740
g134
g135
ssg116
g3729
sg109
(lp3741
S':'
asbag102
(g123
g104
NtRp3742
(dp3743
g107
(dp3744
sg116
g3729
sg109
(lp3745
g102
(g103
g104
NtRp3746
(dp3747
g107
(dp3748
g115
I3
ssg116
g3742
sg109
(lp3749
S'11'
p3750
asbasbasbag102
(g118
g104
NtRp3751
(dp3752
g107
(dp3753
sg116
g3659
sg109
(lp3754
g102
(g123
g104
NtRp3755
(dp3756
g107
(dp3757
g127
g128
ssg116
g3751
sg109
(lp3758
S'last_name'
p3759
asbag102
(g123
g104
NtRp3760
(dp3761
g107
(dp3762
g134
g135
ssg116
g3751
sg109
(lp3763
S':'
asbag102
(g123
g104
NtRp3764
(dp3765
g107
(dp3766
sg116
g3751
sg109
(lp3767
g102
(g103
g104
NtRp3768
(dp3769
g107
(dp3770
g115
I3
ssg116
g3764
sg109
(lp3771
S'p'
asbasbasbag102
(g118
g104
NtRp3772
(dp3773
g107
(dp3774
sg116
g3659
sg109
(lp3775
g102
(g123
g104
NtRp3776
(dp3777
g107
(dp3778
g127
g128
ssg116
g3772
sg109
(lp3779
S'modified_on'
p3780
asbag102
(g123
g104
NtRp3781
(dp3782
g107
(dp3783
g134
g135
ssg116
g3772
sg109
(lp3784
S':'
asbag102
(g123
g104
NtRp3785
(dp3786
g107
(dp3787
sg116
g3772
sg109
(lp3788
g102
(g103
g104
NtRp3789
(dp3790
g107
(dp3791
g115
I3
ssg116
g3785
sg109
(lp3792
S'datetime.datetime(2012, 10, 23, 2, 28, 41)'
p3793
asbasbasbag102
(g118
g104
NtRp3794
(dp3795
g107
(dp3796
sg116
g3659
sg109
(lp3797
g102
(g123
g104
NtRp3798
(dp3799
g107
(dp3800
g127
g128
ssg116
g3794
sg109
(lp3801
S'password'
p3802
asbag102
(g123
g104
NtRp3803
(dp3804
g107
(dp3805
g134
g135
ssg116
g3794
sg109
(lp3806
S':'
asbag102
(g123
g104
NtRp3807
(dp3808
g107
(dp3809
sg116
g3794
sg109
(lp3810
g102
(g103
g104
NtRp3811
(dp3812
g107
(dp3813
g115
I3
ssg116
g3807
sg109
(lp3814
S'32371e3190f8e63e16755b2e6bf663a2'
p3815
asbasbasbag102
(g118
g104
NtRp3816
(dp3817
g107
(dp3818
sg116
g3659
sg109
(lp3819
g102
(g123
g104
NtRp3820
(dp3821
g107
(dp3822
g127
g128
ssg116
g3816
sg109
(lp3823
S'registration_id'
p3824
asbag102
(g123
g104
NtRp3825
(dp3826
g107
(dp3827
g134
g135
ssg116
g3816
sg109
(lp3828
S':'
asbag102
(g123
g104
NtRp3829
(dp3830
g107
(dp3831
sg116
g3816
sg109
(lp3832
g102
(g103
g104
NtRp3833
(dp3834
g107
(dp3835
g115
I3
ssg116
g3829
sg109
(lp3836
S''
asbasbasbag102
(g118
g104
NtRp3837
(dp3838
g107
(dp3839
sg116
g3659
sg109
(lp3840
g102
(g123
g104
NtRp3841
(dp3842
g107
(dp3843
g127
g128
ssg116
g3837
sg109
(lp3844
S'registration_key'
p3845
asbag102
(g123
g104
NtRp3846
(dp3847
g107
(dp3848
g134
g135
ssg116
g3837
sg109
(lp3849
S':'
asbag102
(g123
g104
NtRp3850
(dp3851
g107
(dp3852
sg116
g3837
sg109
(lp3853
g102
(g103
g104
NtRp3854
(dp3855
g107
(dp3856
g115
I3
ssg116
g3850
sg109
(lp3857
S''
asbasbasbag102
(g118
g104
NtRp3858
(dp3859
g107
(dp3860
sg116
g3659
sg109
(lp3861
g102
(g123
g104
NtRp3862
(dp3863
g107
(dp3864
g127
g128
ssg116
g3858
sg109
(lp3865
S'reset_password_key'
p3866
asbag102
(g123
g104
NtRp3867
(dp3868
g107
(dp3869
g134
g135
ssg116
g3858
sg109
(lp3870
S':'
asbag102
(g123
g104
NtRp3871
(dp3872
g107
(dp3873
sg116
g3858
sg109
(lp3874
g102
(g103
g104
NtRp3875
(dp3876
g107
(dp3877
g115
I3
ssg116
g3871
sg109
(lp3878
S''
asbasbasbag102
(g118
g104
NtRp3879
(dp3880
g107
(dp3881
sg116
g3659
sg109
(lp3882
g102
(g123
g104
NtRp3883
(dp3884
g107
(dp3885
g127
g128
ssg116
g3879
sg109
(lp3886
S'username'
p3887
asbag102
(g123
g104
NtRp3888
(dp3889
g107
(dp3890
g134
g135
ssg116
g3879
sg109
(lp3891
S':'
asbag102
(g123
g104
NtRp3892
(dp3893
g107
(dp3894
sg116
g3879
sg109
(lp3895
g102
(g103
g104
NtRp3896
(dp3897
g107
(dp3898
g115
I3
ssg116
g3892
sg109
(lp3899
S'manu1'
p3900
asbasbasbasbasbasbasbag102
(g118
g104
NtRp3901
(dp3902
g107
(dp3903
sg116
g3547
sg109
(lp3904
g102
(g123
g104
NtRp3905
(dp3906
g107
(dp3907
g127
g128
ssg116
g3901
sg109
(lp3908
S'user_groups'
p3909
asbag102
(g123
g104
NtRp3910
(dp3911
g107
(dp3912
g134
g135
ssg116
g3901
sg109
(lp3913
S':'
asbag102
(g123
g104
NtRp3914
(dp3915
g107
(dp3916
sg116
g3901
sg109
(lp3917
g102
(g103
g104
NtRp3918
(dp3919
g107
(dp3920
g115
I4
ssg116
g3914
sg109
(lp3921
g102
(g111
g104
NtRp3922
(dp3923
g107
(dp3924
g115
I3
ssg116
Nsg109
(lp3925
g102
(g118
g104
NtRp3926
(dp3927
g107
(dp3928
sg116
g3922
sg109
(lp3929
g102
(g123
g104
NtRp3930
(dp3931
g107
(dp3932
g127
g128
ssg116
g3926
sg109
(lp3933
S'1'
asbag102
(g123
g104
NtRp3934
(dp3935
g107
(dp3936
g134
g135
ssg116
g3926
sg109
(lp3937
S':'
asbag102
(g123
g104
NtRp3938
(dp3939
g107
(dp3940
sg116
g3926
sg109
(lp3941
g102
(g103
g104
NtRp3942
(dp3943
g107
(dp3944
g115
I3
ssg116
g3938
sg109
(lp3945
S'user_11'
p3946
asbasbasbasbasbasbasbasbasbasbasbasbasbsS'etype'
p3947
S"<class 'urllib2.HTTPError'>"
p3948
sS'date'
p3949
S'Mon Nov 12 02:48:24 2012'
p3950
sS'response'
p3951
g102
(g103
g104
NtRp3952
(dp3953
g107
(dp3954
sg109
(lp3955
g102
(g111
g104
NtRp3956
(dp3957
g107
(dp3958
g115
I5
ssg116
Nsg109
(lp3959
g102
(g118
g104
NtRp3960
(dp3961
g107
(dp3962
sg116
g3956
sg109
(lp3963
g102
(g123
g104
NtRp3964
(dp3965
g107
(dp3966
g127
g128
ssg116
g3960
sg109
(lp3967
g200
asbag102
(g123
g104
NtRp3968
(dp3969
g107
(dp3970
g134
g135
ssg116
g3960
sg109
(lp3971
S':'
asbag102
(g123
g104
NtRp3972
(dp3973
g107
(dp3974
sg116
g3960
sg109
(lp3975
g102
(g103
g104
NtRp3976
(dp3977
g107
(dp3978
g115
I5
ssg116
g3972
sg109
(lp3979
S'<cStringIO.StringO object at 0x7fbd88218340>'
p3980
asbasbasbag102
(g118
g104
NtRp3981
(dp3982
g107
(dp3983
sg116
g3956
sg109
(lp3984
g102
(g123
g104
NtRp3985
(dp3986
g107
(dp3987
g127
g128
ssg116
g3981
sg109
(lp3988
g266
asbag102
(g123
g104
NtRp3989
(dp3990
g107
(dp3991
g134
g135
ssg116
g3981
sg109
(lp3992
S':'
asbag102
(g123
g104
NtRp3993
(dp3994
g107
(dp3995
sg116
g3981
sg109
(lp3996
g102
(g103
g104
NtRp3997
(dp3998
g107
(dp3999
g115
I5
ssg116
g3993
sg109
(lp4000
g102
(g111
g104
NtRp4001
(dp4002
g107
(dp4003
g115
I4
ssg116
Nsg109
(lp4004
g102
(g118
g104
NtRp4005
(dp4006
g107
(dp4007
sg116
g4001
sg109
(lp4008
g102
(g123
g104
NtRp4009
(dp4010
g107
(dp4011
g127
g128
ssg116
g4005
sg109
(lp4012
S'session_id_cite_m5'
p4013
asbag102
(g123
g104
NtRp4014
(dp4015
g107
(dp4016
g134
g135
ssg116
g4005
sg109
(lp4017
S':'
asbag102
(g123
g104
NtRp4018
(dp4019
g107
(dp4020
sg116
g4005
sg109
(lp4021
g102
(g103
g104
NtRp4022
(dp4023
g107
(dp4024
g115
I4
ssg116
g4018
sg109
(lp4025
g102
(g111
g104
NtRp4026
(dp4027
g107
(dp4028
g115
I3
ssg116
Nsg109
(lp4029
g102
(g118
g104
NtRp4030
(dp4031
g107
(dp4032
sg116
g4026
sg109
(lp4033
g102
(g123
g104
NtRp4034
(dp4035
g107
(dp4036
g127
g128
ssg116
g4030
sg109
(lp4037
g316
asbag102
(g123
g104
NtRp4038
(dp4039
g107
(dp4040
g134
g135
ssg116
g4030
sg109
(lp4041
S':'
asbag102
(g123
g104
NtRp4042
(dp4043
g107
(dp4044
sg116
g4030
sg109
(lp4045
g102
(g103
g104
NtRp4046
(dp4047
g107
(dp4048
g115
I3
ssg116
g4042
sg109
(lp4049
S''
asbasbasbag102
(g118
g104
NtRp4050
(dp4051
g107
(dp4052
sg116
g4026
sg109
(lp4053
g102
(g123
g104
NtRp4054
(dp4055
g107
(dp4056
g127
g128
ssg116
g4050
sg109
(lp4057
g337
asbag102
(g123
g104
NtRp4058
(dp4059
g107
(dp4060
g134
g135
ssg116
g4050
sg109
(lp4061
S':'
asbag102
(g123
g104
NtRp4062
(dp4063
g107
(dp4064
sg116
g4050
sg109
(lp4065
g102
(g103
g104
NtRp4066
(dp4067
g107
(dp4068
g115
I3
ssg116
g4062
sg109
(lp4069
S''
asbasbasbag102
(g118
g104
NtRp4070
(dp4071
g107
(dp4072
sg116
g4026
sg109
(lp4073
g102
(g123
g104
NtRp4074
(dp4075
g107
(dp4076
g127
g128
ssg116
g4070
sg109
(lp4077
g358
asbag102
(g123
g104
NtRp4078
(dp4079
g107
(dp4080
g134
g135
ssg116
g4070
sg109
(lp4081
S':'
asbag102
(g123
g104
NtRp4082
(dp4083
g107
(dp4084
sg116
g4070
sg109
(lp4085
g102
(g103
g104
NtRp4086
(dp4087
g107
(dp4088
g115
I3
ssg116
g4082
sg109
(lp4089
S''
asbasbasbag102
(g118
g104
NtRp4090
(dp4091
g107
(dp4092
sg116
g4026
sg109
(lp4093
g102
(g123
g104
NtRp4094
(dp4095
g107
(dp4096
g127
g128
ssg116
g4090
sg109
(lp4097
g379
asbag102
(g123
g104
NtRp4098
(dp4099
g107
(dp4100
g134
g135
ssg116
g4090
sg109
(lp4101
S':'
asbag102
(g123
g104
NtRp4102
(dp4103
g107
(dp4104
sg116
g4090
sg109
(lp4105
g102
(g103
g104
NtRp4106
(dp4107
g107
(dp4108
g115
I3
ssg116
g4102
sg109
(lp4109
S''
asbasbasbag102
(g118
g104
NtRp4110
(dp4111
g107
(dp4112
sg116
g4026
sg109
(lp4113
g102
(g123
g104
NtRp4114
(dp4115
g107
(dp4116
g127
g128
ssg116
g4110
sg109
(lp4117
g400
asbag102
(g123
g104
NtRp4118
(dp4119
g107
(dp4120
g134
g135
ssg116
g4110
sg109
(lp4121
S':'
asbag102
(g123
g104
NtRp4122
(dp4123
g107
(dp4124
sg116
g4110
sg109
(lp4125
g102
(g103
g104
NtRp4126
(dp4127
g107
(dp4128
g115
I3
ssg116
g4122
sg109
(lp4129
S''
asbasbasbag102
(g118
g104
NtRp4130
(dp4131
g107
(dp4132
sg116
g4026
sg109
(lp4133
g102
(g123
g104
NtRp4134
(dp4135
g107
(dp4136
g127
g128
ssg116
g4130
sg109
(lp4137
g421
asbag102
(g123
g104
NtRp4138
(dp4139
g107
(dp4140
g134
g135
ssg116
g4130
sg109
(lp4141
S':'
asbag102
(g123
g104
NtRp4142
(dp4143
g107
(dp4144
sg116
g4130
sg109
(lp4145
g102
(g103
g104
NtRp4146
(dp4147
g107
(dp4148
g115
I3
ssg116
g4142
sg109
(lp4149
S'/'
asbasbasbag102
(g118
g104
NtRp4150
(dp4151
g107
(dp4152
sg116
g4026
sg109
(lp4153
g102
(g123
g104
NtRp4154
(dp4155
g107
(dp4156
g127
g128
ssg116
g4150
sg109
(lp4157
g442
asbag102
(g123
g104
NtRp4158
(dp4159
g107
(dp4160
g134
g135
ssg116
g4150
sg109
(lp4161
S':'
asbag102
(g123
g104
NtRp4162
(dp4163
g107
(dp4164
sg116
g4150
sg109
(lp4165
g102
(g103
g104
NtRp4166
(dp4167
g107
(dp4168
g115
I3
ssg116
g4162
sg109
(lp4169
S''
asbasbasbag102
(g118
g104
NtRp4170
(dp4171
g107
(dp4172
sg116
g4026
sg109
(lp4173
g102
(g123
g104
NtRp4174
(dp4175
g107
(dp4176
g127
g128
ssg116
g4170
sg109
(lp4177
g463
asbag102
(g123
g104
NtRp4178
(dp4179
g107
(dp4180
g134
g135
ssg116
g4170
sg109
(lp4181
S':'
asbag102
(g123
g104
NtRp4182
(dp4183
g107
(dp4184
sg116
g4170
sg109
(lp4185
g102
(g103
g104
NtRp4186
(dp4187
g107
(dp4188
g115
I3
ssg116
g4182
sg109
(lp4189
S''
asbasbasbasbasbasbasbasbasbasbasbag102
(g118
g104
NtRp4190
(dp4191
g107
(dp4192
sg116
g3956
sg109
(lp4193
g102
(g123
g104
NtRp4194
(dp4195
g107
(dp4196
g127
g128
ssg116
g4190
sg109
(lp4197
S'delimiters'
p4198
asbag102
(g123
g104
NtRp4199
(dp4200
g107
(dp4201
g134
g135
ssg116
g4190
sg109
(lp4202
S':'
asbag102
(g123
g104
NtRp4203
(dp4204
g107
(dp4205
sg116
g4190
sg109
(lp4206
g102
(g103
g104
NtRp4207
(dp4208
g107
(dp4209
g115
I5
ssg116
g4203
sg109
(lp4210
g102
(g111
g104
NtRp4211
(dp4212
g107
(dp4213
g115
I4
ssg116
Nsg109
(lp4214
g102
(g118
g104
NtRp4215
(dp4216
g107
(dp4217
sg116
g4211
sg109
(lp4218
g102
(g123
g104
NtRp4219
(dp4220
g107
(dp4221
sg116
g4215
sg109
(lp4222
g102
(g103
g104
NtRp4223
(dp4224
g107
(dp4225
g115
I4
ssg116
g4219
sg109
(lp4226
S'{{'
p4227
asbasbasbag102
(g118
g104
NtRp4228
(dp4229
g107
(dp4230
sg116
g4211
sg109
(lp4231
g102
(g123
g104
NtRp4232
(dp4233
g107
(dp4234
sg116
g4228
sg109
(lp4235
g102
(g103
g104
NtRp4236
(dp4237
g107
(dp4238
g115
I4
ssg116
g4232
sg109
(lp4239
S'}}'
p4240
asbasbasbasbasbasbasbag102
(g118
g104
NtRp4241
(dp4242
g107
(dp4243
sg116
g3956
sg109
(lp4244
g102
(g123
g104
NtRp4245
(dp4246
g107
(dp4247
g127
g128
ssg116
g4241
sg109
(lp4248
S'files'
p4249
asbag102
(g123
g104
NtRp4250
(dp4251
g107
(dp4252
g134
g135
ssg116
g4241
sg109
(lp4253
S':'
asbag102
(g123
g104
NtRp4254
(dp4255
g107
(dp4256
sg116
g4241
sg109
(lp4257
g102
(g103
g104
NtRp4258
(dp4259
g107
(dp4260
g115
I5
ssg116
g4254
sg109
(lp4261
g102
(g111
g104
NtRp4262
(dp4263
g107
(dp4264
g115
I4
ssg116
Nsg109
(lp4265
sbasbasbasbag102
(g118
g104
NtRp4266
(dp4267
g107
(dp4268
sg116
g3956
sg109
(lp4269
g102
(g123
g104
NtRp4270
(dp4271
g107
(dp4272
g127
g128
ssg116
g4266
sg109
(lp4273
S'flash'
p4274
asbag102
(g123
g104
NtRp4275
(dp4276
g107
(dp4277
g134
g135
ssg116
g4266
sg109
(lp4278
S':'
asbag102
(g123
g104
NtRp4279
(dp4280
g107
(dp4281
sg116
g4266
sg109
(lp4282
g102
(g103
g104
NtRp4283
(dp4284
g107
(dp4285
g115
I5
ssg116
g4279
sg109
(lp4286
S''
asbasbasbag102
(g118
g104
NtRp4287
(dp4288
g107
(dp4289
sg116
g3956
sg109
(lp4290
g102
(g123
g104
NtRp4291
(dp4292
g107
(dp4293
g127
g128
ssg116
g4287
sg109
(lp4294
S'generic_patterns'
p4295
asbag102
(g123
g104
NtRp4296
(dp4297
g107
(dp4298
g134
g135
ssg116
g4287
sg109
(lp4299
S':'
asbag102
(g123
g104
NtRp4300
(dp4301
g107
(dp4302
sg116
g4287
sg109
(lp4303
g102
(g103
g104
NtRp4304
(dp4305
g107
(dp4306
g115
I5
ssg116
g4300
sg109
(lp4307
g102
(g111
g104
NtRp4308
(dp4309
g107
(dp4310
g115
I4
ssg116
Nsg109
(lp4311
g102
(g118
g104
NtRp4312
(dp4313
g107
(dp4314
sg116
g4308
sg109
(lp4315
g102
(g123
g104
NtRp4316
(dp4317
g107
(dp4318
sg116
g4312
sg109
(lp4319
g102
(g103
g104
NtRp4320
(dp4321
g107
(dp4322
g115
I4
ssg116
g4316
sg109
(lp4323
S'*'
asbasbasbasbasbasbasbag102
(g118
g104
NtRp4324
(dp4325
g107
(dp4326
sg116
g3956
sg109
(lp4327
g102
(g123
g104
NtRp4328
(dp4329
g107
(dp4330
g127
g128
ssg116
g4324
sg109
(lp4331
g41
asbag102
(g123
g104
NtRp4332
(dp4333
g107
(dp4334
g134
g135
ssg116
g4324
sg109
(lp4335
S':'
asbag102
(g123
g104
NtRp4336
(dp4337
g107
(dp4338
sg116
g4324
sg109
(lp4339
g102
(g103
g104
NtRp4340
(dp4341
g107
(dp4342
g115
I5
ssg116
g4336
sg109
(lp4343
g102
(g111
g104
NtRp4344
(dp4345
g107
(dp4346
g115
I4
ssg116
Nsg109
(lp4347
g102
(g118
g104
NtRp4348
(dp4349
g107
(dp4350
sg116
g4344
sg109
(lp4351
g102
(g123
g104
NtRp4352
(dp4353
g107
(dp4354
g127
g128
ssg116
g4348
sg109
(lp4355
S'Cache-Control'
p4356
asbag102
(g123
g104
NtRp4357
(dp4358
g107
(dp4359
g134
g135
ssg116
g4348
sg109
(lp4360
S':'
asbag102
(g123
g104
NtRp4361
(dp4362
g107
(dp4363
sg116
g4348
sg109
(lp4364
g102
(g103
g104
NtRp4365
(dp4366
g107
(dp4367
g115
I4
ssg116
g4361
sg109
(lp4368
S'no-store, no-cache, must-revalidate, post-check=0, pre-check=0'
p4369
asbasbasbag102
(g118
g104
NtRp4370
(dp4371
g107
(dp4372
sg116
g4344
sg109
(lp4373
g102
(g123
g104
NtRp4374
(dp4375
g107
(dp4376
g127
g128
ssg116
g4370
sg109
(lp4377
S'Content-Type'
p4378
asbag102
(g123
g104
NtRp4379
(dp4380
g107
(dp4381
g134
g135
ssg116
g4370
sg109
(lp4382
S':'
asbag102
(g123
g104
NtRp4383
(dp4384
g107
(dp4385
sg116
g4370
sg109
(lp4386
g102
(g103
g104
NtRp4387
(dp4388
g107
(dp4389
g115
I4
ssg116
g4383
sg109
(lp4390
S'text/html; charset=utf-8'
p4391
asbasbasbag102
(g118
g104
NtRp4392
(dp4393
g107
(dp4394
sg116
g4344
sg109
(lp4395
g102
(g123
g104
NtRp4396
(dp4397
g107
(dp4398
g127
g128
ssg116
g4392
sg109
(lp4399
S'Expires'
p4400
asbag102
(g123
g104
NtRp4401
(dp4402
g107
(dp4403
g134
g135
ssg116
g4392
sg109
(lp4404
S':'
asbag102
(g123
g104
NtRp4405
(dp4406
g107
(dp4407
sg116
g4392
sg109
(lp4408
g102
(g103
g104
NtRp4409
(dp4410
g107
(dp4411
g115
I4
ssg116
g4405
sg109
(lp4412
S'Sun, 11 Nov 2012 21:18:05 GMT'
p4413
asbasbasbag102
(g118
g104
NtRp4414
(dp4415
g107
(dp4416
sg116
g4344
sg109
(lp4417
g102
(g123
g104
NtRp4418
(dp4419
g107
(dp4420
g127
g128
ssg116
g4414
sg109
(lp4421
S'Pragma'
p4422
asbag102
(g123
g104
NtRp4423
(dp4424
g107
(dp4425
g134
g135
ssg116
g4414
sg109
(lp4426
S':'
asbag102
(g123
g104
NtRp4427
(dp4428
g107
(dp4429
sg116
g4414
sg109
(lp4430
g102
(g103
g104
NtRp4431
(dp4432
g107
(dp4433
g115
I4
ssg116
g4427
sg109
(lp4434
S'no-cache'
p4435
asbasbasbag102
(g118
g104
NtRp4436
(dp4437
g107
(dp4438
sg116
g4344
sg109
(lp4439
g102
(g123
g104
NtRp4440
(dp4441
g107
(dp4442
g127
g128
ssg116
g4436
sg109
(lp4443
S'X-Powered-By'
p4444
asbag102
(g123
g104
NtRp4445
(dp4446
g107
(dp4447
g134
g135
ssg116
g4436
sg109
(lp4448
S':'
asbag102
(g123
g104
NtRp4449
(dp4450
g107
(dp4451
sg116
g4436
sg109
(lp4452
g102
(g103
g104
NtRp4453
(dp4454
g107
(dp4455
g115
I4
ssg116
g4449
sg109
(lp4456
S'web2py'
p4457
asbasbasbasbasbasbasbag102
(g118
g104
NtRp4458
(dp4459
g107
(dp4460
sg116
g3956
sg109
(lp4461
g102
(g123
g104
NtRp4462
(dp4463
g107
(dp4464
g127
g128
ssg116
g4458
sg109
(lp4465
S'menu'
p4466
asbag102
(g123
g104
NtRp4467
(dp4468
g107
(dp4469
g134
g135
ssg116
g4458
sg109
(lp4470
S':'
asbag102
(g123
g104
NtRp4471
(dp4472
g107
(dp4473
sg116
g4458
sg109
(lp4474
g102
(g103
g104
NtRp4475
(dp4476
g107
(dp4477
g115
I5
ssg116
g4471
sg109
(lp4478
g102
(g111
g104
NtRp4479
(dp4480
g107
(dp4481
g115
I4
ssg116
Nsg109
(lp4482
g102
(g118
g104
NtRp4483
(dp4484
g107
(dp4485
sg116
g4479
sg109
(lp4486
g102
(g123
g104
NtRp4487
(dp4488
g107
(dp4489
sg116
g4483
sg109
(lp4490
g102
(g103
g104
NtRp4491
(dp4492
g107
(dp4493
g115
I4
ssg116
g4487
sg109
(lp4494
g102
(g111
g104
NtRp4495
(dp4496
g107
(dp4497
g115
I3
ssg116
Nsg109
(lp4498
g102
(g118
g104
NtRp4499
(dp4500
g107
(dp4501
sg116
g4495
sg109
(lp4502
g102
(g123
g104
NtRp4503
(dp4504
g107
(dp4505
sg116
g4499
sg109
(lp4506
g102
(g103
g104
NtRp4507
(dp4508
g107
(dp4509
g115
I3
ssg116
g4503
sg109
(lp4510
cgluon.languages
lazyT_unpickle
p4511
(S't\x05\x00\x00\x00Index'
tRp4512
asbasbasbag102
(g118
g104
NtRp4513
(dp4514
g107
(dp4515
sg116
g4495
sg109
(lp4516
g102
(g123
g104
NtRp4517
(dp4518
g107
(dp4519
sg116
g4513
sg109
(lp4520
g102
(g103
g104
NtRp4521
(dp4522
g107
(dp4523
g115
I3
ssg116
g4517
sg109
(lp4524
g145
asbasbasbag102
(g118
g104
NtRp4525
(dp4526
g107
(dp4527
sg116
g4495
sg109
(lp4528
g102
(g123
g104
NtRp4529
(dp4530
g107
(dp4531
sg116
g4525
sg109
(lp4532
g102
(g103
g104
NtRp4533
(dp4534
g107
(dp4535
g115
I3
ssg116
g4529
sg109
(lp4536
S'/cite_m5/default/index'
p4537
asbasbasbag102
(g118
g104
NtRp4538
(dp4539
g107
(dp4540
sg116
g4495
sg109
(lp4541
g102
(g123
g104
NtRp4542
(dp4543
g107
(dp4544
sg116
g4538
sg109
(lp4545
g102
(g103
g104
NtRp4546
(dp4547
g107
(dp4548
g115
I3
ssg116
g4542
sg109
(lp4549
g102
(g111
g104
NtRp4550
(dp4551
g107
(dp4552
g115
I2
ssg116
Nsg109
(lp4553
sbasbasbasbasbasbasbasbasbasbasbasbag102
(g118
g104
NtRp4554
(dp4555
g107
(dp4556
sg116
g3956
sg109
(lp4557
g102
(g123
g104
NtRp4558
(dp4559
g107
(dp4560
g127
g128
ssg116
g4554
sg109
(lp4561
S'meta'
p4562
asbag102
(g123
g104
NtRp4563
(dp4564
g107
(dp4565
g134
g135
ssg116
g4554
sg109
(lp4566
S':'
asbag102
(g123
g104
NtRp4567
(dp4568
g107
(dp4569
sg116
g4554
sg109
(lp4570
g102
(g103
g104
NtRp4571
(dp4572
g107
(dp4573
g115
I5
ssg116
g4567
sg109
(lp4574
g102
(g111
g104
NtRp4575
(dp4576
g107
(dp4577
g115
I4
ssg116
Nsg109
(lp4578
g102
(g118
g104
NtRp4579
(dp4580
g107
(dp4581
sg116
g4575
sg109
(lp4582
g102
(g123
g104
NtRp4583
(dp4584
g107
(dp4585
g127
g128
ssg116
g4579
sg109
(lp4586
S'author'
p4587
asbag102
(g123
g104
NtRp4588
(dp4589
g107
(dp4590
g134
g135
ssg116
g4579
sg109
(lp4591
S':'
asbag102
(g123
g104
NtRp4592
(dp4593
g107
(dp4594
sg116
g4579
sg109
(lp4595
g102
(g103
g104
NtRp4596
(dp4597
g107
(dp4598
g115
I4
ssg116
g4592
sg109
(lp4599
S'you <you@example.com>'
p4600
asbasbasbag102
(g118
g104
NtRp4601
(dp4602
g107
(dp4603
sg116
g4575
sg109
(lp4604
g102
(g123
g104
NtRp4605
(dp4606
g107
(dp4607
g127
g128
ssg116
g4601
sg109
(lp4608
S'description'
p4609
asbag102
(g123
g104
NtRp4610
(dp4611
g107
(dp4612
g134
g135
ssg116
g4601
sg109
(lp4613
S':'
asbag102
(g123
g104
NtRp4614
(dp4615
g107
(dp4616
sg116
g4601
sg109
(lp4617
g102
(g103
g104
NtRp4618
(dp4619
g107
(dp4620
g115
I4
ssg116
g4614
sg109
(lp4621
S''
asbasbasbag102
(g118
g104
NtRp4622
(dp4623
g107
(dp4624
sg116
g4575
sg109
(lp4625
g102
(g123
g104
NtRp4626
(dp4627
g107
(dp4628
g127
g128
ssg116
g4622
sg109
(lp4629
S'keywords'
p4630
asbag102
(g123
g104
NtRp4631
(dp4632
g107
(dp4633
g134
g135
ssg116
g4622
sg109
(lp4634
S':'
asbag102
(g123
g104
NtRp4635
(dp4636
g107
(dp4637
sg116
g4622
sg109
(lp4638
g102
(g103
g104
NtRp4639
(dp4640
g107
(dp4641
g115
I4
ssg116
g4635
sg109
(lp4642
S''
asbasbasbasbasbasbasbag102
(g118
g104
NtRp4643
(dp4644
g107
(dp4645
sg116
g3956
sg109
(lp4646
g102
(g123
g104
NtRp4647
(dp4648
g107
(dp4649
g127
g128
ssg116
g4643
sg109
(lp4650
S'postprocessing'
p4651
asbag102
(g123
g104
NtRp4652
(dp4653
g107
(dp4654
g134
g135
ssg116
g4643
sg109
(lp4655
S':'
asbag102
(g123
g104
NtRp4656
(dp4657
g107
(dp4658
sg116
g4643
sg109
(lp4659
g102
(g103
g104
NtRp4660
(dp4661
g107
(dp4662
g115
I5
ssg116
g4656
sg109
(lp4663
g102
(g111
g104
NtRp4664
(dp4665
g107
(dp4666
g115
I4
ssg116
Nsg109
(lp4667
sbasbasbasbag102
(g118
g104
NtRp4668
(dp4669
g107
(dp4670
sg116
g3956
sg109
(lp4671
g102
(g123
g104
NtRp4672
(dp4673
g107
(dp4674
g127
g128
ssg116
g4668
sg109
(lp4675
S'session_file'
p4676
asbag102
(g123
g104
NtRp4677
(dp4678
g107
(dp4679
g134
g135
ssg116
g4668
sg109
(lp4680
S':'
asbag102
(g123
g104
NtRp4681
(dp4682
g107
(dp4683
sg116
g4668
sg109
(lp4684
g102
(g103
g104
NtRp4685
(dp4686
g107
(dp4687
g115
I5
ssg116
g4681
sg109
(lp4688
S"<open file '/home/chitra/courses/SSAD/web2py/applications/cite_m5/sessions/127.0.0.1-6b5fef13-ab11-4a8b-a8a1-45e33faa95ff', mode 'rb+' at 0x7fbd7828bf60>"
p4689
asbasbasbag102
(g118
g104
NtRp4690
(dp4691
g107
(dp4692
sg116
g3956
sg109
(lp4693
g102
(g123
g104
NtRp4694
(dp4695
g107
(dp4696
g127
g128
ssg116
g4690
sg109
(lp4697
S'session_filename'
p4698
asbag102
(g123
g104
NtRp4699
(dp4700
g107
(dp4701
g134
g135
ssg116
g4690
sg109
(lp4702
S':'
asbag102
(g123
g104
NtRp4703
(dp4704
g107
(dp4705
sg116
g4690
sg109
(lp4706
g102
(g103
g104
NtRp4707
(dp4708
g107
(dp4709
g115
I5
ssg116
g4703
sg109
(lp4710
S'/home/chitra/courses/SSAD/web2py/applications/cite_m5/sessions/127.0.0.1-6b5fef13-ab11-4a8b-a8a1-45e33faa95ff'
p4711
asbasbasbag102
(g118
g104
NtRp4712
(dp4713
g107
(dp4714
sg116
g3956
sg109
(lp4715
g102
(g123
g104
NtRp4716
(dp4717
g107
(dp4718
g127
g128
ssg116
g4712
sg109
(lp4719
S'session_id'
p4720
asbag102
(g123
g104
NtRp4721
(dp4722
g107
(dp4723
g134
g135
ssg116
g4712
sg109
(lp4724
S':'
asbag102
(g123
g104
NtRp4725
(dp4726
g107
(dp4727
sg116
g4712
sg109
(lp4728
g102
(g103
g104
NtRp4729
(dp4730
g107
(dp4731
g115
I5
ssg116
g4725
sg109
(lp4732
S'127.0.0.1-6b5fef13-ab11-4a8b-a8a1-45e33faa95ff'
p4733
asbasbasbag102
(g118
g104
NtRp4734
(dp4735
g107
(dp4736
sg116
g3956
sg109
(lp4737
g102
(g123
g104
NtRp4738
(dp4739
g107
(dp4740
g127
g128
ssg116
g4734
sg109
(lp4741
S'session_id_name'
p4742
asbag102
(g123
g104
NtRp4743
(dp4744
g107
(dp4745
g134
g135
ssg116
g4734
sg109
(lp4746
S':'
asbag102
(g123
g104
NtRp4747
(dp4748
g107
(dp4749
sg116
g4734
sg109
(lp4750
g102
(g103
g104
NtRp4751
(dp4752
g107
(dp4753
g115
I5
ssg116
g4747
sg109
(lp4754
g4013
asbasbasbag102
(g118
g104
NtRp4755
(dp4756
g107
(dp4757
sg116
g3956
sg109
(lp4758
g102
(g123
g104
NtRp4759
(dp4760
g107
(dp4761
g127
g128
ssg116
g4755
sg109
(lp4762
S'session_locked'
p4763
asbag102
(g123
g104
NtRp4764
(dp4765
g107
(dp4766
g134
g135
ssg116
g4755
sg109
(lp4767
S':'
asbag102
(g123
g104
NtRp4768
(dp4769
g107
(dp4770
sg116
g4755
sg109
(lp4771
g102
(g103
g104
NtRp4772
(dp4773
g107
(dp4774
g115
I5
ssg116
g4768
sg109
(lp4775
g1886
asbasbasbag102
(g118
g104
NtRp4776
(dp4777
g107
(dp4778
sg116
g3956
sg109
(lp4779
g102
(g123
g104
NtRp4780
(dp4781
g107
(dp4782
g127
g128
ssg116
g4776
sg109
(lp4783
S'session_new'
p4784
asbag102
(g123
g104
NtRp4785
(dp4786
g107
(dp4787
g134
g135
ssg116
g4776
sg109
(lp4788
S':'
asbag102
(g123
g104
NtRp4789
(dp4790
g107
(dp4791
sg116
g4776
sg109
(lp4792
g102
(g103
g104
NtRp4793
(dp4794
g107
(dp4795
g115
I5
ssg116
g4789
sg109
(lp4796
g145
asbasbasbag102
(g118
g104
NtRp4797
(dp4798
g107
(dp4799
sg116
g3956
sg109
(lp4800
g102
(g123
g104
NtRp4801
(dp4802
g107
(dp4803
g127
g128
ssg116
g4797
sg109
(lp4804
S'status'
p4805
asbag102
(g123
g104
NtRp4806
(dp4807
g107
(dp4808
g134
g135
ssg116
g4797
sg109
(lp4809
S':'
asbag102
(g123
g104
NtRp4810
(dp4811
g107
(dp4812
sg116
g4797
sg109
(lp4813
g102
(g103
g104
NtRp4814
(dp4815
g107
(dp4816
g115
I5
ssg116
g4810
sg109
(lp4817
S'200'
p4818
asbasbasbag102
(g118
g104
NtRp4819
(dp4820
g107
(dp4821
sg116
g3956
sg109
(lp4822
g102
(g123
g104
NtRp4823
(dp4824
g107
(dp4825
g127
g128
ssg116
g4819
sg109
(lp4826
S'subtitle'
p4827
asbag102
(g123
g104
NtRp4828
(dp4829
g107
(dp4830
g134
g135
ssg116
g4819
sg109
(lp4831
S':'
asbag102
(g123
g104
NtRp4832
(dp4833
g107
(dp4834
sg116
g4819
sg109
(lp4835
g102
(g103
g104
NtRp4836
(dp4837
g107
(dp4838
g115
I5
ssg116
g4832
sg109
(lp4839
S'powered by web2py'
p4840
asbasbasbag102
(g118
g104
NtRp4841
(dp4842
g107
(dp4843
sg116
g3956
sg109
(lp4844
g102
(g123
g104
NtRp4845
(dp4846
g107
(dp4847
g127
g128
ssg116
g4841
sg109
(lp4848
S'title'
p4849
asbag102
(g123
g104
NtRp4850
(dp4851
g107
(dp4852
g134
g135
ssg116
g4841
sg109
(lp4853
S':'
asbag102
(g123
g104
NtRp4854
(dp4855
g107
(dp4856
sg116
g4841
sg109
(lp4857
g102
(g103
g104
NtRp4858
(dp4859
g107
(dp4860
g115
I5
ssg116
g4854
sg109
(lp4861
S'My New App'
p4862
asbasbasbag102
(g118
g104
NtRp4863
(dp4864
g107
(dp4865
sg116
g3956
sg109
(lp4866
g102
(g123
g104
NtRp4867
(dp4868
g107
(dp4869
g127
g128
ssg116
g4863
sg109
(lp4870
g2549
asbag102
(g123
g104
NtRp4871
(dp4872
g107
(dp4873
g134
g135
ssg116
g4863
sg109
(lp4874
S':'
asbag102
(g123
g104
NtRp4875
(dp4876
g107
(dp4877
sg116
g4863
sg109
(lp4878
g102
(g103
g104
NtRp4879
(dp4880
g107
(dp4881
g115
I5
ssg116
g4875
sg109
(lp4882
g2562
asbasbasbag102
(g118
g104
NtRp4883
(dp4884
g107
(dp4885
sg116
g3956
sg109
(lp4886
g102
(g123
g104
NtRp4887
(dp4888
g107
(dp4889
g127
g128
ssg116
g4883
sg109
(lp4890
S'view'
p4891
asbag102
(g123
g104
NtRp4892
(dp4893
g107
(dp4894
g134
g135
ssg116
g4883
sg109
(lp4895
S':'
asbag102
(g123
g104
NtRp4896
(dp4897
g107
(dp4898
sg116
g4883
sg109
(lp4899
g102
(g103
g104
NtRp4900
(dp4901
g107
(dp4902
g115
I5
ssg116
g4896
sg109
(lp4903
S'default/final_ans.html'
p4904
asbasbasbasbasbsS'locals'
p4905
(dp4906
g59
S'<addinfourl at 140452281536168 whose fp = <socket._fileobject object>>'
p4907
sg6
S'403'
p4908
sg61
S'<httplib.HTTPMessage instance>'
p4909
sS'self'
p4910
S'<urllib2.HTTPDefaultErrorHandler instance>'
p4911
sS'req'
p4912
S'<urllib2.Request instance>'
p4913
sg55
S"'Forbidden'"
p4914
sssS'traceback'
p4915
S'Traceback (most recent call last):\n  File "/home/chitra/courses/SSAD/web2py/gluon/restricted.py", line 205, in restricted\n    exec ccode in environment\n  File "/home/chitra/courses/SSAD/web2py/applications/cite_m5/controllers/default.py", line 209, in <module>\n  File "/home/chitra/courses/SSAD/web2py/gluon/globals.py", line 173, in <lambda>\n    self._caller = lambda f: f()\n  File "/home/chitra/courses/SSAD/web2py/applications/cite_m5/controllers/default.py", line 71, in final_ans\n    rec(fst_l,l1,bigans)\n  File "/home/chitra/courses/SSAD/web2py/applications/cite_m5/controllers/default.py", line 85, in rec\n    rec(z[7],l1,bigans[-1])\n  File "/home/chitra/courses/SSAD/web2py/applications/cite_m5/controllers/default.py", line 85, in rec\n    rec(z[7],l1,bigans[-1])\n  File "/home/chitra/courses/SSAD/web2py/applications/cite_m5/controllers/default.py", line 80, in rec\n    z=cite(x)\n  File "/home/chitra/courses/SSAD/web2py/applications/cite_m5/controllers/default.py", line 92, in cite\n    html=fetch(url)\n  File "/home/chitra/courses/SSAD/web2py/gluon/tools.py", line 3424, in fetch\n    html = urllib2.urlopen(req).read()\n  File "/usr/lib/python2.7/urllib2.py", line 126, in urlopen\n    return _opener.open(url, data, timeout)\n  File "/usr/lib/python2.7/urllib2.py", line 406, in open\n    response = meth(req, response)\n  File "/usr/lib/python2.7/urllib2.py", line 519, in http_response\n    \'http\', request, response, code, msg, hdrs)\n  File "/usr/lib/python2.7/urllib2.py", line 444, in error\n    return self._call_chain(*args)\n  File "/usr/lib/python2.7/urllib2.py", line 378, in _call_chain\n    result = func(*args)\n  File "/usr/lib/python2.7/urllib2.py", line 527, in http_error_default\n    raise HTTPError(req.get_full_url(), code, msg, hdrs, fp)\nHTTPError: HTTP Error 403: Forbidden\n'
p4916
s.