(dp1
S'output'
p2
S"<class 'urllib2.HTTPError'> HTTP Error 504: Gateway Time-out"
p3
sS'layer'
p4
S'/home/maneesha/Downloads/web2py/applications/cite_mf/controllers/default.py'
p5
sS'code'
p6
S'# -*- coding: utf-8 -*-\n### required - do no delete\ndef user(): return dict(form=auth())\n#def download(): return response.download(request,db)\n#def call(): return service()\n### end requires\n#def index():\n #   return dict()\n\n#def error():\n #   return dict()\nfrom gluon.tools import fetch  \nfrom time import sleep\nfrom random import randrange\nimport re\nlistf=[]\ncount=0\nbigans=[]# store the final ouput to be passed into the view\n@auth.requires_login()    #login reqired to access index page\ndef index():\n    form=SQLFORM(db.input) #displays the form to user for taking the input from the user\n    if form.process().accepted:\n        response.flash = \'Login successful\'\n        redirect(URL(\'final_ans\'))\n    return dict(form=form)\ndef extract1(url,l1): #extracts the top_result urls from the first page\n    ret=[]\n    html=fetch(url) #fetches the html page of the given url ans stores it in a string html\n    html_splitted=html.split("<A HREF=\\"citation.cfm") #splitting the fetched string\n    ht=html_splitted[0]\n    del html_splitted[0]\n    k=html_splitted[0].split(\'>\')\n    if k[1][:-3]==l1[0]:#if the user inputs title of a paper\n        k=html_splitted[0].find(\'\\"\')\n        s="http://dl.acm.org/citation.cfm"+html_splitted[0][:k]\n        ret.append(s.split(\'&preflayout\')[0]+\'&preflayout=flat\')\n    else: #if user inputs some keywords\n        for i in range(0,l1[2]):\n            k=html_splitted[i].find(\'\\"\')\n            s="http://dl.acm.org/citation.cfm"+html_splitted[i][:k]\n            ret.append(s.split(\'&preflayout\')[0]+\'&preflayout=flat\')\n    return ret\ndef sorting():\n    bigans=[]   #stores final output in a list\n    l1=u_filter() #stores the user input in list l1\n    url="http://dl.acm.org/results.cfm?h=1&query="+\'+\'.join(l1[0].split()) #construct corresponding url\n    fst_l=[]\n    ret1=[]\n    fst_l=extract1(url,l1) #extracts the urls of query results and stores it in a list fst_l\n    rec(fst_l,l1,bigans)  #this function recursively fetches the required information and stores every result in list bigans.\n    if request.args(0)==\'0\':  #if the list needs to be sorted by relevence,the bigans doesnt change.\n        pass\n    else:\n        bigans=sorted(bigans,key=lambda x:(x[4][6:]*360+x[4][:2]*30+x[4][3:5]),reverse=True)    #if the list needs to be sorted according to release date,it is sorted by sorted() python inbuilt function.\n    au=db(auth.user.username==db.auth_user.username).select().first()   \n    email=au.email        #email of user who is logged in is extracted.\n    return dict(bigans=bigans,level=l1[1],top=l1[2],ret1=ret1,email=email)   \ndef final_ans():\n    bigans=[] #stores the final output in a list\n    l1=u_filter() #extracting the user input in a list\n    url="http://dl.acm.org/results.cfm?h=1&query="+\'+\'.join(l1[0].split()) #forming the url\n    fst_l=[]\n    ret1=[]\n    fst_l=extract1(url,l1)     #extracts the urls of query results and stores it in a list fst_l\n    rec(fst_l,l1,bigans)  #this function recursively fetches the required information and stores every result in list bigans.\n    au=db(auth.user.username==db.auth_user.username).select().first()\n    email=au.email       #email of user who is logged in is extracted.\n    return dict(bigans=bigans,level=l1[1],top=l1[2],ret1=ret1,email=email)\ndef rec(list1,l1,bigans):     #recursion that results the tree of citations.\n    global count #variable for level of recursion.\n    count=count+1\n    global listf\n    listf.append([])\n    for x in list1:\n        if x!=\'\':\n            sleep(randrange(1,5))      #this is to avoid flooding the target url by multiple requests with less time gap.\n            z=cite(x)               #parsing the url x and storing it in a list z\n            bigans.append(z)        #stores that information in bigans\n            if count < l1[1]:            #if level of recursion is less than user input only then continue recursion else return\n                rec(z[7],l1,bigans[-1])     #recursive calls\n    count=count-1\n    return\ndef cite(url):\n    if url==\'\':\n        return []\n    l1=u_filter()\n    html=fetch(url)\n    temp=[]\n    d=re.search(\'<meta name="citation_title"[\\w\\W]*?>\',html).group()\n    d=bold(d)\n    temp.append(d.split(\'=\')[2][1:-2])\n    temp.append(url)\n    f=re.search(\'\\"ft_gateway.cfm[\\w\\W]*?\\"\',html)\n    if f!=None:\n        f=f.group()\n        f=bold(f)\n        temp.append(\'http://dl.acm.org/\'+f[1:-1])\n    else:\n        temp.append(url)\n    c=re.search(\'<meta name="citation_authors"[\\w\\W]*?>\',html).group()\n    c=bold(c)\n    if l1[3]==1:\n        temp.append(c.split(\'=\')[2][1:-2])\n    else:\n        temp.append(-1)\n    b=re.search(\'<meta name="citation_date"[\\w\\W]*?>\',html).group()\n    b=bold(b)\n    if l1[5]==1:\n        temp.append(b.split(\'=\')[2][1:-2])\n    else:\n        temp.append(-1)\n    h=re.search(\'<A NAME="abstract" class="small-text">ABSTRACT[\\w\\W]*?</div>\',html)\n    if h!=None:\n        h=h.group()\n        h=bold(h)\n        if \'An abstract is not available.\' in h:\n            h1="An abstract is not available."\n        elif \'<div style=\\"display:inline\\">\' in h:\n\n            h1=h.split(\'<div style=\\"display:inline\\">\')[1]\n            h1=remove(h1)\n        else:\n            h=h.replace(\'</A></h1>\',\'\')\n            h=remove(h)\n            h1=h.split(\'>\')[1]\n    else:\n        h1=-1\n    temp.append(h1)\n    s=re.search(\'CITED BY[\\w\\W]*?INDEX TERMS\',html).group()\n    if \'Citings are not available\' not in s:\n        e=re.search(\'\\d* Citations\',s)\n        if l1[4]!=1:\n            temp.append(-1)\n        elif e!=None:\n            temp.append(e.group().split()[0])\n        else:                                                                            \n            temp.append(1)\n        i=0\n        cit=[]\n        while i < l1[2]:\n            i+=1\n            s1=re.search(\'<a href[\\w\\W]*?</a>\',s)\n            if s1==None:\n                cit.append(\'\')\n            elif s1!=None:\n                k=s.find(s1.group())\n                cit.append(("http://dl.acm.org/"+s1.group().split(\'\\"\')[1]).split(\'&preflayout\')[0]+\'&preflayout=flat\')\n                s=s[k+2:]\n           \n        temp.append(cit)\n    else:\n        if l1[4]==1:\n            temp.append(0)\n        else:\n            temp.append(-1)\n        temp.append([])\n    return temp\ndef u_filter():\n    inpu=db().select(db.input.ALL)  #selects the last entry in the database table\n    for inp in inpu:\n        key=inp.keywords                    #stores each entry of database into a variable\n        level=inp.Recursion_levels\n        top=inp.Top_results\n        auth=inp.Show_author\n        cited_by=inp.Show_no_of_citations\n        year=inp.Show_release_date\n    return [key,level,top,auth,cited_by,year]      #returns a list\ndef bold(d):              #this function removes the unwanted bold tags from the html page extracted\n    pre=""\n    while pre!=d:\n        pre=d\n        d=d.replace("<b>","")\n        d=d.replace("</b>","")\n    return d\ndef remove(d):          #this function removes unwanted html tags from text.\n    pre=""\n    while pre!=d:                     #removes paragraph tags\n        pre=d\n        d=d.replace("<p>","")\n        d=d.replace("</p>","")\n    pre=""\n    while pre!=d:                     #removes div tags\n        pre=d\n        d=d.replace("<div style=\\"display:inline\\">","") \n        d=d.replace("</div>","")\n    pre=""\n    while pre!=d:                     #removes br tags\n        pre=d\n        d=d.replace("<br>","")\n    pre=""\n    while pre!=d:                     #removes par tags\n        pre=d\n        d=d.replace("<par>","")\n        d=d.replace("</par>","")\n    return d            #returns the filtered text\ndef abstract1():\n    abss=request.args[0]\n    pre=""\n    while pre!=abss:\n        pre=abss\n        abss=abss.replace("_"," ")\n    abss1=abss.split(".")       \n    return dict(abss1=abss1)\n\nresponse._vars=response._caller(final_ans)\n'
p7
sS'snapshot'
p8
(dp9
S'exception'
p10
(dp11
S'__module__'
p12
S"'urllib2'"
p13
sg6
S'504'
p14
sS'__getslice__'
p15
S"<method-wrapper '__getslice__' of HTTPError object>"
p16
sS'__str__'
p17
S'<bound method HTTPError.__str__ of HTTPError()>'
p18
sS'__reduce__'
p19
S'<built-in method __reduce__ of HTTPError object>'
p20
sS'strerror'
p21
S'None'
p22
sS'__dict__'
p23
S"{'__iter__': <bound method _fileobject.__iter__ of <socket._fileobject object>>, 'code': 504, 'fileno': <bound method _fileobject.fileno of <socket._fileobject object>>, 'fp': <addinfourl at 139642004773848 whose fp = <socket._fileobject object>>, 'hdrs': <httplib.HTTPMessage instance>, 'headers': <httplib.HTTPMessage instance>, 'msg': 'Gateway Time-out', 'next': <bound method _fileobject.next of <socket._fileobject object>>, 'read': <bound method _fileobject.read of <socket._fileobject object>>, 'readline': <bound method _fileobject.readline of <socket._fileobject object>>, ...}"
p24
sS'close'
p25
S'<bound method HTTPError.close of HTTPError()>'
p26
sS'__sizeof__'
p27
S'<built-in method __sizeof__ of HTTPError object>'
p28
sS'next'
p29
S'<bound method _fileobject.next of <socket._fileobject object>>'
p30
sS'__weakref__'
p31
S'None'
p32
sS'__init__'
p33
S'<bound method HTTPError.__init__ of HTTPError()>'
p34
sS'__setattr__'
p35
S"<method-wrapper '__setattr__' of HTTPError object>"
p36
sS'__reduce_ex__'
p37
S'<built-in method __reduce_ex__ of HTTPError object>'
p38
sS'__new__'
p39
S'<built-in method __new__ of type object>'
p40
sS'headers'
p41
S'<httplib.HTTPMessage instance>'
p42
sS'errno'
p43
S'None'
p44
sS'readlines'
p45
S'<bound method _fileobject.readlines of <socket._fileobject object>>'
p46
sS'__format__'
p47
S'<built-in method __format__ of HTTPError object>'
p48
sS'__class__'
p49
S"<class 'urllib2.HTTPError'>"
p50
sS'filename'
p51
S"'http://dl.acm.org/results.cfm?h=1&query=database+design'"
p52
sS'_HTTPError__super_init'
p53
S'<bound method HTTPError.__init__ of HTTPError()>'
p54
sS'msg'
p55
S"'Gateway Time-out'"
p56
sS'__doc__'
p57
S"'Raised when HTTP error occurs, but also acts like non-error return'"
p58
sS'fp'
p59
S'<addinfourl at 139642004773848 whose fp = <socket._fileobject object>>'
p60
sS'hdrs'
p61
S'<httplib.HTTPMessage instance>'
p62
sS'__getitem__'
p63
S"<method-wrapper '__getitem__' of HTTPError object>"
p64
sS'__setstate__'
p65
S'<built-in method __setstate__ of HTTPError object>'
p66
sS'read'
p67
S'<bound method _fileobject.read of <socket._fileobject object>>'
p68
sS'__getattribute__'
p69
S"<method-wrapper '__getattribute__' of HTTPError object>"
p70
sS'args'
p71
S'()'
p72
sS'__iter__'
p73
S'<bound method _fileobject.__iter__ of <socket._fileobject object>>'
p74
sS'__subclasshook__'
p75
S'<built-in method __subclasshook__ of type object>'
p76
sS'readline'
p77
S'<bound method _fileobject.readline of <socket._fileobject object>>'
p78
sS'__unicode__'
p79
S'<built-in method __unicode__ of HTTPError object>'
p80
sS'info'
p81
S'<bound method HTTPError.info of HTTPError()>'
p82
sS'fileno'
p83
S'<bound method _fileobject.fileno of <socket._fileobject object>>'
p84
sS'getcode'
p85
S'<bound method HTTPError.getcode of HTTPError()>'
p86
sS'url'
p87
S"'http://dl.acm.org/results.cfm?h=1&query=database+design'"
p88
sS'reason'
p89
S"'Gateway Time-out'"
p90
sS'geturl'
p91
S'<bound method HTTPError.geturl of HTTPError()>'
p92
sS'__delattr__'
p93
S"<method-wrapper '__delattr__' of HTTPError object>"
p94
sS'__repr__'
p95
S"<method-wrapper '__repr__' of HTTPError object>"
p96
sS'__hash__'
p97
S"<method-wrapper '__hash__' of HTTPError object>"
p98
ssS'evalue'
p99
S'HTTP Error 504: Gateway Time-out'
p100
sS'request'
p101
ccopy_reg
_reconstructor
p102
(cgluon.html
BEAUTIFY
p103
c__builtin__
object
p104
NtRp105
(dp106
S'attributes'
p107
(dp108
sS'components'
p109
(lp110
g102
(cgluon.html
TABLE
p111
g104
NtRp112
(dp113
g107
(dp114
S'level'
p115
I5
ssS'parent'
p116
Nsg109
(lp117
g102
(cgluon.html
TR
p118
g104
NtRp119
(dp120
g107
(dp121
sg116
g112
sg109
(lp122
g102
(cgluon.html
TD
p123
g104
NtRp124
(dp125
g107
(dp126
S'_style'
p127
S'font-weight:bold;vertical-align:top'
p128
ssg116
g119
sg109
(lp129
S'ajax'
p130
asbag102
(g123
g104
NtRp131
(dp132
g107
(dp133
S'_valign'
p134
S'top'
p135
ssg116
g119
sg109
(lp136
S':'
asbag102
(g123
g104
NtRp137
(dp138
g107
(dp139
sg116
g119
sg109
(lp140
g102
(g103
g104
NtRp141
(dp142
g107
(dp143
g115
I5
ssg116
g137
sg109
(lp144
S'False'
p145
asbasbasbag102
(g118
g104
NtRp146
(dp147
g107
(dp148
sg116
g112
sg109
(lp149
g102
(g123
g104
NtRp150
(dp151
g107
(dp152
g127
g128
ssg116
g146
sg109
(lp153
S'application'
p154
asbag102
(g123
g104
NtRp155
(dp156
g107
(dp157
g134
g135
ssg116
g146
sg109
(lp158
S':'
asbag102
(g123
g104
NtRp159
(dp160
g107
(dp161
sg116
g146
sg109
(lp162
g102
(g103
g104
NtRp163
(dp164
g107
(dp165
g115
I5
ssg116
g159
sg109
(lp166
S'cite_mf'
p167
asbasbasbag102
(g118
g104
NtRp168
(dp169
g107
(dp170
sg116
g112
sg109
(lp171
g102
(g123
g104
NtRp172
(dp173
g107
(dp174
g127
g128
ssg116
g168
sg109
(lp175
g71
asbag102
(g123
g104
NtRp176
(dp177
g107
(dp178
g134
g135
ssg116
g168
sg109
(lp179
S':'
asbag102
(g123
g104
NtRp180
(dp181
g107
(dp182
sg116
g168
sg109
(lp183
g102
(g103
g104
NtRp184
(dp185
g107
(dp186
g115
I5
ssg116
g180
sg109
(lp187
g102
(g111
g104
NtRp188
(dp189
g107
(dp190
g115
I4
ssg116
Nsg109
(lp191
sbasbasbasbag102
(g118
g104
NtRp192
(dp193
g107
(dp194
sg116
g112
sg109
(lp195
g102
(g123
g104
NtRp196
(dp197
g107
(dp198
g127
g128
ssg116
g192
sg109
(lp199
S'body'
p200
asbag102
(g123
g104
NtRp201
(dp202
g107
(dp203
g134
g135
ssg116
g192
sg109
(lp204
S':'
asbag102
(g123
g104
NtRp205
(dp206
g107
(dp207
sg116
g192
sg109
(lp208
g102
(g103
g104
NtRp209
(dp210
g107
(dp211
g115
I5
ssg116
g205
sg109
(lp212
S'<cStringIO.StringO object at 0x7f00e8358618>'
p213
asbasbasbag102
(g118
g104
NtRp214
(dp215
g107
(dp216
sg116
g112
sg109
(lp217
g102
(g123
g104
NtRp218
(dp219
g107
(dp220
g127
g128
ssg116
g214
sg109
(lp221
S'client'
p222
asbag102
(g123
g104
NtRp223
(dp224
g107
(dp225
g134
g135
ssg116
g214
sg109
(lp226
S':'
asbag102
(g123
g104
NtRp227
(dp228
g107
(dp229
sg116
g214
sg109
(lp230
g102
(g103
g104
NtRp231
(dp232
g107
(dp233
g115
I5
ssg116
g227
sg109
(lp234
S'127.0.0.1'
p235
asbasbasbag102
(g118
g104
NtRp236
(dp237
g107
(dp238
sg116
g112
sg109
(lp239
g102
(g123
g104
NtRp240
(dp241
g107
(dp242
g127
g128
ssg116
g236
sg109
(lp243
S'controller'
p244
asbag102
(g123
g104
NtRp245
(dp246
g107
(dp247
g134
g135
ssg116
g236
sg109
(lp248
S':'
asbag102
(g123
g104
NtRp249
(dp250
g107
(dp251
sg116
g236
sg109
(lp252
g102
(g103
g104
NtRp253
(dp254
g107
(dp255
g115
I5
ssg116
g249
sg109
(lp256
S'default'
p257
asbasbasbag102
(g118
g104
NtRp258
(dp259
g107
(dp260
sg116
g112
sg109
(lp261
g102
(g123
g104
NtRp262
(dp263
g107
(dp264
g127
g128
ssg116
g258
sg109
(lp265
S'cookies'
p266
asbag102
(g123
g104
NtRp267
(dp268
g107
(dp269
g134
g135
ssg116
g258
sg109
(lp270
S':'
asbag102
(g123
g104
NtRp271
(dp272
g107
(dp273
sg116
g258
sg109
(lp274
g102
(g103
g104
NtRp275
(dp276
g107
(dp277
g115
I5
ssg116
g271
sg109
(lp278
g102
(g111
g104
NtRp279
(dp280
g107
(dp281
g115
I4
ssg116
Nsg109
(lp282
g102
(g118
g104
NtRp283
(dp284
g107
(dp285
sg116
g279
sg109
(lp286
g102
(g123
g104
NtRp287
(dp288
g107
(dp289
g127
g128
ssg116
g283
sg109
(lp290
S'session_id_cite_mf'
p291
asbag102
(g123
g104
NtRp292
(dp293
g107
(dp294
g134
g135
ssg116
g283
sg109
(lp295
S':'
asbag102
(g123
g104
NtRp296
(dp297
g107
(dp298
sg116
g283
sg109
(lp299
g102
(g103
g104
NtRp300
(dp301
g107
(dp302
g115
I4
ssg116
g296
sg109
(lp303
g102
(g111
g104
NtRp304
(dp305
g107
(dp306
g115
I3
ssg116
Nsg109
(lp307
g102
(g118
g104
NtRp308
(dp309
g107
(dp310
sg116
g304
sg109
(lp311
g102
(g123
g104
NtRp312
(dp313
g107
(dp314
g127
g128
ssg116
g308
sg109
(lp315
S'comment'
p316
asbag102
(g123
g104
NtRp317
(dp318
g107
(dp319
g134
g135
ssg116
g308
sg109
(lp320
S':'
asbag102
(g123
g104
NtRp321
(dp322
g107
(dp323
sg116
g308
sg109
(lp324
g102
(g103
g104
NtRp325
(dp326
g107
(dp327
g115
I3
ssg116
g321
sg109
(lp328
S''
asbasbasbag102
(g118
g104
NtRp329
(dp330
g107
(dp331
sg116
g304
sg109
(lp332
g102
(g123
g104
NtRp333
(dp334
g107
(dp335
g127
g128
ssg116
g329
sg109
(lp336
S'domain'
p337
asbag102
(g123
g104
NtRp338
(dp339
g107
(dp340
g134
g135
ssg116
g329
sg109
(lp341
S':'
asbag102
(g123
g104
NtRp342
(dp343
g107
(dp344
sg116
g329
sg109
(lp345
g102
(g103
g104
NtRp346
(dp347
g107
(dp348
g115
I3
ssg116
g342
sg109
(lp349
S''
asbasbasbag102
(g118
g104
NtRp350
(dp351
g107
(dp352
sg116
g304
sg109
(lp353
g102
(g123
g104
NtRp354
(dp355
g107
(dp356
g127
g128
ssg116
g350
sg109
(lp357
S'expires'
p358
asbag102
(g123
g104
NtRp359
(dp360
g107
(dp361
g134
g135
ssg116
g350
sg109
(lp362
S':'
asbag102
(g123
g104
NtRp363
(dp364
g107
(dp365
sg116
g350
sg109
(lp366
g102
(g103
g104
NtRp367
(dp368
g107
(dp369
g115
I3
ssg116
g363
sg109
(lp370
S''
asbasbasbag102
(g118
g104
NtRp371
(dp372
g107
(dp373
sg116
g304
sg109
(lp374
g102
(g123
g104
NtRp375
(dp376
g107
(dp377
g127
g128
ssg116
g371
sg109
(lp378
S'httponly'
p379
asbag102
(g123
g104
NtRp380
(dp381
g107
(dp382
g134
g135
ssg116
g371
sg109
(lp383
S':'
asbag102
(g123
g104
NtRp384
(dp385
g107
(dp386
sg116
g371
sg109
(lp387
g102
(g103
g104
NtRp388
(dp389
g107
(dp390
g115
I3
ssg116
g384
sg109
(lp391
S''
asbasbasbag102
(g118
g104
NtRp392
(dp393
g107
(dp394
sg116
g304
sg109
(lp395
g102
(g123
g104
NtRp396
(dp397
g107
(dp398
g127
g128
ssg116
g392
sg109
(lp399
S'max-age'
p400
asbag102
(g123
g104
NtRp401
(dp402
g107
(dp403
g134
g135
ssg116
g392
sg109
(lp404
S':'
asbag102
(g123
g104
NtRp405
(dp406
g107
(dp407
sg116
g392
sg109
(lp408
g102
(g103
g104
NtRp409
(dp410
g107
(dp411
g115
I3
ssg116
g405
sg109
(lp412
S''
asbasbasbag102
(g118
g104
NtRp413
(dp414
g107
(dp415
sg116
g304
sg109
(lp416
g102
(g123
g104
NtRp417
(dp418
g107
(dp419
g127
g128
ssg116
g413
sg109
(lp420
S'path'
p421
asbag102
(g123
g104
NtRp422
(dp423
g107
(dp424
g134
g135
ssg116
g413
sg109
(lp425
S':'
asbag102
(g123
g104
NtRp426
(dp427
g107
(dp428
sg116
g413
sg109
(lp429
g102
(g103
g104
NtRp430
(dp431
g107
(dp432
g115
I3
ssg116
g426
sg109
(lp433
S''
asbasbasbag102
(g118
g104
NtRp434
(dp435
g107
(dp436
sg116
g304
sg109
(lp437
g102
(g123
g104
NtRp438
(dp439
g107
(dp440
g127
g128
ssg116
g434
sg109
(lp441
S'secure'
p442
asbag102
(g123
g104
NtRp443
(dp444
g107
(dp445
g134
g135
ssg116
g434
sg109
(lp446
S':'
asbag102
(g123
g104
NtRp447
(dp448
g107
(dp449
sg116
g434
sg109
(lp450
g102
(g103
g104
NtRp451
(dp452
g107
(dp453
g115
I3
ssg116
g447
sg109
(lp454
S''
asbasbasbag102
(g118
g104
NtRp455
(dp456
g107
(dp457
sg116
g304
sg109
(lp458
g102
(g123
g104
NtRp459
(dp460
g107
(dp461
g127
g128
ssg116
g455
sg109
(lp462
S'version'
p463
asbag102
(g123
g104
NtRp464
(dp465
g107
(dp466
g134
g135
ssg116
g455
sg109
(lp467
S':'
asbag102
(g123
g104
NtRp468
(dp469
g107
(dp470
sg116
g455
sg109
(lp471
g102
(g103
g104
NtRp472
(dp473
g107
(dp474
g115
I3
ssg116
g468
sg109
(lp475
S''
asbasbasbasbasbasbasbasbasbasbasbag102
(g118
g104
NtRp476
(dp477
g107
(dp478
sg116
g112
sg109
(lp479
g102
(g123
g104
NtRp480
(dp481
g107
(dp482
g127
g128
ssg116
g476
sg109
(lp483
S'env'
p484
asbag102
(g123
g104
NtRp485
(dp486
g107
(dp487
g134
g135
ssg116
g476
sg109
(lp488
S':'
asbag102
(g123
g104
NtRp489
(dp490
g107
(dp491
sg116
g476
sg109
(lp492
g102
(g103
g104
NtRp493
(dp494
g107
(dp495
g115
I5
ssg116
g489
sg109
(lp496
g102
(g111
g104
NtRp497
(dp498
g107
(dp499
g115
I4
ssg116
Nsg109
(lp500
g102
(g118
g104
NtRp501
(dp502
g107
(dp503
sg116
g497
sg109
(lp504
g102
(g123
g104
NtRp505
(dp506
g107
(dp507
g127
g128
ssg116
g501
sg109
(lp508
S'app_folders'
p509
asbag102
(g123
g104
NtRp510
(dp511
g107
(dp512
g134
g135
ssg116
g501
sg109
(lp513
S':'
asbag102
(g123
g104
NtRp514
(dp515
g107
(dp516
sg116
g501
sg109
(lp517
g102
(g103
g104
NtRp518
(dp519
g107
(dp520
g115
I4
ssg116
g514
sg109
(lp521
S"set(['/home/maneesha/Downloads/web2py/applications/welcome/', '/home/maneesha/Downloads/web2py/applications/admin/', '/home/maneesha/Downloads/web2py/applications/cite_mf/'])"
p522
asbasbasbag102
(g118
g104
NtRp523
(dp524
g107
(dp525
sg116
g497
sg109
(lp526
g102
(g123
g104
NtRp527
(dp528
g107
(dp529
g127
g128
ssg116
g523
sg109
(lp530
S'applications_parent'
p531
asbag102
(g123
g104
NtRp532
(dp533
g107
(dp534
g134
g135
ssg116
g523
sg109
(lp535
S':'
asbag102
(g123
g104
NtRp536
(dp537
g107
(dp538
sg116
g523
sg109
(lp539
g102
(g103
g104
NtRp540
(dp541
g107
(dp542
g115
I4
ssg116
g536
sg109
(lp543
S'/home/maneesha/Downloads/web2py'
p544
asbasbasbag102
(g118
g104
NtRp545
(dp546
g107
(dp547
sg116
g497
sg109
(lp548
g102
(g123
g104
NtRp549
(dp550
g107
(dp551
g127
g128
ssg116
g545
sg109
(lp552
S'cmd_args'
p553
asbag102
(g123
g104
NtRp554
(dp555
g107
(dp556
g134
g135
ssg116
g545
sg109
(lp557
S':'
asbag102
(g123
g104
NtRp558
(dp559
g107
(dp560
sg116
g545
sg109
(lp561
g102
(g103
g104
NtRp562
(dp563
g107
(dp564
g115
I4
ssg116
g558
sg109
(lp565
g102
(g111
g104
NtRp566
(dp567
g107
(dp568
g115
I3
ssg116
Nsg109
(lp569
sbasbasbasbag102
(g118
g104
NtRp570
(dp571
g107
(dp572
sg116
g497
sg109
(lp573
g102
(g123
g104
NtRp574
(dp575
g107
(dp576
g127
g128
ssg116
g570
sg109
(lp577
S'cmd_options'
p578
asbag102
(g123
g104
NtRp579
(dp580
g107
(dp581
g134
g135
ssg116
g570
sg109
(lp582
S':'
asbag102
(g123
g104
NtRp583
(dp584
g107
(dp585
sg116
g570
sg109
(lp586
g102
(g103
g104
NtRp587
(dp588
g107
(dp589
g115
I4
ssg116
g583
sg109
(lp590
S"<Values at 0x14beb00: {'verbose': False, 'ip': '127.0.0.1', 'shutdown_timeout': 5, 'taskbar': False, 'nocron': False, 'pid_filename': 'httpserver.pid', 'maxthreads': None, 'softcron': False, 'server_name': 'maneesha-Inspiron-N5050', 'bpython': False, 'nogui': False, 'port': 8000, 'extcron': False, 'debuglevel': 30, 'test': None, 'folder': '/home/maneesha/Downloads/web2py', 'config': '', 'import_models': False, 'winservice': '', 'shell': None, 'run': '', 'log_filename': 'httpserver.log', 'args': [''], 'socket_timeout': 5, 'ssl_ca_certificate': None, 'scheduler': None, 'profiler_filename': None, 'ssl_private_key': '', 'password': '<ask>', 'request_queue_size': 5, 'ssl_certificate': '', 'cronjob': False, 'numthreads': None, 'quiet': False, 'interfaces': None, 'minthreads': None, 'timeout': 10, 'plain': False, 'nobanner': False}>"
p591
asbasbasbag102
(g118
g104
NtRp592
(dp593
g107
(dp594
sg116
g497
sg109
(lp595
g102
(g123
g104
NtRp596
(dp597
g107
(dp598
g127
g128
ssg116
g592
sg109
(lp599
S'db_sessions'
p600
asbag102
(g123
g104
NtRp601
(dp602
g107
(dp603
g134
g135
ssg116
g592
sg109
(lp604
S':'
asbag102
(g123
g104
NtRp605
(dp606
g107
(dp607
sg116
g592
sg109
(lp608
g102
(g103
g104
NtRp609
(dp610
g107
(dp611
g115
I4
ssg116
g605
sg109
(lp612
S'set([])'
p613
asbasbasbag102
(g118
g104
NtRp614
(dp615
g107
(dp616
sg116
g497
sg109
(lp617
g102
(g123
g104
NtRp618
(dp619
g107
(dp620
g127
g128
ssg116
g614
sg109
(lp621
S'debugging'
p622
asbag102
(g123
g104
NtRp623
(dp624
g107
(dp625
g134
g135
ssg116
g614
sg109
(lp626
S':'
asbag102
(g123
g104
NtRp627
(dp628
g107
(dp629
sg116
g614
sg109
(lp630
g102
(g103
g104
NtRp631
(dp632
g107
(dp633
g115
I4
ssg116
g627
sg109
(lp634
g145
asbasbasbag102
(g118
g104
NtRp635
(dp636
g107
(dp637
sg116
g497
sg109
(lp638
g102
(g123
g104
NtRp639
(dp640
g107
(dp641
g127
g128
ssg116
g635
sg109
(lp642
S'gluon_parent'
p643
asbag102
(g123
g104
NtRp644
(dp645
g107
(dp646
g134
g135
ssg116
g635
sg109
(lp647
S':'
asbag102
(g123
g104
NtRp648
(dp649
g107
(dp650
sg116
g635
sg109
(lp651
g102
(g103
g104
NtRp652
(dp653
g107
(dp654
g115
I4
ssg116
g648
sg109
(lp655
S'/home/maneesha/Downloads/web2py'
p656
asbasbasbag102
(g118
g104
NtRp657
(dp658
g107
(dp659
sg116
g497
sg109
(lp660
g102
(g123
g104
NtRp661
(dp662
g107
(dp663
g127
g128
ssg116
g657
sg109
(lp664
S'http_accept'
p665
asbag102
(g123
g104
NtRp666
(dp667
g107
(dp668
g134
g135
ssg116
g657
sg109
(lp669
S':'
asbag102
(g123
g104
NtRp670
(dp671
g107
(dp672
sg116
g657
sg109
(lp673
g102
(g103
g104
NtRp674
(dp675
g107
(dp676
g115
I4
ssg116
g670
sg109
(lp677
S'text/html,application/xhtml+xml,application/xml;q=0.9,*/*;q=0.8'
p678
asbasbasbag102
(g118
g104
NtRp679
(dp680
g107
(dp681
sg116
g497
sg109
(lp682
g102
(g123
g104
NtRp683
(dp684
g107
(dp685
g127
g128
ssg116
g679
sg109
(lp686
S'http_accept_encoding'
p687
asbag102
(g123
g104
NtRp688
(dp689
g107
(dp690
g134
g135
ssg116
g679
sg109
(lp691
S':'
asbag102
(g123
g104
NtRp692
(dp693
g107
(dp694
sg116
g679
sg109
(lp695
g102
(g103
g104
NtRp696
(dp697
g107
(dp698
g115
I4
ssg116
g692
sg109
(lp699
S'gzip, deflate'
p700
asbasbasbag102
(g118
g104
NtRp701
(dp702
g107
(dp703
sg116
g497
sg109
(lp704
g102
(g123
g104
NtRp705
(dp706
g107
(dp707
g127
g128
ssg116
g701
sg109
(lp708
S'http_accept_language'
p709
asbag102
(g123
g104
NtRp710
(dp711
g107
(dp712
g134
g135
ssg116
g701
sg109
(lp713
S':'
asbag102
(g123
g104
NtRp714
(dp715
g107
(dp716
sg116
g701
sg109
(lp717
g102
(g103
g104
NtRp718
(dp719
g107
(dp720
g115
I4
ssg116
g714
sg109
(lp721
S'en-US,en;q=0.5'
p722
asbasbasbag102
(g118
g104
NtRp723
(dp724
g107
(dp725
sg116
g497
sg109
(lp726
g102
(g123
g104
NtRp727
(dp728
g107
(dp729
g127
g128
ssg116
g723
sg109
(lp730
S'http_connection'
p731
asbag102
(g123
g104
NtRp732
(dp733
g107
(dp734
g134
g135
ssg116
g723
sg109
(lp735
S':'
asbag102
(g123
g104
NtRp736
(dp737
g107
(dp738
sg116
g723
sg109
(lp739
g102
(g103
g104
NtRp740
(dp741
g107
(dp742
g115
I4
ssg116
g736
sg109
(lp743
S'keep-alive'
p744
asbasbasbag102
(g118
g104
NtRp745
(dp746
g107
(dp747
sg116
g497
sg109
(lp748
g102
(g123
g104
NtRp749
(dp750
g107
(dp751
g127
g128
ssg116
g745
sg109
(lp752
S'http_cookie'
p753
asbag102
(g123
g104
NtRp754
(dp755
g107
(dp756
g134
g135
ssg116
g745
sg109
(lp757
S':'
asbag102
(g123
g104
NtRp758
(dp759
g107
(dp760
sg116
g745
sg109
(lp761
g102
(g103
g104
NtRp762
(dp763
g107
(dp764
g115
I4
ssg116
g758
sg109
(lp765
S'session_id_cite_mf=127.0.0.1-c428480d-4e16-4535-aab3-fa9a791ba35c'
p766
asbasbasbag102
(g118
g104
NtRp767
(dp768
g107
(dp769
sg116
g497
sg109
(lp770
g102
(g123
g104
NtRp771
(dp772
g107
(dp773
g127
g128
ssg116
g767
sg109
(lp774
S'http_host'
p775
asbag102
(g123
g104
NtRp776
(dp777
g107
(dp778
g134
g135
ssg116
g767
sg109
(lp779
S':'
asbag102
(g123
g104
NtRp780
(dp781
g107
(dp782
sg116
g767
sg109
(lp783
g102
(g103
g104
NtRp784
(dp785
g107
(dp786
g115
I4
ssg116
g780
sg109
(lp787
S'127.0.0.1:8000'
p788
asbasbasbag102
(g118
g104
NtRp789
(dp790
g107
(dp791
sg116
g497
sg109
(lp792
g102
(g123
g104
NtRp793
(dp794
g107
(dp795
g127
g128
ssg116
g789
sg109
(lp796
S'http_referer'
p797
asbag102
(g123
g104
NtRp798
(dp799
g107
(dp800
g134
g135
ssg116
g789
sg109
(lp801
S':'
asbag102
(g123
g104
NtRp802
(dp803
g107
(dp804
sg116
g789
sg109
(lp805
g102
(g103
g104
NtRp806
(dp807
g107
(dp808
g115
I4
ssg116
g802
sg109
(lp809
S'http://127.0.0.1:8000/cite_mf/default/index'
p810
asbasbasbag102
(g118
g104
NtRp811
(dp812
g107
(dp813
sg116
g497
sg109
(lp814
g102
(g123
g104
NtRp815
(dp816
g107
(dp817
g127
g128
ssg116
g811
sg109
(lp818
S'http_user_agent'
p819
asbag102
(g123
g104
NtRp820
(dp821
g107
(dp822
g134
g135
ssg116
g811
sg109
(lp823
S':'
asbag102
(g123
g104
NtRp824
(dp825
g107
(dp826
sg116
g811
sg109
(lp827
g102
(g103
g104
NtRp828
(dp829
g107
(dp830
g115
I4
ssg116
g824
sg109
(lp831
S'Mozilla/5.0 (X11; Ubuntu; Linux x86_64; rv:16.0) Gecko/20100101 Firefox/16.0'
p832
asbasbasbag102
(g118
g104
NtRp833
(dp834
g107
(dp835
sg116
g497
sg109
(lp836
g102
(g123
g104
NtRp837
(dp838
g107
(dp839
g127
g128
ssg116
g833
sg109
(lp840
S'is_jython'
p841
asbag102
(g123
g104
NtRp842
(dp843
g107
(dp844
g134
g135
ssg116
g833
sg109
(lp845
S':'
asbag102
(g123
g104
NtRp846
(dp847
g107
(dp848
sg116
g833
sg109
(lp849
g102
(g103
g104
NtRp850
(dp851
g107
(dp852
g115
I4
ssg116
g846
sg109
(lp853
g145
asbasbasbag102
(g118
g104
NtRp854
(dp855
g107
(dp856
sg116
g497
sg109
(lp857
g102
(g123
g104
NtRp858
(dp859
g107
(dp860
g127
g128
ssg116
g854
sg109
(lp861
S'is_pypy'
p862
asbag102
(g123
g104
NtRp863
(dp864
g107
(dp865
g134
g135
ssg116
g854
sg109
(lp866
S':'
asbag102
(g123
g104
NtRp867
(dp868
g107
(dp869
sg116
g854
sg109
(lp870
g102
(g103
g104
NtRp871
(dp872
g107
(dp873
g115
I4
ssg116
g867
sg109
(lp874
g145
asbasbasbag102
(g118
g104
NtRp875
(dp876
g107
(dp877
sg116
g497
sg109
(lp878
g102
(g123
g104
NtRp879
(dp880
g107
(dp881
g127
g128
ssg116
g875
sg109
(lp882
S'path_info'
p883
asbag102
(g123
g104
NtRp884
(dp885
g107
(dp886
g134
g135
ssg116
g875
sg109
(lp887
S':'
asbag102
(g123
g104
NtRp888
(dp889
g107
(dp890
sg116
g875
sg109
(lp891
g102
(g103
g104
NtRp892
(dp893
g107
(dp894
g115
I4
ssg116
g888
sg109
(lp895
S'/cite_mf/default/final_ans'
p896
asbasbasbag102
(g118
g104
NtRp897
(dp898
g107
(dp899
sg116
g497
sg109
(lp900
g102
(g123
g104
NtRp901
(dp902
g107
(dp903
g127
g128
ssg116
g897
sg109
(lp904
S'query_string'
p905
asbag102
(g123
g104
NtRp906
(dp907
g107
(dp908
g134
g135
ssg116
g897
sg109
(lp909
S':'
asbag102
(g123
g104
NtRp910
(dp911
g107
(dp912
sg116
g897
sg109
(lp913
g102
(g103
g104
NtRp914
(dp915
g107
(dp916
g115
I4
ssg116
g910
sg109
(lp917
S''
asbasbasbag102
(g118
g104
NtRp918
(dp919
g107
(dp920
sg116
g497
sg109
(lp921
g102
(g123
g104
NtRp922
(dp923
g107
(dp924
g127
g128
ssg116
g918
sg109
(lp925
S'remote_addr'
p926
asbag102
(g123
g104
NtRp927
(dp928
g107
(dp929
g134
g135
ssg116
g918
sg109
(lp930
S':'
asbag102
(g123
g104
NtRp931
(dp932
g107
(dp933
sg116
g918
sg109
(lp934
g102
(g103
g104
NtRp935
(dp936
g107
(dp937
g115
I4
ssg116
g931
sg109
(lp938
g235
asbasbasbag102
(g118
g104
NtRp939
(dp940
g107
(dp941
sg116
g497
sg109
(lp942
g102
(g123
g104
NtRp943
(dp944
g107
(dp945
g127
g128
ssg116
g939
sg109
(lp946
S'remote_port'
p947
asbag102
(g123
g104
NtRp948
(dp949
g107
(dp950
g134
g135
ssg116
g939
sg109
(lp951
S':'
asbag102
(g123
g104
NtRp952
(dp953
g107
(dp954
sg116
g939
sg109
(lp955
g102
(g103
g104
NtRp956
(dp957
g107
(dp958
g115
I4
ssg116
g952
sg109
(lp959
S'43883'
p960
asbasbasbag102
(g118
g104
NtRp961
(dp962
g107
(dp963
sg116
g497
sg109
(lp964
g102
(g123
g104
NtRp965
(dp966
g107
(dp967
g127
g128
ssg116
g961
sg109
(lp968
S'request_method'
p969
asbag102
(g123
g104
NtRp970
(dp971
g107
(dp972
g134
g135
ssg116
g961
sg109
(lp973
S':'
asbag102
(g123
g104
NtRp974
(dp975
g107
(dp976
sg116
g961
sg109
(lp977
g102
(g103
g104
NtRp978
(dp979
g107
(dp980
g115
I4
ssg116
g974
sg109
(lp981
S'GET'
p982
asbasbasbag102
(g118
g104
NtRp983
(dp984
g107
(dp985
sg116
g497
sg109
(lp986
g102
(g123
g104
NtRp987
(dp988
g107
(dp989
g127
g128
ssg116
g983
sg109
(lp990
S'script_name'
p991
asbag102
(g123
g104
NtRp992
(dp993
g107
(dp994
g134
g135
ssg116
g983
sg109
(lp995
S':'
asbag102
(g123
g104
NtRp996
(dp997
g107
(dp998
sg116
g983
sg109
(lp999
g102
(g103
g104
NtRp1000
(dp1001
g107
(dp1002
g115
I4
ssg116
g996
sg109
(lp1003
S''
asbasbasbag102
(g118
g104
NtRp1004
(dp1005
g107
(dp1006
sg116
g497
sg109
(lp1007
g102
(g123
g104
NtRp1008
(dp1009
g107
(dp1010
g127
g128
ssg116
g1004
sg109
(lp1011
S'server_name'
p1012
asbag102
(g123
g104
NtRp1013
(dp1014
g107
(dp1015
g134
g135
ssg116
g1004
sg109
(lp1016
S':'
asbag102
(g123
g104
NtRp1017
(dp1018
g107
(dp1019
sg116
g1004
sg109
(lp1020
g102
(g103
g104
NtRp1021
(dp1022
g107
(dp1023
g115
I4
ssg116
g1017
sg109
(lp1024
S'maneesha-Inspiron-N5050'
p1025
asbasbasbag102
(g118
g104
NtRp1026
(dp1027
g107
(dp1028
sg116
g497
sg109
(lp1029
g102
(g123
g104
NtRp1030
(dp1031
g107
(dp1032
g127
g128
ssg116
g1026
sg109
(lp1033
S'server_port'
p1034
asbag102
(g123
g104
NtRp1035
(dp1036
g107
(dp1037
g134
g135
ssg116
g1026
sg109
(lp1038
S':'
asbag102
(g123
g104
NtRp1039
(dp1040
g107
(dp1041
sg116
g1026
sg109
(lp1042
g102
(g103
g104
NtRp1043
(dp1044
g107
(dp1045
g115
I4
ssg116
g1039
sg109
(lp1046
S'8000'
p1047
asbasbasbag102
(g118
g104
NtRp1048
(dp1049
g107
(dp1050
sg116
g497
sg109
(lp1051
g102
(g123
g104
NtRp1052
(dp1053
g107
(dp1054
g127
g128
ssg116
g1048
sg109
(lp1055
S'server_protocol'
p1056
asbag102
(g123
g104
NtRp1057
(dp1058
g107
(dp1059
g134
g135
ssg116
g1048
sg109
(lp1060
S':'
asbag102
(g123
g104
NtRp1061
(dp1062
g107
(dp1063
sg116
g1048
sg109
(lp1064
g102
(g103
g104
NtRp1065
(dp1066
g107
(dp1067
g115
I4
ssg116
g1061
sg109
(lp1068
S'HTTP/1.1'
p1069
asbasbasbag102
(g118
g104
NtRp1070
(dp1071
g107
(dp1072
sg116
g497
sg109
(lp1073
g102
(g123
g104
NtRp1074
(dp1075
g107
(dp1076
g127
g128
ssg116
g1070
sg109
(lp1077
S'server_software'
p1078
asbag102
(g123
g104
NtRp1079
(dp1080
g107
(dp1081
g134
g135
ssg116
g1070
sg109
(lp1082
S':'
asbag102
(g123
g104
NtRp1083
(dp1084
g107
(dp1085
sg116
g1070
sg109
(lp1086
g102
(g103
g104
NtRp1087
(dp1088
g107
(dp1089
g115
I4
ssg116
g1083
sg109
(lp1090
S'Rocket 1.2.4'
p1091
asbasbasbag102
(g118
g104
NtRp1092
(dp1093
g107
(dp1094
sg116
g497
sg109
(lp1095
g102
(g123
g104
NtRp1096
(dp1097
g107
(dp1098
g127
g128
ssg116
g1092
sg109
(lp1099
S'web2py_crontype'
p1100
asbag102
(g123
g104
NtRp1101
(dp1102
g107
(dp1103
g134
g135
ssg116
g1092
sg109
(lp1104
S':'
asbag102
(g123
g104
NtRp1105
(dp1106
g107
(dp1107
sg116
g1092
sg109
(lp1108
g102
(g103
g104
NtRp1109
(dp1110
g107
(dp1111
g115
I4
ssg116
g1105
sg109
(lp1112
S'hard'
p1113
asbasbasbag102
(g118
g104
NtRp1114
(dp1115
g107
(dp1116
sg116
g497
sg109
(lp1117
g102
(g123
g104
NtRp1118
(dp1119
g107
(dp1120
g127
g128
ssg116
g1114
sg109
(lp1121
S'web2py_path'
p1122
asbag102
(g123
g104
NtRp1123
(dp1124
g107
(dp1125
g134
g135
ssg116
g1114
sg109
(lp1126
S':'
asbag102
(g123
g104
NtRp1127
(dp1128
g107
(dp1129
sg116
g1114
sg109
(lp1130
g102
(g103
g104
NtRp1131
(dp1132
g107
(dp1133
g115
I4
ssg116
g1127
sg109
(lp1134
g544
asbasbasbag102
(g118
g104
NtRp1135
(dp1136
g107
(dp1137
sg116
g497
sg109
(lp1138
g102
(g123
g104
NtRp1139
(dp1140
g107
(dp1141
g127
g128
ssg116
g1135
sg109
(lp1142
S'web2py_version'
p1143
asbag102
(g123
g104
NtRp1144
(dp1145
g107
(dp1146
g134
g135
ssg116
g1135
sg109
(lp1147
S':'
asbag102
(g123
g104
NtRp1148
(dp1149
g107
(dp1150
sg116
g1135
sg109
(lp1151
g102
(g103
g104
NtRp1152
(dp1153
g107
(dp1154
g115
I4
ssg116
g1148
sg109
(lp1155
g102
(g111
g104
NtRp1156
(dp1157
g107
(dp1158
g115
I3
ssg116
Nsg109
(lp1159
g102
(g118
g104
NtRp1160
(dp1161
g107
(dp1162
sg116
g1156
sg109
(lp1163
g102
(g123
g104
NtRp1164
(dp1165
g107
(dp1166
sg116
g1160
sg109
(lp1167
g102
(g103
g104
NtRp1168
(dp1169
g107
(dp1170
g115
I3
ssg116
g1164
sg109
(lp1171
S'1'
asbasbasbag102
(g118
g104
NtRp1172
(dp1173
g107
(dp1174
sg116
g1156
sg109
(lp1175
g102
(g123
g104
NtRp1176
(dp1177
g107
(dp1178
sg116
g1172
sg109
(lp1179
g102
(g103
g104
NtRp1180
(dp1181
g107
(dp1182
g115
I3
ssg116
g1176
sg109
(lp1183
S'99'
p1184
asbasbasbag102
(g118
g104
NtRp1185
(dp1186
g107
(dp1187
sg116
g1156
sg109
(lp1188
g102
(g123
g104
NtRp1189
(dp1190
g107
(dp1191
sg116
g1185
sg109
(lp1192
g102
(g103
g104
NtRp1193
(dp1194
g107
(dp1195
g115
I3
ssg116
g1189
sg109
(lp1196
S'7'
asbasbasbag102
(g118
g104
NtRp1197
(dp1198
g107
(dp1199
sg116
g1156
sg109
(lp1200
g102
(g123
g104
NtRp1201
(dp1202
g107
(dp1203
sg116
g1197
sg109
(lp1204
g102
(g103
g104
NtRp1205
(dp1206
g107
(dp1207
g115
I3
ssg116
g1201
sg109
(lp1208
S'datetime.datetime(2012, 3, 4, 22, 12, 8)'
p1209
asbasbasbag102
(g118
g104
NtRp1210
(dp1211
g107
(dp1212
sg116
g1156
sg109
(lp1213
g102
(g123
g104
NtRp1214
(dp1215
g107
(dp1216
sg116
g1210
sg109
(lp1217
g102
(g103
g104
NtRp1218
(dp1219
g107
(dp1220
g115
I3
ssg116
g1214
sg109
(lp1221
S'stable'
p1222
asbasbasbasbasbasbasbag102
(g118
g104
NtRp1223
(dp1224
g107
(dp1225
sg116
g497
sg109
(lp1226
g102
(g123
g104
NtRp1227
(dp1228
g107
(dp1229
g127
g128
ssg116
g1223
sg109
(lp1230
S'wsgi_errors'
p1231
asbag102
(g123
g104
NtRp1232
(dp1233
g107
(dp1234
g134
g135
ssg116
g1223
sg109
(lp1235
S':'
asbag102
(g123
g104
NtRp1236
(dp1237
g107
(dp1238
sg116
g1223
sg109
(lp1239
g102
(g103
g104
NtRp1240
(dp1241
g107
(dp1242
g115
I4
ssg116
g1236
sg109
(lp1243
S"<open file '<stderr>', mode 'w' at 0x7f010c458270>"
p1244
asbasbasbag102
(g118
g104
NtRp1245
(dp1246
g107
(dp1247
sg116
g497
sg109
(lp1248
g102
(g123
g104
NtRp1249
(dp1250
g107
(dp1251
g127
g128
ssg116
g1245
sg109
(lp1252
S'wsgi_file_wrapper'
p1253
asbag102
(g123
g104
NtRp1254
(dp1255
g107
(dp1256
g134
g135
ssg116
g1245
sg109
(lp1257
S':'
asbag102
(g123
g104
NtRp1258
(dp1259
g107
(dp1260
sg116
g1245
sg109
(lp1261
g102
(g103
g104
NtRp1262
(dp1263
g107
(dp1264
g115
I4
ssg116
g1258
sg109
(lp1265
S'<class wsgiref.util.FileWrapper at 0x138eef0>'
p1266
asbasbasbag102
(g118
g104
NtRp1267
(dp1268
g107
(dp1269
sg116
g497
sg109
(lp1270
g102
(g123
g104
NtRp1271
(dp1272
g107
(dp1273
g127
g128
ssg116
g1267
sg109
(lp1274
S'wsgi_input'
p1275
asbag102
(g123
g104
NtRp1276
(dp1277
g107
(dp1278
g134
g135
ssg116
g1267
sg109
(lp1279
S':'
asbag102
(g123
g104
NtRp1280
(dp1281
g107
(dp1282
sg116
g1267
sg109
(lp1283
g102
(g103
g104
NtRp1284
(dp1285
g107
(dp1286
g115
I4
ssg116
g1280
sg109
(lp1287
S'<socket._fileobject object at 0x7f00f0320ed0>'
p1288
asbasbasbag102
(g118
g104
NtRp1289
(dp1290
g107
(dp1291
sg116
g497
sg109
(lp1292
g102
(g123
g104
NtRp1293
(dp1294
g107
(dp1295
g127
g128
ssg116
g1289
sg109
(lp1296
S'wsgi_multiprocess'
p1297
asbag102
(g123
g104
NtRp1298
(dp1299
g107
(dp1300
g134
g135
ssg116
g1289
sg109
(lp1301
S':'
asbag102
(g123
g104
NtRp1302
(dp1303
g107
(dp1304
sg116
g1289
sg109
(lp1305
g102
(g103
g104
NtRp1306
(dp1307
g107
(dp1308
g115
I4
ssg116
g1302
sg109
(lp1309
g145
asbasbasbag102
(g118
g104
NtRp1310
(dp1311
g107
(dp1312
sg116
g497
sg109
(lp1313
g102
(g123
g104
NtRp1314
(dp1315
g107
(dp1316
g127
g128
ssg116
g1310
sg109
(lp1317
S'wsgi_multithread'
p1318
asbag102
(g123
g104
NtRp1319
(dp1320
g107
(dp1321
g134
g135
ssg116
g1310
sg109
(lp1322
S':'
asbag102
(g123
g104
NtRp1323
(dp1324
g107
(dp1325
sg116
g1310
sg109
(lp1326
g102
(g103
g104
NtRp1327
(dp1328
g107
(dp1329
g115
I4
ssg116
g1323
sg109
(lp1330
S'True'
p1331
asbasbasbag102
(g118
g104
NtRp1332
(dp1333
g107
(dp1334
sg116
g497
sg109
(lp1335
g102
(g123
g104
NtRp1336
(dp1337
g107
(dp1338
g127
g128
ssg116
g1332
sg109
(lp1339
S'wsgi_run_once'
p1340
asbag102
(g123
g104
NtRp1341
(dp1342
g107
(dp1343
g134
g135
ssg116
g1332
sg109
(lp1344
S':'
asbag102
(g123
g104
NtRp1345
(dp1346
g107
(dp1347
sg116
g1332
sg109
(lp1348
g102
(g103
g104
NtRp1349
(dp1350
g107
(dp1351
g115
I4
ssg116
g1345
sg109
(lp1352
g145
asbasbasbag102
(g118
g104
NtRp1353
(dp1354
g107
(dp1355
sg116
g497
sg109
(lp1356
g102
(g123
g104
NtRp1357
(dp1358
g107
(dp1359
g127
g128
ssg116
g1353
sg109
(lp1360
S'wsgi_url_scheme'
p1361
asbag102
(g123
g104
NtRp1362
(dp1363
g107
(dp1364
g134
g135
ssg116
g1353
sg109
(lp1365
S':'
asbag102
(g123
g104
NtRp1366
(dp1367
g107
(dp1368
sg116
g1353
sg109
(lp1369
g102
(g103
g104
NtRp1370
(dp1371
g107
(dp1372
g115
I4
ssg116
g1366
sg109
(lp1373
S'http'
p1374
asbasbasbag102
(g118
g104
NtRp1375
(dp1376
g107
(dp1377
sg116
g497
sg109
(lp1378
g102
(g123
g104
NtRp1379
(dp1380
g107
(dp1381
g127
g128
ssg116
g1375
sg109
(lp1382
S'wsgi_version'
p1383
asbag102
(g123
g104
NtRp1384
(dp1385
g107
(dp1386
g134
g135
ssg116
g1375
sg109
(lp1387
S':'
asbag102
(g123
g104
NtRp1388
(dp1389
g107
(dp1390
sg116
g1375
sg109
(lp1391
g102
(g103
g104
NtRp1392
(dp1393
g107
(dp1394
g115
I4
ssg116
g1388
sg109
(lp1395
g102
(g111
g104
NtRp1396
(dp1397
g107
(dp1398
g115
I3
ssg116
Nsg109
(lp1399
g102
(g118
g104
NtRp1400
(dp1401
g107
(dp1402
sg116
g1396
sg109
(lp1403
g102
(g123
g104
NtRp1404
(dp1405
g107
(dp1406
sg116
g1400
sg109
(lp1407
g102
(g103
g104
NtRp1408
(dp1409
g107
(dp1410
g115
I3
ssg116
g1404
sg109
(lp1411
S'1'
asbasbasbag102
(g118
g104
NtRp1412
(dp1413
g107
(dp1414
sg116
g1396
sg109
(lp1415
g102
(g123
g104
NtRp1416
(dp1417
g107
(dp1418
sg116
g1412
sg109
(lp1419
g102
(g103
g104
NtRp1420
(dp1421
g107
(dp1422
g115
I3
ssg116
g1416
sg109
(lp1423
S'0'
asbasbasbasbasbasbasbasbasbasbasbag102
(g118
g104
NtRp1424
(dp1425
g107
(dp1426
sg116
g112
sg109
(lp1427
g102
(g123
g104
NtRp1428
(dp1429
g107
(dp1430
g127
g128
ssg116
g1424
sg109
(lp1431
S'extension'
p1432
asbag102
(g123
g104
NtRp1433
(dp1434
g107
(dp1435
g134
g135
ssg116
g1424
sg109
(lp1436
S':'
asbag102
(g123
g104
NtRp1437
(dp1438
g107
(dp1439
sg116
g1424
sg109
(lp1440
g102
(g103
g104
NtRp1441
(dp1442
g107
(dp1443
g115
I5
ssg116
g1437
sg109
(lp1444
S'html'
p1445
asbasbasbag102
(g118
g104
NtRp1446
(dp1447
g107
(dp1448
sg116
g112
sg109
(lp1449
g102
(g123
g104
NtRp1450
(dp1451
g107
(dp1452
g127
g128
ssg116
g1446
sg109
(lp1453
S'folder'
p1454
asbag102
(g123
g104
NtRp1455
(dp1456
g107
(dp1457
g134
g135
ssg116
g1446
sg109
(lp1458
S':'
asbag102
(g123
g104
NtRp1459
(dp1460
g107
(dp1461
sg116
g1446
sg109
(lp1462
g102
(g103
g104
NtRp1463
(dp1464
g107
(dp1465
g115
I5
ssg116
g1459
sg109
(lp1466
S'/home/maneesha/Downloads/web2py/applications/cite_mf/'
p1467
asbasbasbag102
(g118
g104
NtRp1468
(dp1469
g107
(dp1470
sg116
g112
sg109
(lp1471
g102
(g123
g104
NtRp1472
(dp1473
g107
(dp1474
g127
g128
ssg116
g1468
sg109
(lp1475
S'function'
p1476
asbag102
(g123
g104
NtRp1477
(dp1478
g107
(dp1479
g134
g135
ssg116
g1468
sg109
(lp1480
S':'
asbag102
(g123
g104
NtRp1481
(dp1482
g107
(dp1483
sg116
g1468
sg109
(lp1484
g102
(g103
g104
NtRp1485
(dp1486
g107
(dp1487
g115
I5
ssg116
g1481
sg109
(lp1488
S'final_ans'
p1489
asbasbasbag102
(g118
g104
NtRp1490
(dp1491
g107
(dp1492
sg116
g112
sg109
(lp1493
g102
(g123
g104
NtRp1494
(dp1495
g107
(dp1496
g127
g128
ssg116
g1490
sg109
(lp1497
S'get_vars'
p1498
asbag102
(g123
g104
NtRp1499
(dp1500
g107
(dp1501
g134
g135
ssg116
g1490
sg109
(lp1502
S':'
asbag102
(g123
g104
NtRp1503
(dp1504
g107
(dp1505
sg116
g1490
sg109
(lp1506
g102
(g103
g104
NtRp1507
(dp1508
g107
(dp1509
g115
I5
ssg116
g1503
sg109
(lp1510
g102
(g111
g104
NtRp1511
(dp1512
g107
(dp1513
g115
I4
ssg116
Nsg109
(lp1514
sbasbasbasbag102
(g118
g104
NtRp1515
(dp1516
g107
(dp1517
sg116
g112
sg109
(lp1518
g102
(g123
g104
NtRp1519
(dp1520
g107
(dp1521
g127
g128
ssg116
g1515
sg109
(lp1522
S'global_settings'
p1523
asbag102
(g123
g104
NtRp1524
(dp1525
g107
(dp1526
g134
g135
ssg116
g1515
sg109
(lp1527
S':'
asbag102
(g123
g104
NtRp1528
(dp1529
g107
(dp1530
sg116
g1515
sg109
(lp1531
g102
(g103
g104
NtRp1532
(dp1533
g107
(dp1534
g115
I5
ssg116
g1528
sg109
(lp1535
g102
(g111
g104
NtRp1536
(dp1537
g107
(dp1538
g115
I4
ssg116
Nsg109
(lp1539
g102
(g118
g104
NtRp1540
(dp1541
g107
(dp1542
sg116
g1536
sg109
(lp1543
g102
(g123
g104
NtRp1544
(dp1545
g107
(dp1546
g127
g128
ssg116
g1540
sg109
(lp1547
g509
asbag102
(g123
g104
NtRp1548
(dp1549
g107
(dp1550
g134
g135
ssg116
g1540
sg109
(lp1551
S':'
asbag102
(g123
g104
NtRp1552
(dp1553
g107
(dp1554
sg116
g1540
sg109
(lp1555
g102
(g103
g104
NtRp1556
(dp1557
g107
(dp1558
g115
I4
ssg116
g1552
sg109
(lp1559
S"set(['/home/maneesha/Downloads/web2py/applications/welcome/', '/home/maneesha/Downloads/web2py/applications/admin/', '/home/maneesha/Downloads/web2py/applications/cite_mf/'])"
p1560
asbasbasbag102
(g118
g104
NtRp1561
(dp1562
g107
(dp1563
sg116
g1536
sg109
(lp1564
g102
(g123
g104
NtRp1565
(dp1566
g107
(dp1567
g127
g128
ssg116
g1561
sg109
(lp1568
g531
asbag102
(g123
g104
NtRp1569
(dp1570
g107
(dp1571
g134
g135
ssg116
g1561
sg109
(lp1572
S':'
asbag102
(g123
g104
NtRp1573
(dp1574
g107
(dp1575
sg116
g1561
sg109
(lp1576
g102
(g103
g104
NtRp1577
(dp1578
g107
(dp1579
g115
I4
ssg116
g1573
sg109
(lp1580
g544
asbasbasbag102
(g118
g104
NtRp1581
(dp1582
g107
(dp1583
sg116
g1536
sg109
(lp1584
g102
(g123
g104
NtRp1585
(dp1586
g107
(dp1587
g127
g128
ssg116
g1581
sg109
(lp1588
g553
asbag102
(g123
g104
NtRp1589
(dp1590
g107
(dp1591
g134
g135
ssg116
g1581
sg109
(lp1592
S':'
asbag102
(g123
g104
NtRp1593
(dp1594
g107
(dp1595
sg116
g1581
sg109
(lp1596
g102
(g103
g104
NtRp1597
(dp1598
g107
(dp1599
g115
I4
ssg116
g1593
sg109
(lp1600
g102
(g111
g104
NtRp1601
(dp1602
g107
(dp1603
g115
I3
ssg116
Nsg109
(lp1604
sbasbasbasbag102
(g118
g104
NtRp1605
(dp1606
g107
(dp1607
sg116
g1536
sg109
(lp1608
g102
(g123
g104
NtRp1609
(dp1610
g107
(dp1611
g127
g128
ssg116
g1605
sg109
(lp1612
g578
asbag102
(g123
g104
NtRp1613
(dp1614
g107
(dp1615
g134
g135
ssg116
g1605
sg109
(lp1616
S':'
asbag102
(g123
g104
NtRp1617
(dp1618
g107
(dp1619
sg116
g1605
sg109
(lp1620
g102
(g103
g104
NtRp1621
(dp1622
g107
(dp1623
g115
I4
ssg116
g1617
sg109
(lp1624
S"<Values at 0x14beb00: {'verbose': False, 'ip': '127.0.0.1', 'shutdown_timeout': 5, 'taskbar': False, 'nocron': False, 'pid_filename': 'httpserver.pid', 'maxthreads': None, 'softcron': False, 'server_name': 'maneesha-Inspiron-N5050', 'bpython': False, 'nogui': False, 'port': 8000, 'extcron': False, 'debuglevel': 30, 'test': None, 'folder': '/home/maneesha/Downloads/web2py', 'config': '', 'import_models': False, 'winservice': '', 'shell': None, 'run': '', 'log_filename': 'httpserver.log', 'args': [''], 'socket_timeout': 5, 'ssl_ca_certificate': None, 'scheduler': None, 'profiler_filename': None, 'ssl_private_key': '', 'password': '<ask>', 'request_queue_size': 5, 'ssl_certificate': '', 'cronjob': False, 'numthreads': None, 'quiet': False, 'interfaces': None, 'minthreads': None, 'timeout': 10, 'plain': False, 'nobanner': False}>"
p1625
asbasbasbag102
(g118
g104
NtRp1626
(dp1627
g107
(dp1628
sg116
g1536
sg109
(lp1629
g102
(g123
g104
NtRp1630
(dp1631
g107
(dp1632
g127
g128
ssg116
g1626
sg109
(lp1633
g600
asbag102
(g123
g104
NtRp1634
(dp1635
g107
(dp1636
g134
g135
ssg116
g1626
sg109
(lp1637
S':'
asbag102
(g123
g104
NtRp1638
(dp1639
g107
(dp1640
sg116
g1626
sg109
(lp1641
g102
(g103
g104
NtRp1642
(dp1643
g107
(dp1644
g115
I4
ssg116
g1638
sg109
(lp1645
S'set([])'
p1646
asbasbasbag102
(g118
g104
NtRp1647
(dp1648
g107
(dp1649
sg116
g1536
sg109
(lp1650
g102
(g123
g104
NtRp1651
(dp1652
g107
(dp1653
g127
g128
ssg116
g1647
sg109
(lp1654
g622
asbag102
(g123
g104
NtRp1655
(dp1656
g107
(dp1657
g134
g135
ssg116
g1647
sg109
(lp1658
S':'
asbag102
(g123
g104
NtRp1659
(dp1660
g107
(dp1661
sg116
g1647
sg109
(lp1662
g102
(g103
g104
NtRp1663
(dp1664
g107
(dp1665
g115
I4
ssg116
g1659
sg109
(lp1666
g145
asbasbasbag102
(g118
g104
NtRp1667
(dp1668
g107
(dp1669
sg116
g1536
sg109
(lp1670
g102
(g123
g104
NtRp1671
(dp1672
g107
(dp1673
g127
g128
ssg116
g1667
sg109
(lp1674
g643
asbag102
(g123
g104
NtRp1675
(dp1676
g107
(dp1677
g134
g135
ssg116
g1667
sg109
(lp1678
S':'
asbag102
(g123
g104
NtRp1679
(dp1680
g107
(dp1681
sg116
g1667
sg109
(lp1682
g102
(g103
g104
NtRp1683
(dp1684
g107
(dp1685
g115
I4
ssg116
g1679
sg109
(lp1686
g656
asbasbasbag102
(g118
g104
NtRp1687
(dp1688
g107
(dp1689
sg116
g1536
sg109
(lp1690
g102
(g123
g104
NtRp1691
(dp1692
g107
(dp1693
g127
g128
ssg116
g1687
sg109
(lp1694
g841
asbag102
(g123
g104
NtRp1695
(dp1696
g107
(dp1697
g134
g135
ssg116
g1687
sg109
(lp1698
S':'
asbag102
(g123
g104
NtRp1699
(dp1700
g107
(dp1701
sg116
g1687
sg109
(lp1702
g102
(g103
g104
NtRp1703
(dp1704
g107
(dp1705
g115
I4
ssg116
g1699
sg109
(lp1706
g145
asbasbasbag102
(g118
g104
NtRp1707
(dp1708
g107
(dp1709
sg116
g1536
sg109
(lp1710
g102
(g123
g104
NtRp1711
(dp1712
g107
(dp1713
g127
g128
ssg116
g1707
sg109
(lp1714
g862
asbag102
(g123
g104
NtRp1715
(dp1716
g107
(dp1717
g134
g135
ssg116
g1707
sg109
(lp1718
S':'
asbag102
(g123
g104
NtRp1719
(dp1720
g107
(dp1721
sg116
g1707
sg109
(lp1722
g102
(g103
g104
NtRp1723
(dp1724
g107
(dp1725
g115
I4
ssg116
g1719
sg109
(lp1726
g145
asbasbasbag102
(g118
g104
NtRp1727
(dp1728
g107
(dp1729
sg116
g1536
sg109
(lp1730
g102
(g123
g104
NtRp1731
(dp1732
g107
(dp1733
g127
g128
ssg116
g1727
sg109
(lp1734
g1100
asbag102
(g123
g104
NtRp1735
(dp1736
g107
(dp1737
g134
g135
ssg116
g1727
sg109
(lp1738
S':'
asbag102
(g123
g104
NtRp1739
(dp1740
g107
(dp1741
sg116
g1727
sg109
(lp1742
g102
(g103
g104
NtRp1743
(dp1744
g107
(dp1745
g115
I4
ssg116
g1739
sg109
(lp1746
g1113
asbasbasbag102
(g118
g104
NtRp1747
(dp1748
g107
(dp1749
sg116
g1536
sg109
(lp1750
g102
(g123
g104
NtRp1751
(dp1752
g107
(dp1753
g127
g128
ssg116
g1747
sg109
(lp1754
g1143
asbag102
(g123
g104
NtRp1755
(dp1756
g107
(dp1757
g134
g135
ssg116
g1747
sg109
(lp1758
S':'
asbag102
(g123
g104
NtRp1759
(dp1760
g107
(dp1761
sg116
g1747
sg109
(lp1762
g102
(g103
g104
NtRp1763
(dp1764
g107
(dp1765
g115
I4
ssg116
g1759
sg109
(lp1766
g102
(g111
g104
NtRp1767
(dp1768
g107
(dp1769
g115
I3
ssg116
Nsg109
(lp1770
g102
(g118
g104
NtRp1771
(dp1772
g107
(dp1773
sg116
g1767
sg109
(lp1774
g102
(g123
g104
NtRp1775
(dp1776
g107
(dp1777
sg116
g1771
sg109
(lp1778
g102
(g103
g104
NtRp1779
(dp1780
g107
(dp1781
g115
I3
ssg116
g1775
sg109
(lp1782
S'1'
asbasbasbag102
(g118
g104
NtRp1783
(dp1784
g107
(dp1785
sg116
g1767
sg109
(lp1786
g102
(g123
g104
NtRp1787
(dp1788
g107
(dp1789
sg116
g1783
sg109
(lp1790
g102
(g103
g104
NtRp1791
(dp1792
g107
(dp1793
g115
I3
ssg116
g1787
sg109
(lp1794
S'99'
p1795
asbasbasbag102
(g118
g104
NtRp1796
(dp1797
g107
(dp1798
sg116
g1767
sg109
(lp1799
g102
(g123
g104
NtRp1800
(dp1801
g107
(dp1802
sg116
g1796
sg109
(lp1803
g102
(g103
g104
NtRp1804
(dp1805
g107
(dp1806
g115
I3
ssg116
g1800
sg109
(lp1807
S'7'
asbasbasbag102
(g118
g104
NtRp1808
(dp1809
g107
(dp1810
sg116
g1767
sg109
(lp1811
g102
(g123
g104
NtRp1812
(dp1813
g107
(dp1814
sg116
g1808
sg109
(lp1815
g102
(g103
g104
NtRp1816
(dp1817
g107
(dp1818
g115
I3
ssg116
g1812
sg109
(lp1819
S'datetime.datetime(2012, 3, 4, 22, 12, 8)'
p1820
asbasbasbag102
(g118
g104
NtRp1821
(dp1822
g107
(dp1823
sg116
g1767
sg109
(lp1824
g102
(g123
g104
NtRp1825
(dp1826
g107
(dp1827
sg116
g1821
sg109
(lp1828
g102
(g103
g104
NtRp1829
(dp1830
g107
(dp1831
g115
I3
ssg116
g1825
sg109
(lp1832
g1222
asbasbasbasbasbasbasbasbasbasbasbag102
(g118
g104
NtRp1833
(dp1834
g107
(dp1835
sg116
g112
sg109
(lp1836
g102
(g123
g104
NtRp1837
(dp1838
g107
(dp1839
g127
g128
ssg116
g1833
sg109
(lp1840
S'is_https'
p1841
asbag102
(g123
g104
NtRp1842
(dp1843
g107
(dp1844
g134
g135
ssg116
g1833
sg109
(lp1845
S':'
asbag102
(g123
g104
NtRp1846
(dp1847
g107
(dp1848
sg116
g1833
sg109
(lp1849
g102
(g103
g104
NtRp1850
(dp1851
g107
(dp1852
g115
I5
ssg116
g1846
sg109
(lp1853
g145
asbasbasbag102
(g118
g104
NtRp1854
(dp1855
g107
(dp1856
sg116
g112
sg109
(lp1857
g102
(g123
g104
NtRp1858
(dp1859
g107
(dp1860
g127
g128
ssg116
g1854
sg109
(lp1861
S'is_local'
p1862
asbag102
(g123
g104
NtRp1863
(dp1864
g107
(dp1865
g134
g135
ssg116
g1854
sg109
(lp1866
S':'
asbag102
(g123
g104
NtRp1867
(dp1868
g107
(dp1869
sg116
g1854
sg109
(lp1870
g102
(g103
g104
NtRp1871
(dp1872
g107
(dp1873
g115
I5
ssg116
g1867
sg109
(lp1874
g1331
asbasbasbag102
(g118
g104
NtRp1875
(dp1876
g107
(dp1877
sg116
g112
sg109
(lp1878
g102
(g123
g104
NtRp1879
(dp1880
g107
(dp1881
g127
g128
ssg116
g1875
sg109
(lp1882
S'is_restful'
p1883
asbag102
(g123
g104
NtRp1884
(dp1885
g107
(dp1886
g134
g135
ssg116
g1875
sg109
(lp1887
S':'
asbag102
(g123
g104
NtRp1888
(dp1889
g107
(dp1890
sg116
g1875
sg109
(lp1891
g102
(g103
g104
NtRp1892
(dp1893
g107
(dp1894
g115
I5
ssg116
g1888
sg109
(lp1895
g145
asbasbasbag102
(g118
g104
NtRp1896
(dp1897
g107
(dp1898
sg116
g112
sg109
(lp1899
g102
(g123
g104
NtRp1900
(dp1901
g107
(dp1902
g127
g128
ssg116
g1896
sg109
(lp1903
S'now'
p1904
asbag102
(g123
g104
NtRp1905
(dp1906
g107
(dp1907
g134
g135
ssg116
g1896
sg109
(lp1908
S':'
asbag102
(g123
g104
NtRp1909
(dp1910
g107
(dp1911
sg116
g1896
sg109
(lp1912
g102
(g103
g104
NtRp1913
(dp1914
g107
(dp1915
g115
I5
ssg116
g1909
sg109
(lp1916
S'datetime.datetime(2012, 11, 15, 21, 59, 18, 427851)'
p1917
asbasbasbag102
(g118
g104
NtRp1918
(dp1919
g107
(dp1920
sg116
g112
sg109
(lp1921
g102
(g123
g104
NtRp1922
(dp1923
g107
(dp1924
g127
g128
ssg116
g1918
sg109
(lp1925
S'post_vars'
p1926
asbag102
(g123
g104
NtRp1927
(dp1928
g107
(dp1929
g134
g135
ssg116
g1918
sg109
(lp1930
S':'
asbag102
(g123
g104
NtRp1931
(dp1932
g107
(dp1933
sg116
g1918
sg109
(lp1934
g102
(g103
g104
NtRp1935
(dp1936
g107
(dp1937
g115
I5
ssg116
g1931
sg109
(lp1938
g102
(g111
g104
NtRp1939
(dp1940
g107
(dp1941
g115
I4
ssg116
Nsg109
(lp1942
sbasbasbasbag102
(g118
g104
NtRp1943
(dp1944
g107
(dp1945
sg116
g112
sg109
(lp1946
g102
(g123
g104
NtRp1947
(dp1948
g107
(dp1949
g127
g128
ssg116
g1943
sg109
(lp1950
g87
asbag102
(g123
g104
NtRp1951
(dp1952
g107
(dp1953
g134
g135
ssg116
g1943
sg109
(lp1954
S':'
asbag102
(g123
g104
NtRp1955
(dp1956
g107
(dp1957
sg116
g1943
sg109
(lp1958
g102
(g103
g104
NtRp1959
(dp1960
g107
(dp1961
g115
I5
ssg116
g1955
sg109
(lp1962
S'/cite_mf/default/final_ans'
p1963
asbasbasbag102
(g118
g104
NtRp1964
(dp1965
g107
(dp1966
sg116
g112
sg109
(lp1967
g102
(g123
g104
NtRp1968
(dp1969
g107
(dp1970
g127
g128
ssg116
g1964
sg109
(lp1971
S'utcnow'
p1972
asbag102
(g123
g104
NtRp1973
(dp1974
g107
(dp1975
g134
g135
ssg116
g1964
sg109
(lp1976
S':'
asbag102
(g123
g104
NtRp1977
(dp1978
g107
(dp1979
sg116
g1964
sg109
(lp1980
g102
(g103
g104
NtRp1981
(dp1982
g107
(dp1983
g115
I5
ssg116
g1977
sg109
(lp1984
S'datetime.datetime(2012, 11, 15, 16, 29, 18, 427883)'
p1985
asbasbasbag102
(g118
g104
NtRp1986
(dp1987
g107
(dp1988
sg116
g112
sg109
(lp1989
g102
(g123
g104
NtRp1990
(dp1991
g107
(dp1992
g127
g128
ssg116
g1986
sg109
(lp1993
S'uuid'
p1994
asbag102
(g123
g104
NtRp1995
(dp1996
g107
(dp1997
g134
g135
ssg116
g1986
sg109
(lp1998
S':'
asbag102
(g123
g104
NtRp1999
(dp2000
g107
(dp2001
sg116
g1986
sg109
(lp2002
g102
(g103
g104
NtRp2003
(dp2004
g107
(dp2005
g115
I5
ssg116
g1999
sg109
(lp2006
S'cite_mf/127.0.0.1.2012-11-15.21-59-18.92210ceb-24e0-4449-b15d-6cfc528229a9'
p2007
asbasbasbag102
(g118
g104
NtRp2008
(dp2009
g107
(dp2010
sg116
g112
sg109
(lp2011
g102
(g123
g104
NtRp2012
(dp2013
g107
(dp2014
g127
g128
ssg116
g2008
sg109
(lp2015
S'vars'
p2016
asbag102
(g123
g104
NtRp2017
(dp2018
g107
(dp2019
g134
g135
ssg116
g2008
sg109
(lp2020
S':'
asbag102
(g123
g104
NtRp2021
(dp2022
g107
(dp2023
sg116
g2008
sg109
(lp2024
g102
(g103
g104
NtRp2025
(dp2026
g107
(dp2027
g115
I5
ssg116
g2021
sg109
(lp2028
g102
(g111
g104
NtRp2029
(dp2030
g107
(dp2031
g115
I4
ssg116
Nsg109
(lp2032
sbasbasbasbag102
(g118
g104
NtRp2033
(dp2034
g107
(dp2035
sg116
g112
sg109
(lp2036
g102
(g123
g104
NtRp2037
(dp2038
g107
(dp2039
g127
g128
ssg116
g2033
sg109
(lp2040
S'wsgi'
p2041
asbag102
(g123
g104
NtRp2042
(dp2043
g107
(dp2044
g134
g135
ssg116
g2033
sg109
(lp2045
S':'
asbag102
(g123
g104
NtRp2046
(dp2047
g107
(dp2048
sg116
g2033
sg109
(lp2049
g102
(g103
g104
NtRp2050
(dp2051
g107
(dp2052
g115
I5
ssg116
g2046
sg109
(lp2053
g102
(g111
g104
NtRp2054
(dp2055
g107
(dp2056
g115
I4
ssg116
Nsg109
(lp2057
g102
(g118
g104
NtRp2058
(dp2059
g107
(dp2060
sg116
g2054
sg109
(lp2061
g102
(g123
g104
NtRp2062
(dp2063
g107
(dp2064
g127
g128
ssg116
g2058
sg109
(lp2065
S'environ'
p2066
asbag102
(g123
g104
NtRp2067
(dp2068
g107
(dp2069
g134
g135
ssg116
g2058
sg109
(lp2070
S':'
asbag102
(g123
g104
NtRp2071
(dp2072
g107
(dp2073
sg116
g2058
sg109
(lp2074
g102
(g103
g104
NtRp2075
(dp2076
g107
(dp2077
g115
I4
ssg116
g2071
sg109
(lp2078
g102
(g111
g104
NtRp2079
(dp2080
g107
(dp2081
g115
I3
ssg116
Nsg109
(lp2082
g102
(g118
g104
NtRp2083
(dp2084
g107
(dp2085
sg116
g2079
sg109
(lp2086
g102
(g123
g104
NtRp2087
(dp2088
g107
(dp2089
g127
g128
ssg116
g2083
sg109
(lp2090
S'HTTP_ACCEPT'
p2091
asbag102
(g123
g104
NtRp2092
(dp2093
g107
(dp2094
g134
g135
ssg116
g2083
sg109
(lp2095
S':'
asbag102
(g123
g104
NtRp2096
(dp2097
g107
(dp2098
sg116
g2083
sg109
(lp2099
g102
(g103
g104
NtRp2100
(dp2101
g107
(dp2102
g115
I3
ssg116
g2096
sg109
(lp2103
g678
asbasbasbag102
(g118
g104
NtRp2104
(dp2105
g107
(dp2106
sg116
g2079
sg109
(lp2107
g102
(g123
g104
NtRp2108
(dp2109
g107
(dp2110
g127
g128
ssg116
g2104
sg109
(lp2111
S'HTTP_ACCEPT_ENCODING'
p2112
asbag102
(g123
g104
NtRp2113
(dp2114
g107
(dp2115
g134
g135
ssg116
g2104
sg109
(lp2116
S':'
asbag102
(g123
g104
NtRp2117
(dp2118
g107
(dp2119
sg116
g2104
sg109
(lp2120
g102
(g103
g104
NtRp2121
(dp2122
g107
(dp2123
g115
I3
ssg116
g2117
sg109
(lp2124
g700
asbasbasbag102
(g118
g104
NtRp2125
(dp2126
g107
(dp2127
sg116
g2079
sg109
(lp2128
g102
(g123
g104
NtRp2129
(dp2130
g107
(dp2131
g127
g128
ssg116
g2125
sg109
(lp2132
S'HTTP_ACCEPT_LANGUAGE'
p2133
asbag102
(g123
g104
NtRp2134
(dp2135
g107
(dp2136
g134
g135
ssg116
g2125
sg109
(lp2137
S':'
asbag102
(g123
g104
NtRp2138
(dp2139
g107
(dp2140
sg116
g2125
sg109
(lp2141
g102
(g103
g104
NtRp2142
(dp2143
g107
(dp2144
g115
I3
ssg116
g2138
sg109
(lp2145
g722
asbasbasbag102
(g118
g104
NtRp2146
(dp2147
g107
(dp2148
sg116
g2079
sg109
(lp2149
g102
(g123
g104
NtRp2150
(dp2151
g107
(dp2152
g127
g128
ssg116
g2146
sg109
(lp2153
S'HTTP_CONNECTION'
p2154
asbag102
(g123
g104
NtRp2155
(dp2156
g107
(dp2157
g134
g135
ssg116
g2146
sg109
(lp2158
S':'
asbag102
(g123
g104
NtRp2159
(dp2160
g107
(dp2161
sg116
g2146
sg109
(lp2162
g102
(g103
g104
NtRp2163
(dp2164
g107
(dp2165
g115
I3
ssg116
g2159
sg109
(lp2166
g744
asbasbasbag102
(g118
g104
NtRp2167
(dp2168
g107
(dp2169
sg116
g2079
sg109
(lp2170
g102
(g123
g104
NtRp2171
(dp2172
g107
(dp2173
g127
g128
ssg116
g2167
sg109
(lp2174
S'HTTP_COOKIE'
p2175
asbag102
(g123
g104
NtRp2176
(dp2177
g107
(dp2178
g134
g135
ssg116
g2167
sg109
(lp2179
S':'
asbag102
(g123
g104
NtRp2180
(dp2181
g107
(dp2182
sg116
g2167
sg109
(lp2183
g102
(g103
g104
NtRp2184
(dp2185
g107
(dp2186
g115
I3
ssg116
g2180
sg109
(lp2187
g766
asbasbasbag102
(g118
g104
NtRp2188
(dp2189
g107
(dp2190
sg116
g2079
sg109
(lp2191
g102
(g123
g104
NtRp2192
(dp2193
g107
(dp2194
g127
g128
ssg116
g2188
sg109
(lp2195
S'HTTP_HOST'
p2196
asbag102
(g123
g104
NtRp2197
(dp2198
g107
(dp2199
g134
g135
ssg116
g2188
sg109
(lp2200
S':'
asbag102
(g123
g104
NtRp2201
(dp2202
g107
(dp2203
sg116
g2188
sg109
(lp2204
g102
(g103
g104
NtRp2205
(dp2206
g107
(dp2207
g115
I3
ssg116
g2201
sg109
(lp2208
g788
asbasbasbag102
(g118
g104
NtRp2209
(dp2210
g107
(dp2211
sg116
g2079
sg109
(lp2212
g102
(g123
g104
NtRp2213
(dp2214
g107
(dp2215
g127
g128
ssg116
g2209
sg109
(lp2216
S'HTTP_REFERER'
p2217
asbag102
(g123
g104
NtRp2218
(dp2219
g107
(dp2220
g134
g135
ssg116
g2209
sg109
(lp2221
S':'
asbag102
(g123
g104
NtRp2222
(dp2223
g107
(dp2224
sg116
g2209
sg109
(lp2225
g102
(g103
g104
NtRp2226
(dp2227
g107
(dp2228
g115
I3
ssg116
g2222
sg109
(lp2229
g810
asbasbasbag102
(g118
g104
NtRp2230
(dp2231
g107
(dp2232
sg116
g2079
sg109
(lp2233
g102
(g123
g104
NtRp2234
(dp2235
g107
(dp2236
g127
g128
ssg116
g2230
sg109
(lp2237
S'HTTP_USER_AGENT'
p2238
asbag102
(g123
g104
NtRp2239
(dp2240
g107
(dp2241
g134
g135
ssg116
g2230
sg109
(lp2242
S':'
asbag102
(g123
g104
NtRp2243
(dp2244
g107
(dp2245
sg116
g2230
sg109
(lp2246
g102
(g103
g104
NtRp2247
(dp2248
g107
(dp2249
g115
I3
ssg116
g2243
sg109
(lp2250
g832
asbasbasbag102
(g118
g104
NtRp2251
(dp2252
g107
(dp2253
sg116
g2079
sg109
(lp2254
g102
(g123
g104
NtRp2255
(dp2256
g107
(dp2257
g127
g128
ssg116
g2251
sg109
(lp2258
S'PATH_INFO'
p2259
asbag102
(g123
g104
NtRp2260
(dp2261
g107
(dp2262
g134
g135
ssg116
g2251
sg109
(lp2263
S':'
asbag102
(g123
g104
NtRp2264
(dp2265
g107
(dp2266
sg116
g2251
sg109
(lp2267
g102
(g103
g104
NtRp2268
(dp2269
g107
(dp2270
g115
I3
ssg116
g2264
sg109
(lp2271
g896
asbasbasbag102
(g118
g104
NtRp2272
(dp2273
g107
(dp2274
sg116
g2079
sg109
(lp2275
g102
(g123
g104
NtRp2276
(dp2277
g107
(dp2278
g127
g128
ssg116
g2272
sg109
(lp2279
S'QUERY_STRING'
p2280
asbag102
(g123
g104
NtRp2281
(dp2282
g107
(dp2283
g134
g135
ssg116
g2272
sg109
(lp2284
S':'
asbag102
(g123
g104
NtRp2285
(dp2286
g107
(dp2287
sg116
g2272
sg109
(lp2288
g102
(g103
g104
NtRp2289
(dp2290
g107
(dp2291
g115
I3
ssg116
g2285
sg109
(lp2292
S''
asbasbasbag102
(g118
g104
NtRp2293
(dp2294
g107
(dp2295
sg116
g2079
sg109
(lp2296
g102
(g123
g104
NtRp2297
(dp2298
g107
(dp2299
g127
g128
ssg116
g2293
sg109
(lp2300
S'REMOTE_ADDR'
p2301
asbag102
(g123
g104
NtRp2302
(dp2303
g107
(dp2304
g134
g135
ssg116
g2293
sg109
(lp2305
S':'
asbag102
(g123
g104
NtRp2306
(dp2307
g107
(dp2308
sg116
g2293
sg109
(lp2309
g102
(g103
g104
NtRp2310
(dp2311
g107
(dp2312
g115
I3
ssg116
g2306
sg109
(lp2313
g235
asbasbasbag102
(g118
g104
NtRp2314
(dp2315
g107
(dp2316
sg116
g2079
sg109
(lp2317
g102
(g123
g104
NtRp2318
(dp2319
g107
(dp2320
g127
g128
ssg116
g2314
sg109
(lp2321
S'REMOTE_PORT'
p2322
asbag102
(g123
g104
NtRp2323
(dp2324
g107
(dp2325
g134
g135
ssg116
g2314
sg109
(lp2326
S':'
asbag102
(g123
g104
NtRp2327
(dp2328
g107
(dp2329
sg116
g2314
sg109
(lp2330
g102
(g103
g104
NtRp2331
(dp2332
g107
(dp2333
g115
I3
ssg116
g2327
sg109
(lp2334
g960
asbasbasbag102
(g118
g104
NtRp2335
(dp2336
g107
(dp2337
sg116
g2079
sg109
(lp2338
g102
(g123
g104
NtRp2339
(dp2340
g107
(dp2341
g127
g128
ssg116
g2335
sg109
(lp2342
S'REQUEST_METHOD'
p2343
asbag102
(g123
g104
NtRp2344
(dp2345
g107
(dp2346
g134
g135
ssg116
g2335
sg109
(lp2347
S':'
asbag102
(g123
g104
NtRp2348
(dp2349
g107
(dp2350
sg116
g2335
sg109
(lp2351
g102
(g103
g104
NtRp2352
(dp2353
g107
(dp2354
g115
I3
ssg116
g2348
sg109
(lp2355
g982
asbasbasbag102
(g118
g104
NtRp2356
(dp2357
g107
(dp2358
sg116
g2079
sg109
(lp2359
g102
(g123
g104
NtRp2360
(dp2361
g107
(dp2362
g127
g128
ssg116
g2356
sg109
(lp2363
S'SCRIPT_NAME'
p2364
asbag102
(g123
g104
NtRp2365
(dp2366
g107
(dp2367
g134
g135
ssg116
g2356
sg109
(lp2368
S':'
asbag102
(g123
g104
NtRp2369
(dp2370
g107
(dp2371
sg116
g2356
sg109
(lp2372
g102
(g103
g104
NtRp2373
(dp2374
g107
(dp2375
g115
I3
ssg116
g2369
sg109
(lp2376
S''
asbasbasbag102
(g118
g104
NtRp2377
(dp2378
g107
(dp2379
sg116
g2079
sg109
(lp2380
g102
(g123
g104
NtRp2381
(dp2382
g107
(dp2383
g127
g128
ssg116
g2377
sg109
(lp2384
S'SERVER_NAME'
p2385
asbag102
(g123
g104
NtRp2386
(dp2387
g107
(dp2388
g134
g135
ssg116
g2377
sg109
(lp2389
S':'
asbag102
(g123
g104
NtRp2390
(dp2391
g107
(dp2392
sg116
g2377
sg109
(lp2393
g102
(g103
g104
NtRp2394
(dp2395
g107
(dp2396
g115
I3
ssg116
g2390
sg109
(lp2397
g1025
asbasbasbag102
(g118
g104
NtRp2398
(dp2399
g107
(dp2400
sg116
g2079
sg109
(lp2401
g102
(g123
g104
NtRp2402
(dp2403
g107
(dp2404
g127
g128
ssg116
g2398
sg109
(lp2405
S'SERVER_PORT'
p2406
asbag102
(g123
g104
NtRp2407
(dp2408
g107
(dp2409
g134
g135
ssg116
g2398
sg109
(lp2410
S':'
asbag102
(g123
g104
NtRp2411
(dp2412
g107
(dp2413
sg116
g2398
sg109
(lp2414
g102
(g103
g104
NtRp2415
(dp2416
g107
(dp2417
g115
I3
ssg116
g2411
sg109
(lp2418
g1047
asbasbasbag102
(g118
g104
NtRp2419
(dp2420
g107
(dp2421
sg116
g2079
sg109
(lp2422
g102
(g123
g104
NtRp2423
(dp2424
g107
(dp2425
g127
g128
ssg116
g2419
sg109
(lp2426
S'SERVER_PROTOCOL'
p2427
asbag102
(g123
g104
NtRp2428
(dp2429
g107
(dp2430
g134
g135
ssg116
g2419
sg109
(lp2431
S':'
asbag102
(g123
g104
NtRp2432
(dp2433
g107
(dp2434
sg116
g2419
sg109
(lp2435
g102
(g103
g104
NtRp2436
(dp2437
g107
(dp2438
g115
I3
ssg116
g2432
sg109
(lp2439
g1069
asbasbasbag102
(g118
g104
NtRp2440
(dp2441
g107
(dp2442
sg116
g2079
sg109
(lp2443
g102
(g123
g104
NtRp2444
(dp2445
g107
(dp2446
g127
g128
ssg116
g2440
sg109
(lp2447
S'SERVER_SOFTWARE'
p2448
asbag102
(g123
g104
NtRp2449
(dp2450
g107
(dp2451
g134
g135
ssg116
g2440
sg109
(lp2452
S':'
asbag102
(g123
g104
NtRp2453
(dp2454
g107
(dp2455
sg116
g2440
sg109
(lp2456
g102
(g103
g104
NtRp2457
(dp2458
g107
(dp2459
g115
I3
ssg116
g2453
sg109
(lp2460
g1091
asbasbasbag102
(g118
g104
NtRp2461
(dp2462
g107
(dp2463
sg116
g2079
sg109
(lp2464
g102
(g123
g104
NtRp2465
(dp2466
g107
(dp2467
g127
g128
ssg116
g2461
sg109
(lp2468
S'wsgi.errors'
p2469
asbag102
(g123
g104
NtRp2470
(dp2471
g107
(dp2472
g134
g135
ssg116
g2461
sg109
(lp2473
S':'
asbag102
(g123
g104
NtRp2474
(dp2475
g107
(dp2476
sg116
g2461
sg109
(lp2477
g102
(g103
g104
NtRp2478
(dp2479
g107
(dp2480
g115
I3
ssg116
g2474
sg109
(lp2481
S"<open file '<stderr>', mode 'w' at 0x7f010c458270>"
p2482
asbasbasbag102
(g118
g104
NtRp2483
(dp2484
g107
(dp2485
sg116
g2079
sg109
(lp2486
g102
(g123
g104
NtRp2487
(dp2488
g107
(dp2489
g127
g128
ssg116
g2483
sg109
(lp2490
S'wsgi.file_wrapper'
p2491
asbag102
(g123
g104
NtRp2492
(dp2493
g107
(dp2494
g134
g135
ssg116
g2483
sg109
(lp2495
S':'
asbag102
(g123
g104
NtRp2496
(dp2497
g107
(dp2498
sg116
g2483
sg109
(lp2499
g102
(g103
g104
NtRp2500
(dp2501
g107
(dp2502
g115
I3
ssg116
g2496
sg109
(lp2503
S'<class wsgiref.util.FileWrapper at 0x138eef0>'
p2504
asbasbasbag102
(g118
g104
NtRp2505
(dp2506
g107
(dp2507
sg116
g2079
sg109
(lp2508
g102
(g123
g104
NtRp2509
(dp2510
g107
(dp2511
g127
g128
ssg116
g2505
sg109
(lp2512
S'wsgi.input'
p2513
asbag102
(g123
g104
NtRp2514
(dp2515
g107
(dp2516
g134
g135
ssg116
g2505
sg109
(lp2517
S':'
asbag102
(g123
g104
NtRp2518
(dp2519
g107
(dp2520
sg116
g2505
sg109
(lp2521
g102
(g103
g104
NtRp2522
(dp2523
g107
(dp2524
g115
I3
ssg116
g2518
sg109
(lp2525
S'<cStringIO.StringO object at 0x7f00e8358618>'
p2526
asbasbasbag102
(g118
g104
NtRp2527
(dp2528
g107
(dp2529
sg116
g2079
sg109
(lp2530
g102
(g123
g104
NtRp2531
(dp2532
g107
(dp2533
g127
g128
ssg116
g2527
sg109
(lp2534
S'wsgi.multiprocess'
p2535
asbag102
(g123
g104
NtRp2536
(dp2537
g107
(dp2538
g134
g135
ssg116
g2527
sg109
(lp2539
S':'
asbag102
(g123
g104
NtRp2540
(dp2541
g107
(dp2542
sg116
g2527
sg109
(lp2543
g102
(g103
g104
NtRp2544
(dp2545
g107
(dp2546
g115
I3
ssg116
g2540
sg109
(lp2547
g145
asbasbasbag102
(g118
g104
NtRp2548
(dp2549
g107
(dp2550
sg116
g2079
sg109
(lp2551
g102
(g123
g104
NtRp2552
(dp2553
g107
(dp2554
g127
g128
ssg116
g2548
sg109
(lp2555
S'wsgi.multithread'
p2556
asbag102
(g123
g104
NtRp2557
(dp2558
g107
(dp2559
g134
g135
ssg116
g2548
sg109
(lp2560
S':'
asbag102
(g123
g104
NtRp2561
(dp2562
g107
(dp2563
sg116
g2548
sg109
(lp2564
g102
(g103
g104
NtRp2565
(dp2566
g107
(dp2567
g115
I3
ssg116
g2561
sg109
(lp2568
g1331
asbasbasbag102
(g118
g104
NtRp2569
(dp2570
g107
(dp2571
sg116
g2079
sg109
(lp2572
g102
(g123
g104
NtRp2573
(dp2574
g107
(dp2575
g127
g128
ssg116
g2569
sg109
(lp2576
S'wsgi.run_once'
p2577
asbag102
(g123
g104
NtRp2578
(dp2579
g107
(dp2580
g134
g135
ssg116
g2569
sg109
(lp2581
S':'
asbag102
(g123
g104
NtRp2582
(dp2583
g107
(dp2584
sg116
g2569
sg109
(lp2585
g102
(g103
g104
NtRp2586
(dp2587
g107
(dp2588
g115
I3
ssg116
g2582
sg109
(lp2589
g145
asbasbasbag102
(g118
g104
NtRp2590
(dp2591
g107
(dp2592
sg116
g2079
sg109
(lp2593
g102
(g123
g104
NtRp2594
(dp2595
g107
(dp2596
g127
g128
ssg116
g2590
sg109
(lp2597
S'wsgi.url_scheme'
p2598
asbag102
(g123
g104
NtRp2599
(dp2600
g107
(dp2601
g134
g135
ssg116
g2590
sg109
(lp2602
S':'
asbag102
(g123
g104
NtRp2603
(dp2604
g107
(dp2605
sg116
g2590
sg109
(lp2606
g102
(g103
g104
NtRp2607
(dp2608
g107
(dp2609
g115
I3
ssg116
g2603
sg109
(lp2610
g1374
asbasbasbag102
(g118
g104
NtRp2611
(dp2612
g107
(dp2613
sg116
g2079
sg109
(lp2614
g102
(g123
g104
NtRp2615
(dp2616
g107
(dp2617
g127
g128
ssg116
g2611
sg109
(lp2618
S'wsgi.version'
p2619
asbag102
(g123
g104
NtRp2620
(dp2621
g107
(dp2622
g134
g135
ssg116
g2611
sg109
(lp2623
S':'
asbag102
(g123
g104
NtRp2624
(dp2625
g107
(dp2626
sg116
g2611
sg109
(lp2627
g102
(g103
g104
NtRp2628
(dp2629
g107
(dp2630
g115
I3
ssg116
g2624
sg109
(lp2631
S'1'
asbasbasbasbasbasbasbasbasbasbasbasbasbsS'frames'
p2632
(lp2633
(dp2634
S'file'
p2635
S'/home/maneesha/Downloads/web2py/gluon/restricted.py'
p2636
sS'dump'
p2637
(dp2638
S'environment'
p2639
S"{'A': <class 'gluon.html.A'>, 'Auth': <class 'gluon.tools.Auth'>, 'B': <class 'gluon.html.B'>, 'BEAUTIFY': <class 'gluon.html.BEAUTIFY'>, 'BODY': <class 'gluon.html.BODY'>, 'BR': <class 'gluon.html.BR'>, 'BUTTON': <class 'gluon.html.BUTTON'>, 'CAT': <class 'gluon.html.CAT'>, 'CENTER': <class 'gluon.html.CENTER'>, 'CLEANUP': <class 'gluon.validators.CLEANUP'>, ...}"
p2640
sS'ccode'
p2641
S'<code object <module> at 0x7f00e834f630, file "/...ications/cite_mf/controllers/default.py", line 3>'
p2642
ssS'lnum'
p2643
I205
sS'lines'
p2644
(dp2645
I200
S'    try:'
p2646
sI201
S'        if type(code) == types.CodeType:'
p2647
sI202
S'            ccode = code'
p2648
sI203
S'        else:'
p2649
sI204
S'            ccode = compile2(code,layer)'
p2650
sI205
S'        exec ccode in environment'
p2651
sI206
S'    except HTTP:'
p2652
sI207
S'        raise'
p2653
sI208
S'    except RestrictedError:'
p2654
sI209
S'        # do not encapsulate (obfuscate) the original RestrictedError'
p2655
ssS'call'
p2656
S"(code='# -*- coding: utf-8 -*-\\n### required - do no del...ss1)\\n\\nresponse._vars=response._caller(final_ans)\\n', environment={'A': <class 'gluon.html.A'>, 'Auth': <class 'gluon.tools.Auth'>, 'B': <class 'gluon.html.B'>, 'BEAUTIFY': <class 'gluon.html.BEAUTIFY'>, 'BODY': <class 'gluon.html.BODY'>, 'BR': <class 'gluon.html.BR'>, 'BUTTON': <class 'gluon.html.BUTTON'>, 'CAT': <class 'gluon.html.CAT'>, 'CENTER': <class 'gluon.html.CENTER'>, 'CLEANUP': <class 'gluon.validators.CLEANUP'>, ...}, layer='/home/maneesha/Downloads/web2py/applications/cite_mf/controllers/default.py')"
p2657
sS'func'
p2658
S'restricted'
p2659
sa(dp2660
g2635
S'/home/maneesha/Downloads/web2py/applications/cite_mf/controllers/default.py'
p2661
sg2637
(dp2662
sg2643
I205
sg2644
(dp2663
I194
S'        d=d.replace("</par>","")'
p2664
sI195
S'    return d            #returns the filtered text'
p2665
sI196
S'def abstract1():'
p2666
sI197
S'    abss=request.args[0]'
p2667
sI198
S'    pre=""'
p2668
sI199
S'    while pre!=abss:'
p2669
sI200
S'        pre=abss'
p2670
sI201
S'        abss=abss.replace("_"," ")'
p2671
sI202
S'    abss1=abss.split(".")'
p2672
sI203
S'    return dict(abss1=abss1)'
p2673
ssg2656
S'()'
p2674
sg2658
S'<module>'
p2675
sa(dp2676
g2635
S'/home/maneesha/Downloads/web2py/gluon/globals.py'
p2677
sg2637
(dp2678
S'self'
p2679
S'undefined'
p2680
sS'f'
S'<function final_ans>'
p2681
ssg2643
I173
sg2644
(dp2682
I168
S'        self.menu = []             # used by the default view layout'
p2683
sI169
S'        self.files = []            # used by web2py_ajax.html'
p2684
sI170
S'        self.generic_patterns = [] # patterns to allow generic views'
p2685
sI171
S"        self.delimiters = ('{{','}}')"
p2686
sI172
S'        self._vars = None'
p2687
sI173
S'        self._caller = lambda f: f()'
p2688
sI174
S'        self._view_environment = None'
p2689
sI175
S'        self._custom_commit = None'
p2690
sI176
S'        self._custom_rollback = None'
p2691
sI177
S''
ssg2656
S'(f=<function final_ans>)'
p2692
sg2658
S'<lambda>'
p2693
sa(dp2694
g2635
S'/home/maneesha/Downloads/web2py/applications/cite_mf/controllers/default.py'
p2695
sg2637
(dp2696
S'global extract1'
p2697
S'<function extract1>'
p2698
sS'url'
p2699
S"'http://dl.acm.org/results.cfm?h=1&query=database+design'"
p2700
sS'l1'
p2701
S"['database design', 3, 3, True, True, True]"
p2702
sS'fst_l'
p2703
S'[]'
p2704
ssg2643
I64
sg2644
(dp2705
I64
S'    fst_l=extract1(url,l1)     #extracts the urls of query results and stores it in a list fst_l'
p2706
sI65
S'    rec(fst_l,l1,bigans)  #this function recursively fetches the required information and stores every result in list bigans.'
p2707
sI66
S'    au=db(auth.user.username==db.auth_user.username).select().first()'
p2708
sI67
S'    email=au.email       #email of user who is logged in is extracted.'
p2709
sI68
S'    return dict(bigans=bigans,level=l1[1],top=l1[2],ret1=ret1,email=email)'
p2710
sI59
S'    bigans=[] #stores the final output in a list'
p2711
sI60
S'    l1=u_filter() #extracting the user input in a list'
p2712
sI61
S'    url="http://dl.acm.org/results.cfm?h=1&query="+\'+\'.join(l1[0].split()) #forming the url'
p2713
sI62
S'    fst_l=[]'
p2714
sI63
S'    ret1=[]'
p2715
ssg2656
S'()'
p2716
sg2658
S'final_ans'
p2717
sa(dp2718
g2635
S'/home/maneesha/Downloads/web2py/applications/cite_mf/controllers/default.py'
p2719
sg2637
(dp2720
S'url'
p2721
S"'http://dl.acm.org/results.cfm?h=1&query=database+design'"
p2722
sS'html'
p2723
g2680
sS'global fetch'
p2724
S'<function fetch>'
p2725
ssg2643
I28
sg2644
(dp2726
I32
S"    k=html_splitted[0].split('>')"
p2727
sI23
S"        response.flash = 'Login successful'"
p2728
sI24
S"        redirect(URL('final_ans'))"
p2729
sI25
S'    return dict(form=form)'
p2730
sI26
S'def extract1(url,l1): #extracts the top_result urls from the first page'
p2731
sI27
S'    ret=[]'
p2732
sI28
S'    html=fetch(url) #fetches the html page of the given url ans stores it in a string html'
p2733
sI29
S'    html_splitted=html.split("<A HREF=\\"citation.cfm") #splitting the fetched string'
p2734
sI30
S'    ht=html_splitted[0]'
p2735
sI31
S'    del html_splitted[0]'
p2736
ssg2656
S"(url='http://dl.acm.org/results.cfm?h=1&query=database+design', l1=['database design', 3, 3, True, True, True])"
p2737
sg2658
S'extract1'
p2738
sa(dp2739
g2635
S'/home/maneesha/Downloads/web2py/gluon/tools.py'
p2740
sg2637
(dp2741
S'urllib2.urlopen'
p2742
S'<function urlopen>'
p2743
sS'global urllib2'
p2744
S"<module 'urllib2' from '/usr/lib/python2.7/urllib2.pyc'>"
p2745
sS'html'
p2746
g2680
sS'req'
p2747
S'<urllib2.Request instance>'
p2748
sS').read'
p2749
g2680
ssg2643
I3424
sg2644
(dp2750
I3424
S'        html = urllib2.urlopen(req).read()'
p2751
sI3425
S'    else:'
p2752
sI3426
S'        method = ((data is None) and urlfetch.GET) or urlfetch.POST'
p2753
sI3427
S'        while url is not None:'
p2754
sI3428
S'            response = urlfetch.fetch(url=url, payload=data,'
p2755
sI3419
S"    headers['Cookie'] = ' '.join(['%s=%s;'%(c.key,c.value) for c in cookie.values()])"
p2756
sI3420
S'    try:'
p2757
sI3421
S'        from google.appengine.api import urlfetch'
p2758
sI3422
S'    except ImportError:'
p2759
sI3423
S'        req = urllib2.Request(url, data, headers)'
p2760
ssg2656
S"(url='http://dl.acm.org/results.cfm?h=1&query=database+design', data=None, headers={'Cookie': '', 'User-agent': 'Mozilla/5.0'}, cookie=<SimpleCookie: >, user_agent='Mozilla/5.0')"
p2761
sg2658
S'fetch'
p2762
sa(dp2763
g2635
S'/usr/lib/python2.7/urllib2.py'
p2764
sg2637
(dp2765
S'_opener.open'
p2766
S'<bound method OpenerDirector.open of <urllib2.OpenerDirector instance>>'
p2767
sS'url'
p2768
S'<urllib2.Request instance>'
p2769
sS'data'
p2770
S'None'
p2771
sS'global _opener'
p2772
S'<urllib2.OpenerDirector instance>'
p2773
sS'timeout'
p2774
S'<object object>'
p2775
ssg2643
I126
sg2644
(dp2776
I128
S'def install_opener(opener):'
p2777
sI129
S'    global _opener'
p2778
sI130
S'    _opener = opener'
p2779
sI121
S'_opener = None'
p2780
sI122
S'def urlopen(url, data=None, timeout=socket._GLOBAL_DEFAULT_TIMEOUT):'
p2781
sI123
S'    global _opener'
p2782
sI124
S'    if _opener is None:'
p2783
sI125
S'        _opener = build_opener()'
p2784
sI126
S'    return _opener.open(url, data, timeout)'
p2785
sI127
S''
ssg2656
S'(url=<urllib2.Request instance>, data=None, timeout=<object object>)'
p2786
sg2658
S'urlopen'
p2787
sa(dp2788
g2635
S'/usr/lib/python2.7/urllib2.py'
p2789
sg2637
(dp2790
S'meth'
p2791
S'<bound method HTTPErrorProcessor.http_response of <urllib2.HTTPErrorProcessor instance>>'
p2792
sS'req'
p2793
S'<urllib2.Request instance>'
p2794
sS'response'
p2795
S'<addinfourl at 139642004773848 whose fp = <socket._fileobject object>>'
p2796
ssg2643
I406
sg2644
(dp2797
I401
S''
sI402
S'        # post-process response'
p2798
sI403
S'        meth_name = protocol+"_response"'
p2799
sI404
S'        for processor in self.process_response.get(protocol, []):'
p2800
sI405
S'            meth = getattr(processor, meth_name)'
p2801
sI406
S'            response = meth(req, response)'
p2802
sI407
S''
sI408
S'        return response'
p2803
sI409
S''
sI410
S'    def _open(self, req, data=None):'
p2804
ssg2656
S'(self=<urllib2.OpenerDirector instance>, fullurl=<urllib2.Request instance>, data=None, timeout=<object object>)'
p2805
sg2658
S'open'
p2806
sa(dp2807
g2635
S'/usr/lib/python2.7/urllib2.py'
p2808
sg2637
(dp2809
S'msg'
p2810
S"'Gateway Time-out'"
p2811
sS'code'
p2812
S'504'
p2813
sS'request'
p2814
S'<urllib2.Request instance>'
p2815
sS'response'
p2816
S'<addinfourl at 139642004773848 whose fp = <socket._fileobject object>>'
p2817
sS'hdrs'
p2818
S'<httplib.HTTPMessage instance>'
p2819
ssg2643
I519
sg2644
(dp2820
I514
S''
sI515
S'        # According to RFC 2616, "2xx" code indicates that the client\'s'
p2821
sI516
S'        # request was successfully received, understood, and accepted.'
p2822
sI517
S'        if not (200 <= code < 300):'
p2823
sI518
S'            response = self.parent.error('
p2824
sI519
S"                'http', request, response, code, msg, hdrs)"
p2825
sI520
S''
sI521
S'        return response'
p2826
sI522
S''
sI523
S'    https_response = http_response'
p2827
ssg2656
S'(self=<urllib2.HTTPErrorProcessor instance>, request=<urllib2.Request instance>, response=<addinfourl at 139642004773848 whose fp = <socket._fileobject object>>)'
p2828
sg2658
S'http_response'
p2829
sa(dp2830
g2635
S'/usr/lib/python2.7/urllib2.py'
p2831
sg2637
(dp2832
S'self._call_chain'
p2833
S'<bound method OpenerDirector._call_chain of <urllib2.OpenerDirector instance>>'
p2834
sS'self'
p2835
S'<urllib2.OpenerDirector instance>'
p2836
sS'args'
p2837
S"({301: [<urllib2.HTTPRedirectHandler instance>], 302: [<urllib2.HTTPRedirectHandler instance>], 303: [<urllib2.HTTPRedirectHandler instance>], 307: [<urllib2.HTTPRedirectHandler instance>], 'default': [<urllib2.HTTPDefaultErrorHandler instance>]}, 'default', 'http_error_default', <urllib2.Request instance>, <addinfourl at 139642004773848 whose fp = <socket._fileobject object>>, 504, 'Gateway Time-out', <httplib.HTTPMessage instance>)"
p2838
ssg2643
I444
sg2644
(dp2839
I448
S'# make sense to include both'
p2840
sI439
S'        if result:'
p2841
sI440
S'            return result'
p2842
sI441
S''
sI442
S'        if http_err:'
p2843
sI443
S"            args = (dict, 'default', 'http_error_default') + orig_args"
p2844
sI444
S'            return self._call_chain(*args)'
p2845
sI445
S''
sI446
S'# XXX probably also want an abstract factory that knows when it makes'
p2846
sI447
S'# sense to skip a superclass in favor of a subclass and when it might'
p2847
ssg2656
S"(self=<urllib2.OpenerDirector instance>, proto=504, *args=({301: [<urllib2.HTTPRedirectHandler instance>], 302: [<urllib2.HTTPRedirectHandler instance>], 303: [<urllib2.HTTPRedirectHandler instance>], 307: [<urllib2.HTTPRedirectHandler instance>], 'default': [<urllib2.HTTPDefaultErrorHandler instance>]}, 'default', 'http_error_default', <urllib2.Request instance>, <addinfourl at 139642004773848 whose fp = <socket._fileobject object>>, 504, 'Gateway Time-out', <httplib.HTTPMessage instance>))"
p2848
sg2658
S'error'
p2849
sa(dp2850
g2635
S'/usr/lib/python2.7/urllib2.py'
p2851
sg2637
(dp2852
S'args'
p2853
S"(<urllib2.Request instance>, <addinfourl at 139642004773848 whose fp = <socket._fileobject object>>, 504, 'Gateway Time-out', <httplib.HTTPMessage instance>)"
p2854
sS'result'
p2855
g2680
sS'func'
p2856
S'<bound method HTTPDefaultErrorHandler.http_error...lt of <urllib2.HTTPDefaultErrorHandler instance>>'
p2857
ssg2643
I378
sg2644
(dp2858
I373
S'        # could.  Otherwise, they return the response.'
p2859
sI374
S'        handlers = chain.get(kind, ())'
p2860
sI375
S'        for handler in handlers:'
p2861
sI376
S'            func = getattr(handler, meth_name)'
p2862
sI377
S''
sI378
S'            result = func(*args)'
p2863
sI379
S'            if result is not None:'
p2864
sI380
S'                return result'
p2865
sI381
S''
sI382
S'    def open(self, fullurl, data=None, timeout=socket._GLOBAL_DEFAULT_TIMEOUT):'
p2866
ssg2656
S"(self=<urllib2.OpenerDirector instance>, chain={301: [<urllib2.HTTPRedirectHandler instance>], 302: [<urllib2.HTTPRedirectHandler instance>], 303: [<urllib2.HTTPRedirectHandler instance>], 307: [<urllib2.HTTPRedirectHandler instance>], 'default': [<urllib2.HTTPDefaultErrorHandler instance>]}, kind='default', meth_name='http_error_default', *args=(<urllib2.Request instance>, <addinfourl at 139642004773848 whose fp = <socket._fileobject object>>, 504, 'Gateway Time-out', <httplib.HTTPMessage instance>))"
p2867
sg2658
S'_call_chain'
p2868
sa(dp2869
g2635
S'/usr/lib/python2.7/urllib2.py'
p2870
sg2637
(dp2871
S'fp'
p2872
S'<addinfourl at 139642004773848 whose fp = <socket._fileobject object>>'
p2873
sS'code'
p2874
S'504'
p2875
sS'hdrs'
p2876
S'<httplib.HTTPMessage instance>'
p2877
sS'req'
p2878
S'<urllib2.Request instance>'
p2879
sS'req.get_full_url'
p2880
S'<bound method Request.get_full_url of <urllib2.Request instance>>'
p2881
sS'msg'
p2882
S"'Gateway Time-out'"
p2883
sS'global HTTPError'
p2884
S"<class 'urllib2.HTTPError'>"
p2885
ssg2643
I527
sg2644
(dp2886
I522
S''
sI523
S'    https_response = http_response'
p2887
sI524
S''
sI525
S'class HTTPDefaultErrorHandler(BaseHandler):'
p2888
sI526
S'    def http_error_default(self, req, fp, code, msg, hdrs):'
p2889
sI527
S'        raise HTTPError(req.get_full_url(), code, msg, hdrs, fp)'
p2890
sI528
S''
sI529
S'class HTTPRedirectHandler(BaseHandler):'
p2891
sI530
S'    # maximum number of redirections to any single URL'
p2892
sI531
S'    # this is needed because of the state that cookies introduce'
p2893
ssg2656
S"(self=<urllib2.HTTPDefaultErrorHandler instance>, req=<urllib2.Request instance>, fp=<addinfourl at 139642004773848 whose fp = <socket._fileobject object>>, code=504, msg='Gateway Time-out', hdrs=<httplib.HTTPMessage instance>)"
p2894
sg2658
S'http_error_default'
p2895
sasS'pyver'
p2896
S'Python 2.7.3: /usr/bin/python'
p2897
sS'session'
p2898
g102
(g103
g104
NtRp2899
(dp2900
g107
(dp2901
sg109
(lp2902
g102
(g111
g104
NtRp2903
(dp2904
g107
(dp2905
g115
I5
ssg116
Nsg109
(lp2906
g102
(g118
g104
NtRp2907
(dp2908
g107
(dp2909
sg116
g2903
sg109
(lp2910
g102
(g123
g104
NtRp2911
(dp2912
g107
(dp2913
g127
g128
ssg116
g2907
sg109
(lp2914
S'auth'
p2915
asbag102
(g123
g104
NtRp2916
(dp2917
g107
(dp2918
g134
g135
ssg116
g2907
sg109
(lp2919
S':'
asbag102
(g123
g104
NtRp2920
(dp2921
g107
(dp2922
sg116
g2907
sg109
(lp2923
g102
(g103
g104
NtRp2924
(dp2925
g107
(dp2926
g115
I5
ssg116
g2920
sg109
(lp2927
g102
(g111
g104
NtRp2928
(dp2929
g107
(dp2930
g115
I4
ssg116
Nsg109
(lp2931
g102
(g118
g104
NtRp2932
(dp2933
g107
(dp2934
sg116
g2928
sg109
(lp2935
g102
(g123
g104
NtRp2936
(dp2937
g107
(dp2938
g127
g128
ssg116
g2932
sg109
(lp2939
S'expiration'
p2940
asbag102
(g123
g104
NtRp2941
(dp2942
g107
(dp2943
g134
g135
ssg116
g2932
sg109
(lp2944
S':'
asbag102
(g123
g104
NtRp2945
(dp2946
g107
(dp2947
sg116
g2932
sg109
(lp2948
g102
(g103
g104
NtRp2949
(dp2950
g107
(dp2951
g115
I4
ssg116
g2945
sg109
(lp2952
S'3600'
p2953
asbasbasbag102
(g118
g104
NtRp2954
(dp2955
g107
(dp2956
sg116
g2928
sg109
(lp2957
g102
(g123
g104
NtRp2958
(dp2959
g107
(dp2960
g127
g128
ssg116
g2954
sg109
(lp2961
S'hmac_key'
p2962
asbag102
(g123
g104
NtRp2963
(dp2964
g107
(dp2965
g134
g135
ssg116
g2954
sg109
(lp2966
S':'
asbag102
(g123
g104
NtRp2967
(dp2968
g107
(dp2969
sg116
g2954
sg109
(lp2970
g102
(g103
g104
NtRp2971
(dp2972
g107
(dp2973
g115
I4
ssg116
g2967
sg109
(lp2974
S'a80a4b38-7e48-4189-bf81-9d1c438869e3'
p2975
asbasbasbag102
(g118
g104
NtRp2976
(dp2977
g107
(dp2978
sg116
g2928
sg109
(lp2979
g102
(g123
g104
NtRp2980
(dp2981
g107
(dp2982
g127
g128
ssg116
g2976
sg109
(lp2983
S'last_visit'
p2984
asbag102
(g123
g104
NtRp2985
(dp2986
g107
(dp2987
g134
g135
ssg116
g2976
sg109
(lp2988
S':'
asbag102
(g123
g104
NtRp2989
(dp2990
g107
(dp2991
sg116
g2976
sg109
(lp2992
g102
(g103
g104
NtRp2993
(dp2994
g107
(dp2995
g115
I4
ssg116
g2989
sg109
(lp2996
S'datetime.datetime(2012, 11, 15, 21, 59, 0, 331664)'
p2997
asbasbasbag102
(g118
g104
NtRp2998
(dp2999
g107
(dp3000
sg116
g2928
sg109
(lp3001
g102
(g123
g104
NtRp3002
(dp3003
g107
(dp3004
g127
g128
ssg116
g2998
sg109
(lp3005
S'remember'
p3006
asbag102
(g123
g104
NtRp3007
(dp3008
g107
(dp3009
g134
g135
ssg116
g2998
sg109
(lp3010
S':'
asbag102
(g123
g104
NtRp3011
(dp3012
g107
(dp3013
sg116
g2998
sg109
(lp3014
g102
(g103
g104
NtRp3015
(dp3016
g107
(dp3017
g115
I4
ssg116
g3011
sg109
(lp3018
g145
asbasbasbag102
(g118
g104
NtRp3019
(dp3020
g107
(dp3021
sg116
g2928
sg109
(lp3022
g102
(g123
g104
NtRp3023
(dp3024
g107
(dp3025
g127
g128
ssg116
g3019
sg109
(lp3026
S'user'
p3027
asbag102
(g123
g104
NtRp3028
(dp3029
g107
(dp3030
g134
g135
ssg116
g3019
sg109
(lp3031
S':'
asbag102
(g123
g104
NtRp3032
(dp3033
g107
(dp3034
sg116
g3019
sg109
(lp3035
g102
(g103
g104
NtRp3036
(dp3037
g107
(dp3038
g115
I4
ssg116
g3032
sg109
(lp3039
g102
(g111
g104
NtRp3040
(dp3041
g107
(dp3042
g115
I3
ssg116
Nsg109
(lp3043
g102
(g118
g104
NtRp3044
(dp3045
g107
(dp3046
sg116
g3040
sg109
(lp3047
g102
(g123
g104
NtRp3048
(dp3049
g107
(dp3050
g127
g128
ssg116
g3044
sg109
(lp3051
S'created_on'
p3052
asbag102
(g123
g104
NtRp3053
(dp3054
g107
(dp3055
g134
g135
ssg116
g3044
sg109
(lp3056
S':'
asbag102
(g123
g104
NtRp3057
(dp3058
g107
(dp3059
sg116
g3044
sg109
(lp3060
g102
(g103
g104
NtRp3061
(dp3062
g107
(dp3063
g115
I3
ssg116
g3057
sg109
(lp3064
S'datetime.datetime(2012, 10, 23, 2, 28, 41)'
p3065
asbasbasbag102
(g118
g104
NtRp3066
(dp3067
g107
(dp3068
sg116
g3040
sg109
(lp3069
g102
(g123
g104
NtRp3070
(dp3071
g107
(dp3072
g127
g128
ssg116
g3066
sg109
(lp3073
S'email'
p3074
asbag102
(g123
g104
NtRp3075
(dp3076
g107
(dp3077
g134
g135
ssg116
g3066
sg109
(lp3078
S':'
asbag102
(g123
g104
NtRp3079
(dp3080
g107
(dp3081
sg116
g3066
sg109
(lp3082
g102
(g103
g104
NtRp3083
(dp3084
g107
(dp3085
g115
I3
ssg116
g3079
sg109
(lp3086
S'chitra.khatwani@students.iiit.ac.in'
p3087
asbasbasbag102
(g118
g104
NtRp3088
(dp3089
g107
(dp3090
sg116
g3040
sg109
(lp3091
g102
(g123
g104
NtRp3092
(dp3093
g107
(dp3094
g127
g128
ssg116
g3088
sg109
(lp3095
S'first_name'
p3096
asbag102
(g123
g104
NtRp3097
(dp3098
g107
(dp3099
g134
g135
ssg116
g3088
sg109
(lp3100
S':'
asbag102
(g123
g104
NtRp3101
(dp3102
g107
(dp3103
sg116
g3088
sg109
(lp3104
g102
(g103
g104
NtRp3105
(dp3106
g107
(dp3107
g115
I3
ssg116
g3101
sg109
(lp3108
S'manu'
p3109
asbasbasbag102
(g118
g104
NtRp3110
(dp3111
g107
(dp3112
sg116
g3040
sg109
(lp3113
g102
(g123
g104
NtRp3114
(dp3115
g107
(dp3116
g127
g128
ssg116
g3110
sg109
(lp3117
S'id'
p3118
asbag102
(g123
g104
NtRp3119
(dp3120
g107
(dp3121
g134
g135
ssg116
g3110
sg109
(lp3122
S':'
asbag102
(g123
g104
NtRp3123
(dp3124
g107
(dp3125
sg116
g3110
sg109
(lp3126
g102
(g103
g104
NtRp3127
(dp3128
g107
(dp3129
g115
I3
ssg116
g3123
sg109
(lp3130
S'11'
p3131
asbasbasbag102
(g118
g104
NtRp3132
(dp3133
g107
(dp3134
sg116
g3040
sg109
(lp3135
g102
(g123
g104
NtRp3136
(dp3137
g107
(dp3138
g127
g128
ssg116
g3132
sg109
(lp3139
S'last_name'
p3140
asbag102
(g123
g104
NtRp3141
(dp3142
g107
(dp3143
g134
g135
ssg116
g3132
sg109
(lp3144
S':'
asbag102
(g123
g104
NtRp3145
(dp3146
g107
(dp3147
sg116
g3132
sg109
(lp3148
g102
(g103
g104
NtRp3149
(dp3150
g107
(dp3151
g115
I3
ssg116
g3145
sg109
(lp3152
S'p'
asbasbasbag102
(g118
g104
NtRp3153
(dp3154
g107
(dp3155
sg116
g3040
sg109
(lp3156
g102
(g123
g104
NtRp3157
(dp3158
g107
(dp3159
g127
g128
ssg116
g3153
sg109
(lp3160
S'modified_on'
p3161
asbag102
(g123
g104
NtRp3162
(dp3163
g107
(dp3164
g134
g135
ssg116
g3153
sg109
(lp3165
S':'
asbag102
(g123
g104
NtRp3166
(dp3167
g107
(dp3168
sg116
g3153
sg109
(lp3169
g102
(g103
g104
NtRp3170
(dp3171
g107
(dp3172
g115
I3
ssg116
g3166
sg109
(lp3173
S'datetime.datetime(2012, 11, 15, 21, 54, 14)'
p3174
asbasbasbag102
(g118
g104
NtRp3175
(dp3176
g107
(dp3177
sg116
g3040
sg109
(lp3178
g102
(g123
g104
NtRp3179
(dp3180
g107
(dp3181
g127
g128
ssg116
g3175
sg109
(lp3182
S'password'
p3183
asbag102
(g123
g104
NtRp3184
(dp3185
g107
(dp3186
g134
g135
ssg116
g3175
sg109
(lp3187
S':'
asbag102
(g123
g104
NtRp3188
(dp3189
g107
(dp3190
sg116
g3175
sg109
(lp3191
g102
(g103
g104
NtRp3192
(dp3193
g107
(dp3194
g115
I3
ssg116
g3188
sg109
(lp3195
S'32371e3190f8e63e16755b2e6bf663a2'
p3196
asbasbasbag102
(g118
g104
NtRp3197
(dp3198
g107
(dp3199
sg116
g3040
sg109
(lp3200
g102
(g123
g104
NtRp3201
(dp3202
g107
(dp3203
g127
g128
ssg116
g3197
sg109
(lp3204
S'registration_id'
p3205
asbag102
(g123
g104
NtRp3206
(dp3207
g107
(dp3208
g134
g135
ssg116
g3197
sg109
(lp3209
S':'
asbag102
(g123
g104
NtRp3210
(dp3211
g107
(dp3212
sg116
g3197
sg109
(lp3213
g102
(g103
g104
NtRp3214
(dp3215
g107
(dp3216
g115
I3
ssg116
g3210
sg109
(lp3217
S''
asbasbasbag102
(g118
g104
NtRp3218
(dp3219
g107
(dp3220
sg116
g3040
sg109
(lp3221
g102
(g123
g104
NtRp3222
(dp3223
g107
(dp3224
g127
g128
ssg116
g3218
sg109
(lp3225
S'registration_key'
p3226
asbag102
(g123
g104
NtRp3227
(dp3228
g107
(dp3229
g134
g135
ssg116
g3218
sg109
(lp3230
S':'
asbag102
(g123
g104
NtRp3231
(dp3232
g107
(dp3233
sg116
g3218
sg109
(lp3234
g102
(g103
g104
NtRp3235
(dp3236
g107
(dp3237
g115
I3
ssg116
g3231
sg109
(lp3238
S''
asbasbasbag102
(g118
g104
NtRp3239
(dp3240
g107
(dp3241
sg116
g3040
sg109
(lp3242
g102
(g123
g104
NtRp3243
(dp3244
g107
(dp3245
g127
g128
ssg116
g3239
sg109
(lp3246
S'reset_password_key'
p3247
asbag102
(g123
g104
NtRp3248
(dp3249
g107
(dp3250
g134
g135
ssg116
g3239
sg109
(lp3251
S':'
asbag102
(g123
g104
NtRp3252
(dp3253
g107
(dp3254
sg116
g3239
sg109
(lp3255
g102
(g103
g104
NtRp3256
(dp3257
g107
(dp3258
g115
I3
ssg116
g3252
sg109
(lp3259
S''
asbasbasbag102
(g118
g104
NtRp3260
(dp3261
g107
(dp3262
sg116
g3040
sg109
(lp3263
g102
(g123
g104
NtRp3264
(dp3265
g107
(dp3266
g127
g128
ssg116
g3260
sg109
(lp3267
S'username'
p3268
asbag102
(g123
g104
NtRp3269
(dp3270
g107
(dp3271
g134
g135
ssg116
g3260
sg109
(lp3272
S':'
asbag102
(g123
g104
NtRp3273
(dp3274
g107
(dp3275
sg116
g3260
sg109
(lp3276
g102
(g103
g104
NtRp3277
(dp3278
g107
(dp3279
g115
I3
ssg116
g3273
sg109
(lp3280
S'manu1'
p3281
asbasbasbasbasbasbasbag102
(g118
g104
NtRp3282
(dp3283
g107
(dp3284
sg116
g2928
sg109
(lp3285
g102
(g123
g104
NtRp3286
(dp3287
g107
(dp3288
g127
g128
ssg116
g3282
sg109
(lp3289
S'user_groups'
p3290
asbag102
(g123
g104
NtRp3291
(dp3292
g107
(dp3293
g134
g135
ssg116
g3282
sg109
(lp3294
S':'
asbag102
(g123
g104
NtRp3295
(dp3296
g107
(dp3297
sg116
g3282
sg109
(lp3298
g102
(g103
g104
NtRp3299
(dp3300
g107
(dp3301
g115
I4
ssg116
g3295
sg109
(lp3302
g102
(g111
g104
NtRp3303
(dp3304
g107
(dp3305
g115
I3
ssg116
Nsg109
(lp3306
g102
(g118
g104
NtRp3307
(dp3308
g107
(dp3309
sg116
g3303
sg109
(lp3310
g102
(g123
g104
NtRp3311
(dp3312
g107
(dp3313
g127
g128
ssg116
g3307
sg109
(lp3314
S'1'
asbag102
(g123
g104
NtRp3315
(dp3316
g107
(dp3317
g134
g135
ssg116
g3307
sg109
(lp3318
S':'
asbag102
(g123
g104
NtRp3319
(dp3320
g107
(dp3321
sg116
g3307
sg109
(lp3322
g102
(g103
g104
NtRp3323
(dp3324
g107
(dp3325
g115
I3
ssg116
g3319
sg109
(lp3326
S'user_11'
p3327
asbasbasbasbasbasbasbasbasbasbasbasbasbsS'etype'
p3328
S"<class 'urllib2.HTTPError'>"
p3329
sS'date'
p3330
S'Thu Nov 15 22:02:17 2012'
p3331
sS'response'
p3332
g102
(g103
g104
NtRp3333
(dp3334
g107
(dp3335
sg109
(lp3336
g102
(g111
g104
NtRp3337
(dp3338
g107
(dp3339
g115
I5
ssg116
Nsg109
(lp3340
g102
(g118
g104
NtRp3341
(dp3342
g107
(dp3343
sg116
g3337
sg109
(lp3344
g102
(g123
g104
NtRp3345
(dp3346
g107
(dp3347
g127
g128
ssg116
g3341
sg109
(lp3348
g200
asbag102
(g123
g104
NtRp3349
(dp3350
g107
(dp3351
g134
g135
ssg116
g3341
sg109
(lp3352
S':'
asbag102
(g123
g104
NtRp3353
(dp3354
g107
(dp3355
sg116
g3341
sg109
(lp3356
g102
(g103
g104
NtRp3357
(dp3358
g107
(dp3359
g115
I5
ssg116
g3353
sg109
(lp3360
S'<cStringIO.StringO object at 0x7f00e8358880>'
p3361
asbasbasbag102
(g118
g104
NtRp3362
(dp3363
g107
(dp3364
sg116
g3337
sg109
(lp3365
g102
(g123
g104
NtRp3366
(dp3367
g107
(dp3368
g127
g128
ssg116
g3362
sg109
(lp3369
g266
asbag102
(g123
g104
NtRp3370
(dp3371
g107
(dp3372
g134
g135
ssg116
g3362
sg109
(lp3373
S':'
asbag102
(g123
g104
NtRp3374
(dp3375
g107
(dp3376
sg116
g3362
sg109
(lp3377
g102
(g103
g104
NtRp3378
(dp3379
g107
(dp3380
g115
I5
ssg116
g3374
sg109
(lp3381
g102
(g111
g104
NtRp3382
(dp3383
g107
(dp3384
g115
I4
ssg116
Nsg109
(lp3385
g102
(g118
g104
NtRp3386
(dp3387
g107
(dp3388
sg116
g3382
sg109
(lp3389
g102
(g123
g104
NtRp3390
(dp3391
g107
(dp3392
g127
g128
ssg116
g3386
sg109
(lp3393
S'session_id_cite_mf'
p3394
asbag102
(g123
g104
NtRp3395
(dp3396
g107
(dp3397
g134
g135
ssg116
g3386
sg109
(lp3398
S':'
asbag102
(g123
g104
NtRp3399
(dp3400
g107
(dp3401
sg116
g3386
sg109
(lp3402
g102
(g103
g104
NtRp3403
(dp3404
g107
(dp3405
g115
I4
ssg116
g3399
sg109
(lp3406
g102
(g111
g104
NtRp3407
(dp3408
g107
(dp3409
g115
I3
ssg116
Nsg109
(lp3410
g102
(g118
g104
NtRp3411
(dp3412
g107
(dp3413
sg116
g3407
sg109
(lp3414
g102
(g123
g104
NtRp3415
(dp3416
g107
(dp3417
g127
g128
ssg116
g3411
sg109
(lp3418
g316
asbag102
(g123
g104
NtRp3419
(dp3420
g107
(dp3421
g134
g135
ssg116
g3411
sg109
(lp3422
S':'
asbag102
(g123
g104
NtRp3423
(dp3424
g107
(dp3425
sg116
g3411
sg109
(lp3426
g102
(g103
g104
NtRp3427
(dp3428
g107
(dp3429
g115
I3
ssg116
g3423
sg109
(lp3430
S''
asbasbasbag102
(g118
g104
NtRp3431
(dp3432
g107
(dp3433
sg116
g3407
sg109
(lp3434
g102
(g123
g104
NtRp3435
(dp3436
g107
(dp3437
g127
g128
ssg116
g3431
sg109
(lp3438
g337
asbag102
(g123
g104
NtRp3439
(dp3440
g107
(dp3441
g134
g135
ssg116
g3431
sg109
(lp3442
S':'
asbag102
(g123
g104
NtRp3443
(dp3444
g107
(dp3445
sg116
g3431
sg109
(lp3446
g102
(g103
g104
NtRp3447
(dp3448
g107
(dp3449
g115
I3
ssg116
g3443
sg109
(lp3450
S''
asbasbasbag102
(g118
g104
NtRp3451
(dp3452
g107
(dp3453
sg116
g3407
sg109
(lp3454
g102
(g123
g104
NtRp3455
(dp3456
g107
(dp3457
g127
g128
ssg116
g3451
sg109
(lp3458
g358
asbag102
(g123
g104
NtRp3459
(dp3460
g107
(dp3461
g134
g135
ssg116
g3451
sg109
(lp3462
S':'
asbag102
(g123
g104
NtRp3463
(dp3464
g107
(dp3465
sg116
g3451
sg109
(lp3466
g102
(g103
g104
NtRp3467
(dp3468
g107
(dp3469
g115
I3
ssg116
g3463
sg109
(lp3470
S''
asbasbasbag102
(g118
g104
NtRp3471
(dp3472
g107
(dp3473
sg116
g3407
sg109
(lp3474
g102
(g123
g104
NtRp3475
(dp3476
g107
(dp3477
g127
g128
ssg116
g3471
sg109
(lp3478
g379
asbag102
(g123
g104
NtRp3479
(dp3480
g107
(dp3481
g134
g135
ssg116
g3471
sg109
(lp3482
S':'
asbag102
(g123
g104
NtRp3483
(dp3484
g107
(dp3485
sg116
g3471
sg109
(lp3486
g102
(g103
g104
NtRp3487
(dp3488
g107
(dp3489
g115
I3
ssg116
g3483
sg109
(lp3490
S''
asbasbasbag102
(g118
g104
NtRp3491
(dp3492
g107
(dp3493
sg116
g3407
sg109
(lp3494
g102
(g123
g104
NtRp3495
(dp3496
g107
(dp3497
g127
g128
ssg116
g3491
sg109
(lp3498
g400
asbag102
(g123
g104
NtRp3499
(dp3500
g107
(dp3501
g134
g135
ssg116
g3491
sg109
(lp3502
S':'
asbag102
(g123
g104
NtRp3503
(dp3504
g107
(dp3505
sg116
g3491
sg109
(lp3506
g102
(g103
g104
NtRp3507
(dp3508
g107
(dp3509
g115
I3
ssg116
g3503
sg109
(lp3510
S''
asbasbasbag102
(g118
g104
NtRp3511
(dp3512
g107
(dp3513
sg116
g3407
sg109
(lp3514
g102
(g123
g104
NtRp3515
(dp3516
g107
(dp3517
g127
g128
ssg116
g3511
sg109
(lp3518
g421
asbag102
(g123
g104
NtRp3519
(dp3520
g107
(dp3521
g134
g135
ssg116
g3511
sg109
(lp3522
S':'
asbag102
(g123
g104
NtRp3523
(dp3524
g107
(dp3525
sg116
g3511
sg109
(lp3526
g102
(g103
g104
NtRp3527
(dp3528
g107
(dp3529
g115
I3
ssg116
g3523
sg109
(lp3530
S'/'
asbasbasbag102
(g118
g104
NtRp3531
(dp3532
g107
(dp3533
sg116
g3407
sg109
(lp3534
g102
(g123
g104
NtRp3535
(dp3536
g107
(dp3537
g127
g128
ssg116
g3531
sg109
(lp3538
g442
asbag102
(g123
g104
NtRp3539
(dp3540
g107
(dp3541
g134
g135
ssg116
g3531
sg109
(lp3542
S':'
asbag102
(g123
g104
NtRp3543
(dp3544
g107
(dp3545
sg116
g3531
sg109
(lp3546
g102
(g103
g104
NtRp3547
(dp3548
g107
(dp3549
g115
I3
ssg116
g3543
sg109
(lp3550
S''
asbasbasbag102
(g118
g104
NtRp3551
(dp3552
g107
(dp3553
sg116
g3407
sg109
(lp3554
g102
(g123
g104
NtRp3555
(dp3556
g107
(dp3557
g127
g128
ssg116
g3551
sg109
(lp3558
g463
asbag102
(g123
g104
NtRp3559
(dp3560
g107
(dp3561
g134
g135
ssg116
g3551
sg109
(lp3562
S':'
asbag102
(g123
g104
NtRp3563
(dp3564
g107
(dp3565
sg116
g3551
sg109
(lp3566
g102
(g103
g104
NtRp3567
(dp3568
g107
(dp3569
g115
I3
ssg116
g3563
sg109
(lp3570
S''
asbasbasbasbasbasbasbasbasbasbasbag102
(g118
g104
NtRp3571
(dp3572
g107
(dp3573
sg116
g3337
sg109
(lp3574
g102
(g123
g104
NtRp3575
(dp3576
g107
(dp3577
g127
g128
ssg116
g3571
sg109
(lp3578
S'delimiters'
p3579
asbag102
(g123
g104
NtRp3580
(dp3581
g107
(dp3582
g134
g135
ssg116
g3571
sg109
(lp3583
S':'
asbag102
(g123
g104
NtRp3584
(dp3585
g107
(dp3586
sg116
g3571
sg109
(lp3587
g102
(g103
g104
NtRp3588
(dp3589
g107
(dp3590
g115
I5
ssg116
g3584
sg109
(lp3591
g102
(g111
g104
NtRp3592
(dp3593
g107
(dp3594
g115
I4
ssg116
Nsg109
(lp3595
g102
(g118
g104
NtRp3596
(dp3597
g107
(dp3598
sg116
g3592
sg109
(lp3599
g102
(g123
g104
NtRp3600
(dp3601
g107
(dp3602
sg116
g3596
sg109
(lp3603
g102
(g103
g104
NtRp3604
(dp3605
g107
(dp3606
g115
I4
ssg116
g3600
sg109
(lp3607
S'{{'
p3608
asbasbasbag102
(g118
g104
NtRp3609
(dp3610
g107
(dp3611
sg116
g3592
sg109
(lp3612
g102
(g123
g104
NtRp3613
(dp3614
g107
(dp3615
sg116
g3609
sg109
(lp3616
g102
(g103
g104
NtRp3617
(dp3618
g107
(dp3619
g115
I4
ssg116
g3613
sg109
(lp3620
S'}}'
p3621
asbasbasbasbasbasbasbag102
(g118
g104
NtRp3622
(dp3623
g107
(dp3624
sg116
g3337
sg109
(lp3625
g102
(g123
g104
NtRp3626
(dp3627
g107
(dp3628
g127
g128
ssg116
g3622
sg109
(lp3629
S'files'
p3630
asbag102
(g123
g104
NtRp3631
(dp3632
g107
(dp3633
g134
g135
ssg116
g3622
sg109
(lp3634
S':'
asbag102
(g123
g104
NtRp3635
(dp3636
g107
(dp3637
sg116
g3622
sg109
(lp3638
g102
(g103
g104
NtRp3639
(dp3640
g107
(dp3641
g115
I5
ssg116
g3635
sg109
(lp3642
g102
(g111
g104
NtRp3643
(dp3644
g107
(dp3645
g115
I4
ssg116
Nsg109
(lp3646
sbasbasbasbag102
(g118
g104
NtRp3647
(dp3648
g107
(dp3649
sg116
g3337
sg109
(lp3650
g102
(g123
g104
NtRp3651
(dp3652
g107
(dp3653
g127
g128
ssg116
g3647
sg109
(lp3654
S'flash'
p3655
asbag102
(g123
g104
NtRp3656
(dp3657
g107
(dp3658
g134
g135
ssg116
g3647
sg109
(lp3659
S':'
asbag102
(g123
g104
NtRp3660
(dp3661
g107
(dp3662
sg116
g3647
sg109
(lp3663
g102
(g103
g104
NtRp3664
(dp3665
g107
(dp3666
g115
I5
ssg116
g3660
sg109
(lp3667
S''
asbasbasbag102
(g118
g104
NtRp3668
(dp3669
g107
(dp3670
sg116
g3337
sg109
(lp3671
g102
(g123
g104
NtRp3672
(dp3673
g107
(dp3674
g127
g128
ssg116
g3668
sg109
(lp3675
S'generic_patterns'
p3676
asbag102
(g123
g104
NtRp3677
(dp3678
g107
(dp3679
g134
g135
ssg116
g3668
sg109
(lp3680
S':'
asbag102
(g123
g104
NtRp3681
(dp3682
g107
(dp3683
sg116
g3668
sg109
(lp3684
g102
(g103
g104
NtRp3685
(dp3686
g107
(dp3687
g115
I5
ssg116
g3681
sg109
(lp3688
g102
(g111
g104
NtRp3689
(dp3690
g107
(dp3691
g115
I4
ssg116
Nsg109
(lp3692
g102
(g118
g104
NtRp3693
(dp3694
g107
(dp3695
sg116
g3689
sg109
(lp3696
g102
(g123
g104
NtRp3697
(dp3698
g107
(dp3699
sg116
g3693
sg109
(lp3700
g102
(g103
g104
NtRp3701
(dp3702
g107
(dp3703
g115
I4
ssg116
g3697
sg109
(lp3704
S'*'
asbasbasbasbasbasbasbag102
(g118
g104
NtRp3705
(dp3706
g107
(dp3707
sg116
g3337
sg109
(lp3708
g102
(g123
g104
NtRp3709
(dp3710
g107
(dp3711
g127
g128
ssg116
g3705
sg109
(lp3712
g41
asbag102
(g123
g104
NtRp3713
(dp3714
g107
(dp3715
g134
g135
ssg116
g3705
sg109
(lp3716
S':'
asbag102
(g123
g104
NtRp3717
(dp3718
g107
(dp3719
sg116
g3705
sg109
(lp3720
g102
(g103
g104
NtRp3721
(dp3722
g107
(dp3723
g115
I5
ssg116
g3717
sg109
(lp3724
g102
(g111
g104
NtRp3725
(dp3726
g107
(dp3727
g115
I4
ssg116
Nsg109
(lp3728
g102
(g118
g104
NtRp3729
(dp3730
g107
(dp3731
sg116
g3725
sg109
(lp3732
g102
(g123
g104
NtRp3733
(dp3734
g107
(dp3735
g127
g128
ssg116
g3729
sg109
(lp3736
S'Cache-Control'
p3737
asbag102
(g123
g104
NtRp3738
(dp3739
g107
(dp3740
g134
g135
ssg116
g3729
sg109
(lp3741
S':'
asbag102
(g123
g104
NtRp3742
(dp3743
g107
(dp3744
sg116
g3729
sg109
(lp3745
g102
(g103
g104
NtRp3746
(dp3747
g107
(dp3748
g115
I4
ssg116
g3742
sg109
(lp3749
S'no-store, no-cache, must-revalidate, post-check=0, pre-check=0'
p3750
asbasbasbag102
(g118
g104
NtRp3751
(dp3752
g107
(dp3753
sg116
g3725
sg109
(lp3754
g102
(g123
g104
NtRp3755
(dp3756
g107
(dp3757
g127
g128
ssg116
g3751
sg109
(lp3758
S'Content-Type'
p3759
asbag102
(g123
g104
NtRp3760
(dp3761
g107
(dp3762
g134
g135
ssg116
g3751
sg109
(lp3763
S':'
asbag102
(g123
g104
NtRp3764
(dp3765
g107
(dp3766
sg116
g3751
sg109
(lp3767
g102
(g103
g104
NtRp3768
(dp3769
g107
(dp3770
g115
I4
ssg116
g3764
sg109
(lp3771
S'text/html; charset=utf-8'
p3772
asbasbasbag102
(g118
g104
NtRp3773
(dp3774
g107
(dp3775
sg116
g3725
sg109
(lp3776
g102
(g123
g104
NtRp3777
(dp3778
g107
(dp3779
g127
g128
ssg116
g3773
sg109
(lp3780
S'Expires'
p3781
asbag102
(g123
g104
NtRp3782
(dp3783
g107
(dp3784
g134
g135
ssg116
g3773
sg109
(lp3785
S':'
asbag102
(g123
g104
NtRp3786
(dp3787
g107
(dp3788
sg116
g3773
sg109
(lp3789
g102
(g103
g104
NtRp3790
(dp3791
g107
(dp3792
g115
I4
ssg116
g3786
sg109
(lp3793
S'Thu, 15 Nov 2012 16:29:18 GMT'
p3794
asbasbasbag102
(g118
g104
NtRp3795
(dp3796
g107
(dp3797
sg116
g3725
sg109
(lp3798
g102
(g123
g104
NtRp3799
(dp3800
g107
(dp3801
g127
g128
ssg116
g3795
sg109
(lp3802
S'Pragma'
p3803
asbag102
(g123
g104
NtRp3804
(dp3805
g107
(dp3806
g134
g135
ssg116
g3795
sg109
(lp3807
S':'
asbag102
(g123
g104
NtRp3808
(dp3809
g107
(dp3810
sg116
g3795
sg109
(lp3811
g102
(g103
g104
NtRp3812
(dp3813
g107
(dp3814
g115
I4
ssg116
g3808
sg109
(lp3815
S'no-cache'
p3816
asbasbasbag102
(g118
g104
NtRp3817
(dp3818
g107
(dp3819
sg116
g3725
sg109
(lp3820
g102
(g123
g104
NtRp3821
(dp3822
g107
(dp3823
g127
g128
ssg116
g3817
sg109
(lp3824
S'X-Powered-By'
p3825
asbag102
(g123
g104
NtRp3826
(dp3827
g107
(dp3828
g134
g135
ssg116
g3817
sg109
(lp3829
S':'
asbag102
(g123
g104
NtRp3830
(dp3831
g107
(dp3832
sg116
g3817
sg109
(lp3833
g102
(g103
g104
NtRp3834
(dp3835
g107
(dp3836
g115
I4
ssg116
g3830
sg109
(lp3837
S'web2py'
p3838
asbasbasbasbasbasbasbag102
(g118
g104
NtRp3839
(dp3840
g107
(dp3841
sg116
g3337
sg109
(lp3842
g102
(g123
g104
NtRp3843
(dp3844
g107
(dp3845
g127
g128
ssg116
g3839
sg109
(lp3846
S'menu'
p3847
asbag102
(g123
g104
NtRp3848
(dp3849
g107
(dp3850
g134
g135
ssg116
g3839
sg109
(lp3851
S':'
asbag102
(g123
g104
NtRp3852
(dp3853
g107
(dp3854
sg116
g3839
sg109
(lp3855
g102
(g103
g104
NtRp3856
(dp3857
g107
(dp3858
g115
I5
ssg116
g3852
sg109
(lp3859
g102
(g111
g104
NtRp3860
(dp3861
g107
(dp3862
g115
I4
ssg116
Nsg109
(lp3863
g102
(g118
g104
NtRp3864
(dp3865
g107
(dp3866
sg116
g3860
sg109
(lp3867
g102
(g123
g104
NtRp3868
(dp3869
g107
(dp3870
sg116
g3864
sg109
(lp3871
g102
(g103
g104
NtRp3872
(dp3873
g107
(dp3874
g115
I4
ssg116
g3868
sg109
(lp3875
g102
(g111
g104
NtRp3876
(dp3877
g107
(dp3878
g115
I3
ssg116
Nsg109
(lp3879
g102
(g118
g104
NtRp3880
(dp3881
g107
(dp3882
sg116
g3876
sg109
(lp3883
g102
(g123
g104
NtRp3884
(dp3885
g107
(dp3886
sg116
g3880
sg109
(lp3887
g102
(g103
g104
NtRp3888
(dp3889
g107
(dp3890
g115
I3
ssg116
g3884
sg109
(lp3891
cgluon.languages
lazyT_unpickle
p3892
(S't\x05\x00\x00\x00Index'
tRp3893
asbasbasbag102
(g118
g104
NtRp3894
(dp3895
g107
(dp3896
sg116
g3876
sg109
(lp3897
g102
(g123
g104
NtRp3898
(dp3899
g107
(dp3900
sg116
g3894
sg109
(lp3901
g102
(g103
g104
NtRp3902
(dp3903
g107
(dp3904
g115
I3
ssg116
g3898
sg109
(lp3905
g145
asbasbasbag102
(g118
g104
NtRp3906
(dp3907
g107
(dp3908
sg116
g3876
sg109
(lp3909
g102
(g123
g104
NtRp3910
(dp3911
g107
(dp3912
sg116
g3906
sg109
(lp3913
g102
(g103
g104
NtRp3914
(dp3915
g107
(dp3916
g115
I3
ssg116
g3910
sg109
(lp3917
S'/cite_mf/default/index'
p3918
asbasbasbag102
(g118
g104
NtRp3919
(dp3920
g107
(dp3921
sg116
g3876
sg109
(lp3922
g102
(g123
g104
NtRp3923
(dp3924
g107
(dp3925
sg116
g3919
sg109
(lp3926
g102
(g103
g104
NtRp3927
(dp3928
g107
(dp3929
g115
I3
ssg116
g3923
sg109
(lp3930
g102
(g111
g104
NtRp3931
(dp3932
g107
(dp3933
g115
I2
ssg116
Nsg109
(lp3934
sbasbasbasbasbasbasbasbasbasbasbasbag102
(g118
g104
NtRp3935
(dp3936
g107
(dp3937
sg116
g3337
sg109
(lp3938
g102
(g123
g104
NtRp3939
(dp3940
g107
(dp3941
g127
g128
ssg116
g3935
sg109
(lp3942
S'meta'
p3943
asbag102
(g123
g104
NtRp3944
(dp3945
g107
(dp3946
g134
g135
ssg116
g3935
sg109
(lp3947
S':'
asbag102
(g123
g104
NtRp3948
(dp3949
g107
(dp3950
sg116
g3935
sg109
(lp3951
g102
(g103
g104
NtRp3952
(dp3953
g107
(dp3954
g115
I5
ssg116
g3948
sg109
(lp3955
g102
(g111
g104
NtRp3956
(dp3957
g107
(dp3958
g115
I4
ssg116
Nsg109
(lp3959
g102
(g118
g104
NtRp3960
(dp3961
g107
(dp3962
sg116
g3956
sg109
(lp3963
g102
(g123
g104
NtRp3964
(dp3965
g107
(dp3966
g127
g128
ssg116
g3960
sg109
(lp3967
S'author'
p3968
asbag102
(g123
g104
NtRp3969
(dp3970
g107
(dp3971
g134
g135
ssg116
g3960
sg109
(lp3972
S':'
asbag102
(g123
g104
NtRp3973
(dp3974
g107
(dp3975
sg116
g3960
sg109
(lp3976
g102
(g103
g104
NtRp3977
(dp3978
g107
(dp3979
g115
I4
ssg116
g3973
sg109
(lp3980
S'you <you@example.com>'
p3981
asbasbasbag102
(g118
g104
NtRp3982
(dp3983
g107
(dp3984
sg116
g3956
sg109
(lp3985
g102
(g123
g104
NtRp3986
(dp3987
g107
(dp3988
g127
g128
ssg116
g3982
sg109
(lp3989
S'description'
p3990
asbag102
(g123
g104
NtRp3991
(dp3992
g107
(dp3993
g134
g135
ssg116
g3982
sg109
(lp3994
S':'
asbag102
(g123
g104
NtRp3995
(dp3996
g107
(dp3997
sg116
g3982
sg109
(lp3998
g102
(g103
g104
NtRp3999
(dp4000
g107
(dp4001
g115
I4
ssg116
g3995
sg109
(lp4002
S''
asbasbasbag102
(g118
g104
NtRp4003
(dp4004
g107
(dp4005
sg116
g3956
sg109
(lp4006
g102
(g123
g104
NtRp4007
(dp4008
g107
(dp4009
g127
g128
ssg116
g4003
sg109
(lp4010
S'keywords'
p4011
asbag102
(g123
g104
NtRp4012
(dp4013
g107
(dp4014
g134
g135
ssg116
g4003
sg109
(lp4015
S':'
asbag102
(g123
g104
NtRp4016
(dp4017
g107
(dp4018
sg116
g4003
sg109
(lp4019
g102
(g103
g104
NtRp4020
(dp4021
g107
(dp4022
g115
I4
ssg116
g4016
sg109
(lp4023
S''
asbasbasbasbasbasbasbag102
(g118
g104
NtRp4024
(dp4025
g107
(dp4026
sg116
g3337
sg109
(lp4027
g102
(g123
g104
NtRp4028
(dp4029
g107
(dp4030
g127
g128
ssg116
g4024
sg109
(lp4031
S'postprocessing'
p4032
asbag102
(g123
g104
NtRp4033
(dp4034
g107
(dp4035
g134
g135
ssg116
g4024
sg109
(lp4036
S':'
asbag102
(g123
g104
NtRp4037
(dp4038
g107
(dp4039
sg116
g4024
sg109
(lp4040
g102
(g103
g104
NtRp4041
(dp4042
g107
(dp4043
g115
I5
ssg116
g4037
sg109
(lp4044
g102
(g111
g104
NtRp4045
(dp4046
g107
(dp4047
g115
I4
ssg116
Nsg109
(lp4048
sbasbasbasbag102
(g118
g104
NtRp4049
(dp4050
g107
(dp4051
sg116
g3337
sg109
(lp4052
g102
(g123
g104
NtRp4053
(dp4054
g107
(dp4055
g127
g128
ssg116
g4049
sg109
(lp4056
S'session_file'
p4057
asbag102
(g123
g104
NtRp4058
(dp4059
g107
(dp4060
g134
g135
ssg116
g4049
sg109
(lp4061
S':'
asbag102
(g123
g104
NtRp4062
(dp4063
g107
(dp4064
sg116
g4049
sg109
(lp4065
g102
(g103
g104
NtRp4066
(dp4067
g107
(dp4068
g115
I5
ssg116
g4062
sg109
(lp4069
S"<open file '/home/maneesha/Downloads/web2py/applications/cite_mf/sessions/127.0.0.1-c428480d-4e16-4535-aab3-fa9a791ba35c', mode 'rb+' at 0x7f00e40a0930>"
p4070
asbasbasbag102
(g118
g104
NtRp4071
(dp4072
g107
(dp4073
sg116
g3337
sg109
(lp4074
g102
(g123
g104
NtRp4075
(dp4076
g107
(dp4077
g127
g128
ssg116
g4071
sg109
(lp4078
S'session_filename'
p4079
asbag102
(g123
g104
NtRp4080
(dp4081
g107
(dp4082
g134
g135
ssg116
g4071
sg109
(lp4083
S':'
asbag102
(g123
g104
NtRp4084
(dp4085
g107
(dp4086
sg116
g4071
sg109
(lp4087
g102
(g103
g104
NtRp4088
(dp4089
g107
(dp4090
g115
I5
ssg116
g4084
sg109
(lp4091
S'/home/maneesha/Downloads/web2py/applications/cite_mf/sessions/127.0.0.1-c428480d-4e16-4535-aab3-fa9a791ba35c'
p4092
asbasbasbag102
(g118
g104
NtRp4093
(dp4094
g107
(dp4095
sg116
g3337
sg109
(lp4096
g102
(g123
g104
NtRp4097
(dp4098
g107
(dp4099
g127
g128
ssg116
g4093
sg109
(lp4100
S'session_id'
p4101
asbag102
(g123
g104
NtRp4102
(dp4103
g107
(dp4104
g134
g135
ssg116
g4093
sg109
(lp4105
S':'
asbag102
(g123
g104
NtRp4106
(dp4107
g107
(dp4108
sg116
g4093
sg109
(lp4109
g102
(g103
g104
NtRp4110
(dp4111
g107
(dp4112
g115
I5
ssg116
g4106
sg109
(lp4113
S'127.0.0.1-c428480d-4e16-4535-aab3-fa9a791ba35c'
p4114
asbasbasbag102
(g118
g104
NtRp4115
(dp4116
g107
(dp4117
sg116
g3337
sg109
(lp4118
g102
(g123
g104
NtRp4119
(dp4120
g107
(dp4121
g127
g128
ssg116
g4115
sg109
(lp4122
S'session_id_name'
p4123
asbag102
(g123
g104
NtRp4124
(dp4125
g107
(dp4126
g134
g135
ssg116
g4115
sg109
(lp4127
S':'
asbag102
(g123
g104
NtRp4128
(dp4129
g107
(dp4130
sg116
g4115
sg109
(lp4131
g102
(g103
g104
NtRp4132
(dp4133
g107
(dp4134
g115
I5
ssg116
g4128
sg109
(lp4135
g3394
asbasbasbag102
(g118
g104
NtRp4136
(dp4137
g107
(dp4138
sg116
g3337
sg109
(lp4139
g102
(g123
g104
NtRp4140
(dp4141
g107
(dp4142
g127
g128
ssg116
g4136
sg109
(lp4143
S'session_locked'
p4144
asbag102
(g123
g104
NtRp4145
(dp4146
g107
(dp4147
g134
g135
ssg116
g4136
sg109
(lp4148
S':'
asbag102
(g123
g104
NtRp4149
(dp4150
g107
(dp4151
sg116
g4136
sg109
(lp4152
g102
(g103
g104
NtRp4153
(dp4154
g107
(dp4155
g115
I5
ssg116
g4149
sg109
(lp4156
g1331
asbasbasbag102
(g118
g104
NtRp4157
(dp4158
g107
(dp4159
sg116
g3337
sg109
(lp4160
g102
(g123
g104
NtRp4161
(dp4162
g107
(dp4163
g127
g128
ssg116
g4157
sg109
(lp4164
S'session_new'
p4165
asbag102
(g123
g104
NtRp4166
(dp4167
g107
(dp4168
g134
g135
ssg116
g4157
sg109
(lp4169
S':'
asbag102
(g123
g104
NtRp4170
(dp4171
g107
(dp4172
sg116
g4157
sg109
(lp4173
g102
(g103
g104
NtRp4174
(dp4175
g107
(dp4176
g115
I5
ssg116
g4170
sg109
(lp4177
g145
asbasbasbag102
(g118
g104
NtRp4178
(dp4179
g107
(dp4180
sg116
g3337
sg109
(lp4181
g102
(g123
g104
NtRp4182
(dp4183
g107
(dp4184
g127
g128
ssg116
g4178
sg109
(lp4185
S'status'
p4186
asbag102
(g123
g104
NtRp4187
(dp4188
g107
(dp4189
g134
g135
ssg116
g4178
sg109
(lp4190
S':'
asbag102
(g123
g104
NtRp4191
(dp4192
g107
(dp4193
sg116
g4178
sg109
(lp4194
g102
(g103
g104
NtRp4195
(dp4196
g107
(dp4197
g115
I5
ssg116
g4191
sg109
(lp4198
S'200'
p4199
asbasbasbag102
(g118
g104
NtRp4200
(dp4201
g107
(dp4202
sg116
g3337
sg109
(lp4203
g102
(g123
g104
NtRp4204
(dp4205
g107
(dp4206
g127
g128
ssg116
g4200
sg109
(lp4207
S'subtitle'
p4208
asbag102
(g123
g104
NtRp4209
(dp4210
g107
(dp4211
g134
g135
ssg116
g4200
sg109
(lp4212
S':'
asbag102
(g123
g104
NtRp4213
(dp4214
g107
(dp4215
sg116
g4200
sg109
(lp4216
g102
(g103
g104
NtRp4217
(dp4218
g107
(dp4219
g115
I5
ssg116
g4213
sg109
(lp4220
S'powered by web2py'
p4221
asbasbasbag102
(g118
g104
NtRp4222
(dp4223
g107
(dp4224
sg116
g3337
sg109
(lp4225
g102
(g123
g104
NtRp4226
(dp4227
g107
(dp4228
g127
g128
ssg116
g4222
sg109
(lp4229
S'title'
p4230
asbag102
(g123
g104
NtRp4231
(dp4232
g107
(dp4233
g134
g135
ssg116
g4222
sg109
(lp4234
S':'
asbag102
(g123
g104
NtRp4235
(dp4236
g107
(dp4237
sg116
g4222
sg109
(lp4238
g102
(g103
g104
NtRp4239
(dp4240
g107
(dp4241
g115
I5
ssg116
g4235
sg109
(lp4242
S'My New App'
p4243
asbasbasbag102
(g118
g104
NtRp4244
(dp4245
g107
(dp4246
sg116
g3337
sg109
(lp4247
g102
(g123
g104
NtRp4248
(dp4249
g107
(dp4250
g127
g128
ssg116
g4244
sg109
(lp4251
g1994
asbag102
(g123
g104
NtRp4252
(dp4253
g107
(dp4254
g134
g135
ssg116
g4244
sg109
(lp4255
S':'
asbag102
(g123
g104
NtRp4256
(dp4257
g107
(dp4258
sg116
g4244
sg109
(lp4259
g102
(g103
g104
NtRp4260
(dp4261
g107
(dp4262
g115
I5
ssg116
g4256
sg109
(lp4263
g2007
asbasbasbag102
(g118
g104
NtRp4264
(dp4265
g107
(dp4266
sg116
g3337
sg109
(lp4267
g102
(g123
g104
NtRp4268
(dp4269
g107
(dp4270
g127
g128
ssg116
g4264
sg109
(lp4271
S'view'
p4272
asbag102
(g123
g104
NtRp4273
(dp4274
g107
(dp4275
g134
g135
ssg116
g4264
sg109
(lp4276
S':'
asbag102
(g123
g104
NtRp4277
(dp4278
g107
(dp4279
sg116
g4264
sg109
(lp4280
g102
(g103
g104
NtRp4281
(dp4282
g107
(dp4283
g115
I5
ssg116
g4277
sg109
(lp4284
S'default/final_ans.html'
p4285
asbasbasbasbasbsS'locals'
p4286
(dp4287
g59
S'<addinfourl at 139642004773848 whose fp = <socket._fileobject object>>'
p4288
sg6
S'504'
p4289
sg61
S'<httplib.HTTPMessage instance>'
p4290
sS'self'
p4291
S'<urllib2.HTTPDefaultErrorHandler instance>'
p4292
sS'req'
p4293
S'<urllib2.Request instance>'
p4294
sg55
S"'Gateway Time-out'"
p4295
sssS'traceback'
p4296
S'Traceback (most recent call last):\n  File "/home/maneesha/Downloads/web2py/gluon/restricted.py", line 205, in restricted\n    exec ccode in environment\n  File "/home/maneesha/Downloads/web2py/applications/cite_mf/controllers/default.py", line 205, in <module>\n  File "/home/maneesha/Downloads/web2py/gluon/globals.py", line 173, in <lambda>\n    self._caller = lambda f: f()\n  File "/home/maneesha/Downloads/web2py/applications/cite_mf/controllers/default.py", line 64, in final_ans\n    fst_l=extract1(url,l1)     #extracts the urls of query results and stores it in a list fst_l\n  File "/home/maneesha/Downloads/web2py/applications/cite_mf/controllers/default.py", line 28, in extract1\n    html=fetch(url) #fetches the html page of the given url ans stores it in a string html\n  File "/home/maneesha/Downloads/web2py/gluon/tools.py", line 3424, in fetch\n    html = urllib2.urlopen(req).read()\n  File "/usr/lib/python2.7/urllib2.py", line 126, in urlopen\n    return _opener.open(url, data, timeout)\n  File "/usr/lib/python2.7/urllib2.py", line 406, in open\n    response = meth(req, response)\n  File "/usr/lib/python2.7/urllib2.py", line 519, in http_response\n    \'http\', request, response, code, msg, hdrs)\n  File "/usr/lib/python2.7/urllib2.py", line 444, in error\n    return self._call_chain(*args)\n  File "/usr/lib/python2.7/urllib2.py", line 378, in _call_chain\n    result = func(*args)\n  File "/usr/lib/python2.7/urllib2.py", line 527, in http_error_default\n    raise HTTPError(req.get_full_url(), code, msg, hdrs, fp)\nHTTPError: HTTP Error 504: Gateway Time-out\n'
p4297
s.