(dp1
S'output'
p2
S"<type 'exceptions.NameError'> global name 'ret1' is not defined"
p3
sS'layer'
p4
S'/home/maneesha/Downloads/web2py/applications/cite_mf/controllers/default.py'
p5
sS'code'
p6
S'# -*- coding: utf-8 -*-\n### required - do no delete\ndef user(): return dict(form=auth())\n#def download(): return response.download(request,db)\n#def call(): return service()\n### end requires\n#def index():\n #   return dict()\n\n#def error():\n #   return dict()\nfrom gluon.tools import fetch\nimport re\nlistf=[]\n#ret1=[]\ncount=0\nbigans=[]# store the final ouput to be passed into the view\n@auth.requires_login()\ndef index():\n    form=SQLFORM(db.input) #displays the form to user for taking the input from the user\n    if form.process().accepted:\n        response.flash = \'you entred\'\n        redirect(URL(\'final_ans\'))\n    return dict(form=form)\n\n    #return dict(ans=ll1[0],l_yr=ll1[1])\ndef extract1(url,l1): #extracts the top_result urls from the first page\n    ret=[]\n    #ret1=[]\n    html=fetch(url) #fetches the html page of the given url ans stores it in a string html\n    html_splitted=html.split("<A HREF=\\"citation.cfm") #splitting the fetched string\n    ht=html_splitted[0]\n    del html_splitted[0]\n    k=html_splitted[0].split(\'>\')\n    if k[1][:-3]==l1[0]:#if the user inputs title of a paper\n        k=html_splitted[0].find(\'\\"\')\n        s="http://dl.acm.org/citation.cfm"+html_splitted[0][:k]\n        ret.append(s.split(\'&preflayout\')[0]+\'&preflayout=flat\')\n        #ret1.append(\'0\')\n        #ret1.append(\'0\')\n    else: #if user inputs some keywords\n        #ret1=[\'0\',\'1\']\n        for i in range(0,l1[2]):\n            k=html_splitted[i].find(\'\\"\')\n            s="http://dl.acm.org/citation.cfm"+html_splitted[i][:k]\n            ret.append(s.split(\'&preflayout\')[0]+\'&preflayout=flat\')\n    return ret\ndef sorting():\n    bigans=[] \n    l1=u_filter()\n    url="http://dl.acm.org/results.cfm?h=1&query="+\'+\'.join(l1[0].split())\n    fst_l=[]\n    ret1=[]\n    fst_l,ret1=extract1(url,l1)\n    rec(fst_l,l1,bigans)\n    if request.args(0)==\'0\':\n        pass\n    else:\n        bigans=sorted(bigans,key=lambda x:(x[4][6:]*360+x[4][:2]*30+x[4][3:5]),reverse=True)\n    au=db(auth.user.username==db.auth_user.username).select().first()\n    email=au.email\n    return dict(bigans=bigans,level=l1[1],top=l1[2],ret1=ret1,email=email)\ndef final_ans():\n    bigans=[] #stores the final output in a list\n    l1=u_filter() #extracting the user input in a list\n    url="http://dl.acm.org/results.cfm?h=1&query="+\'+\'.join(l1[0].split()) #forming the url\n    fst_l=[]\n    #ret1=[]\n    fst_l=extract1(url,l1)\n    rec(fst_l,l1,bigans)#recursively building bigans\n    au=db(auth.user.username==db.auth_user.username).select().first()\n    email=au.email\n    return dict(bigans=bigans,level=l1[1],top=l1[2],ret1=ret1,email=email)\ndef rec(list1,l1,bigans):\n    global count #variable for \n    count=count+1\n    global listf\n    listf.append([])\n    for x in list1:\n        if x!=\'\':\n            z=cite(x)\n            #global listf\n            #listf[count-1].append(z)\n            bigans.append(z)\n            if count < l1[1]:\n                rec(z[7],l1,bigans[-1])\n    count=count-1\n    return\ndef cite(url):\n    if url==\'\':\n        return []\n    l1=u_filter()\n    html=fetch(url)\n    temp=[]\n        #temp=[]\n    d=re.search(\'<meta name="citation_title"[\\w\\W]*?>\',html).group()\n    d=bold(d)\n        #temp.append(d.split(\'>\')[0][9:-1])\n    temp.append(d.split(\'=\')[2][1:-2])\n    temp.append(url)\n    f=re.search(\'\\"ft_gateway.cfm[\\w\\W]*?\\"\',html)\n    if f!=None:\n        f=f.group()\n        f=bold(f)\n        temp.append(\'http://dl.acm.org/\'+f[1:-1])\n    else:\n        temp.append(url)\n    c=re.search(\'<meta name="citation_authors"[\\w\\W]*?>\',html).group()\n    c=bold(c)\n    if l1[3]==1:\n       #temp.append(d.split(\'>\')[0][9:-1])\n        temp.append(c.split(\'=\')[2][1:-2])\n    else:\n        temp.append(-1)\n    b=re.search(\'<meta name="citation_date"[\\w\\W]*?>\',html).group()\n    b=bold(b)\n    if l1[5]==1:\n        temp.append(b.split(\'=\')[2][1:-2])\n    else:\n        temp.append(-1)\n    h=re.search(\'<A NAME="abstract" class="small-text">ABSTRACT[\\w\\W]*?</div>\',html)\n    if h!=None:\n        h=h.group()\n        h=bold(h)\n        if \'An abstract is not available.\' in h:\n            h1="An abstract is not available."\n        elif \'<div style=\\"display:inline\\">\' in h:\n\n            h1=h.split(\'<div style=\\"display:inline\\">\')[1]\n            h1=remove(h1)\n        else:\n            h=h.replace(\'</A></h1>\',\'\')\n            h=remove(h)\n            h1=h.split(\'>\')[1]\n            \n\n        #h.replace("<par>","")\n        #h.replace("</par>","")\n        #h.replace("<p>","")\n        #h.replace("</p>","")\n        #h.replace("<p>","")\n        #h.replace("</p>","")\n        #h1=h.split("</div>")[0]\n        #h1=h1.split(\'<div style="display:inline">\')[1]\n        #pre=""\n        #while pre!=h1:\n         #   pre=h1\n          #  h1=h1.replace("<br>","")\n        #h1=remove(h1)\n    else:\n        h1=-1\n    temp.append(h1)\n    s=re.search(\'CITED BY[\\w\\W]*?INDEX TERMS\',html).group()\n    if \'Citings are not available\' not in s:\n        e=re.search(\'\\d* Citations\',s)\n        if l1[4]!=1:\n            temp.append(-1)\n        elif e!=None:\n            temp.append(e.group().split()[0])\n        else:                                                                            \n            temp.append(1)\n        i=0\n        cit=[]\n        while i < l1[2]:\n            i+=1\n            s1=re.search(\'<a href[\\w\\W]*?</a>\',s)\n            if s1==None:\n                cit.append(\'\')\n            elif s1!=None:\n                k=s.find(s1.group())\n                #k1=s[:k]\n                cit.append(("http://dl.acm.org/"+s1.group().split(\'\\"\')[1]).split(\'&preflayout\')[0]+\'&preflayout=flat\')\n                s=s[k+2:]\n           \n        temp.append(cit)\n    else:\n        if l1[4]==1:\n            temp.append(0)\n        else:\n            temp.append(-1)\n        temp.append([])\n    return temp\ndef u_filter():\n    inpu=db().select(db.input.ALL)\n    for inp in inpu:\n        key=inp.keywords\n        level=inp.Recursion_levels\n        top=inp.Top_results\n        auth=inp.Show_author\n        cited_by=inp.Show_no_of_citations\n        year=inp.Show_release_date\n    return [key,level,top,auth,cited_by,year]\ndef bold(d):\n    pre=""\n    while pre!=d:\n        pre=d\n        d=d.replace("<b>","")\n        d=d.replace("</b>","")\n    return d\ndef remove(d):\n    pre=""\n    while pre!=d:\n        pre=d\n        d=d.replace("<p>","")\n        d=d.replace("</p>","")\n    pre=""\n    while pre!=d:\n        pre=d\n        d=d.replace("<div style=\\"display:inline\\">","")\n        d=d.replace("</div>","")\n    pre=""\n    while pre!=d:\n        pre=d\n        d=d.replace("<br>","")\n    pre=""\n    while pre!=d:\n        pre=d\n        d=d.replace("<par>","")\n        d=d.replace("</par>","")\n    return d\ndef abstract():\n    h1=request.args(0)\n    h1=XML(h1)\n    return dict(abst=h1)\ndef abstract1():\n    abss=request.args[0]\n    pre=""\n    while pre!=abss:\n        pre=abss\n        abss=abss.replace("_"," ")\n        #d=d.replace("","")\n    abss1=abss.split(".")       \n    return dict(abss1=abss1)\n\nresponse._vars=response._caller(final_ans)\n'
p7
sS'snapshot'
p8
(dp9
S'exception'
p10
(dp11
S'__hash__'
p12
S"<method-wrapper '__hash__' of exceptions.NameError object>"
p13
sS'__setattr__'
p14
S"<method-wrapper '__setattr__' of exceptions.NameError object>"
p15
sS'__reduce_ex__'
p16
S'<built-in method __reduce_ex__ of exceptions.NameError object>'
p17
sS'__getslice__'
p18
S"<method-wrapper '__getslice__' of exceptions.NameError object>"
p19
sS'__getitem__'
p20
S"<method-wrapper '__getitem__' of exceptions.NameError object>"
p21
sS'__setstate__'
p22
S'<built-in method __setstate__ of exceptions.NameError object>'
p23
sS'args'
p24
S'("global name \'ret1\' is not defined",)'
p25
sS'__reduce__'
p26
S'<built-in method __reduce__ of exceptions.NameError object>'
p27
sS'__str__'
p28
S"<method-wrapper '__str__' of exceptions.NameError object>"
p29
sS'__format__'
p30
S'<built-in method __format__ of exceptions.NameError object>'
p31
sS'__getattribute__'
p32
S"<method-wrapper '__getattribute__' of exceptions.NameError object>"
p33
sS'__class__'
p34
S"<type 'exceptions.NameError'>"
p35
sS'__unicode__'
p36
S'<built-in method __unicode__ of exceptions.NameError object>'
p37
sS'__delattr__'
p38
S"<method-wrapper '__delattr__' of exceptions.NameError object>"
p39
sS'__subclasshook__'
p40
S'<built-in method __subclasshook__ of type object>'
p41
sS'__repr__'
p42
S"<method-wrapper '__repr__' of exceptions.NameError object>"
p43
sS'__dict__'
p44
S'{}'
p45
sS'__sizeof__'
p46
S'<built-in method __sizeof__ of exceptions.NameError object>'
p47
sS'__doc__'
p48
S"'Name not found globally.'"
p49
sS'__init__'
p50
S"<method-wrapper '__init__' of exceptions.NameError object>"
p51
sS'__new__'
p52
S'<built-in method __new__ of type object>'
p53
ssS'evalue'
p54
S"global name 'ret1' is not defined"
p55
sS'request'
p56
ccopy_reg
_reconstructor
p57
(cgluon.html
BEAUTIFY
p58
c__builtin__
object
p59
NtRp60
(dp61
S'attributes'
p62
(dp63
sS'components'
p64
(lp65
g57
(cgluon.html
TABLE
p66
g59
NtRp67
(dp68
g62
(dp69
S'level'
p70
I5
ssS'parent'
p71
Nsg64
(lp72
g57
(cgluon.html
TR
p73
g59
NtRp74
(dp75
g62
(dp76
sg71
g67
sg64
(lp77
g57
(cgluon.html
TD
p78
g59
NtRp79
(dp80
g62
(dp81
S'_style'
p82
S'font-weight:bold;vertical-align:top'
p83
ssg71
g74
sg64
(lp84
S'ajax'
p85
asbag57
(g78
g59
NtRp86
(dp87
g62
(dp88
S'_valign'
p89
S'top'
p90
ssg71
g74
sg64
(lp91
S':'
asbag57
(g78
g59
NtRp92
(dp93
g62
(dp94
sg71
g74
sg64
(lp95
g57
(g58
g59
NtRp96
(dp97
g62
(dp98
g70
I5
ssg71
g92
sg64
(lp99
S'False'
p100
asbasbasbag57
(g73
g59
NtRp101
(dp102
g62
(dp103
sg71
g67
sg64
(lp104
g57
(g78
g59
NtRp105
(dp106
g62
(dp107
g82
g83
ssg71
g101
sg64
(lp108
S'application'
p109
asbag57
(g78
g59
NtRp110
(dp111
g62
(dp112
g89
g90
ssg71
g101
sg64
(lp113
S':'
asbag57
(g78
g59
NtRp114
(dp115
g62
(dp116
sg71
g101
sg64
(lp117
g57
(g58
g59
NtRp118
(dp119
g62
(dp120
g70
I5
ssg71
g114
sg64
(lp121
S'cite_mf'
p122
asbasbasbag57
(g73
g59
NtRp123
(dp124
g62
(dp125
sg71
g67
sg64
(lp126
g57
(g78
g59
NtRp127
(dp128
g62
(dp129
g82
g83
ssg71
g123
sg64
(lp130
g24
asbag57
(g78
g59
NtRp131
(dp132
g62
(dp133
g89
g90
ssg71
g123
sg64
(lp134
S':'
asbag57
(g78
g59
NtRp135
(dp136
g62
(dp137
sg71
g123
sg64
(lp138
g57
(g58
g59
NtRp139
(dp140
g62
(dp141
g70
I5
ssg71
g135
sg64
(lp142
g57
(g66
g59
NtRp143
(dp144
g62
(dp145
g70
I4
ssg71
Nsg64
(lp146
sbasbasbasbag57
(g73
g59
NtRp147
(dp148
g62
(dp149
sg71
g67
sg64
(lp150
g57
(g78
g59
NtRp151
(dp152
g62
(dp153
g82
g83
ssg71
g147
sg64
(lp154
S'body'
p155
asbag57
(g78
g59
NtRp156
(dp157
g62
(dp158
g89
g90
ssg71
g147
sg64
(lp159
S':'
asbag57
(g78
g59
NtRp160
(dp161
g62
(dp162
sg71
g147
sg64
(lp163
g57
(g58
g59
NtRp164
(dp165
g62
(dp166
g70
I5
ssg71
g160
sg64
(lp167
S'<cStringIO.StringO object at 0x7f8010c23688>'
p168
asbasbasbag57
(g73
g59
NtRp169
(dp170
g62
(dp171
sg71
g67
sg64
(lp172
g57
(g78
g59
NtRp173
(dp174
g62
(dp175
g82
g83
ssg71
g169
sg64
(lp176
S'client'
p177
asbag57
(g78
g59
NtRp178
(dp179
g62
(dp180
g89
g90
ssg71
g169
sg64
(lp181
S':'
asbag57
(g78
g59
NtRp182
(dp183
g62
(dp184
sg71
g169
sg64
(lp185
g57
(g58
g59
NtRp186
(dp187
g62
(dp188
g70
I5
ssg71
g182
sg64
(lp189
S'127.0.0.1'
p190
asbasbasbag57
(g73
g59
NtRp191
(dp192
g62
(dp193
sg71
g67
sg64
(lp194
g57
(g78
g59
NtRp195
(dp196
g62
(dp197
g82
g83
ssg71
g191
sg64
(lp198
S'controller'
p199
asbag57
(g78
g59
NtRp200
(dp201
g62
(dp202
g89
g90
ssg71
g191
sg64
(lp203
S':'
asbag57
(g78
g59
NtRp204
(dp205
g62
(dp206
sg71
g191
sg64
(lp207
g57
(g58
g59
NtRp208
(dp209
g62
(dp210
g70
I5
ssg71
g204
sg64
(lp211
S'default'
p212
asbasbasbag57
(g73
g59
NtRp213
(dp214
g62
(dp215
sg71
g67
sg64
(lp216
g57
(g78
g59
NtRp217
(dp218
g62
(dp219
g82
g83
ssg71
g213
sg64
(lp220
S'cookies'
p221
asbag57
(g78
g59
NtRp222
(dp223
g62
(dp224
g89
g90
ssg71
g213
sg64
(lp225
S':'
asbag57
(g78
g59
NtRp226
(dp227
g62
(dp228
sg71
g213
sg64
(lp229
g57
(g58
g59
NtRp230
(dp231
g62
(dp232
g70
I5
ssg71
g226
sg64
(lp233
g57
(g66
g59
NtRp234
(dp235
g62
(dp236
g70
I4
ssg71
Nsg64
(lp237
g57
(g73
g59
NtRp238
(dp239
g62
(dp240
sg71
g234
sg64
(lp241
g57
(g78
g59
NtRp242
(dp243
g62
(dp244
g82
g83
ssg71
g238
sg64
(lp245
S'session_id_admin'
p246
asbag57
(g78
g59
NtRp247
(dp248
g62
(dp249
g89
g90
ssg71
g238
sg64
(lp250
S':'
asbag57
(g78
g59
NtRp251
(dp252
g62
(dp253
sg71
g238
sg64
(lp254
g57
(g58
g59
NtRp255
(dp256
g62
(dp257
g70
I4
ssg71
g251
sg64
(lp258
g57
(g66
g59
NtRp259
(dp260
g62
(dp261
g70
I3
ssg71
Nsg64
(lp262
g57
(g73
g59
NtRp263
(dp264
g62
(dp265
sg71
g259
sg64
(lp266
g57
(g78
g59
NtRp267
(dp268
g62
(dp269
g82
g83
ssg71
g263
sg64
(lp270
S'comment'
p271
asbag57
(g78
g59
NtRp272
(dp273
g62
(dp274
g89
g90
ssg71
g263
sg64
(lp275
S':'
asbag57
(g78
g59
NtRp276
(dp277
g62
(dp278
sg71
g263
sg64
(lp279
g57
(g58
g59
NtRp280
(dp281
g62
(dp282
g70
I3
ssg71
g276
sg64
(lp283
S''
asbasbasbag57
(g73
g59
NtRp284
(dp285
g62
(dp286
sg71
g259
sg64
(lp287
g57
(g78
g59
NtRp288
(dp289
g62
(dp290
g82
g83
ssg71
g284
sg64
(lp291
S'domain'
p292
asbag57
(g78
g59
NtRp293
(dp294
g62
(dp295
g89
g90
ssg71
g284
sg64
(lp296
S':'
asbag57
(g78
g59
NtRp297
(dp298
g62
(dp299
sg71
g284
sg64
(lp300
g57
(g58
g59
NtRp301
(dp302
g62
(dp303
g70
I3
ssg71
g297
sg64
(lp304
S''
asbasbasbag57
(g73
g59
NtRp305
(dp306
g62
(dp307
sg71
g259
sg64
(lp308
g57
(g78
g59
NtRp309
(dp310
g62
(dp311
g82
g83
ssg71
g305
sg64
(lp312
S'expires'
p313
asbag57
(g78
g59
NtRp314
(dp315
g62
(dp316
g89
g90
ssg71
g305
sg64
(lp317
S':'
asbag57
(g78
g59
NtRp318
(dp319
g62
(dp320
sg71
g305
sg64
(lp321
g57
(g58
g59
NtRp322
(dp323
g62
(dp324
g70
I3
ssg71
g318
sg64
(lp325
S''
asbasbasbag57
(g73
g59
NtRp326
(dp327
g62
(dp328
sg71
g259
sg64
(lp329
g57
(g78
g59
NtRp330
(dp331
g62
(dp332
g82
g83
ssg71
g326
sg64
(lp333
S'httponly'
p334
asbag57
(g78
g59
NtRp335
(dp336
g62
(dp337
g89
g90
ssg71
g326
sg64
(lp338
S':'
asbag57
(g78
g59
NtRp339
(dp340
g62
(dp341
sg71
g326
sg64
(lp342
g57
(g58
g59
NtRp343
(dp344
g62
(dp345
g70
I3
ssg71
g339
sg64
(lp346
S''
asbasbasbag57
(g73
g59
NtRp347
(dp348
g62
(dp349
sg71
g259
sg64
(lp350
g57
(g78
g59
NtRp351
(dp352
g62
(dp353
g82
g83
ssg71
g347
sg64
(lp354
S'max-age'
p355
asbag57
(g78
g59
NtRp356
(dp357
g62
(dp358
g89
g90
ssg71
g347
sg64
(lp359
S':'
asbag57
(g78
g59
NtRp360
(dp361
g62
(dp362
sg71
g347
sg64
(lp363
g57
(g58
g59
NtRp364
(dp365
g62
(dp366
g70
I3
ssg71
g360
sg64
(lp367
S''
asbasbasbag57
(g73
g59
NtRp368
(dp369
g62
(dp370
sg71
g259
sg64
(lp371
g57
(g78
g59
NtRp372
(dp373
g62
(dp374
g82
g83
ssg71
g368
sg64
(lp375
S'path'
p376
asbag57
(g78
g59
NtRp377
(dp378
g62
(dp379
g89
g90
ssg71
g368
sg64
(lp380
S':'
asbag57
(g78
g59
NtRp381
(dp382
g62
(dp383
sg71
g368
sg64
(lp384
g57
(g58
g59
NtRp385
(dp386
g62
(dp387
g70
I3
ssg71
g381
sg64
(lp388
S''
asbasbasbag57
(g73
g59
NtRp389
(dp390
g62
(dp391
sg71
g259
sg64
(lp392
g57
(g78
g59
NtRp393
(dp394
g62
(dp395
g82
g83
ssg71
g389
sg64
(lp396
S'secure'
p397
asbag57
(g78
g59
NtRp398
(dp399
g62
(dp400
g89
g90
ssg71
g389
sg64
(lp401
S':'
asbag57
(g78
g59
NtRp402
(dp403
g62
(dp404
sg71
g389
sg64
(lp405
g57
(g58
g59
NtRp406
(dp407
g62
(dp408
g70
I3
ssg71
g402
sg64
(lp409
S''
asbasbasbag57
(g73
g59
NtRp410
(dp411
g62
(dp412
sg71
g259
sg64
(lp413
g57
(g78
g59
NtRp414
(dp415
g62
(dp416
g82
g83
ssg71
g410
sg64
(lp417
S'version'
p418
asbag57
(g78
g59
NtRp419
(dp420
g62
(dp421
g89
g90
ssg71
g410
sg64
(lp422
S':'
asbag57
(g78
g59
NtRp423
(dp424
g62
(dp425
sg71
g410
sg64
(lp426
g57
(g58
g59
NtRp427
(dp428
g62
(dp429
g70
I3
ssg71
g423
sg64
(lp430
S''
asbasbasbasbasbasbasbag57
(g73
g59
NtRp431
(dp432
g62
(dp433
sg71
g234
sg64
(lp434
g57
(g78
g59
NtRp435
(dp436
g62
(dp437
g82
g83
ssg71
g431
sg64
(lp438
S'session_id_cite_m8'
p439
asbag57
(g78
g59
NtRp440
(dp441
g62
(dp442
g89
g90
ssg71
g431
sg64
(lp443
S':'
asbag57
(g78
g59
NtRp444
(dp445
g62
(dp446
sg71
g431
sg64
(lp447
g57
(g58
g59
NtRp448
(dp449
g62
(dp450
g70
I4
ssg71
g444
sg64
(lp451
g57
(g66
g59
NtRp452
(dp453
g62
(dp454
g70
I3
ssg71
Nsg64
(lp455
g57
(g73
g59
NtRp456
(dp457
g62
(dp458
sg71
g452
sg64
(lp459
g57
(g78
g59
NtRp460
(dp461
g62
(dp462
g82
g83
ssg71
g456
sg64
(lp463
g271
asbag57
(g78
g59
NtRp464
(dp465
g62
(dp466
g89
g90
ssg71
g456
sg64
(lp467
S':'
asbag57
(g78
g59
NtRp468
(dp469
g62
(dp470
sg71
g456
sg64
(lp471
g57
(g58
g59
NtRp472
(dp473
g62
(dp474
g70
I3
ssg71
g468
sg64
(lp475
S''
asbasbasbag57
(g73
g59
NtRp476
(dp477
g62
(dp478
sg71
g452
sg64
(lp479
g57
(g78
g59
NtRp480
(dp481
g62
(dp482
g82
g83
ssg71
g476
sg64
(lp483
g292
asbag57
(g78
g59
NtRp484
(dp485
g62
(dp486
g89
g90
ssg71
g476
sg64
(lp487
S':'
asbag57
(g78
g59
NtRp488
(dp489
g62
(dp490
sg71
g476
sg64
(lp491
g57
(g58
g59
NtRp492
(dp493
g62
(dp494
g70
I3
ssg71
g488
sg64
(lp495
S''
asbasbasbag57
(g73
g59
NtRp496
(dp497
g62
(dp498
sg71
g452
sg64
(lp499
g57
(g78
g59
NtRp500
(dp501
g62
(dp502
g82
g83
ssg71
g496
sg64
(lp503
g313
asbag57
(g78
g59
NtRp504
(dp505
g62
(dp506
g89
g90
ssg71
g496
sg64
(lp507
S':'
asbag57
(g78
g59
NtRp508
(dp509
g62
(dp510
sg71
g496
sg64
(lp511
g57
(g58
g59
NtRp512
(dp513
g62
(dp514
g70
I3
ssg71
g508
sg64
(lp515
S''
asbasbasbag57
(g73
g59
NtRp516
(dp517
g62
(dp518
sg71
g452
sg64
(lp519
g57
(g78
g59
NtRp520
(dp521
g62
(dp522
g82
g83
ssg71
g516
sg64
(lp523
g334
asbag57
(g78
g59
NtRp524
(dp525
g62
(dp526
g89
g90
ssg71
g516
sg64
(lp527
S':'
asbag57
(g78
g59
NtRp528
(dp529
g62
(dp530
sg71
g516
sg64
(lp531
g57
(g58
g59
NtRp532
(dp533
g62
(dp534
g70
I3
ssg71
g528
sg64
(lp535
S''
asbasbasbag57
(g73
g59
NtRp536
(dp537
g62
(dp538
sg71
g452
sg64
(lp539
g57
(g78
g59
NtRp540
(dp541
g62
(dp542
g82
g83
ssg71
g536
sg64
(lp543
g355
asbag57
(g78
g59
NtRp544
(dp545
g62
(dp546
g89
g90
ssg71
g536
sg64
(lp547
S':'
asbag57
(g78
g59
NtRp548
(dp549
g62
(dp550
sg71
g536
sg64
(lp551
g57
(g58
g59
NtRp552
(dp553
g62
(dp554
g70
I3
ssg71
g548
sg64
(lp555
S''
asbasbasbag57
(g73
g59
NtRp556
(dp557
g62
(dp558
sg71
g452
sg64
(lp559
g57
(g78
g59
NtRp560
(dp561
g62
(dp562
g82
g83
ssg71
g556
sg64
(lp563
g376
asbag57
(g78
g59
NtRp564
(dp565
g62
(dp566
g89
g90
ssg71
g556
sg64
(lp567
S':'
asbag57
(g78
g59
NtRp568
(dp569
g62
(dp570
sg71
g556
sg64
(lp571
g57
(g58
g59
NtRp572
(dp573
g62
(dp574
g70
I3
ssg71
g568
sg64
(lp575
S''
asbasbasbag57
(g73
g59
NtRp576
(dp577
g62
(dp578
sg71
g452
sg64
(lp579
g57
(g78
g59
NtRp580
(dp581
g62
(dp582
g82
g83
ssg71
g576
sg64
(lp583
g397
asbag57
(g78
g59
NtRp584
(dp585
g62
(dp586
g89
g90
ssg71
g576
sg64
(lp587
S':'
asbag57
(g78
g59
NtRp588
(dp589
g62
(dp590
sg71
g576
sg64
(lp591
g57
(g58
g59
NtRp592
(dp593
g62
(dp594
g70
I3
ssg71
g588
sg64
(lp595
S''
asbasbasbag57
(g73
g59
NtRp596
(dp597
g62
(dp598
sg71
g452
sg64
(lp599
g57
(g78
g59
NtRp600
(dp601
g62
(dp602
g82
g83
ssg71
g596
sg64
(lp603
g418
asbag57
(g78
g59
NtRp604
(dp605
g62
(dp606
g89
g90
ssg71
g596
sg64
(lp607
S':'
asbag57
(g78
g59
NtRp608
(dp609
g62
(dp610
sg71
g596
sg64
(lp611
g57
(g58
g59
NtRp612
(dp613
g62
(dp614
g70
I3
ssg71
g608
sg64
(lp615
S''
asbasbasbasbasbasbasbag57
(g73
g59
NtRp616
(dp617
g62
(dp618
sg71
g234
sg64
(lp619
g57
(g78
g59
NtRp620
(dp621
g62
(dp622
g82
g83
ssg71
g616
sg64
(lp623
S'session_id_cite_mf'
p624
asbag57
(g78
g59
NtRp625
(dp626
g62
(dp627
g89
g90
ssg71
g616
sg64
(lp628
S':'
asbag57
(g78
g59
NtRp629
(dp630
g62
(dp631
sg71
g616
sg64
(lp632
g57
(g58
g59
NtRp633
(dp634
g62
(dp635
g70
I4
ssg71
g629
sg64
(lp636
g57
(g66
g59
NtRp637
(dp638
g62
(dp639
g70
I3
ssg71
Nsg64
(lp640
g57
(g73
g59
NtRp641
(dp642
g62
(dp643
sg71
g637
sg64
(lp644
g57
(g78
g59
NtRp645
(dp646
g62
(dp647
g82
g83
ssg71
g641
sg64
(lp648
g271
asbag57
(g78
g59
NtRp649
(dp650
g62
(dp651
g89
g90
ssg71
g641
sg64
(lp652
S':'
asbag57
(g78
g59
NtRp653
(dp654
g62
(dp655
sg71
g641
sg64
(lp656
g57
(g58
g59
NtRp657
(dp658
g62
(dp659
g70
I3
ssg71
g653
sg64
(lp660
S''
asbasbasbag57
(g73
g59
NtRp661
(dp662
g62
(dp663
sg71
g637
sg64
(lp664
g57
(g78
g59
NtRp665
(dp666
g62
(dp667
g82
g83
ssg71
g661
sg64
(lp668
g292
asbag57
(g78
g59
NtRp669
(dp670
g62
(dp671
g89
g90
ssg71
g661
sg64
(lp672
S':'
asbag57
(g78
g59
NtRp673
(dp674
g62
(dp675
sg71
g661
sg64
(lp676
g57
(g58
g59
NtRp677
(dp678
g62
(dp679
g70
I3
ssg71
g673
sg64
(lp680
S''
asbasbasbag57
(g73
g59
NtRp681
(dp682
g62
(dp683
sg71
g637
sg64
(lp684
g57
(g78
g59
NtRp685
(dp686
g62
(dp687
g82
g83
ssg71
g681
sg64
(lp688
g313
asbag57
(g78
g59
NtRp689
(dp690
g62
(dp691
g89
g90
ssg71
g681
sg64
(lp692
S':'
asbag57
(g78
g59
NtRp693
(dp694
g62
(dp695
sg71
g681
sg64
(lp696
g57
(g58
g59
NtRp697
(dp698
g62
(dp699
g70
I3
ssg71
g693
sg64
(lp700
S''
asbasbasbag57
(g73
g59
NtRp701
(dp702
g62
(dp703
sg71
g637
sg64
(lp704
g57
(g78
g59
NtRp705
(dp706
g62
(dp707
g82
g83
ssg71
g701
sg64
(lp708
g334
asbag57
(g78
g59
NtRp709
(dp710
g62
(dp711
g89
g90
ssg71
g701
sg64
(lp712
S':'
asbag57
(g78
g59
NtRp713
(dp714
g62
(dp715
sg71
g701
sg64
(lp716
g57
(g58
g59
NtRp717
(dp718
g62
(dp719
g70
I3
ssg71
g713
sg64
(lp720
S''
asbasbasbag57
(g73
g59
NtRp721
(dp722
g62
(dp723
sg71
g637
sg64
(lp724
g57
(g78
g59
NtRp725
(dp726
g62
(dp727
g82
g83
ssg71
g721
sg64
(lp728
g355
asbag57
(g78
g59
NtRp729
(dp730
g62
(dp731
g89
g90
ssg71
g721
sg64
(lp732
S':'
asbag57
(g78
g59
NtRp733
(dp734
g62
(dp735
sg71
g721
sg64
(lp736
g57
(g58
g59
NtRp737
(dp738
g62
(dp739
g70
I3
ssg71
g733
sg64
(lp740
S''
asbasbasbag57
(g73
g59
NtRp741
(dp742
g62
(dp743
sg71
g637
sg64
(lp744
g57
(g78
g59
NtRp745
(dp746
g62
(dp747
g82
g83
ssg71
g741
sg64
(lp748
g376
asbag57
(g78
g59
NtRp749
(dp750
g62
(dp751
g89
g90
ssg71
g741
sg64
(lp752
S':'
asbag57
(g78
g59
NtRp753
(dp754
g62
(dp755
sg71
g741
sg64
(lp756
g57
(g58
g59
NtRp757
(dp758
g62
(dp759
g70
I3
ssg71
g753
sg64
(lp760
S''
asbasbasbag57
(g73
g59
NtRp761
(dp762
g62
(dp763
sg71
g637
sg64
(lp764
g57
(g78
g59
NtRp765
(dp766
g62
(dp767
g82
g83
ssg71
g761
sg64
(lp768
g397
asbag57
(g78
g59
NtRp769
(dp770
g62
(dp771
g89
g90
ssg71
g761
sg64
(lp772
S':'
asbag57
(g78
g59
NtRp773
(dp774
g62
(dp775
sg71
g761
sg64
(lp776
g57
(g58
g59
NtRp777
(dp778
g62
(dp779
g70
I3
ssg71
g773
sg64
(lp780
S''
asbasbasbag57
(g73
g59
NtRp781
(dp782
g62
(dp783
sg71
g637
sg64
(lp784
g57
(g78
g59
NtRp785
(dp786
g62
(dp787
g82
g83
ssg71
g781
sg64
(lp788
g418
asbag57
(g78
g59
NtRp789
(dp790
g62
(dp791
g89
g90
ssg71
g781
sg64
(lp792
S':'
asbag57
(g78
g59
NtRp793
(dp794
g62
(dp795
sg71
g781
sg64
(lp796
g57
(g58
g59
NtRp797
(dp798
g62
(dp799
g70
I3
ssg71
g793
sg64
(lp800
S''
asbasbasbasbasbasbasbag57
(g73
g59
NtRp801
(dp802
g62
(dp803
sg71
g234
sg64
(lp804
g57
(g78
g59
NtRp805
(dp806
g62
(dp807
g82
g83
ssg71
g801
sg64
(lp808
S'session_id_welcome'
p809
asbag57
(g78
g59
NtRp810
(dp811
g62
(dp812
g89
g90
ssg71
g801
sg64
(lp813
S':'
asbag57
(g78
g59
NtRp814
(dp815
g62
(dp816
sg71
g801
sg64
(lp817
g57
(g58
g59
NtRp818
(dp819
g62
(dp820
g70
I4
ssg71
g814
sg64
(lp821
g57
(g66
g59
NtRp822
(dp823
g62
(dp824
g70
I3
ssg71
Nsg64
(lp825
g57
(g73
g59
NtRp826
(dp827
g62
(dp828
sg71
g822
sg64
(lp829
g57
(g78
g59
NtRp830
(dp831
g62
(dp832
g82
g83
ssg71
g826
sg64
(lp833
g271
asbag57
(g78
g59
NtRp834
(dp835
g62
(dp836
g89
g90
ssg71
g826
sg64
(lp837
S':'
asbag57
(g78
g59
NtRp838
(dp839
g62
(dp840
sg71
g826
sg64
(lp841
g57
(g58
g59
NtRp842
(dp843
g62
(dp844
g70
I3
ssg71
g838
sg64
(lp845
S''
asbasbasbag57
(g73
g59
NtRp846
(dp847
g62
(dp848
sg71
g822
sg64
(lp849
g57
(g78
g59
NtRp850
(dp851
g62
(dp852
g82
g83
ssg71
g846
sg64
(lp853
g292
asbag57
(g78
g59
NtRp854
(dp855
g62
(dp856
g89
g90
ssg71
g846
sg64
(lp857
S':'
asbag57
(g78
g59
NtRp858
(dp859
g62
(dp860
sg71
g846
sg64
(lp861
g57
(g58
g59
NtRp862
(dp863
g62
(dp864
g70
I3
ssg71
g858
sg64
(lp865
S''
asbasbasbag57
(g73
g59
NtRp866
(dp867
g62
(dp868
sg71
g822
sg64
(lp869
g57
(g78
g59
NtRp870
(dp871
g62
(dp872
g82
g83
ssg71
g866
sg64
(lp873
g313
asbag57
(g78
g59
NtRp874
(dp875
g62
(dp876
g89
g90
ssg71
g866
sg64
(lp877
S':'
asbag57
(g78
g59
NtRp878
(dp879
g62
(dp880
sg71
g866
sg64
(lp881
g57
(g58
g59
NtRp882
(dp883
g62
(dp884
g70
I3
ssg71
g878
sg64
(lp885
S''
asbasbasbag57
(g73
g59
NtRp886
(dp887
g62
(dp888
sg71
g822
sg64
(lp889
g57
(g78
g59
NtRp890
(dp891
g62
(dp892
g82
g83
ssg71
g886
sg64
(lp893
g334
asbag57
(g78
g59
NtRp894
(dp895
g62
(dp896
g89
g90
ssg71
g886
sg64
(lp897
S':'
asbag57
(g78
g59
NtRp898
(dp899
g62
(dp900
sg71
g886
sg64
(lp901
g57
(g58
g59
NtRp902
(dp903
g62
(dp904
g70
I3
ssg71
g898
sg64
(lp905
S''
asbasbasbag57
(g73
g59
NtRp906
(dp907
g62
(dp908
sg71
g822
sg64
(lp909
g57
(g78
g59
NtRp910
(dp911
g62
(dp912
g82
g83
ssg71
g906
sg64
(lp913
g355
asbag57
(g78
g59
NtRp914
(dp915
g62
(dp916
g89
g90
ssg71
g906
sg64
(lp917
S':'
asbag57
(g78
g59
NtRp918
(dp919
g62
(dp920
sg71
g906
sg64
(lp921
g57
(g58
g59
NtRp922
(dp923
g62
(dp924
g70
I3
ssg71
g918
sg64
(lp925
S''
asbasbasbag57
(g73
g59
NtRp926
(dp927
g62
(dp928
sg71
g822
sg64
(lp929
g57
(g78
g59
NtRp930
(dp931
g62
(dp932
g82
g83
ssg71
g926
sg64
(lp933
g376
asbag57
(g78
g59
NtRp934
(dp935
g62
(dp936
g89
g90
ssg71
g926
sg64
(lp937
S':'
asbag57
(g78
g59
NtRp938
(dp939
g62
(dp940
sg71
g926
sg64
(lp941
g57
(g58
g59
NtRp942
(dp943
g62
(dp944
g70
I3
ssg71
g938
sg64
(lp945
S''
asbasbasbag57
(g73
g59
NtRp946
(dp947
g62
(dp948
sg71
g822
sg64
(lp949
g57
(g78
g59
NtRp950
(dp951
g62
(dp952
g82
g83
ssg71
g946
sg64
(lp953
g397
asbag57
(g78
g59
NtRp954
(dp955
g62
(dp956
g89
g90
ssg71
g946
sg64
(lp957
S':'
asbag57
(g78
g59
NtRp958
(dp959
g62
(dp960
sg71
g946
sg64
(lp961
g57
(g58
g59
NtRp962
(dp963
g62
(dp964
g70
I3
ssg71
g958
sg64
(lp965
S''
asbasbasbag57
(g73
g59
NtRp966
(dp967
g62
(dp968
sg71
g822
sg64
(lp969
g57
(g78
g59
NtRp970
(dp971
g62
(dp972
g82
g83
ssg71
g966
sg64
(lp973
g418
asbag57
(g78
g59
NtRp974
(dp975
g62
(dp976
g89
g90
ssg71
g966
sg64
(lp977
S':'
asbag57
(g78
g59
NtRp978
(dp979
g62
(dp980
sg71
g966
sg64
(lp981
g57
(g58
g59
NtRp982
(dp983
g62
(dp984
g70
I3
ssg71
g978
sg64
(lp985
S''
asbasbasbasbasbasbasbasbasbasbasbag57
(g73
g59
NtRp986
(dp987
g62
(dp988
sg71
g67
sg64
(lp989
g57
(g78
g59
NtRp990
(dp991
g62
(dp992
g82
g83
ssg71
g986
sg64
(lp993
S'env'
p994
asbag57
(g78
g59
NtRp995
(dp996
g62
(dp997
g89
g90
ssg71
g986
sg64
(lp998
S':'
asbag57
(g78
g59
NtRp999
(dp1000
g62
(dp1001
sg71
g986
sg64
(lp1002
g57
(g58
g59
NtRp1003
(dp1004
g62
(dp1005
g70
I5
ssg71
g999
sg64
(lp1006
g57
(g66
g59
NtRp1007
(dp1008
g62
(dp1009
g70
I4
ssg71
Nsg64
(lp1010
g57
(g73
g59
NtRp1011
(dp1012
g62
(dp1013
sg71
g1007
sg64
(lp1014
g57
(g78
g59
NtRp1015
(dp1016
g62
(dp1017
g82
g83
ssg71
g1011
sg64
(lp1018
S'app_folders'
p1019
asbag57
(g78
g59
NtRp1020
(dp1021
g62
(dp1022
g89
g90
ssg71
g1011
sg64
(lp1023
S':'
asbag57
(g78
g59
NtRp1024
(dp1025
g62
(dp1026
sg71
g1011
sg64
(lp1027
g57
(g58
g59
NtRp1028
(dp1029
g62
(dp1030
g70
I4
ssg71
g1024
sg64
(lp1031
S"set(['/home/maneesha/Downloads/web2py/applications/welcome/', '/home/maneesha/Downloads/web2py/applications/admin/', '/home/maneesha/Downloads/web2py/applications/cite_mf/', '/home/maneesha/Downloads/web2py/applications/cite_m8/'])"
p1032
asbasbasbag57
(g73
g59
NtRp1033
(dp1034
g62
(dp1035
sg71
g1007
sg64
(lp1036
g57
(g78
g59
NtRp1037
(dp1038
g62
(dp1039
g82
g83
ssg71
g1033
sg64
(lp1040
S'applications_parent'
p1041
asbag57
(g78
g59
NtRp1042
(dp1043
g62
(dp1044
g89
g90
ssg71
g1033
sg64
(lp1045
S':'
asbag57
(g78
g59
NtRp1046
(dp1047
g62
(dp1048
sg71
g1033
sg64
(lp1049
g57
(g58
g59
NtRp1050
(dp1051
g62
(dp1052
g70
I4
ssg71
g1046
sg64
(lp1053
S'/home/maneesha/Downloads/web2py'
p1054
asbasbasbag57
(g73
g59
NtRp1055
(dp1056
g62
(dp1057
sg71
g1007
sg64
(lp1058
g57
(g78
g59
NtRp1059
(dp1060
g62
(dp1061
g82
g83
ssg71
g1055
sg64
(lp1062
S'cmd_args'
p1063
asbag57
(g78
g59
NtRp1064
(dp1065
g62
(dp1066
g89
g90
ssg71
g1055
sg64
(lp1067
S':'
asbag57
(g78
g59
NtRp1068
(dp1069
g62
(dp1070
sg71
g1055
sg64
(lp1071
g57
(g58
g59
NtRp1072
(dp1073
g62
(dp1074
g70
I4
ssg71
g1068
sg64
(lp1075
g57
(g66
g59
NtRp1076
(dp1077
g62
(dp1078
g70
I3
ssg71
Nsg64
(lp1079
sbasbasbasbag57
(g73
g59
NtRp1080
(dp1081
g62
(dp1082
sg71
g1007
sg64
(lp1083
g57
(g78
g59
NtRp1084
(dp1085
g62
(dp1086
g82
g83
ssg71
g1080
sg64
(lp1087
S'cmd_options'
p1088
asbag57
(g78
g59
NtRp1089
(dp1090
g62
(dp1091
g89
g90
ssg71
g1080
sg64
(lp1092
S':'
asbag57
(g78
g59
NtRp1093
(dp1094
g62
(dp1095
sg71
g1080
sg64
(lp1096
g57
(g58
g59
NtRp1097
(dp1098
g62
(dp1099
g70
I4
ssg71
g1093
sg64
(lp1100
S"<Values at 0x2f4db00: {'verbose': False, 'ip': '127.0.0.1', 'shutdown_timeout': 5, 'taskbar': False, 'nocron': False, 'pid_filename': 'httpserver.pid', 'maxthreads': None, 'softcron': False, 'server_name': 'maneesha-Inspiron-N5050', 'bpython': False, 'nogui': False, 'port': 8000, 'extcron': False, 'debuglevel': 30, 'test': None, 'folder': '/home/maneesha/Downloads/web2py', 'config': '', 'import_models': False, 'winservice': '', 'shell': None, 'run': '', 'log_filename': 'httpserver.log', 'args': [''], 'socket_timeout': 5, 'ssl_ca_certificate': None, 'scheduler': None, 'profiler_filename': None, 'ssl_private_key': '', 'password': '<ask>', 'request_queue_size': 5, 'ssl_certificate': '', 'cronjob': False, 'numthreads': None, 'quiet': False, 'interfaces': None, 'minthreads': None, 'timeout': 10, 'plain': False, 'nobanner': False}>"
p1101
asbasbasbag57
(g73
g59
NtRp1102
(dp1103
g62
(dp1104
sg71
g1007
sg64
(lp1105
g57
(g78
g59
NtRp1106
(dp1107
g62
(dp1108
g82
g83
ssg71
g1102
sg64
(lp1109
S'db_sessions'
p1110
asbag57
(g78
g59
NtRp1111
(dp1112
g62
(dp1113
g89
g90
ssg71
g1102
sg64
(lp1114
S':'
asbag57
(g78
g59
NtRp1115
(dp1116
g62
(dp1117
sg71
g1102
sg64
(lp1118
g57
(g58
g59
NtRp1119
(dp1120
g62
(dp1121
g70
I4
ssg71
g1115
sg64
(lp1122
S'set([])'
p1123
asbasbasbag57
(g73
g59
NtRp1124
(dp1125
g62
(dp1126
sg71
g1007
sg64
(lp1127
g57
(g78
g59
NtRp1128
(dp1129
g62
(dp1130
g82
g83
ssg71
g1124
sg64
(lp1131
S'debugging'
p1132
asbag57
(g78
g59
NtRp1133
(dp1134
g62
(dp1135
g89
g90
ssg71
g1124
sg64
(lp1136
S':'
asbag57
(g78
g59
NtRp1137
(dp1138
g62
(dp1139
sg71
g1124
sg64
(lp1140
g57
(g58
g59
NtRp1141
(dp1142
g62
(dp1143
g70
I4
ssg71
g1137
sg64
(lp1144
g100
asbasbasbag57
(g73
g59
NtRp1145
(dp1146
g62
(dp1147
sg71
g1007
sg64
(lp1148
g57
(g78
g59
NtRp1149
(dp1150
g62
(dp1151
g82
g83
ssg71
g1145
sg64
(lp1152
S'gluon_parent'
p1153
asbag57
(g78
g59
NtRp1154
(dp1155
g62
(dp1156
g89
g90
ssg71
g1145
sg64
(lp1157
S':'
asbag57
(g78
g59
NtRp1158
(dp1159
g62
(dp1160
sg71
g1145
sg64
(lp1161
g57
(g58
g59
NtRp1162
(dp1163
g62
(dp1164
g70
I4
ssg71
g1158
sg64
(lp1165
S'/home/maneesha/Downloads/web2py'
p1166
asbasbasbag57
(g73
g59
NtRp1167
(dp1168
g62
(dp1169
sg71
g1007
sg64
(lp1170
g57
(g78
g59
NtRp1171
(dp1172
g62
(dp1173
g82
g83
ssg71
g1167
sg64
(lp1174
S'http_accept'
p1175
asbag57
(g78
g59
NtRp1176
(dp1177
g62
(dp1178
g89
g90
ssg71
g1167
sg64
(lp1179
S':'
asbag57
(g78
g59
NtRp1180
(dp1181
g62
(dp1182
sg71
g1167
sg64
(lp1183
g57
(g58
g59
NtRp1184
(dp1185
g62
(dp1186
g70
I4
ssg71
g1180
sg64
(lp1187
S'text/html,application/xhtml+xml,application/xml;q=0.9,*/*;q=0.8'
p1188
asbasbasbag57
(g73
g59
NtRp1189
(dp1190
g62
(dp1191
sg71
g1007
sg64
(lp1192
g57
(g78
g59
NtRp1193
(dp1194
g62
(dp1195
g82
g83
ssg71
g1189
sg64
(lp1196
S'http_accept_encoding'
p1197
asbag57
(g78
g59
NtRp1198
(dp1199
g62
(dp1200
g89
g90
ssg71
g1189
sg64
(lp1201
S':'
asbag57
(g78
g59
NtRp1202
(dp1203
g62
(dp1204
sg71
g1189
sg64
(lp1205
g57
(g58
g59
NtRp1206
(dp1207
g62
(dp1208
g70
I4
ssg71
g1202
sg64
(lp1209
S'gzip, deflate'
p1210
asbasbasbag57
(g73
g59
NtRp1211
(dp1212
g62
(dp1213
sg71
g1007
sg64
(lp1214
g57
(g78
g59
NtRp1215
(dp1216
g62
(dp1217
g82
g83
ssg71
g1211
sg64
(lp1218
S'http_accept_language'
p1219
asbag57
(g78
g59
NtRp1220
(dp1221
g62
(dp1222
g89
g90
ssg71
g1211
sg64
(lp1223
S':'
asbag57
(g78
g59
NtRp1224
(dp1225
g62
(dp1226
sg71
g1211
sg64
(lp1227
g57
(g58
g59
NtRp1228
(dp1229
g62
(dp1230
g70
I4
ssg71
g1224
sg64
(lp1231
S'en-US,en;q=0.5'
p1232
asbasbasbag57
(g73
g59
NtRp1233
(dp1234
g62
(dp1235
sg71
g1007
sg64
(lp1236
g57
(g78
g59
NtRp1237
(dp1238
g62
(dp1239
g82
g83
ssg71
g1233
sg64
(lp1240
S'http_connection'
p1241
asbag57
(g78
g59
NtRp1242
(dp1243
g62
(dp1244
g89
g90
ssg71
g1233
sg64
(lp1245
S':'
asbag57
(g78
g59
NtRp1246
(dp1247
g62
(dp1248
sg71
g1233
sg64
(lp1249
g57
(g58
g59
NtRp1250
(dp1251
g62
(dp1252
g70
I4
ssg71
g1246
sg64
(lp1253
S'keep-alive'
p1254
asbasbasbag57
(g73
g59
NtRp1255
(dp1256
g62
(dp1257
sg71
g1007
sg64
(lp1258
g57
(g78
g59
NtRp1259
(dp1260
g62
(dp1261
g82
g83
ssg71
g1255
sg64
(lp1262
S'http_cookie'
p1263
asbag57
(g78
g59
NtRp1264
(dp1265
g62
(dp1266
g89
g90
ssg71
g1255
sg64
(lp1267
S':'
asbag57
(g78
g59
NtRp1268
(dp1269
g62
(dp1270
sg71
g1255
sg64
(lp1271
g57
(g58
g59
NtRp1272
(dp1273
g62
(dp1274
g70
I4
ssg71
g1268
sg64
(lp1275
S'session_id_welcome=127.0.0.1-dc970280-0194-4b17-95f0-c442c3b3a8f9; session_id_admin=127.0.0.1-1fe6f1ce-0ab4-4344-aeef-773a4829fae1; session_id_cite_m8=127.0.0.1-6c4b3726-c7b0-46a0-81df-906bd99b72ff; session_id_cite_mf=127.0.0.1-7cb1e4c9-a21f-4e32-a52f-6a7c59380bf6'
p1276
asbasbasbag57
(g73
g59
NtRp1277
(dp1278
g62
(dp1279
sg71
g1007
sg64
(lp1280
g57
(g78
g59
NtRp1281
(dp1282
g62
(dp1283
g82
g83
ssg71
g1277
sg64
(lp1284
S'http_host'
p1285
asbag57
(g78
g59
NtRp1286
(dp1287
g62
(dp1288
g89
g90
ssg71
g1277
sg64
(lp1289
S':'
asbag57
(g78
g59
NtRp1290
(dp1291
g62
(dp1292
sg71
g1277
sg64
(lp1293
g57
(g58
g59
NtRp1294
(dp1295
g62
(dp1296
g70
I4
ssg71
g1290
sg64
(lp1297
S'127.0.0.1:8000'
p1298
asbasbasbag57
(g73
g59
NtRp1299
(dp1300
g62
(dp1301
sg71
g1007
sg64
(lp1302
g57
(g78
g59
NtRp1303
(dp1304
g62
(dp1305
g82
g83
ssg71
g1299
sg64
(lp1306
S'http_referer'
p1307
asbag57
(g78
g59
NtRp1308
(dp1309
g62
(dp1310
g89
g90
ssg71
g1299
sg64
(lp1311
S':'
asbag57
(g78
g59
NtRp1312
(dp1313
g62
(dp1314
sg71
g1299
sg64
(lp1315
g57
(g58
g59
NtRp1316
(dp1317
g62
(dp1318
g70
I4
ssg71
g1312
sg64
(lp1319
S'http://127.0.0.1:8000/cite_mf/default/index'
p1320
asbasbasbag57
(g73
g59
NtRp1321
(dp1322
g62
(dp1323
sg71
g1007
sg64
(lp1324
g57
(g78
g59
NtRp1325
(dp1326
g62
(dp1327
g82
g83
ssg71
g1321
sg64
(lp1328
S'http_user_agent'
p1329
asbag57
(g78
g59
NtRp1330
(dp1331
g62
(dp1332
g89
g90
ssg71
g1321
sg64
(lp1333
S':'
asbag57
(g78
g59
NtRp1334
(dp1335
g62
(dp1336
sg71
g1321
sg64
(lp1337
g57
(g58
g59
NtRp1338
(dp1339
g62
(dp1340
g70
I4
ssg71
g1334
sg64
(lp1341
S'Mozilla/5.0 (X11; Ubuntu; Linux x86_64; rv:16.0) Gecko/20100101 Firefox/16.0'
p1342
asbasbasbag57
(g73
g59
NtRp1343
(dp1344
g62
(dp1345
sg71
g1007
sg64
(lp1346
g57
(g78
g59
NtRp1347
(dp1348
g62
(dp1349
g82
g83
ssg71
g1343
sg64
(lp1350
S'is_jython'
p1351
asbag57
(g78
g59
NtRp1352
(dp1353
g62
(dp1354
g89
g90
ssg71
g1343
sg64
(lp1355
S':'
asbag57
(g78
g59
NtRp1356
(dp1357
g62
(dp1358
sg71
g1343
sg64
(lp1359
g57
(g58
g59
NtRp1360
(dp1361
g62
(dp1362
g70
I4
ssg71
g1356
sg64
(lp1363
g100
asbasbasbag57
(g73
g59
NtRp1364
(dp1365
g62
(dp1366
sg71
g1007
sg64
(lp1367
g57
(g78
g59
NtRp1368
(dp1369
g62
(dp1370
g82
g83
ssg71
g1364
sg64
(lp1371
S'is_pypy'
p1372
asbag57
(g78
g59
NtRp1373
(dp1374
g62
(dp1375
g89
g90
ssg71
g1364
sg64
(lp1376
S':'
asbag57
(g78
g59
NtRp1377
(dp1378
g62
(dp1379
sg71
g1364
sg64
(lp1380
g57
(g58
g59
NtRp1381
(dp1382
g62
(dp1383
g70
I4
ssg71
g1377
sg64
(lp1384
g100
asbasbasbag57
(g73
g59
NtRp1385
(dp1386
g62
(dp1387
sg71
g1007
sg64
(lp1388
g57
(g78
g59
NtRp1389
(dp1390
g62
(dp1391
g82
g83
ssg71
g1385
sg64
(lp1392
S'path_info'
p1393
asbag57
(g78
g59
NtRp1394
(dp1395
g62
(dp1396
g89
g90
ssg71
g1385
sg64
(lp1397
S':'
asbag57
(g78
g59
NtRp1398
(dp1399
g62
(dp1400
sg71
g1385
sg64
(lp1401
g57
(g58
g59
NtRp1402
(dp1403
g62
(dp1404
g70
I4
ssg71
g1398
sg64
(lp1405
S'/cite_mf/default/final_ans'
p1406
asbasbasbag57
(g73
g59
NtRp1407
(dp1408
g62
(dp1409
sg71
g1007
sg64
(lp1410
g57
(g78
g59
NtRp1411
(dp1412
g62
(dp1413
g82
g83
ssg71
g1407
sg64
(lp1414
S'query_string'
p1415
asbag57
(g78
g59
NtRp1416
(dp1417
g62
(dp1418
g89
g90
ssg71
g1407
sg64
(lp1419
S':'
asbag57
(g78
g59
NtRp1420
(dp1421
g62
(dp1422
sg71
g1407
sg64
(lp1423
g57
(g58
g59
NtRp1424
(dp1425
g62
(dp1426
g70
I4
ssg71
g1420
sg64
(lp1427
S''
asbasbasbag57
(g73
g59
NtRp1428
(dp1429
g62
(dp1430
sg71
g1007
sg64
(lp1431
g57
(g78
g59
NtRp1432
(dp1433
g62
(dp1434
g82
g83
ssg71
g1428
sg64
(lp1435
S'remote_addr'
p1436
asbag57
(g78
g59
NtRp1437
(dp1438
g62
(dp1439
g89
g90
ssg71
g1428
sg64
(lp1440
S':'
asbag57
(g78
g59
NtRp1441
(dp1442
g62
(dp1443
sg71
g1428
sg64
(lp1444
g57
(g58
g59
NtRp1445
(dp1446
g62
(dp1447
g70
I4
ssg71
g1441
sg64
(lp1448
g190
asbasbasbag57
(g73
g59
NtRp1449
(dp1450
g62
(dp1451
sg71
g1007
sg64
(lp1452
g57
(g78
g59
NtRp1453
(dp1454
g62
(dp1455
g82
g83
ssg71
g1449
sg64
(lp1456
S'remote_port'
p1457
asbag57
(g78
g59
NtRp1458
(dp1459
g62
(dp1460
g89
g90
ssg71
g1449
sg64
(lp1461
S':'
asbag57
(g78
g59
NtRp1462
(dp1463
g62
(dp1464
sg71
g1449
sg64
(lp1465
g57
(g58
g59
NtRp1466
(dp1467
g62
(dp1468
g70
I4
ssg71
g1462
sg64
(lp1469
S'49662'
p1470
asbasbasbag57
(g73
g59
NtRp1471
(dp1472
g62
(dp1473
sg71
g1007
sg64
(lp1474
g57
(g78
g59
NtRp1475
(dp1476
g62
(dp1477
g82
g83
ssg71
g1471
sg64
(lp1478
S'request_method'
p1479
asbag57
(g78
g59
NtRp1480
(dp1481
g62
(dp1482
g89
g90
ssg71
g1471
sg64
(lp1483
S':'
asbag57
(g78
g59
NtRp1484
(dp1485
g62
(dp1486
sg71
g1471
sg64
(lp1487
g57
(g58
g59
NtRp1488
(dp1489
g62
(dp1490
g70
I4
ssg71
g1484
sg64
(lp1491
S'GET'
p1492
asbasbasbag57
(g73
g59
NtRp1493
(dp1494
g62
(dp1495
sg71
g1007
sg64
(lp1496
g57
(g78
g59
NtRp1497
(dp1498
g62
(dp1499
g82
g83
ssg71
g1493
sg64
(lp1500
S'script_name'
p1501
asbag57
(g78
g59
NtRp1502
(dp1503
g62
(dp1504
g89
g90
ssg71
g1493
sg64
(lp1505
S':'
asbag57
(g78
g59
NtRp1506
(dp1507
g62
(dp1508
sg71
g1493
sg64
(lp1509
g57
(g58
g59
NtRp1510
(dp1511
g62
(dp1512
g70
I4
ssg71
g1506
sg64
(lp1513
S''
asbasbasbag57
(g73
g59
NtRp1514
(dp1515
g62
(dp1516
sg71
g1007
sg64
(lp1517
g57
(g78
g59
NtRp1518
(dp1519
g62
(dp1520
g82
g83
ssg71
g1514
sg64
(lp1521
S'server_name'
p1522
asbag57
(g78
g59
NtRp1523
(dp1524
g62
(dp1525
g89
g90
ssg71
g1514
sg64
(lp1526
S':'
asbag57
(g78
g59
NtRp1527
(dp1528
g62
(dp1529
sg71
g1514
sg64
(lp1530
g57
(g58
g59
NtRp1531
(dp1532
g62
(dp1533
g70
I4
ssg71
g1527
sg64
(lp1534
S'maneesha-Inspiron-N5050'
p1535
asbasbasbag57
(g73
g59
NtRp1536
(dp1537
g62
(dp1538
sg71
g1007
sg64
(lp1539
g57
(g78
g59
NtRp1540
(dp1541
g62
(dp1542
g82
g83
ssg71
g1536
sg64
(lp1543
S'server_port'
p1544
asbag57
(g78
g59
NtRp1545
(dp1546
g62
(dp1547
g89
g90
ssg71
g1536
sg64
(lp1548
S':'
asbag57
(g78
g59
NtRp1549
(dp1550
g62
(dp1551
sg71
g1536
sg64
(lp1552
g57
(g58
g59
NtRp1553
(dp1554
g62
(dp1555
g70
I4
ssg71
g1549
sg64
(lp1556
S'8000'
p1557
asbasbasbag57
(g73
g59
NtRp1558
(dp1559
g62
(dp1560
sg71
g1007
sg64
(lp1561
g57
(g78
g59
NtRp1562
(dp1563
g62
(dp1564
g82
g83
ssg71
g1558
sg64
(lp1565
S'server_protocol'
p1566
asbag57
(g78
g59
NtRp1567
(dp1568
g62
(dp1569
g89
g90
ssg71
g1558
sg64
(lp1570
S':'
asbag57
(g78
g59
NtRp1571
(dp1572
g62
(dp1573
sg71
g1558
sg64
(lp1574
g57
(g58
g59
NtRp1575
(dp1576
g62
(dp1577
g70
I4
ssg71
g1571
sg64
(lp1578
S'HTTP/1.1'
p1579
asbasbasbag57
(g73
g59
NtRp1580
(dp1581
g62
(dp1582
sg71
g1007
sg64
(lp1583
g57
(g78
g59
NtRp1584
(dp1585
g62
(dp1586
g82
g83
ssg71
g1580
sg64
(lp1587
S'server_software'
p1588
asbag57
(g78
g59
NtRp1589
(dp1590
g62
(dp1591
g89
g90
ssg71
g1580
sg64
(lp1592
S':'
asbag57
(g78
g59
NtRp1593
(dp1594
g62
(dp1595
sg71
g1580
sg64
(lp1596
g57
(g58
g59
NtRp1597
(dp1598
g62
(dp1599
g70
I4
ssg71
g1593
sg64
(lp1600
S'Rocket 1.2.4'
p1601
asbasbasbag57
(g73
g59
NtRp1602
(dp1603
g62
(dp1604
sg71
g1007
sg64
(lp1605
g57
(g78
g59
NtRp1606
(dp1607
g62
(dp1608
g82
g83
ssg71
g1602
sg64
(lp1609
S'web2py_crontype'
p1610
asbag57
(g78
g59
NtRp1611
(dp1612
g62
(dp1613
g89
g90
ssg71
g1602
sg64
(lp1614
S':'
asbag57
(g78
g59
NtRp1615
(dp1616
g62
(dp1617
sg71
g1602
sg64
(lp1618
g57
(g58
g59
NtRp1619
(dp1620
g62
(dp1621
g70
I4
ssg71
g1615
sg64
(lp1622
S'hard'
p1623
asbasbasbag57
(g73
g59
NtRp1624
(dp1625
g62
(dp1626
sg71
g1007
sg64
(lp1627
g57
(g78
g59
NtRp1628
(dp1629
g62
(dp1630
g82
g83
ssg71
g1624
sg64
(lp1631
S'web2py_path'
p1632
asbag57
(g78
g59
NtRp1633
(dp1634
g62
(dp1635
g89
g90
ssg71
g1624
sg64
(lp1636
S':'
asbag57
(g78
g59
NtRp1637
(dp1638
g62
(dp1639
sg71
g1624
sg64
(lp1640
g57
(g58
g59
NtRp1641
(dp1642
g62
(dp1643
g70
I4
ssg71
g1637
sg64
(lp1644
g1054
asbasbasbag57
(g73
g59
NtRp1645
(dp1646
g62
(dp1647
sg71
g1007
sg64
(lp1648
g57
(g78
g59
NtRp1649
(dp1650
g62
(dp1651
g82
g83
ssg71
g1645
sg64
(lp1652
S'web2py_version'
p1653
asbag57
(g78
g59
NtRp1654
(dp1655
g62
(dp1656
g89
g90
ssg71
g1645
sg64
(lp1657
S':'
asbag57
(g78
g59
NtRp1658
(dp1659
g62
(dp1660
sg71
g1645
sg64
(lp1661
g57
(g58
g59
NtRp1662
(dp1663
g62
(dp1664
g70
I4
ssg71
g1658
sg64
(lp1665
g57
(g66
g59
NtRp1666
(dp1667
g62
(dp1668
g70
I3
ssg71
Nsg64
(lp1669
g57
(g73
g59
NtRp1670
(dp1671
g62
(dp1672
sg71
g1666
sg64
(lp1673
g57
(g78
g59
NtRp1674
(dp1675
g62
(dp1676
sg71
g1670
sg64
(lp1677
g57
(g58
g59
NtRp1678
(dp1679
g62
(dp1680
g70
I3
ssg71
g1674
sg64
(lp1681
S'1'
asbasbasbag57
(g73
g59
NtRp1682
(dp1683
g62
(dp1684
sg71
g1666
sg64
(lp1685
g57
(g78
g59
NtRp1686
(dp1687
g62
(dp1688
sg71
g1682
sg64
(lp1689
g57
(g58
g59
NtRp1690
(dp1691
g62
(dp1692
g70
I3
ssg71
g1686
sg64
(lp1693
S'99'
p1694
asbasbasbag57
(g73
g59
NtRp1695
(dp1696
g62
(dp1697
sg71
g1666
sg64
(lp1698
g57
(g78
g59
NtRp1699
(dp1700
g62
(dp1701
sg71
g1695
sg64
(lp1702
g57
(g58
g59
NtRp1703
(dp1704
g62
(dp1705
g70
I3
ssg71
g1699
sg64
(lp1706
S'7'
asbasbasbag57
(g73
g59
NtRp1707
(dp1708
g62
(dp1709
sg71
g1666
sg64
(lp1710
g57
(g78
g59
NtRp1711
(dp1712
g62
(dp1713
sg71
g1707
sg64
(lp1714
g57
(g58
g59
NtRp1715
(dp1716
g62
(dp1717
g70
I3
ssg71
g1711
sg64
(lp1718
S'datetime.datetime(2012, 3, 4, 22, 12, 8)'
p1719
asbasbasbag57
(g73
g59
NtRp1720
(dp1721
g62
(dp1722
sg71
g1666
sg64
(lp1723
g57
(g78
g59
NtRp1724
(dp1725
g62
(dp1726
sg71
g1720
sg64
(lp1727
g57
(g58
g59
NtRp1728
(dp1729
g62
(dp1730
g70
I3
ssg71
g1724
sg64
(lp1731
S'stable'
p1732
asbasbasbasbasbasbasbag57
(g73
g59
NtRp1733
(dp1734
g62
(dp1735
sg71
g1007
sg64
(lp1736
g57
(g78
g59
NtRp1737
(dp1738
g62
(dp1739
g82
g83
ssg71
g1733
sg64
(lp1740
S'wsgi_errors'
p1741
asbag57
(g78
g59
NtRp1742
(dp1743
g62
(dp1744
g89
g90
ssg71
g1733
sg64
(lp1745
S':'
asbag57
(g78
g59
NtRp1746
(dp1747
g62
(dp1748
sg71
g1733
sg64
(lp1749
g57
(g58
g59
NtRp1750
(dp1751
g62
(dp1752
g70
I4
ssg71
g1746
sg64
(lp1753
S"<open file '<stderr>', mode 'w' at 0x7f8068254270>"
p1754
asbasbasbag57
(g73
g59
NtRp1755
(dp1756
g62
(dp1757
sg71
g1007
sg64
(lp1758
g57
(g78
g59
NtRp1759
(dp1760
g62
(dp1761
g82
g83
ssg71
g1755
sg64
(lp1762
S'wsgi_file_wrapper'
p1763
asbag57
(g78
g59
NtRp1764
(dp1765
g62
(dp1766
g89
g90
ssg71
g1755
sg64
(lp1767
S':'
asbag57
(g78
g59
NtRp1768
(dp1769
g62
(dp1770
sg71
g1755
sg64
(lp1771
g57
(g58
g59
NtRp1772
(dp1773
g62
(dp1774
g70
I4
ssg71
g1768
sg64
(lp1775
S'<class wsgiref.util.FileWrapper at 0x2e1def0>'
p1776
asbasbasbag57
(g73
g59
NtRp1777
(dp1778
g62
(dp1779
sg71
g1007
sg64
(lp1780
g57
(g78
g59
NtRp1781
(dp1782
g62
(dp1783
g82
g83
ssg71
g1777
sg64
(lp1784
S'wsgi_input'
p1785
asbag57
(g78
g59
NtRp1786
(dp1787
g62
(dp1788
g89
g90
ssg71
g1777
sg64
(lp1789
S':'
asbag57
(g78
g59
NtRp1790
(dp1791
g62
(dp1792
sg71
g1777
sg64
(lp1793
g57
(g58
g59
NtRp1794
(dp1795
g62
(dp1796
g70
I4
ssg71
g1790
sg64
(lp1797
S'<socket._fileobject object at 0x7f802c3015d0>'
p1798
asbasbasbag57
(g73
g59
NtRp1799
(dp1800
g62
(dp1801
sg71
g1007
sg64
(lp1802
g57
(g78
g59
NtRp1803
(dp1804
g62
(dp1805
g82
g83
ssg71
g1799
sg64
(lp1806
S'wsgi_multiprocess'
p1807
asbag57
(g78
g59
NtRp1808
(dp1809
g62
(dp1810
g89
g90
ssg71
g1799
sg64
(lp1811
S':'
asbag57
(g78
g59
NtRp1812
(dp1813
g62
(dp1814
sg71
g1799
sg64
(lp1815
g57
(g58
g59
NtRp1816
(dp1817
g62
(dp1818
g70
I4
ssg71
g1812
sg64
(lp1819
g100
asbasbasbag57
(g73
g59
NtRp1820
(dp1821
g62
(dp1822
sg71
g1007
sg64
(lp1823
g57
(g78
g59
NtRp1824
(dp1825
g62
(dp1826
g82
g83
ssg71
g1820
sg64
(lp1827
S'wsgi_multithread'
p1828
asbag57
(g78
g59
NtRp1829
(dp1830
g62
(dp1831
g89
g90
ssg71
g1820
sg64
(lp1832
S':'
asbag57
(g78
g59
NtRp1833
(dp1834
g62
(dp1835
sg71
g1820
sg64
(lp1836
g57
(g58
g59
NtRp1837
(dp1838
g62
(dp1839
g70
I4
ssg71
g1833
sg64
(lp1840
S'True'
p1841
asbasbasbag57
(g73
g59
NtRp1842
(dp1843
g62
(dp1844
sg71
g1007
sg64
(lp1845
g57
(g78
g59
NtRp1846
(dp1847
g62
(dp1848
g82
g83
ssg71
g1842
sg64
(lp1849
S'wsgi_run_once'
p1850
asbag57
(g78
g59
NtRp1851
(dp1852
g62
(dp1853
g89
g90
ssg71
g1842
sg64
(lp1854
S':'
asbag57
(g78
g59
NtRp1855
(dp1856
g62
(dp1857
sg71
g1842
sg64
(lp1858
g57
(g58
g59
NtRp1859
(dp1860
g62
(dp1861
g70
I4
ssg71
g1855
sg64
(lp1862
g100
asbasbasbag57
(g73
g59
NtRp1863
(dp1864
g62
(dp1865
sg71
g1007
sg64
(lp1866
g57
(g78
g59
NtRp1867
(dp1868
g62
(dp1869
g82
g83
ssg71
g1863
sg64
(lp1870
S'wsgi_url_scheme'
p1871
asbag57
(g78
g59
NtRp1872
(dp1873
g62
(dp1874
g89
g90
ssg71
g1863
sg64
(lp1875
S':'
asbag57
(g78
g59
NtRp1876
(dp1877
g62
(dp1878
sg71
g1863
sg64
(lp1879
g57
(g58
g59
NtRp1880
(dp1881
g62
(dp1882
g70
I4
ssg71
g1876
sg64
(lp1883
S'http'
p1884
asbasbasbag57
(g73
g59
NtRp1885
(dp1886
g62
(dp1887
sg71
g1007
sg64
(lp1888
g57
(g78
g59
NtRp1889
(dp1890
g62
(dp1891
g82
g83
ssg71
g1885
sg64
(lp1892
S'wsgi_version'
p1893
asbag57
(g78
g59
NtRp1894
(dp1895
g62
(dp1896
g89
g90
ssg71
g1885
sg64
(lp1897
S':'
asbag57
(g78
g59
NtRp1898
(dp1899
g62
(dp1900
sg71
g1885
sg64
(lp1901
g57
(g58
g59
NtRp1902
(dp1903
g62
(dp1904
g70
I4
ssg71
g1898
sg64
(lp1905
g57
(g66
g59
NtRp1906
(dp1907
g62
(dp1908
g70
I3
ssg71
Nsg64
(lp1909
g57
(g73
g59
NtRp1910
(dp1911
g62
(dp1912
sg71
g1906
sg64
(lp1913
g57
(g78
g59
NtRp1914
(dp1915
g62
(dp1916
sg71
g1910
sg64
(lp1917
g57
(g58
g59
NtRp1918
(dp1919
g62
(dp1920
g70
I3
ssg71
g1914
sg64
(lp1921
S'1'
asbasbasbag57
(g73
g59
NtRp1922
(dp1923
g62
(dp1924
sg71
g1906
sg64
(lp1925
g57
(g78
g59
NtRp1926
(dp1927
g62
(dp1928
sg71
g1922
sg64
(lp1929
g57
(g58
g59
NtRp1930
(dp1931
g62
(dp1932
g70
I3
ssg71
g1926
sg64
(lp1933
S'0'
asbasbasbasbasbasbasbasbasbasbasbag57
(g73
g59
NtRp1934
(dp1935
g62
(dp1936
sg71
g67
sg64
(lp1937
g57
(g78
g59
NtRp1938
(dp1939
g62
(dp1940
g82
g83
ssg71
g1934
sg64
(lp1941
S'extension'
p1942
asbag57
(g78
g59
NtRp1943
(dp1944
g62
(dp1945
g89
g90
ssg71
g1934
sg64
(lp1946
S':'
asbag57
(g78
g59
NtRp1947
(dp1948
g62
(dp1949
sg71
g1934
sg64
(lp1950
g57
(g58
g59
NtRp1951
(dp1952
g62
(dp1953
g70
I5
ssg71
g1947
sg64
(lp1954
S'html'
p1955
asbasbasbag57
(g73
g59
NtRp1956
(dp1957
g62
(dp1958
sg71
g67
sg64
(lp1959
g57
(g78
g59
NtRp1960
(dp1961
g62
(dp1962
g82
g83
ssg71
g1956
sg64
(lp1963
S'folder'
p1964
asbag57
(g78
g59
NtRp1965
(dp1966
g62
(dp1967
g89
g90
ssg71
g1956
sg64
(lp1968
S':'
asbag57
(g78
g59
NtRp1969
(dp1970
g62
(dp1971
sg71
g1956
sg64
(lp1972
g57
(g58
g59
NtRp1973
(dp1974
g62
(dp1975
g70
I5
ssg71
g1969
sg64
(lp1976
S'/home/maneesha/Downloads/web2py/applications/cite_mf/'
p1977
asbasbasbag57
(g73
g59
NtRp1978
(dp1979
g62
(dp1980
sg71
g67
sg64
(lp1981
g57
(g78
g59
NtRp1982
(dp1983
g62
(dp1984
g82
g83
ssg71
g1978
sg64
(lp1985
S'function'
p1986
asbag57
(g78
g59
NtRp1987
(dp1988
g62
(dp1989
g89
g90
ssg71
g1978
sg64
(lp1990
S':'
asbag57
(g78
g59
NtRp1991
(dp1992
g62
(dp1993
sg71
g1978
sg64
(lp1994
g57
(g58
g59
NtRp1995
(dp1996
g62
(dp1997
g70
I5
ssg71
g1991
sg64
(lp1998
S'final_ans'
p1999
asbasbasbag57
(g73
g59
NtRp2000
(dp2001
g62
(dp2002
sg71
g67
sg64
(lp2003
g57
(g78
g59
NtRp2004
(dp2005
g62
(dp2006
g82
g83
ssg71
g2000
sg64
(lp2007
S'get_vars'
p2008
asbag57
(g78
g59
NtRp2009
(dp2010
g62
(dp2011
g89
g90
ssg71
g2000
sg64
(lp2012
S':'
asbag57
(g78
g59
NtRp2013
(dp2014
g62
(dp2015
sg71
g2000
sg64
(lp2016
g57
(g58
g59
NtRp2017
(dp2018
g62
(dp2019
g70
I5
ssg71
g2013
sg64
(lp2020
g57
(g66
g59
NtRp2021
(dp2022
g62
(dp2023
g70
I4
ssg71
Nsg64
(lp2024
sbasbasbasbag57
(g73
g59
NtRp2025
(dp2026
g62
(dp2027
sg71
g67
sg64
(lp2028
g57
(g78
g59
NtRp2029
(dp2030
g62
(dp2031
g82
g83
ssg71
g2025
sg64
(lp2032
S'global_settings'
p2033
asbag57
(g78
g59
NtRp2034
(dp2035
g62
(dp2036
g89
g90
ssg71
g2025
sg64
(lp2037
S':'
asbag57
(g78
g59
NtRp2038
(dp2039
g62
(dp2040
sg71
g2025
sg64
(lp2041
g57
(g58
g59
NtRp2042
(dp2043
g62
(dp2044
g70
I5
ssg71
g2038
sg64
(lp2045
g57
(g66
g59
NtRp2046
(dp2047
g62
(dp2048
g70
I4
ssg71
Nsg64
(lp2049
g57
(g73
g59
NtRp2050
(dp2051
g62
(dp2052
sg71
g2046
sg64
(lp2053
g57
(g78
g59
NtRp2054
(dp2055
g62
(dp2056
g82
g83
ssg71
g2050
sg64
(lp2057
g1019
asbag57
(g78
g59
NtRp2058
(dp2059
g62
(dp2060
g89
g90
ssg71
g2050
sg64
(lp2061
S':'
asbag57
(g78
g59
NtRp2062
(dp2063
g62
(dp2064
sg71
g2050
sg64
(lp2065
g57
(g58
g59
NtRp2066
(dp2067
g62
(dp2068
g70
I4
ssg71
g2062
sg64
(lp2069
S"set(['/home/maneesha/Downloads/web2py/applications/welcome/', '/home/maneesha/Downloads/web2py/applications/admin/', '/home/maneesha/Downloads/web2py/applications/cite_mf/', '/home/maneesha/Downloads/web2py/applications/cite_m8/'])"
p2070
asbasbasbag57
(g73
g59
NtRp2071
(dp2072
g62
(dp2073
sg71
g2046
sg64
(lp2074
g57
(g78
g59
NtRp2075
(dp2076
g62
(dp2077
g82
g83
ssg71
g2071
sg64
(lp2078
g1041
asbag57
(g78
g59
NtRp2079
(dp2080
g62
(dp2081
g89
g90
ssg71
g2071
sg64
(lp2082
S':'
asbag57
(g78
g59
NtRp2083
(dp2084
g62
(dp2085
sg71
g2071
sg64
(lp2086
g57
(g58
g59
NtRp2087
(dp2088
g62
(dp2089
g70
I4
ssg71
g2083
sg64
(lp2090
g1054
asbasbasbag57
(g73
g59
NtRp2091
(dp2092
g62
(dp2093
sg71
g2046
sg64
(lp2094
g57
(g78
g59
NtRp2095
(dp2096
g62
(dp2097
g82
g83
ssg71
g2091
sg64
(lp2098
g1063
asbag57
(g78
g59
NtRp2099
(dp2100
g62
(dp2101
g89
g90
ssg71
g2091
sg64
(lp2102
S':'
asbag57
(g78
g59
NtRp2103
(dp2104
g62
(dp2105
sg71
g2091
sg64
(lp2106
g57
(g58
g59
NtRp2107
(dp2108
g62
(dp2109
g70
I4
ssg71
g2103
sg64
(lp2110
g57
(g66
g59
NtRp2111
(dp2112
g62
(dp2113
g70
I3
ssg71
Nsg64
(lp2114
sbasbasbasbag57
(g73
g59
NtRp2115
(dp2116
g62
(dp2117
sg71
g2046
sg64
(lp2118
g57
(g78
g59
NtRp2119
(dp2120
g62
(dp2121
g82
g83
ssg71
g2115
sg64
(lp2122
g1088
asbag57
(g78
g59
NtRp2123
(dp2124
g62
(dp2125
g89
g90
ssg71
g2115
sg64
(lp2126
S':'
asbag57
(g78
g59
NtRp2127
(dp2128
g62
(dp2129
sg71
g2115
sg64
(lp2130
g57
(g58
g59
NtRp2131
(dp2132
g62
(dp2133
g70
I4
ssg71
g2127
sg64
(lp2134
S"<Values at 0x2f4db00: {'verbose': False, 'ip': '127.0.0.1', 'shutdown_timeout': 5, 'taskbar': False, 'nocron': False, 'pid_filename': 'httpserver.pid', 'maxthreads': None, 'softcron': False, 'server_name': 'maneesha-Inspiron-N5050', 'bpython': False, 'nogui': False, 'port': 8000, 'extcron': False, 'debuglevel': 30, 'test': None, 'folder': '/home/maneesha/Downloads/web2py', 'config': '', 'import_models': False, 'winservice': '', 'shell': None, 'run': '', 'log_filename': 'httpserver.log', 'args': [''], 'socket_timeout': 5, 'ssl_ca_certificate': None, 'scheduler': None, 'profiler_filename': None, 'ssl_private_key': '', 'password': '<ask>', 'request_queue_size': 5, 'ssl_certificate': '', 'cronjob': False, 'numthreads': None, 'quiet': False, 'interfaces': None, 'minthreads': None, 'timeout': 10, 'plain': False, 'nobanner': False}>"
p2135
asbasbasbag57
(g73
g59
NtRp2136
(dp2137
g62
(dp2138
sg71
g2046
sg64
(lp2139
g57
(g78
g59
NtRp2140
(dp2141
g62
(dp2142
g82
g83
ssg71
g2136
sg64
(lp2143
g1110
asbag57
(g78
g59
NtRp2144
(dp2145
g62
(dp2146
g89
g90
ssg71
g2136
sg64
(lp2147
S':'
asbag57
(g78
g59
NtRp2148
(dp2149
g62
(dp2150
sg71
g2136
sg64
(lp2151
g57
(g58
g59
NtRp2152
(dp2153
g62
(dp2154
g70
I4
ssg71
g2148
sg64
(lp2155
S'set([])'
p2156
asbasbasbag57
(g73
g59
NtRp2157
(dp2158
g62
(dp2159
sg71
g2046
sg64
(lp2160
g57
(g78
g59
NtRp2161
(dp2162
g62
(dp2163
g82
g83
ssg71
g2157
sg64
(lp2164
g1132
asbag57
(g78
g59
NtRp2165
(dp2166
g62
(dp2167
g89
g90
ssg71
g2157
sg64
(lp2168
S':'
asbag57
(g78
g59
NtRp2169
(dp2170
g62
(dp2171
sg71
g2157
sg64
(lp2172
g57
(g58
g59
NtRp2173
(dp2174
g62
(dp2175
g70
I4
ssg71
g2169
sg64
(lp2176
g100
asbasbasbag57
(g73
g59
NtRp2177
(dp2178
g62
(dp2179
sg71
g2046
sg64
(lp2180
g57
(g78
g59
NtRp2181
(dp2182
g62
(dp2183
g82
g83
ssg71
g2177
sg64
(lp2184
g1153
asbag57
(g78
g59
NtRp2185
(dp2186
g62
(dp2187
g89
g90
ssg71
g2177
sg64
(lp2188
S':'
asbag57
(g78
g59
NtRp2189
(dp2190
g62
(dp2191
sg71
g2177
sg64
(lp2192
g57
(g58
g59
NtRp2193
(dp2194
g62
(dp2195
g70
I4
ssg71
g2189
sg64
(lp2196
g1166
asbasbasbag57
(g73
g59
NtRp2197
(dp2198
g62
(dp2199
sg71
g2046
sg64
(lp2200
g57
(g78
g59
NtRp2201
(dp2202
g62
(dp2203
g82
g83
ssg71
g2197
sg64
(lp2204
g1351
asbag57
(g78
g59
NtRp2205
(dp2206
g62
(dp2207
g89
g90
ssg71
g2197
sg64
(lp2208
S':'
asbag57
(g78
g59
NtRp2209
(dp2210
g62
(dp2211
sg71
g2197
sg64
(lp2212
g57
(g58
g59
NtRp2213
(dp2214
g62
(dp2215
g70
I4
ssg71
g2209
sg64
(lp2216
g100
asbasbasbag57
(g73
g59
NtRp2217
(dp2218
g62
(dp2219
sg71
g2046
sg64
(lp2220
g57
(g78
g59
NtRp2221
(dp2222
g62
(dp2223
g82
g83
ssg71
g2217
sg64
(lp2224
g1372
asbag57
(g78
g59
NtRp2225
(dp2226
g62
(dp2227
g89
g90
ssg71
g2217
sg64
(lp2228
S':'
asbag57
(g78
g59
NtRp2229
(dp2230
g62
(dp2231
sg71
g2217
sg64
(lp2232
g57
(g58
g59
NtRp2233
(dp2234
g62
(dp2235
g70
I4
ssg71
g2229
sg64
(lp2236
g100
asbasbasbag57
(g73
g59
NtRp2237
(dp2238
g62
(dp2239
sg71
g2046
sg64
(lp2240
g57
(g78
g59
NtRp2241
(dp2242
g62
(dp2243
g82
g83
ssg71
g2237
sg64
(lp2244
g1610
asbag57
(g78
g59
NtRp2245
(dp2246
g62
(dp2247
g89
g90
ssg71
g2237
sg64
(lp2248
S':'
asbag57
(g78
g59
NtRp2249
(dp2250
g62
(dp2251
sg71
g2237
sg64
(lp2252
g57
(g58
g59
NtRp2253
(dp2254
g62
(dp2255
g70
I4
ssg71
g2249
sg64
(lp2256
g1623
asbasbasbag57
(g73
g59
NtRp2257
(dp2258
g62
(dp2259
sg71
g2046
sg64
(lp2260
g57
(g78
g59
NtRp2261
(dp2262
g62
(dp2263
g82
g83
ssg71
g2257
sg64
(lp2264
g1653
asbag57
(g78
g59
NtRp2265
(dp2266
g62
(dp2267
g89
g90
ssg71
g2257
sg64
(lp2268
S':'
asbag57
(g78
g59
NtRp2269
(dp2270
g62
(dp2271
sg71
g2257
sg64
(lp2272
g57
(g58
g59
NtRp2273
(dp2274
g62
(dp2275
g70
I4
ssg71
g2269
sg64
(lp2276
g57
(g66
g59
NtRp2277
(dp2278
g62
(dp2279
g70
I3
ssg71
Nsg64
(lp2280
g57
(g73
g59
NtRp2281
(dp2282
g62
(dp2283
sg71
g2277
sg64
(lp2284
g57
(g78
g59
NtRp2285
(dp2286
g62
(dp2287
sg71
g2281
sg64
(lp2288
g57
(g58
g59
NtRp2289
(dp2290
g62
(dp2291
g70
I3
ssg71
g2285
sg64
(lp2292
S'1'
asbasbasbag57
(g73
g59
NtRp2293
(dp2294
g62
(dp2295
sg71
g2277
sg64
(lp2296
g57
(g78
g59
NtRp2297
(dp2298
g62
(dp2299
sg71
g2293
sg64
(lp2300
g57
(g58
g59
NtRp2301
(dp2302
g62
(dp2303
g70
I3
ssg71
g2297
sg64
(lp2304
S'99'
p2305
asbasbasbag57
(g73
g59
NtRp2306
(dp2307
g62
(dp2308
sg71
g2277
sg64
(lp2309
g57
(g78
g59
NtRp2310
(dp2311
g62
(dp2312
sg71
g2306
sg64
(lp2313
g57
(g58
g59
NtRp2314
(dp2315
g62
(dp2316
g70
I3
ssg71
g2310
sg64
(lp2317
S'7'
asbasbasbag57
(g73
g59
NtRp2318
(dp2319
g62
(dp2320
sg71
g2277
sg64
(lp2321
g57
(g78
g59
NtRp2322
(dp2323
g62
(dp2324
sg71
g2318
sg64
(lp2325
g57
(g58
g59
NtRp2326
(dp2327
g62
(dp2328
g70
I3
ssg71
g2322
sg64
(lp2329
S'datetime.datetime(2012, 3, 4, 22, 12, 8)'
p2330
asbasbasbag57
(g73
g59
NtRp2331
(dp2332
g62
(dp2333
sg71
g2277
sg64
(lp2334
g57
(g78
g59
NtRp2335
(dp2336
g62
(dp2337
sg71
g2331
sg64
(lp2338
g57
(g58
g59
NtRp2339
(dp2340
g62
(dp2341
g70
I3
ssg71
g2335
sg64
(lp2342
g1732
asbasbasbasbasbasbasbasbasbasbasbag57
(g73
g59
NtRp2343
(dp2344
g62
(dp2345
sg71
g67
sg64
(lp2346
g57
(g78
g59
NtRp2347
(dp2348
g62
(dp2349
g82
g83
ssg71
g2343
sg64
(lp2350
S'is_https'
p2351
asbag57
(g78
g59
NtRp2352
(dp2353
g62
(dp2354
g89
g90
ssg71
g2343
sg64
(lp2355
S':'
asbag57
(g78
g59
NtRp2356
(dp2357
g62
(dp2358
sg71
g2343
sg64
(lp2359
g57
(g58
g59
NtRp2360
(dp2361
g62
(dp2362
g70
I5
ssg71
g2356
sg64
(lp2363
g100
asbasbasbag57
(g73
g59
NtRp2364
(dp2365
g62
(dp2366
sg71
g67
sg64
(lp2367
g57
(g78
g59
NtRp2368
(dp2369
g62
(dp2370
g82
g83
ssg71
g2364
sg64
(lp2371
S'is_local'
p2372
asbag57
(g78
g59
NtRp2373
(dp2374
g62
(dp2375
g89
g90
ssg71
g2364
sg64
(lp2376
S':'
asbag57
(g78
g59
NtRp2377
(dp2378
g62
(dp2379
sg71
g2364
sg64
(lp2380
g57
(g58
g59
NtRp2381
(dp2382
g62
(dp2383
g70
I5
ssg71
g2377
sg64
(lp2384
g1841
asbasbasbag57
(g73
g59
NtRp2385
(dp2386
g62
(dp2387
sg71
g67
sg64
(lp2388
g57
(g78
g59
NtRp2389
(dp2390
g62
(dp2391
g82
g83
ssg71
g2385
sg64
(lp2392
S'is_restful'
p2393
asbag57
(g78
g59
NtRp2394
(dp2395
g62
(dp2396
g89
g90
ssg71
g2385
sg64
(lp2397
S':'
asbag57
(g78
g59
NtRp2398
(dp2399
g62
(dp2400
sg71
g2385
sg64
(lp2401
g57
(g58
g59
NtRp2402
(dp2403
g62
(dp2404
g70
I5
ssg71
g2398
sg64
(lp2405
g100
asbasbasbag57
(g73
g59
NtRp2406
(dp2407
g62
(dp2408
sg71
g67
sg64
(lp2409
g57
(g78
g59
NtRp2410
(dp2411
g62
(dp2412
g82
g83
ssg71
g2406
sg64
(lp2413
S'now'
p2414
asbag57
(g78
g59
NtRp2415
(dp2416
g62
(dp2417
g89
g90
ssg71
g2406
sg64
(lp2418
S':'
asbag57
(g78
g59
NtRp2419
(dp2420
g62
(dp2421
sg71
g2406
sg64
(lp2422
g57
(g58
g59
NtRp2423
(dp2424
g62
(dp2425
g70
I5
ssg71
g2419
sg64
(lp2426
S'datetime.datetime(2012, 11, 15, 3, 4, 0, 573342)'
p2427
asbasbasbag57
(g73
g59
NtRp2428
(dp2429
g62
(dp2430
sg71
g67
sg64
(lp2431
g57
(g78
g59
NtRp2432
(dp2433
g62
(dp2434
g82
g83
ssg71
g2428
sg64
(lp2435
S'post_vars'
p2436
asbag57
(g78
g59
NtRp2437
(dp2438
g62
(dp2439
g89
g90
ssg71
g2428
sg64
(lp2440
S':'
asbag57
(g78
g59
NtRp2441
(dp2442
g62
(dp2443
sg71
g2428
sg64
(lp2444
g57
(g58
g59
NtRp2445
(dp2446
g62
(dp2447
g70
I5
ssg71
g2441
sg64
(lp2448
g57
(g66
g59
NtRp2449
(dp2450
g62
(dp2451
g70
I4
ssg71
Nsg64
(lp2452
sbasbasbasbag57
(g73
g59
NtRp2453
(dp2454
g62
(dp2455
sg71
g67
sg64
(lp2456
g57
(g78
g59
NtRp2457
(dp2458
g62
(dp2459
g82
g83
ssg71
g2453
sg64
(lp2460
S'url'
p2461
asbag57
(g78
g59
NtRp2462
(dp2463
g62
(dp2464
g89
g90
ssg71
g2453
sg64
(lp2465
S':'
asbag57
(g78
g59
NtRp2466
(dp2467
g62
(dp2468
sg71
g2453
sg64
(lp2469
g57
(g58
g59
NtRp2470
(dp2471
g62
(dp2472
g70
I5
ssg71
g2466
sg64
(lp2473
S'/cite_mf/default/final_ans'
p2474
asbasbasbag57
(g73
g59
NtRp2475
(dp2476
g62
(dp2477
sg71
g67
sg64
(lp2478
g57
(g78
g59
NtRp2479
(dp2480
g62
(dp2481
g82
g83
ssg71
g2475
sg64
(lp2482
S'utcnow'
p2483
asbag57
(g78
g59
NtRp2484
(dp2485
g62
(dp2486
g89
g90
ssg71
g2475
sg64
(lp2487
S':'
asbag57
(g78
g59
NtRp2488
(dp2489
g62
(dp2490
sg71
g2475
sg64
(lp2491
g57
(g58
g59
NtRp2492
(dp2493
g62
(dp2494
g70
I5
ssg71
g2488
sg64
(lp2495
S'datetime.datetime(2012, 11, 14, 21, 34, 0, 573367)'
p2496
asbasbasbag57
(g73
g59
NtRp2497
(dp2498
g62
(dp2499
sg71
g67
sg64
(lp2500
g57
(g78
g59
NtRp2501
(dp2502
g62
(dp2503
g82
g83
ssg71
g2497
sg64
(lp2504
S'uuid'
p2505
asbag57
(g78
g59
NtRp2506
(dp2507
g62
(dp2508
g89
g90
ssg71
g2497
sg64
(lp2509
S':'
asbag57
(g78
g59
NtRp2510
(dp2511
g62
(dp2512
sg71
g2497
sg64
(lp2513
g57
(g58
g59
NtRp2514
(dp2515
g62
(dp2516
g70
I5
ssg71
g2510
sg64
(lp2517
S'cite_mf/127.0.0.1.2012-11-15.03-04-00.6dd8e7c5-4f20-493e-bbff-6cea7fce0dc6'
p2518
asbasbasbag57
(g73
g59
NtRp2519
(dp2520
g62
(dp2521
sg71
g67
sg64
(lp2522
g57
(g78
g59
NtRp2523
(dp2524
g62
(dp2525
g82
g83
ssg71
g2519
sg64
(lp2526
S'vars'
p2527
asbag57
(g78
g59
NtRp2528
(dp2529
g62
(dp2530
g89
g90
ssg71
g2519
sg64
(lp2531
S':'
asbag57
(g78
g59
NtRp2532
(dp2533
g62
(dp2534
sg71
g2519
sg64
(lp2535
g57
(g58
g59
NtRp2536
(dp2537
g62
(dp2538
g70
I5
ssg71
g2532
sg64
(lp2539
g57
(g66
g59
NtRp2540
(dp2541
g62
(dp2542
g70
I4
ssg71
Nsg64
(lp2543
sbasbasbasbag57
(g73
g59
NtRp2544
(dp2545
g62
(dp2546
sg71
g67
sg64
(lp2547
g57
(g78
g59
NtRp2548
(dp2549
g62
(dp2550
g82
g83
ssg71
g2544
sg64
(lp2551
S'wsgi'
p2552
asbag57
(g78
g59
NtRp2553
(dp2554
g62
(dp2555
g89
g90
ssg71
g2544
sg64
(lp2556
S':'
asbag57
(g78
g59
NtRp2557
(dp2558
g62
(dp2559
sg71
g2544
sg64
(lp2560
g57
(g58
g59
NtRp2561
(dp2562
g62
(dp2563
g70
I5
ssg71
g2557
sg64
(lp2564
g57
(g66
g59
NtRp2565
(dp2566
g62
(dp2567
g70
I4
ssg71
Nsg64
(lp2568
g57
(g73
g59
NtRp2569
(dp2570
g62
(dp2571
sg71
g2565
sg64
(lp2572
g57
(g78
g59
NtRp2573
(dp2574
g62
(dp2575
g82
g83
ssg71
g2569
sg64
(lp2576
S'environ'
p2577
asbag57
(g78
g59
NtRp2578
(dp2579
g62
(dp2580
g89
g90
ssg71
g2569
sg64
(lp2581
S':'
asbag57
(g78
g59
NtRp2582
(dp2583
g62
(dp2584
sg71
g2569
sg64
(lp2585
g57
(g58
g59
NtRp2586
(dp2587
g62
(dp2588
g70
I4
ssg71
g2582
sg64
(lp2589
g57
(g66
g59
NtRp2590
(dp2591
g62
(dp2592
g70
I3
ssg71
Nsg64
(lp2593
g57
(g73
g59
NtRp2594
(dp2595
g62
(dp2596
sg71
g2590
sg64
(lp2597
g57
(g78
g59
NtRp2598
(dp2599
g62
(dp2600
g82
g83
ssg71
g2594
sg64
(lp2601
S'HTTP_ACCEPT'
p2602
asbag57
(g78
g59
NtRp2603
(dp2604
g62
(dp2605
g89
g90
ssg71
g2594
sg64
(lp2606
S':'
asbag57
(g78
g59
NtRp2607
(dp2608
g62
(dp2609
sg71
g2594
sg64
(lp2610
g57
(g58
g59
NtRp2611
(dp2612
g62
(dp2613
g70
I3
ssg71
g2607
sg64
(lp2614
g1188
asbasbasbag57
(g73
g59
NtRp2615
(dp2616
g62
(dp2617
sg71
g2590
sg64
(lp2618
g57
(g78
g59
NtRp2619
(dp2620
g62
(dp2621
g82
g83
ssg71
g2615
sg64
(lp2622
S'HTTP_ACCEPT_ENCODING'
p2623
asbag57
(g78
g59
NtRp2624
(dp2625
g62
(dp2626
g89
g90
ssg71
g2615
sg64
(lp2627
S':'
asbag57
(g78
g59
NtRp2628
(dp2629
g62
(dp2630
sg71
g2615
sg64
(lp2631
g57
(g58
g59
NtRp2632
(dp2633
g62
(dp2634
g70
I3
ssg71
g2628
sg64
(lp2635
g1210
asbasbasbag57
(g73
g59
NtRp2636
(dp2637
g62
(dp2638
sg71
g2590
sg64
(lp2639
g57
(g78
g59
NtRp2640
(dp2641
g62
(dp2642
g82
g83
ssg71
g2636
sg64
(lp2643
S'HTTP_ACCEPT_LANGUAGE'
p2644
asbag57
(g78
g59
NtRp2645
(dp2646
g62
(dp2647
g89
g90
ssg71
g2636
sg64
(lp2648
S':'
asbag57
(g78
g59
NtRp2649
(dp2650
g62
(dp2651
sg71
g2636
sg64
(lp2652
g57
(g58
g59
NtRp2653
(dp2654
g62
(dp2655
g70
I3
ssg71
g2649
sg64
(lp2656
g1232
asbasbasbag57
(g73
g59
NtRp2657
(dp2658
g62
(dp2659
sg71
g2590
sg64
(lp2660
g57
(g78
g59
NtRp2661
(dp2662
g62
(dp2663
g82
g83
ssg71
g2657
sg64
(lp2664
S'HTTP_CONNECTION'
p2665
asbag57
(g78
g59
NtRp2666
(dp2667
g62
(dp2668
g89
g90
ssg71
g2657
sg64
(lp2669
S':'
asbag57
(g78
g59
NtRp2670
(dp2671
g62
(dp2672
sg71
g2657
sg64
(lp2673
g57
(g58
g59
NtRp2674
(dp2675
g62
(dp2676
g70
I3
ssg71
g2670
sg64
(lp2677
g1254
asbasbasbag57
(g73
g59
NtRp2678
(dp2679
g62
(dp2680
sg71
g2590
sg64
(lp2681
g57
(g78
g59
NtRp2682
(dp2683
g62
(dp2684
g82
g83
ssg71
g2678
sg64
(lp2685
S'HTTP_COOKIE'
p2686
asbag57
(g78
g59
NtRp2687
(dp2688
g62
(dp2689
g89
g90
ssg71
g2678
sg64
(lp2690
S':'
asbag57
(g78
g59
NtRp2691
(dp2692
g62
(dp2693
sg71
g2678
sg64
(lp2694
g57
(g58
g59
NtRp2695
(dp2696
g62
(dp2697
g70
I3
ssg71
g2691
sg64
(lp2698
g1276
asbasbasbag57
(g73
g59
NtRp2699
(dp2700
g62
(dp2701
sg71
g2590
sg64
(lp2702
g57
(g78
g59
NtRp2703
(dp2704
g62
(dp2705
g82
g83
ssg71
g2699
sg64
(lp2706
S'HTTP_HOST'
p2707
asbag57
(g78
g59
NtRp2708
(dp2709
g62
(dp2710
g89
g90
ssg71
g2699
sg64
(lp2711
S':'
asbag57
(g78
g59
NtRp2712
(dp2713
g62
(dp2714
sg71
g2699
sg64
(lp2715
g57
(g58
g59
NtRp2716
(dp2717
g62
(dp2718
g70
I3
ssg71
g2712
sg64
(lp2719
g1298
asbasbasbag57
(g73
g59
NtRp2720
(dp2721
g62
(dp2722
sg71
g2590
sg64
(lp2723
g57
(g78
g59
NtRp2724
(dp2725
g62
(dp2726
g82
g83
ssg71
g2720
sg64
(lp2727
S'HTTP_REFERER'
p2728
asbag57
(g78
g59
NtRp2729
(dp2730
g62
(dp2731
g89
g90
ssg71
g2720
sg64
(lp2732
S':'
asbag57
(g78
g59
NtRp2733
(dp2734
g62
(dp2735
sg71
g2720
sg64
(lp2736
g57
(g58
g59
NtRp2737
(dp2738
g62
(dp2739
g70
I3
ssg71
g2733
sg64
(lp2740
g1320
asbasbasbag57
(g73
g59
NtRp2741
(dp2742
g62
(dp2743
sg71
g2590
sg64
(lp2744
g57
(g78
g59
NtRp2745
(dp2746
g62
(dp2747
g82
g83
ssg71
g2741
sg64
(lp2748
S'HTTP_USER_AGENT'
p2749
asbag57
(g78
g59
NtRp2750
(dp2751
g62
(dp2752
g89
g90
ssg71
g2741
sg64
(lp2753
S':'
asbag57
(g78
g59
NtRp2754
(dp2755
g62
(dp2756
sg71
g2741
sg64
(lp2757
g57
(g58
g59
NtRp2758
(dp2759
g62
(dp2760
g70
I3
ssg71
g2754
sg64
(lp2761
g1342
asbasbasbag57
(g73
g59
NtRp2762
(dp2763
g62
(dp2764
sg71
g2590
sg64
(lp2765
g57
(g78
g59
NtRp2766
(dp2767
g62
(dp2768
g82
g83
ssg71
g2762
sg64
(lp2769
S'PATH_INFO'
p2770
asbag57
(g78
g59
NtRp2771
(dp2772
g62
(dp2773
g89
g90
ssg71
g2762
sg64
(lp2774
S':'
asbag57
(g78
g59
NtRp2775
(dp2776
g62
(dp2777
sg71
g2762
sg64
(lp2778
g57
(g58
g59
NtRp2779
(dp2780
g62
(dp2781
g70
I3
ssg71
g2775
sg64
(lp2782
g1406
asbasbasbag57
(g73
g59
NtRp2783
(dp2784
g62
(dp2785
sg71
g2590
sg64
(lp2786
g57
(g78
g59
NtRp2787
(dp2788
g62
(dp2789
g82
g83
ssg71
g2783
sg64
(lp2790
S'QUERY_STRING'
p2791
asbag57
(g78
g59
NtRp2792
(dp2793
g62
(dp2794
g89
g90
ssg71
g2783
sg64
(lp2795
S':'
asbag57
(g78
g59
NtRp2796
(dp2797
g62
(dp2798
sg71
g2783
sg64
(lp2799
g57
(g58
g59
NtRp2800
(dp2801
g62
(dp2802
g70
I3
ssg71
g2796
sg64
(lp2803
S''
asbasbasbag57
(g73
g59
NtRp2804
(dp2805
g62
(dp2806
sg71
g2590
sg64
(lp2807
g57
(g78
g59
NtRp2808
(dp2809
g62
(dp2810
g82
g83
ssg71
g2804
sg64
(lp2811
S'REMOTE_ADDR'
p2812
asbag57
(g78
g59
NtRp2813
(dp2814
g62
(dp2815
g89
g90
ssg71
g2804
sg64
(lp2816
S':'
asbag57
(g78
g59
NtRp2817
(dp2818
g62
(dp2819
sg71
g2804
sg64
(lp2820
g57
(g58
g59
NtRp2821
(dp2822
g62
(dp2823
g70
I3
ssg71
g2817
sg64
(lp2824
g190
asbasbasbag57
(g73
g59
NtRp2825
(dp2826
g62
(dp2827
sg71
g2590
sg64
(lp2828
g57
(g78
g59
NtRp2829
(dp2830
g62
(dp2831
g82
g83
ssg71
g2825
sg64
(lp2832
S'REMOTE_PORT'
p2833
asbag57
(g78
g59
NtRp2834
(dp2835
g62
(dp2836
g89
g90
ssg71
g2825
sg64
(lp2837
S':'
asbag57
(g78
g59
NtRp2838
(dp2839
g62
(dp2840
sg71
g2825
sg64
(lp2841
g57
(g58
g59
NtRp2842
(dp2843
g62
(dp2844
g70
I3
ssg71
g2838
sg64
(lp2845
g1470
asbasbasbag57
(g73
g59
NtRp2846
(dp2847
g62
(dp2848
sg71
g2590
sg64
(lp2849
g57
(g78
g59
NtRp2850
(dp2851
g62
(dp2852
g82
g83
ssg71
g2846
sg64
(lp2853
S'REQUEST_METHOD'
p2854
asbag57
(g78
g59
NtRp2855
(dp2856
g62
(dp2857
g89
g90
ssg71
g2846
sg64
(lp2858
S':'
asbag57
(g78
g59
NtRp2859
(dp2860
g62
(dp2861
sg71
g2846
sg64
(lp2862
g57
(g58
g59
NtRp2863
(dp2864
g62
(dp2865
g70
I3
ssg71
g2859
sg64
(lp2866
g1492
asbasbasbag57
(g73
g59
NtRp2867
(dp2868
g62
(dp2869
sg71
g2590
sg64
(lp2870
g57
(g78
g59
NtRp2871
(dp2872
g62
(dp2873
g82
g83
ssg71
g2867
sg64
(lp2874
S'SCRIPT_NAME'
p2875
asbag57
(g78
g59
NtRp2876
(dp2877
g62
(dp2878
g89
g90
ssg71
g2867
sg64
(lp2879
S':'
asbag57
(g78
g59
NtRp2880
(dp2881
g62
(dp2882
sg71
g2867
sg64
(lp2883
g57
(g58
g59
NtRp2884
(dp2885
g62
(dp2886
g70
I3
ssg71
g2880
sg64
(lp2887
S''
asbasbasbag57
(g73
g59
NtRp2888
(dp2889
g62
(dp2890
sg71
g2590
sg64
(lp2891
g57
(g78
g59
NtRp2892
(dp2893
g62
(dp2894
g82
g83
ssg71
g2888
sg64
(lp2895
S'SERVER_NAME'
p2896
asbag57
(g78
g59
NtRp2897
(dp2898
g62
(dp2899
g89
g90
ssg71
g2888
sg64
(lp2900
S':'
asbag57
(g78
g59
NtRp2901
(dp2902
g62
(dp2903
sg71
g2888
sg64
(lp2904
g57
(g58
g59
NtRp2905
(dp2906
g62
(dp2907
g70
I3
ssg71
g2901
sg64
(lp2908
g1535
asbasbasbag57
(g73
g59
NtRp2909
(dp2910
g62
(dp2911
sg71
g2590
sg64
(lp2912
g57
(g78
g59
NtRp2913
(dp2914
g62
(dp2915
g82
g83
ssg71
g2909
sg64
(lp2916
S'SERVER_PORT'
p2917
asbag57
(g78
g59
NtRp2918
(dp2919
g62
(dp2920
g89
g90
ssg71
g2909
sg64
(lp2921
S':'
asbag57
(g78
g59
NtRp2922
(dp2923
g62
(dp2924
sg71
g2909
sg64
(lp2925
g57
(g58
g59
NtRp2926
(dp2927
g62
(dp2928
g70
I3
ssg71
g2922
sg64
(lp2929
g1557
asbasbasbag57
(g73
g59
NtRp2930
(dp2931
g62
(dp2932
sg71
g2590
sg64
(lp2933
g57
(g78
g59
NtRp2934
(dp2935
g62
(dp2936
g82
g83
ssg71
g2930
sg64
(lp2937
S'SERVER_PROTOCOL'
p2938
asbag57
(g78
g59
NtRp2939
(dp2940
g62
(dp2941
g89
g90
ssg71
g2930
sg64
(lp2942
S':'
asbag57
(g78
g59
NtRp2943
(dp2944
g62
(dp2945
sg71
g2930
sg64
(lp2946
g57
(g58
g59
NtRp2947
(dp2948
g62
(dp2949
g70
I3
ssg71
g2943
sg64
(lp2950
g1579
asbasbasbag57
(g73
g59
NtRp2951
(dp2952
g62
(dp2953
sg71
g2590
sg64
(lp2954
g57
(g78
g59
NtRp2955
(dp2956
g62
(dp2957
g82
g83
ssg71
g2951
sg64
(lp2958
S'SERVER_SOFTWARE'
p2959
asbag57
(g78
g59
NtRp2960
(dp2961
g62
(dp2962
g89
g90
ssg71
g2951
sg64
(lp2963
S':'
asbag57
(g78
g59
NtRp2964
(dp2965
g62
(dp2966
sg71
g2951
sg64
(lp2967
g57
(g58
g59
NtRp2968
(dp2969
g62
(dp2970
g70
I3
ssg71
g2964
sg64
(lp2971
g1601
asbasbasbag57
(g73
g59
NtRp2972
(dp2973
g62
(dp2974
sg71
g2590
sg64
(lp2975
g57
(g78
g59
NtRp2976
(dp2977
g62
(dp2978
g82
g83
ssg71
g2972
sg64
(lp2979
S'wsgi.errors'
p2980
asbag57
(g78
g59
NtRp2981
(dp2982
g62
(dp2983
g89
g90
ssg71
g2972
sg64
(lp2984
S':'
asbag57
(g78
g59
NtRp2985
(dp2986
g62
(dp2987
sg71
g2972
sg64
(lp2988
g57
(g58
g59
NtRp2989
(dp2990
g62
(dp2991
g70
I3
ssg71
g2985
sg64
(lp2992
S"<open file '<stderr>', mode 'w' at 0x7f8068254270>"
p2993
asbasbasbag57
(g73
g59
NtRp2994
(dp2995
g62
(dp2996
sg71
g2590
sg64
(lp2997
g57
(g78
g59
NtRp2998
(dp2999
g62
(dp3000
g82
g83
ssg71
g2994
sg64
(lp3001
S'wsgi.file_wrapper'
p3002
asbag57
(g78
g59
NtRp3003
(dp3004
g62
(dp3005
g89
g90
ssg71
g2994
sg64
(lp3006
S':'
asbag57
(g78
g59
NtRp3007
(dp3008
g62
(dp3009
sg71
g2994
sg64
(lp3010
g57
(g58
g59
NtRp3011
(dp3012
g62
(dp3013
g70
I3
ssg71
g3007
sg64
(lp3014
S'<class wsgiref.util.FileWrapper at 0x2e1def0>'
p3015
asbasbasbag57
(g73
g59
NtRp3016
(dp3017
g62
(dp3018
sg71
g2590
sg64
(lp3019
g57
(g78
g59
NtRp3020
(dp3021
g62
(dp3022
g82
g83
ssg71
g3016
sg64
(lp3023
S'wsgi.input'
p3024
asbag57
(g78
g59
NtRp3025
(dp3026
g62
(dp3027
g89
g90
ssg71
g3016
sg64
(lp3028
S':'
asbag57
(g78
g59
NtRp3029
(dp3030
g62
(dp3031
sg71
g3016
sg64
(lp3032
g57
(g58
g59
NtRp3033
(dp3034
g62
(dp3035
g70
I3
ssg71
g3029
sg64
(lp3036
S'<cStringIO.StringO object at 0x7f8010c23688>'
p3037
asbasbasbag57
(g73
g59
NtRp3038
(dp3039
g62
(dp3040
sg71
g2590
sg64
(lp3041
g57
(g78
g59
NtRp3042
(dp3043
g62
(dp3044
g82
g83
ssg71
g3038
sg64
(lp3045
S'wsgi.multiprocess'
p3046
asbag57
(g78
g59
NtRp3047
(dp3048
g62
(dp3049
g89
g90
ssg71
g3038
sg64
(lp3050
S':'
asbag57
(g78
g59
NtRp3051
(dp3052
g62
(dp3053
sg71
g3038
sg64
(lp3054
g57
(g58
g59
NtRp3055
(dp3056
g62
(dp3057
g70
I3
ssg71
g3051
sg64
(lp3058
g100
asbasbasbag57
(g73
g59
NtRp3059
(dp3060
g62
(dp3061
sg71
g2590
sg64
(lp3062
g57
(g78
g59
NtRp3063
(dp3064
g62
(dp3065
g82
g83
ssg71
g3059
sg64
(lp3066
S'wsgi.multithread'
p3067
asbag57
(g78
g59
NtRp3068
(dp3069
g62
(dp3070
g89
g90
ssg71
g3059
sg64
(lp3071
S':'
asbag57
(g78
g59
NtRp3072
(dp3073
g62
(dp3074
sg71
g3059
sg64
(lp3075
g57
(g58
g59
NtRp3076
(dp3077
g62
(dp3078
g70
I3
ssg71
g3072
sg64
(lp3079
g1841
asbasbasbag57
(g73
g59
NtRp3080
(dp3081
g62
(dp3082
sg71
g2590
sg64
(lp3083
g57
(g78
g59
NtRp3084
(dp3085
g62
(dp3086
g82
g83
ssg71
g3080
sg64
(lp3087
S'wsgi.run_once'
p3088
asbag57
(g78
g59
NtRp3089
(dp3090
g62
(dp3091
g89
g90
ssg71
g3080
sg64
(lp3092
S':'
asbag57
(g78
g59
NtRp3093
(dp3094
g62
(dp3095
sg71
g3080
sg64
(lp3096
g57
(g58
g59
NtRp3097
(dp3098
g62
(dp3099
g70
I3
ssg71
g3093
sg64
(lp3100
g100
asbasbasbag57
(g73
g59
NtRp3101
(dp3102
g62
(dp3103
sg71
g2590
sg64
(lp3104
g57
(g78
g59
NtRp3105
(dp3106
g62
(dp3107
g82
g83
ssg71
g3101
sg64
(lp3108
S'wsgi.url_scheme'
p3109
asbag57
(g78
g59
NtRp3110
(dp3111
g62
(dp3112
g89
g90
ssg71
g3101
sg64
(lp3113
S':'
asbag57
(g78
g59
NtRp3114
(dp3115
g62
(dp3116
sg71
g3101
sg64
(lp3117
g57
(g58
g59
NtRp3118
(dp3119
g62
(dp3120
g70
I3
ssg71
g3114
sg64
(lp3121
g1884
asbasbasbag57
(g73
g59
NtRp3122
(dp3123
g62
(dp3124
sg71
g2590
sg64
(lp3125
g57
(g78
g59
NtRp3126
(dp3127
g62
(dp3128
g82
g83
ssg71
g3122
sg64
(lp3129
S'wsgi.version'
p3130
asbag57
(g78
g59
NtRp3131
(dp3132
g62
(dp3133
g89
g90
ssg71
g3122
sg64
(lp3134
S':'
asbag57
(g78
g59
NtRp3135
(dp3136
g62
(dp3137
sg71
g3122
sg64
(lp3138
g57
(g58
g59
NtRp3139
(dp3140
g62
(dp3141
g70
I3
ssg71
g3135
sg64
(lp3142
S'1'
asbasbasbasbasbasbasbasbasbasbasbasbasbsS'frames'
p3143
(lp3144
(dp3145
S'file'
p3146
S'/home/maneesha/Downloads/web2py/gluon/restricted.py'
p3147
sS'dump'
p3148
(dp3149
S'environment'
p3150
S"{'A': <class 'gluon.html.A'>, 'Auth': <class 'gluon.tools.Auth'>, 'B': <class 'gluon.html.B'>, 'BEAUTIFY': <class 'gluon.html.BEAUTIFY'>, 'BODY': <class 'gluon.html.BODY'>, 'BR': <class 'gluon.html.BR'>, 'BUTTON': <class 'gluon.html.BUTTON'>, 'CAT': <class 'gluon.html.CAT'>, 'CENTER': <class 'gluon.html.CENTER'>, 'CLEANUP': <class 'gluon.validators.CLEANUP'>, ...}"
p3151
sS'ccode'
p3152
S'<code object <module> at 0x7f802c301db0, file "/...ications/cite_mf/controllers/default.py", line 3>'
p3153
ssS'lnum'
p3154
I205
sS'lines'
p3155
(dp3156
I200
S'    try:'
p3157
sI201
S'        if type(code) == types.CodeType:'
p3158
sI202
S'            ccode = code'
p3159
sI203
S'        else:'
p3160
sI204
S'            ccode = compile2(code,layer)'
p3161
sI205
S'        exec ccode in environment'
p3162
sI206
S'    except HTTP:'
p3163
sI207
S'        raise'
p3164
sI208
S'    except RestrictedError:'
p3165
sI209
S'        # do not encapsulate (obfuscate) the original RestrictedError'
p3166
ssS'call'
p3167
S"(code='# -*- coding: utf-8 -*-\\n### required - do no del...ss1)\\n\\nresponse._vars=response._caller(final_ans)\\n', environment={'A': <class 'gluon.html.A'>, 'Auth': <class 'gluon.tools.Auth'>, 'B': <class 'gluon.html.B'>, 'BEAUTIFY': <class 'gluon.html.BEAUTIFY'>, 'BODY': <class 'gluon.html.BODY'>, 'BR': <class 'gluon.html.BR'>, 'BUTTON': <class 'gluon.html.BUTTON'>, 'CAT': <class 'gluon.html.CAT'>, 'CENTER': <class 'gluon.html.CENTER'>, 'CLEANUP': <class 'gluon.validators.CLEANUP'>, ...}, layer='/home/maneesha/Downloads/web2py/applications/cite_mf/controllers/default.py')"
p3168
sS'func'
p3169
S'restricted'
p3170
sa(dp3171
g3146
S'/home/maneesha/Downloads/web2py/applications/cite_mf/controllers/default.py'
p3172
sg3148
(dp3173
sg3154
I235
sg3155
(dp3174
I224
S'    return dict(abst=h1)'
p3175
sI225
S'def abstract1():'
p3176
sI226
S'    abss=request.args[0]'
p3177
sI227
S'    pre=""'
p3178
sI228
S'    while pre!=abss:'
p3179
sI229
S'        pre=abss'
p3180
sI230
S'        abss=abss.replace("_"," ")'
p3181
sI231
S'        #d=d.replace("","")'
p3182
sI232
S'    abss1=abss.split(".")'
p3183
sI233
S'    return dict(abss1=abss1)'
p3184
ssg3167
S'()'
p3185
sg3169
S'<module>'
p3186
sa(dp3187
g3146
S'/home/maneesha/Downloads/web2py/gluon/globals.py'
p3188
sg3148
(dp3189
S'self'
p3190
S'undefined'
p3191
sS'f'
S'<function final_ans>'
p3192
ssg3154
I173
sg3155
(dp3193
I168
S'        self.menu = []             # used by the default view layout'
p3194
sI169
S'        self.files = []            # used by web2py_ajax.html'
p3195
sI170
S'        self.generic_patterns = [] # patterns to allow generic views'
p3196
sI171
S"        self.delimiters = ('{{','}}')"
p3197
sI172
S'        self._vars = None'
p3198
sI173
S'        self._caller = lambda f: f()'
p3199
sI174
S'        self._view_environment = None'
p3200
sI175
S'        self._custom_commit = None'
p3201
sI176
S'        self._custom_rollback = None'
p3202
sI177
S''
ssg3167
S'(f=<function final_ans>)'
p3203
sg3169
S'<lambda>'
p3204
sa(dp3205
g3146
S'/home/maneesha/Downloads/web2py/applications/cite_mf/controllers/default.py'
p3206
sg3148
(dp3207
S'level'
p3208
g3191
sS'top'
p3209
g3191
sS'bigans'
p3210
S"[['Database design with common sense business reasoning and learning', 'http://dl.acm.org/citation.cfm?id=278245.278246&...M&CFID=200971790&CFTOKEN=80703047&preflayout=flat', 'http://dl.acm.org/ft_gateway.cfm?id=278246&type=pdf&CFID=200971790&CFTOKEN=80703047', 'Storey, Veda C.; Chiang, Roger H. L.; Dey, Debabrata; Goldstein, Robert C.; Sudaresan, Shankar', '12/01/1997', 'Automated database design systems embody knowled...wledge to subsequent design problems (reasoning).', '20', ['http://dl.acm.org/citation.cfm?id=728209&CFID=200971790&CFTOKEN=80703047&preflayout=flat', 'http://dl.acm.org/citation.cfm?id=665971&CFID=200971790&CFTOKEN=80703047&preflayout=flat', 'http://dl.acm.org/citation.cfm?id=758149&CFID=200971790&CFTOKEN=80703047&preflayout=flat'], ['Reuse of Database Design Decisions', 'http://dl.acm.org/citation.cfm?id=728209&CFID=200971790&CFTOKEN=80703047&preflayout=flat', 'http://dl.acm.org/citation.cfm?id=728209&CFID=200971790&CFTOKEN=80703047&preflayout=flat', 'Klettke, Meike', '11/15/1999', 'Reuse of available databases can support databas... libraries are suggested for use in this process.', 0, []], ['Understanding and Representing Relationship Semantics in Database Design', 'http://dl.acm.org/citation.cfm?id=665971&CFID=200971790&CFTOKEN=80703047&preflayout=flat', 'http://dl.acm.org/citation.cfm?id=665971&CFID=200971790&CFTOKEN=80703047&preflayout=flat', 'Storey, Veda C.', '06/28/2000', 'Much of the research that deals with understandi... on a number of cases illustrates its usefulness.', '2', ['http://dl.acm.org/citation.cfm?id=2135330&CFID=200971790&CFTOKEN=80703047&preflayout=flat', 'http://dl.acm.org/citation.cfm?id=2111163&CFID=200971790&CFTOKEN=80703047&preflayout=flat', '']], ['An Ontology-Based Framework for Generating and Improving Database Design', 'http://dl.acm.org/citation.cfm?id=758149&CFID=200971790&CFTOKEN=80703047&preflayout=flat', 'http://dl.acm.org/citation.cfm?id=758149&CFID=200971790&CFTOKEN=80703047&preflayout=flat', 'Sugumaran, Vijayan; Storey, Veda C.', '06/27/2002', 'It is well-accepted that there is a need to inco... prototype that illustrates the research results.', '5', ['http://dl.acm.org/citation.cfm?id=1894731&CFID=200971790&CFTOKEN=80703047&preflayout=flat', 'http://dl.acm.org/citation.cfm?id=1196114&CFID=200971790&CFTOKEN=80703047&preflayout=flat', 'http://dl.acm.org/citation.cfm?id=1862518&CFID=200971790&CFTOKEN=80703047&preflayout=flat']]], ['Database design for incomplete relations', 'http://dl.acm.org/citation.cfm?id=310701.310712&...M&CFID=200971790&CFTOKEN=80703047&preflayout=flat', 'http://dl.acm.org/ft_gateway.cfm?id=310712&type=pdf&CFID=200971790&CFTOKEN=80703047', 'Levene, Mark; Loizou, George', '03/01/1999', 'Although there has been a vast amount of researc... be attained in polynomial time in the size of F.', '11', ['http://dl.acm.org/citation.cfm?id=1777209&CFID=200971790&CFTOKEN=80703047&preflayout=flat', 'http://dl.acm.org/citation.cfm?id=656418&CFID=200971790&CFTOKEN=80703047&preflayout=flat', 'http://dl.acm.org/citation.cfm?id=1886802&CFID=200971790&CFTOKEN=80703047&preflayout=flat'], ['Mining correct properties in incomplete databases', 'http://dl.acm.org/citation.cfm?id=1777209&CFID=200971790&CFTOKEN=80703047&preflayout=flat', 'http://dl.acm.org/citation.cfm?id=1777209&CFID=200971790&CFTOKEN=80703047&preflayout=flat', 'Rioult, Fran&#231;ois; Cr&#233;milleux, Bruno', '09/18/2006', 'Missing values issue in databases is an importan...</i>-free patterns in presence of missing values.', 1, ['http://dl.acm.org/citation.cfm?id=1617587&CFID=200971790&CFTOKEN=80703047&preflayout=flat', '', '']], ['FUN: An Efficient Algorithm for Mining Functional and Embedded Dependencies', 'http://dl.acm.org/citation.cfm?id=656418&CFID=200971790&CFTOKEN=80703047&preflayout=flat', 'http://dl.acm.org/citation.cfm?id=656418&CFID=200971790&CFTOKEN=80703047&preflayout=flat', 'Novelli, Noel; Cicchetti, Rosine', '01/04/2001', 'Discovering functional dependencies from existin...used in particular for managing data warehouses).', '7', ['http://dl.acm.org/citation.cfm?id=2026737&CFID=200971790&CFTOKEN=80703047&preflayout=flat', 'http://dl.acm.org/citation.cfm?id=2041339&CFID=200971790&CFTOKEN=80703047&preflayout=flat', 'http://dl.acm.org/citation.cfm?id=1883984&CFID=200971790&CFTOKEN=80703047&preflayout=flat']], ['On the role of the complementation rule for data dependencies over incomplete relations', 'http://dl.acm.org/citation.cfm?id=1886802&CFID=200971790&CFTOKEN=80703047&preflayout=flat', 'http://dl.acm.org/citation.cfm?id=1886802&CFID=200971790&CFTOKEN=80703047&preflayout=flat', 'Ferrarotti, Flavio; Hartmann, Sven; Link, Sebastian', '07/06/2010', 'Recently, an axiomatization for functional depen...ify previous results for the special cases above.', '2', ['http://dl.acm.org/citation.cfm?id=2198182&CFID=200971790&CFTOKEN=80703047&preflayout=flat', 'http://dl.acm.org/citation.cfm?id=2351783&CFID=200971790&CFTOKEN=80703047&preflayout=flat', '']]], ['The role of domain ontologies in database design...gy management and conceptual modeling environment', 'http://dl.acm.org/citation.cfm?id=1166074.116608...M&CFID=200971790&CFTOKEN=80703047&preflayout=flat', 'http://dl.acm.org/ft_gateway.cfm?id=1166083&ftid=382508&dwn=1&CFID=200971790&CFTOKEN=80703047', 'Sugumaran, Vijayan; Storey, Veda C.', '09/01/2006', 'Database design is difficult because it involves...effective in creating entity-relationship models.', '16', ['http://dl.acm.org/citation.cfm?id=1434580&CFID=200971790&CFTOKEN=80703047&preflayout=flat', 'http://dl.acm.org/citation.cfm?id=1330610&CFID=200971790&CFTOKEN=80703047&preflayout=flat', 'http://dl.acm.org/citation.cfm?id=2264285&CFID=200971790&CFTOKEN=80703047&preflayout=flat'], ['Extending the ANSI/SPARC Architecture Database w...plicit Data Semantics: An Ontology-Based Approach', 'http://dl.acm.org/citation.cfm?id=1434580&CFID=200971790&CFTOKEN=80703047&preflayout=flat', 'http://dl.acm.org/citation.cfm?id=1434580&CFID=200971790&CFTOKEN=80703047&preflayout=flat', 'Fankam, Chim&#232;ne; Jean, St&#233;phane; Bellatreche, Ladjel; A&#239;t-Ameur, Yamine', '09/29/2008', 'The database (DB) design process follows the tra...end the ANSI/SPARC architecture to support OBDBs.', '2', ['http://dl.acm.org/citation.cfm?id=2075882&CFID=200971790&CFTOKEN=80703047&preflayout=flat', 'http://dl.acm.org/citation.cfm?id=1690995&CFID=200971790&CFTOKEN=80703047&preflayout=flat', '']], ['An algorithm for the automatic transformation of ontology axioms into a rule model', 'http://dl.acm.org/citation.cfm?id=1330610&CFID=200971790&CFTOKEN=80703047&preflayout=flat', 'http://dl.acm.org/ft_gateway.cfm?id=1330610&type=pdf&CFID=200971790&CFTOKEN=80703047', 'Vasilecas, Olegas; Bugaite, Diana', '06/14/2007', 'Quite a number of authors are analysing transfor...nsformation of ontology axioms into a rule model.', '5', ['http://dl.acm.org/citation.cfm?id=2008668&CFID=200971790&CFTOKEN=80703047&preflayout=flat', 'http://dl.acm.org/citation.cfm?id=1693909&CFID=200971790&CFTOKEN=80703047&preflayout=flat', 'http://dl.acm.org/citation.cfm?id=1805328&CFID=200971790&CFTOKEN=80703047&preflayout=flat']], ['Transforming semi-structured life science diagrams into meaningful domain ontologies with DiDOn', 'http://dl.acm.org/citation.cfm?id=2264285&CFID=200971790&CFTOKEN=80703047&preflayout=flat', 'http://dl.acm.org/citation.cfm?id=2264285&CFID=200971790&CFTOKEN=80703047&preflayout=flat', 'Keet, C. Maria', '06/01/2012', 'Bio-ontology development is a resource-consuming...s illustrated using Pathway Studio as case study.', 0, []]]]"
p3211
sS'ret1'
p3212
g3191
sS'l1'
p3213
S"['database design', 2, 3, True, True, True]"
p3214
sS'email'
p3215
S"'papireddygarimaneesha88@gmail.com'"
p3216
sS'builtindict'
p3217
S"<type 'dict'>"
p3218
ssg3154
I73
sg3155
(dp3219
I68
S'    #ret1=[]'
p3220
sI69
S'    fst_l=extract1(url,l1)'
p3221
sI70
S'    rec(fst_l,l1,bigans)#recursively building bigans'
p3222
sI71
S'    au=db(auth.user.username==db.auth_user.username).select().first()'
p3223
sI72
S'    email=au.email'
p3224
sI73
S'    return dict(bigans=bigans,level=l1[1],top=l1[2],ret1=ret1,email=email)'
p3225
sI74
S'def rec(list1,l1,bigans):'
p3226
sI75
S'    global count #variable for'
p3227
sI76
S'    count=count+1'
p3228
sI77
S'    global listf'
p3229
ssg3167
S'()'
p3230
sg3169
S'final_ans'
p3231
sasS'pyver'
p3232
S'Python 2.7.3: /usr/bin/python'
p3233
sS'session'
p3234
g57
(g58
g59
NtRp3235
(dp3236
g62
(dp3237
sg64
(lp3238
g57
(g66
g59
NtRp3239
(dp3240
g62
(dp3241
g70
I5
ssg71
Nsg64
(lp3242
g57
(g73
g59
NtRp3243
(dp3244
g62
(dp3245
sg71
g3239
sg64
(lp3246
g57
(g78
g59
NtRp3247
(dp3248
g62
(dp3249
g82
g83
ssg71
g3243
sg64
(lp3250
S'auth'
p3251
asbag57
(g78
g59
NtRp3252
(dp3253
g62
(dp3254
g89
g90
ssg71
g3243
sg64
(lp3255
S':'
asbag57
(g78
g59
NtRp3256
(dp3257
g62
(dp3258
sg71
g3243
sg64
(lp3259
g57
(g58
g59
NtRp3260
(dp3261
g62
(dp3262
g70
I5
ssg71
g3256
sg64
(lp3263
g57
(g66
g59
NtRp3264
(dp3265
g62
(dp3266
g70
I4
ssg71
Nsg64
(lp3267
g57
(g73
g59
NtRp3268
(dp3269
g62
(dp3270
sg71
g3264
sg64
(lp3271
g57
(g78
g59
NtRp3272
(dp3273
g62
(dp3274
g82
g83
ssg71
g3268
sg64
(lp3275
S'expiration'
p3276
asbag57
(g78
g59
NtRp3277
(dp3278
g62
(dp3279
g89
g90
ssg71
g3268
sg64
(lp3280
S':'
asbag57
(g78
g59
NtRp3281
(dp3282
g62
(dp3283
sg71
g3268
sg64
(lp3284
g57
(g58
g59
NtRp3285
(dp3286
g62
(dp3287
g70
I4
ssg71
g3281
sg64
(lp3288
S'3600'
p3289
asbasbasbag57
(g73
g59
NtRp3290
(dp3291
g62
(dp3292
sg71
g3264
sg64
(lp3293
g57
(g78
g59
NtRp3294
(dp3295
g62
(dp3296
g82
g83
ssg71
g3290
sg64
(lp3297
S'hmac_key'
p3298
asbag57
(g78
g59
NtRp3299
(dp3300
g62
(dp3301
g89
g90
ssg71
g3290
sg64
(lp3302
S':'
asbag57
(g78
g59
NtRp3303
(dp3304
g62
(dp3305
sg71
g3290
sg64
(lp3306
g57
(g58
g59
NtRp3307
(dp3308
g62
(dp3309
g70
I4
ssg71
g3303
sg64
(lp3310
S'3cd7173a-f41a-4610-8a10-6880875e2634'
p3311
asbasbasbag57
(g73
g59
NtRp3312
(dp3313
g62
(dp3314
sg71
g3264
sg64
(lp3315
g57
(g78
g59
NtRp3316
(dp3317
g62
(dp3318
g82
g83
ssg71
g3312
sg64
(lp3319
S'last_visit'
p3320
asbag57
(g78
g59
NtRp3321
(dp3322
g62
(dp3323
g89
g90
ssg71
g3312
sg64
(lp3324
S':'
asbag57
(g78
g59
NtRp3325
(dp3326
g62
(dp3327
sg71
g3312
sg64
(lp3328
g57
(g58
g59
NtRp3329
(dp3330
g62
(dp3331
g70
I4
ssg71
g3325
sg64
(lp3332
S'datetime.datetime(2012, 11, 15, 3, 3, 33, 852864)'
p3333
asbasbasbag57
(g73
g59
NtRp3334
(dp3335
g62
(dp3336
sg71
g3264
sg64
(lp3337
g57
(g78
g59
NtRp3338
(dp3339
g62
(dp3340
g82
g83
ssg71
g3334
sg64
(lp3341
S'remember'
p3342
asbag57
(g78
g59
NtRp3343
(dp3344
g62
(dp3345
g89
g90
ssg71
g3334
sg64
(lp3346
S':'
asbag57
(g78
g59
NtRp3347
(dp3348
g62
(dp3349
sg71
g3334
sg64
(lp3350
g57
(g58
g59
NtRp3351
(dp3352
g62
(dp3353
g70
I4
ssg71
g3347
sg64
(lp3354
g100
asbasbasbag57
(g73
g59
NtRp3355
(dp3356
g62
(dp3357
sg71
g3264
sg64
(lp3358
g57
(g78
g59
NtRp3359
(dp3360
g62
(dp3361
g82
g83
ssg71
g3355
sg64
(lp3362
S'user'
p3363
asbag57
(g78
g59
NtRp3364
(dp3365
g62
(dp3366
g89
g90
ssg71
g3355
sg64
(lp3367
S':'
asbag57
(g78
g59
NtRp3368
(dp3369
g62
(dp3370
sg71
g3355
sg64
(lp3371
g57
(g58
g59
NtRp3372
(dp3373
g62
(dp3374
g70
I4
ssg71
g3368
sg64
(lp3375
g57
(g66
g59
NtRp3376
(dp3377
g62
(dp3378
g70
I3
ssg71
Nsg64
(lp3379
g57
(g73
g59
NtRp3380
(dp3381
g62
(dp3382
sg71
g3376
sg64
(lp3383
g57
(g78
g59
NtRp3384
(dp3385
g62
(dp3386
g82
g83
ssg71
g3380
sg64
(lp3387
S'created_on'
p3388
asbag57
(g78
g59
NtRp3389
(dp3390
g62
(dp3391
g89
g90
ssg71
g3380
sg64
(lp3392
S':'
asbag57
(g78
g59
NtRp3393
(dp3394
g62
(dp3395
sg71
g3380
sg64
(lp3396
g57
(g58
g59
NtRp3397
(dp3398
g62
(dp3399
g70
I3
ssg71
g3393
sg64
(lp3400
S'datetime.datetime(2012, 10, 23, 2, 28, 41)'
p3401
asbasbasbag57
(g73
g59
NtRp3402
(dp3403
g62
(dp3404
sg71
g3376
sg64
(lp3405
g57
(g78
g59
NtRp3406
(dp3407
g62
(dp3408
g82
g83
ssg71
g3402
sg64
(lp3409
S'email'
p3410
asbag57
(g78
g59
NtRp3411
(dp3412
g62
(dp3413
g89
g90
ssg71
g3402
sg64
(lp3414
S':'
asbag57
(g78
g59
NtRp3415
(dp3416
g62
(dp3417
sg71
g3402
sg64
(lp3418
g57
(g58
g59
NtRp3419
(dp3420
g62
(dp3421
g70
I3
ssg71
g3415
sg64
(lp3422
S'papireddygarimaneesha88@gmail.com'
p3423
asbasbasbag57
(g73
g59
NtRp3424
(dp3425
g62
(dp3426
sg71
g3376
sg64
(lp3427
g57
(g78
g59
NtRp3428
(dp3429
g62
(dp3430
g82
g83
ssg71
g3424
sg64
(lp3431
S'first_name'
p3432
asbag57
(g78
g59
NtRp3433
(dp3434
g62
(dp3435
g89
g90
ssg71
g3424
sg64
(lp3436
S':'
asbag57
(g78
g59
NtRp3437
(dp3438
g62
(dp3439
sg71
g3424
sg64
(lp3440
g57
(g58
g59
NtRp3441
(dp3442
g62
(dp3443
g70
I3
ssg71
g3437
sg64
(lp3444
S'manu'
p3445
asbasbasbag57
(g73
g59
NtRp3446
(dp3447
g62
(dp3448
sg71
g3376
sg64
(lp3449
g57
(g78
g59
NtRp3450
(dp3451
g62
(dp3452
g82
g83
ssg71
g3446
sg64
(lp3453
S'id'
p3454
asbag57
(g78
g59
NtRp3455
(dp3456
g62
(dp3457
g89
g90
ssg71
g3446
sg64
(lp3458
S':'
asbag57
(g78
g59
NtRp3459
(dp3460
g62
(dp3461
sg71
g3446
sg64
(lp3462
g57
(g58
g59
NtRp3463
(dp3464
g62
(dp3465
g70
I3
ssg71
g3459
sg64
(lp3466
S'11'
p3467
asbasbasbag57
(g73
g59
NtRp3468
(dp3469
g62
(dp3470
sg71
g3376
sg64
(lp3471
g57
(g78
g59
NtRp3472
(dp3473
g62
(dp3474
g82
g83
ssg71
g3468
sg64
(lp3475
S'last_name'
p3476
asbag57
(g78
g59
NtRp3477
(dp3478
g62
(dp3479
g89
g90
ssg71
g3468
sg64
(lp3480
S':'
asbag57
(g78
g59
NtRp3481
(dp3482
g62
(dp3483
sg71
g3468
sg64
(lp3484
g57
(g58
g59
NtRp3485
(dp3486
g62
(dp3487
g70
I3
ssg71
g3481
sg64
(lp3488
S'p'
asbasbasbag57
(g73
g59
NtRp3489
(dp3490
g62
(dp3491
sg71
g3376
sg64
(lp3492
g57
(g78
g59
NtRp3493
(dp3494
g62
(dp3495
g82
g83
ssg71
g3489
sg64
(lp3496
S'modified_on'
p3497
asbag57
(g78
g59
NtRp3498
(dp3499
g62
(dp3500
g89
g90
ssg71
g3489
sg64
(lp3501
S':'
asbag57
(g78
g59
NtRp3502
(dp3503
g62
(dp3504
sg71
g3489
sg64
(lp3505
g57
(g58
g59
NtRp3506
(dp3507
g62
(dp3508
g70
I3
ssg71
g3502
sg64
(lp3509
S'datetime.datetime(2012, 11, 14, 3, 3, 55)'
p3510
asbasbasbag57
(g73
g59
NtRp3511
(dp3512
g62
(dp3513
sg71
g3376
sg64
(lp3514
g57
(g78
g59
NtRp3515
(dp3516
g62
(dp3517
g82
g83
ssg71
g3511
sg64
(lp3518
S'password'
p3519
asbag57
(g78
g59
NtRp3520
(dp3521
g62
(dp3522
g89
g90
ssg71
g3511
sg64
(lp3523
S':'
asbag57
(g78
g59
NtRp3524
(dp3525
g62
(dp3526
sg71
g3511
sg64
(lp3527
g57
(g58
g59
NtRp3528
(dp3529
g62
(dp3530
g70
I3
ssg71
g3524
sg64
(lp3531
S'32371e3190f8e63e16755b2e6bf663a2'
p3532
asbasbasbag57
(g73
g59
NtRp3533
(dp3534
g62
(dp3535
sg71
g3376
sg64
(lp3536
g57
(g78
g59
NtRp3537
(dp3538
g62
(dp3539
g82
g83
ssg71
g3533
sg64
(lp3540
S'registration_id'
p3541
asbag57
(g78
g59
NtRp3542
(dp3543
g62
(dp3544
g89
g90
ssg71
g3533
sg64
(lp3545
S':'
asbag57
(g78
g59
NtRp3546
(dp3547
g62
(dp3548
sg71
g3533
sg64
(lp3549
g57
(g58
g59
NtRp3550
(dp3551
g62
(dp3552
g70
I3
ssg71
g3546
sg64
(lp3553
S''
asbasbasbag57
(g73
g59
NtRp3554
(dp3555
g62
(dp3556
sg71
g3376
sg64
(lp3557
g57
(g78
g59
NtRp3558
(dp3559
g62
(dp3560
g82
g83
ssg71
g3554
sg64
(lp3561
S'registration_key'
p3562
asbag57
(g78
g59
NtRp3563
(dp3564
g62
(dp3565
g89
g90
ssg71
g3554
sg64
(lp3566
S':'
asbag57
(g78
g59
NtRp3567
(dp3568
g62
(dp3569
sg71
g3554
sg64
(lp3570
g57
(g58
g59
NtRp3571
(dp3572
g62
(dp3573
g70
I3
ssg71
g3567
sg64
(lp3574
S''
asbasbasbag57
(g73
g59
NtRp3575
(dp3576
g62
(dp3577
sg71
g3376
sg64
(lp3578
g57
(g78
g59
NtRp3579
(dp3580
g62
(dp3581
g82
g83
ssg71
g3575
sg64
(lp3582
S'reset_password_key'
p3583
asbag57
(g78
g59
NtRp3584
(dp3585
g62
(dp3586
g89
g90
ssg71
g3575
sg64
(lp3587
S':'
asbag57
(g78
g59
NtRp3588
(dp3589
g62
(dp3590
sg71
g3575
sg64
(lp3591
g57
(g58
g59
NtRp3592
(dp3593
g62
(dp3594
g70
I3
ssg71
g3588
sg64
(lp3595
S''
asbasbasbag57
(g73
g59
NtRp3596
(dp3597
g62
(dp3598
sg71
g3376
sg64
(lp3599
g57
(g78
g59
NtRp3600
(dp3601
g62
(dp3602
g82
g83
ssg71
g3596
sg64
(lp3603
S'username'
p3604
asbag57
(g78
g59
NtRp3605
(dp3606
g62
(dp3607
g89
g90
ssg71
g3596
sg64
(lp3608
S':'
asbag57
(g78
g59
NtRp3609
(dp3610
g62
(dp3611
sg71
g3596
sg64
(lp3612
g57
(g58
g59
NtRp3613
(dp3614
g62
(dp3615
g70
I3
ssg71
g3609
sg64
(lp3616
S'manu1'
p3617
asbasbasbasbasbasbasbag57
(g73
g59
NtRp3618
(dp3619
g62
(dp3620
sg71
g3264
sg64
(lp3621
g57
(g78
g59
NtRp3622
(dp3623
g62
(dp3624
g82
g83
ssg71
g3618
sg64
(lp3625
S'user_groups'
p3626
asbag57
(g78
g59
NtRp3627
(dp3628
g62
(dp3629
g89
g90
ssg71
g3618
sg64
(lp3630
S':'
asbag57
(g78
g59
NtRp3631
(dp3632
g62
(dp3633
sg71
g3618
sg64
(lp3634
g57
(g58
g59
NtRp3635
(dp3636
g62
(dp3637
g70
I4
ssg71
g3631
sg64
(lp3638
g57
(g66
g59
NtRp3639
(dp3640
g62
(dp3641
g70
I3
ssg71
Nsg64
(lp3642
g57
(g73
g59
NtRp3643
(dp3644
g62
(dp3645
sg71
g3639
sg64
(lp3646
g57
(g78
g59
NtRp3647
(dp3648
g62
(dp3649
g82
g83
ssg71
g3643
sg64
(lp3650
S'1'
asbag57
(g78
g59
NtRp3651
(dp3652
g62
(dp3653
g89
g90
ssg71
g3643
sg64
(lp3654
S':'
asbag57
(g78
g59
NtRp3655
(dp3656
g62
(dp3657
sg71
g3643
sg64
(lp3658
g57
(g58
g59
NtRp3659
(dp3660
g62
(dp3661
g70
I3
ssg71
g3655
sg64
(lp3662
S'user_11'
p3663
asbasbasbasbasbasbasbasbasbasbasbasbasbsS'etype'
p3664
S"<type 'exceptions.NameError'>"
p3665
sS'date'
p3666
S'Thu Nov 15 03:04:43 2012'
p3667
sS'response'
p3668
g57
(g58
g59
NtRp3669
(dp3670
g62
(dp3671
sg64
(lp3672
g57
(g66
g59
NtRp3673
(dp3674
g62
(dp3675
g70
I5
ssg71
Nsg64
(lp3676
g57
(g73
g59
NtRp3677
(dp3678
g62
(dp3679
sg71
g3673
sg64
(lp3680
g57
(g78
g59
NtRp3681
(dp3682
g62
(dp3683
g82
g83
ssg71
g3677
sg64
(lp3684
g155
asbag57
(g78
g59
NtRp3685
(dp3686
g62
(dp3687
g89
g90
ssg71
g3677
sg64
(lp3688
S':'
asbag57
(g78
g59
NtRp3689
(dp3690
g62
(dp3691
sg71
g3677
sg64
(lp3692
g57
(g58
g59
NtRp3693
(dp3694
g62
(dp3695
g70
I5
ssg71
g3689
sg64
(lp3696
S'<cStringIO.StringO object at 0x7f8010c23490>'
p3697
asbasbasbag57
(g73
g59
NtRp3698
(dp3699
g62
(dp3700
sg71
g3673
sg64
(lp3701
g57
(g78
g59
NtRp3702
(dp3703
g62
(dp3704
g82
g83
ssg71
g3698
sg64
(lp3705
g221
asbag57
(g78
g59
NtRp3706
(dp3707
g62
(dp3708
g89
g90
ssg71
g3698
sg64
(lp3709
S':'
asbag57
(g78
g59
NtRp3710
(dp3711
g62
(dp3712
sg71
g3698
sg64
(lp3713
g57
(g58
g59
NtRp3714
(dp3715
g62
(dp3716
g70
I5
ssg71
g3710
sg64
(lp3717
g57
(g66
g59
NtRp3718
(dp3719
g62
(dp3720
g70
I4
ssg71
Nsg64
(lp3721
g57
(g73
g59
NtRp3722
(dp3723
g62
(dp3724
sg71
g3718
sg64
(lp3725
g57
(g78
g59
NtRp3726
(dp3727
g62
(dp3728
g82
g83
ssg71
g3722
sg64
(lp3729
S'session_id_cite_mf'
p3730
asbag57
(g78
g59
NtRp3731
(dp3732
g62
(dp3733
g89
g90
ssg71
g3722
sg64
(lp3734
S':'
asbag57
(g78
g59
NtRp3735
(dp3736
g62
(dp3737
sg71
g3722
sg64
(lp3738
g57
(g58
g59
NtRp3739
(dp3740
g62
(dp3741
g70
I4
ssg71
g3735
sg64
(lp3742
g57
(g66
g59
NtRp3743
(dp3744
g62
(dp3745
g70
I3
ssg71
Nsg64
(lp3746
g57
(g73
g59
NtRp3747
(dp3748
g62
(dp3749
sg71
g3743
sg64
(lp3750
g57
(g78
g59
NtRp3751
(dp3752
g62
(dp3753
g82
g83
ssg71
g3747
sg64
(lp3754
g271
asbag57
(g78
g59
NtRp3755
(dp3756
g62
(dp3757
g89
g90
ssg71
g3747
sg64
(lp3758
S':'
asbag57
(g78
g59
NtRp3759
(dp3760
g62
(dp3761
sg71
g3747
sg64
(lp3762
g57
(g58
g59
NtRp3763
(dp3764
g62
(dp3765
g70
I3
ssg71
g3759
sg64
(lp3766
S''
asbasbasbag57
(g73
g59
NtRp3767
(dp3768
g62
(dp3769
sg71
g3743
sg64
(lp3770
g57
(g78
g59
NtRp3771
(dp3772
g62
(dp3773
g82
g83
ssg71
g3767
sg64
(lp3774
g292
asbag57
(g78
g59
NtRp3775
(dp3776
g62
(dp3777
g89
g90
ssg71
g3767
sg64
(lp3778
S':'
asbag57
(g78
g59
NtRp3779
(dp3780
g62
(dp3781
sg71
g3767
sg64
(lp3782
g57
(g58
g59
NtRp3783
(dp3784
g62
(dp3785
g70
I3
ssg71
g3779
sg64
(lp3786
S''
asbasbasbag57
(g73
g59
NtRp3787
(dp3788
g62
(dp3789
sg71
g3743
sg64
(lp3790
g57
(g78
g59
NtRp3791
(dp3792
g62
(dp3793
g82
g83
ssg71
g3787
sg64
(lp3794
g313
asbag57
(g78
g59
NtRp3795
(dp3796
g62
(dp3797
g89
g90
ssg71
g3787
sg64
(lp3798
S':'
asbag57
(g78
g59
NtRp3799
(dp3800
g62
(dp3801
sg71
g3787
sg64
(lp3802
g57
(g58
g59
NtRp3803
(dp3804
g62
(dp3805
g70
I3
ssg71
g3799
sg64
(lp3806
S''
asbasbasbag57
(g73
g59
NtRp3807
(dp3808
g62
(dp3809
sg71
g3743
sg64
(lp3810
g57
(g78
g59
NtRp3811
(dp3812
g62
(dp3813
g82
g83
ssg71
g3807
sg64
(lp3814
g334
asbag57
(g78
g59
NtRp3815
(dp3816
g62
(dp3817
g89
g90
ssg71
g3807
sg64
(lp3818
S':'
asbag57
(g78
g59
NtRp3819
(dp3820
g62
(dp3821
sg71
g3807
sg64
(lp3822
g57
(g58
g59
NtRp3823
(dp3824
g62
(dp3825
g70
I3
ssg71
g3819
sg64
(lp3826
S''
asbasbasbag57
(g73
g59
NtRp3827
(dp3828
g62
(dp3829
sg71
g3743
sg64
(lp3830
g57
(g78
g59
NtRp3831
(dp3832
g62
(dp3833
g82
g83
ssg71
g3827
sg64
(lp3834
g355
asbag57
(g78
g59
NtRp3835
(dp3836
g62
(dp3837
g89
g90
ssg71
g3827
sg64
(lp3838
S':'
asbag57
(g78
g59
NtRp3839
(dp3840
g62
(dp3841
sg71
g3827
sg64
(lp3842
g57
(g58
g59
NtRp3843
(dp3844
g62
(dp3845
g70
I3
ssg71
g3839
sg64
(lp3846
S''
asbasbasbag57
(g73
g59
NtRp3847
(dp3848
g62
(dp3849
sg71
g3743
sg64
(lp3850
g57
(g78
g59
NtRp3851
(dp3852
g62
(dp3853
g82
g83
ssg71
g3847
sg64
(lp3854
g376
asbag57
(g78
g59
NtRp3855
(dp3856
g62
(dp3857
g89
g90
ssg71
g3847
sg64
(lp3858
S':'
asbag57
(g78
g59
NtRp3859
(dp3860
g62
(dp3861
sg71
g3847
sg64
(lp3862
g57
(g58
g59
NtRp3863
(dp3864
g62
(dp3865
g70
I3
ssg71
g3859
sg64
(lp3866
S'/'
asbasbasbag57
(g73
g59
NtRp3867
(dp3868
g62
(dp3869
sg71
g3743
sg64
(lp3870
g57
(g78
g59
NtRp3871
(dp3872
g62
(dp3873
g82
g83
ssg71
g3867
sg64
(lp3874
g397
asbag57
(g78
g59
NtRp3875
(dp3876
g62
(dp3877
g89
g90
ssg71
g3867
sg64
(lp3878
S':'
asbag57
(g78
g59
NtRp3879
(dp3880
g62
(dp3881
sg71
g3867
sg64
(lp3882
g57
(g58
g59
NtRp3883
(dp3884
g62
(dp3885
g70
I3
ssg71
g3879
sg64
(lp3886
S''
asbasbasbag57
(g73
g59
NtRp3887
(dp3888
g62
(dp3889
sg71
g3743
sg64
(lp3890
g57
(g78
g59
NtRp3891
(dp3892
g62
(dp3893
g82
g83
ssg71
g3887
sg64
(lp3894
g418
asbag57
(g78
g59
NtRp3895
(dp3896
g62
(dp3897
g89
g90
ssg71
g3887
sg64
(lp3898
S':'
asbag57
(g78
g59
NtRp3899
(dp3900
g62
(dp3901
sg71
g3887
sg64
(lp3902
g57
(g58
g59
NtRp3903
(dp3904
g62
(dp3905
g70
I3
ssg71
g3899
sg64
(lp3906
S''
asbasbasbasbasbasbasbasbasbasbasbag57
(g73
g59
NtRp3907
(dp3908
g62
(dp3909
sg71
g3673
sg64
(lp3910
g57
(g78
g59
NtRp3911
(dp3912
g62
(dp3913
g82
g83
ssg71
g3907
sg64
(lp3914
S'delimiters'
p3915
asbag57
(g78
g59
NtRp3916
(dp3917
g62
(dp3918
g89
g90
ssg71
g3907
sg64
(lp3919
S':'
asbag57
(g78
g59
NtRp3920
(dp3921
g62
(dp3922
sg71
g3907
sg64
(lp3923
g57
(g58
g59
NtRp3924
(dp3925
g62
(dp3926
g70
I5
ssg71
g3920
sg64
(lp3927
g57
(g66
g59
NtRp3928
(dp3929
g62
(dp3930
g70
I4
ssg71
Nsg64
(lp3931
g57
(g73
g59
NtRp3932
(dp3933
g62
(dp3934
sg71
g3928
sg64
(lp3935
g57
(g78
g59
NtRp3936
(dp3937
g62
(dp3938
sg71
g3932
sg64
(lp3939
g57
(g58
g59
NtRp3940
(dp3941
g62
(dp3942
g70
I4
ssg71
g3936
sg64
(lp3943
S'{{'
p3944
asbasbasbag57
(g73
g59
NtRp3945
(dp3946
g62
(dp3947
sg71
g3928
sg64
(lp3948
g57
(g78
g59
NtRp3949
(dp3950
g62
(dp3951
sg71
g3945
sg64
(lp3952
g57
(g58
g59
NtRp3953
(dp3954
g62
(dp3955
g70
I4
ssg71
g3949
sg64
(lp3956
S'}}'
p3957
asbasbasbasbasbasbasbag57
(g73
g59
NtRp3958
(dp3959
g62
(dp3960
sg71
g3673
sg64
(lp3961
g57
(g78
g59
NtRp3962
(dp3963
g62
(dp3964
g82
g83
ssg71
g3958
sg64
(lp3965
S'files'
p3966
asbag57
(g78
g59
NtRp3967
(dp3968
g62
(dp3969
g89
g90
ssg71
g3958
sg64
(lp3970
S':'
asbag57
(g78
g59
NtRp3971
(dp3972
g62
(dp3973
sg71
g3958
sg64
(lp3974
g57
(g58
g59
NtRp3975
(dp3976
g62
(dp3977
g70
I5
ssg71
g3971
sg64
(lp3978
g57
(g66
g59
NtRp3979
(dp3980
g62
(dp3981
g70
I4
ssg71
Nsg64
(lp3982
sbasbasbasbag57
(g73
g59
NtRp3983
(dp3984
g62
(dp3985
sg71
g3673
sg64
(lp3986
g57
(g78
g59
NtRp3987
(dp3988
g62
(dp3989
g82
g83
ssg71
g3983
sg64
(lp3990
S'flash'
p3991
asbag57
(g78
g59
NtRp3992
(dp3993
g62
(dp3994
g89
g90
ssg71
g3983
sg64
(lp3995
S':'
asbag57
(g78
g59
NtRp3996
(dp3997
g62
(dp3998
sg71
g3983
sg64
(lp3999
g57
(g58
g59
NtRp4000
(dp4001
g62
(dp4002
g70
I5
ssg71
g3996
sg64
(lp4003
S''
asbasbasbag57
(g73
g59
NtRp4004
(dp4005
g62
(dp4006
sg71
g3673
sg64
(lp4007
g57
(g78
g59
NtRp4008
(dp4009
g62
(dp4010
g82
g83
ssg71
g4004
sg64
(lp4011
S'generic_patterns'
p4012
asbag57
(g78
g59
NtRp4013
(dp4014
g62
(dp4015
g89
g90
ssg71
g4004
sg64
(lp4016
S':'
asbag57
(g78
g59
NtRp4017
(dp4018
g62
(dp4019
sg71
g4004
sg64
(lp4020
g57
(g58
g59
NtRp4021
(dp4022
g62
(dp4023
g70
I5
ssg71
g4017
sg64
(lp4024
g57
(g66
g59
NtRp4025
(dp4026
g62
(dp4027
g70
I4
ssg71
Nsg64
(lp4028
g57
(g73
g59
NtRp4029
(dp4030
g62
(dp4031
sg71
g4025
sg64
(lp4032
g57
(g78
g59
NtRp4033
(dp4034
g62
(dp4035
sg71
g4029
sg64
(lp4036
g57
(g58
g59
NtRp4037
(dp4038
g62
(dp4039
g70
I4
ssg71
g4033
sg64
(lp4040
S'*'
asbasbasbasbasbasbasbag57
(g73
g59
NtRp4041
(dp4042
g62
(dp4043
sg71
g3673
sg64
(lp4044
g57
(g78
g59
NtRp4045
(dp4046
g62
(dp4047
g82
g83
ssg71
g4041
sg64
(lp4048
S'headers'
p4049
asbag57
(g78
g59
NtRp4050
(dp4051
g62
(dp4052
g89
g90
ssg71
g4041
sg64
(lp4053
S':'
asbag57
(g78
g59
NtRp4054
(dp4055
g62
(dp4056
sg71
g4041
sg64
(lp4057
g57
(g58
g59
NtRp4058
(dp4059
g62
(dp4060
g70
I5
ssg71
g4054
sg64
(lp4061
g57
(g66
g59
NtRp4062
(dp4063
g62
(dp4064
g70
I4
ssg71
Nsg64
(lp4065
g57
(g73
g59
NtRp4066
(dp4067
g62
(dp4068
sg71
g4062
sg64
(lp4069
g57
(g78
g59
NtRp4070
(dp4071
g62
(dp4072
g82
g83
ssg71
g4066
sg64
(lp4073
S'Cache-Control'
p4074
asbag57
(g78
g59
NtRp4075
(dp4076
g62
(dp4077
g89
g90
ssg71
g4066
sg64
(lp4078
S':'
asbag57
(g78
g59
NtRp4079
(dp4080
g62
(dp4081
sg71
g4066
sg64
(lp4082
g57
(g58
g59
NtRp4083
(dp4084
g62
(dp4085
g70
I4
ssg71
g4079
sg64
(lp4086
S'no-store, no-cache, must-revalidate, post-check=0, pre-check=0'
p4087
asbasbasbag57
(g73
g59
NtRp4088
(dp4089
g62
(dp4090
sg71
g4062
sg64
(lp4091
g57
(g78
g59
NtRp4092
(dp4093
g62
(dp4094
g82
g83
ssg71
g4088
sg64
(lp4095
S'Content-Type'
p4096
asbag57
(g78
g59
NtRp4097
(dp4098
g62
(dp4099
g89
g90
ssg71
g4088
sg64
(lp4100
S':'
asbag57
(g78
g59
NtRp4101
(dp4102
g62
(dp4103
sg71
g4088
sg64
(lp4104
g57
(g58
g59
NtRp4105
(dp4106
g62
(dp4107
g70
I4
ssg71
g4101
sg64
(lp4108
S'text/html; charset=utf-8'
p4109
asbasbasbag57
(g73
g59
NtRp4110
(dp4111
g62
(dp4112
sg71
g4062
sg64
(lp4113
g57
(g78
g59
NtRp4114
(dp4115
g62
(dp4116
g82
g83
ssg71
g4110
sg64
(lp4117
S'Expires'
p4118
asbag57
(g78
g59
NtRp4119
(dp4120
g62
(dp4121
g89
g90
ssg71
g4110
sg64
(lp4122
S':'
asbag57
(g78
g59
NtRp4123
(dp4124
g62
(dp4125
sg71
g4110
sg64
(lp4126
g57
(g58
g59
NtRp4127
(dp4128
g62
(dp4129
g70
I4
ssg71
g4123
sg64
(lp4130
S'Wed, 14 Nov 2012 21:34:00 GMT'
p4131
asbasbasbag57
(g73
g59
NtRp4132
(dp4133
g62
(dp4134
sg71
g4062
sg64
(lp4135
g57
(g78
g59
NtRp4136
(dp4137
g62
(dp4138
g82
g83
ssg71
g4132
sg64
(lp4139
S'Pragma'
p4140
asbag57
(g78
g59
NtRp4141
(dp4142
g62
(dp4143
g89
g90
ssg71
g4132
sg64
(lp4144
S':'
asbag57
(g78
g59
NtRp4145
(dp4146
g62
(dp4147
sg71
g4132
sg64
(lp4148
g57
(g58
g59
NtRp4149
(dp4150
g62
(dp4151
g70
I4
ssg71
g4145
sg64
(lp4152
S'no-cache'
p4153
asbasbasbag57
(g73
g59
NtRp4154
(dp4155
g62
(dp4156
sg71
g4062
sg64
(lp4157
g57
(g78
g59
NtRp4158
(dp4159
g62
(dp4160
g82
g83
ssg71
g4154
sg64
(lp4161
S'X-Powered-By'
p4162
asbag57
(g78
g59
NtRp4163
(dp4164
g62
(dp4165
g89
g90
ssg71
g4154
sg64
(lp4166
S':'
asbag57
(g78
g59
NtRp4167
(dp4168
g62
(dp4169
sg71
g4154
sg64
(lp4170
g57
(g58
g59
NtRp4171
(dp4172
g62
(dp4173
g70
I4
ssg71
g4167
sg64
(lp4174
S'web2py'
p4175
asbasbasbasbasbasbasbag57
(g73
g59
NtRp4176
(dp4177
g62
(dp4178
sg71
g3673
sg64
(lp4179
g57
(g78
g59
NtRp4180
(dp4181
g62
(dp4182
g82
g83
ssg71
g4176
sg64
(lp4183
S'menu'
p4184
asbag57
(g78
g59
NtRp4185
(dp4186
g62
(dp4187
g89
g90
ssg71
g4176
sg64
(lp4188
S':'
asbag57
(g78
g59
NtRp4189
(dp4190
g62
(dp4191
sg71
g4176
sg64
(lp4192
g57
(g58
g59
NtRp4193
(dp4194
g62
(dp4195
g70
I5
ssg71
g4189
sg64
(lp4196
g57
(g66
g59
NtRp4197
(dp4198
g62
(dp4199
g70
I4
ssg71
Nsg64
(lp4200
g57
(g73
g59
NtRp4201
(dp4202
g62
(dp4203
sg71
g4197
sg64
(lp4204
g57
(g78
g59
NtRp4205
(dp4206
g62
(dp4207
sg71
g4201
sg64
(lp4208
g57
(g58
g59
NtRp4209
(dp4210
g62
(dp4211
g70
I4
ssg71
g4205
sg64
(lp4212
g57
(g66
g59
NtRp4213
(dp4214
g62
(dp4215
g70
I3
ssg71
Nsg64
(lp4216
g57
(g73
g59
NtRp4217
(dp4218
g62
(dp4219
sg71
g4213
sg64
(lp4220
g57
(g78
g59
NtRp4221
(dp4222
g62
(dp4223
sg71
g4217
sg64
(lp4224
g57
(g58
g59
NtRp4225
(dp4226
g62
(dp4227
g70
I3
ssg71
g4221
sg64
(lp4228
cgluon.languages
lazyT_unpickle
p4229
(S't\x05\x00\x00\x00Index'
tRp4230
asbasbasbag57
(g73
g59
NtRp4231
(dp4232
g62
(dp4233
sg71
g4213
sg64
(lp4234
g57
(g78
g59
NtRp4235
(dp4236
g62
(dp4237
sg71
g4231
sg64
(lp4238
g57
(g58
g59
NtRp4239
(dp4240
g62
(dp4241
g70
I3
ssg71
g4235
sg64
(lp4242
g100
asbasbasbag57
(g73
g59
NtRp4243
(dp4244
g62
(dp4245
sg71
g4213
sg64
(lp4246
g57
(g78
g59
NtRp4247
(dp4248
g62
(dp4249
sg71
g4243
sg64
(lp4250
g57
(g58
g59
NtRp4251
(dp4252
g62
(dp4253
g70
I3
ssg71
g4247
sg64
(lp4254
S'/cite_mf/default/index'
p4255
asbasbasbag57
(g73
g59
NtRp4256
(dp4257
g62
(dp4258
sg71
g4213
sg64
(lp4259
g57
(g78
g59
NtRp4260
(dp4261
g62
(dp4262
sg71
g4256
sg64
(lp4263
g57
(g58
g59
NtRp4264
(dp4265
g62
(dp4266
g70
I3
ssg71
g4260
sg64
(lp4267
g57
(g66
g59
NtRp4268
(dp4269
g62
(dp4270
g70
I2
ssg71
Nsg64
(lp4271
sbasbasbasbasbasbasbasbasbasbasbasbag57
(g73
g59
NtRp4272
(dp4273
g62
(dp4274
sg71
g3673
sg64
(lp4275
g57
(g78
g59
NtRp4276
(dp4277
g62
(dp4278
g82
g83
ssg71
g4272
sg64
(lp4279
S'meta'
p4280
asbag57
(g78
g59
NtRp4281
(dp4282
g62
(dp4283
g89
g90
ssg71
g4272
sg64
(lp4284
S':'
asbag57
(g78
g59
NtRp4285
(dp4286
g62
(dp4287
sg71
g4272
sg64
(lp4288
g57
(g58
g59
NtRp4289
(dp4290
g62
(dp4291
g70
I5
ssg71
g4285
sg64
(lp4292
g57
(g66
g59
NtRp4293
(dp4294
g62
(dp4295
g70
I4
ssg71
Nsg64
(lp4296
g57
(g73
g59
NtRp4297
(dp4298
g62
(dp4299
sg71
g4293
sg64
(lp4300
g57
(g78
g59
NtRp4301
(dp4302
g62
(dp4303
g82
g83
ssg71
g4297
sg64
(lp4304
S'author'
p4305
asbag57
(g78
g59
NtRp4306
(dp4307
g62
(dp4308
g89
g90
ssg71
g4297
sg64
(lp4309
S':'
asbag57
(g78
g59
NtRp4310
(dp4311
g62
(dp4312
sg71
g4297
sg64
(lp4313
g57
(g58
g59
NtRp4314
(dp4315
g62
(dp4316
g70
I4
ssg71
g4310
sg64
(lp4317
S'you <you@example.com>'
p4318
asbasbasbag57
(g73
g59
NtRp4319
(dp4320
g62
(dp4321
sg71
g4293
sg64
(lp4322
g57
(g78
g59
NtRp4323
(dp4324
g62
(dp4325
g82
g83
ssg71
g4319
sg64
(lp4326
S'description'
p4327
asbag57
(g78
g59
NtRp4328
(dp4329
g62
(dp4330
g89
g90
ssg71
g4319
sg64
(lp4331
S':'
asbag57
(g78
g59
NtRp4332
(dp4333
g62
(dp4334
sg71
g4319
sg64
(lp4335
g57
(g58
g59
NtRp4336
(dp4337
g62
(dp4338
g70
I4
ssg71
g4332
sg64
(lp4339
S''
asbasbasbag57
(g73
g59
NtRp4340
(dp4341
g62
(dp4342
sg71
g4293
sg64
(lp4343
g57
(g78
g59
NtRp4344
(dp4345
g62
(dp4346
g82
g83
ssg71
g4340
sg64
(lp4347
S'keywords'
p4348
asbag57
(g78
g59
NtRp4349
(dp4350
g62
(dp4351
g89
g90
ssg71
g4340
sg64
(lp4352
S':'
asbag57
(g78
g59
NtRp4353
(dp4354
g62
(dp4355
sg71
g4340
sg64
(lp4356
g57
(g58
g59
NtRp4357
(dp4358
g62
(dp4359
g70
I4
ssg71
g4353
sg64
(lp4360
S''
asbasbasbasbasbasbasbag57
(g73
g59
NtRp4361
(dp4362
g62
(dp4363
sg71
g3673
sg64
(lp4364
g57
(g78
g59
NtRp4365
(dp4366
g62
(dp4367
g82
g83
ssg71
g4361
sg64
(lp4368
S'postprocessing'
p4369
asbag57
(g78
g59
NtRp4370
(dp4371
g62
(dp4372
g89
g90
ssg71
g4361
sg64
(lp4373
S':'
asbag57
(g78
g59
NtRp4374
(dp4375
g62
(dp4376
sg71
g4361
sg64
(lp4377
g57
(g58
g59
NtRp4378
(dp4379
g62
(dp4380
g70
I5
ssg71
g4374
sg64
(lp4381
g57
(g66
g59
NtRp4382
(dp4383
g62
(dp4384
g70
I4
ssg71
Nsg64
(lp4385
sbasbasbasbag57
(g73
g59
NtRp4386
(dp4387
g62
(dp4388
sg71
g3673
sg64
(lp4389
g57
(g78
g59
NtRp4390
(dp4391
g62
(dp4392
g82
g83
ssg71
g4386
sg64
(lp4393
S'session_file'
p4394
asbag57
(g78
g59
NtRp4395
(dp4396
g62
(dp4397
g89
g90
ssg71
g4386
sg64
(lp4398
S':'
asbag57
(g78
g59
NtRp4399
(dp4400
g62
(dp4401
sg71
g4386
sg64
(lp4402
g57
(g58
g59
NtRp4403
(dp4404
g62
(dp4405
g70
I5
ssg71
g4399
sg64
(lp4406
S"<open file '/home/maneesha/Downloads/web2py/applications/cite_mf/sessions/127.0.0.1-7cb1e4c9-a21f-4e32-a52f-6a7c59380bf6', mode 'rb+' at 0x7f8044200e40>"
p4407
asbasbasbag57
(g73
g59
NtRp4408
(dp4409
g62
(dp4410
sg71
g3673
sg64
(lp4411
g57
(g78
g59
NtRp4412
(dp4413
g62
(dp4414
g82
g83
ssg71
g4408
sg64
(lp4415
S'session_filename'
p4416
asbag57
(g78
g59
NtRp4417
(dp4418
g62
(dp4419
g89
g90
ssg71
g4408
sg64
(lp4420
S':'
asbag57
(g78
g59
NtRp4421
(dp4422
g62
(dp4423
sg71
g4408
sg64
(lp4424
g57
(g58
g59
NtRp4425
(dp4426
g62
(dp4427
g70
I5
ssg71
g4421
sg64
(lp4428
S'/home/maneesha/Downloads/web2py/applications/cite_mf/sessions/127.0.0.1-7cb1e4c9-a21f-4e32-a52f-6a7c59380bf6'
p4429
asbasbasbag57
(g73
g59
NtRp4430
(dp4431
g62
(dp4432
sg71
g3673
sg64
(lp4433
g57
(g78
g59
NtRp4434
(dp4435
g62
(dp4436
g82
g83
ssg71
g4430
sg64
(lp4437
S'session_id'
p4438
asbag57
(g78
g59
NtRp4439
(dp4440
g62
(dp4441
g89
g90
ssg71
g4430
sg64
(lp4442
S':'
asbag57
(g78
g59
NtRp4443
(dp4444
g62
(dp4445
sg71
g4430
sg64
(lp4446
g57
(g58
g59
NtRp4447
(dp4448
g62
(dp4449
g70
I5
ssg71
g4443
sg64
(lp4450
S'127.0.0.1-7cb1e4c9-a21f-4e32-a52f-6a7c59380bf6'
p4451
asbasbasbag57
(g73
g59
NtRp4452
(dp4453
g62
(dp4454
sg71
g3673
sg64
(lp4455
g57
(g78
g59
NtRp4456
(dp4457
g62
(dp4458
g82
g83
ssg71
g4452
sg64
(lp4459
S'session_id_name'
p4460
asbag57
(g78
g59
NtRp4461
(dp4462
g62
(dp4463
g89
g90
ssg71
g4452
sg64
(lp4464
S':'
asbag57
(g78
g59
NtRp4465
(dp4466
g62
(dp4467
sg71
g4452
sg64
(lp4468
g57
(g58
g59
NtRp4469
(dp4470
g62
(dp4471
g70
I5
ssg71
g4465
sg64
(lp4472
g3730
asbasbasbag57
(g73
g59
NtRp4473
(dp4474
g62
(dp4475
sg71
g3673
sg64
(lp4476
g57
(g78
g59
NtRp4477
(dp4478
g62
(dp4479
g82
g83
ssg71
g4473
sg64
(lp4480
S'session_locked'
p4481
asbag57
(g78
g59
NtRp4482
(dp4483
g62
(dp4484
g89
g90
ssg71
g4473
sg64
(lp4485
S':'
asbag57
(g78
g59
NtRp4486
(dp4487
g62
(dp4488
sg71
g4473
sg64
(lp4489
g57
(g58
g59
NtRp4490
(dp4491
g62
(dp4492
g70
I5
ssg71
g4486
sg64
(lp4493
g1841
asbasbasbag57
(g73
g59
NtRp4494
(dp4495
g62
(dp4496
sg71
g3673
sg64
(lp4497
g57
(g78
g59
NtRp4498
(dp4499
g62
(dp4500
g82
g83
ssg71
g4494
sg64
(lp4501
S'session_new'
p4502
asbag57
(g78
g59
NtRp4503
(dp4504
g62
(dp4505
g89
g90
ssg71
g4494
sg64
(lp4506
S':'
asbag57
(g78
g59
NtRp4507
(dp4508
g62
(dp4509
sg71
g4494
sg64
(lp4510
g57
(g58
g59
NtRp4511
(dp4512
g62
(dp4513
g70
I5
ssg71
g4507
sg64
(lp4514
g100
asbasbasbag57
(g73
g59
NtRp4515
(dp4516
g62
(dp4517
sg71
g3673
sg64
(lp4518
g57
(g78
g59
NtRp4519
(dp4520
g62
(dp4521
g82
g83
ssg71
g4515
sg64
(lp4522
S'status'
p4523
asbag57
(g78
g59
NtRp4524
(dp4525
g62
(dp4526
g89
g90
ssg71
g4515
sg64
(lp4527
S':'
asbag57
(g78
g59
NtRp4528
(dp4529
g62
(dp4530
sg71
g4515
sg64
(lp4531
g57
(g58
g59
NtRp4532
(dp4533
g62
(dp4534
g70
I5
ssg71
g4528
sg64
(lp4535
S'200'
p4536
asbasbasbag57
(g73
g59
NtRp4537
(dp4538
g62
(dp4539
sg71
g3673
sg64
(lp4540
g57
(g78
g59
NtRp4541
(dp4542
g62
(dp4543
g82
g83
ssg71
g4537
sg64
(lp4544
S'subtitle'
p4545
asbag57
(g78
g59
NtRp4546
(dp4547
g62
(dp4548
g89
g90
ssg71
g4537
sg64
(lp4549
S':'
asbag57
(g78
g59
NtRp4550
(dp4551
g62
(dp4552
sg71
g4537
sg64
(lp4553
g57
(g58
g59
NtRp4554
(dp4555
g62
(dp4556
g70
I5
ssg71
g4550
sg64
(lp4557
S'powered by web2py'
p4558
asbasbasbag57
(g73
g59
NtRp4559
(dp4560
g62
(dp4561
sg71
g3673
sg64
(lp4562
g57
(g78
g59
NtRp4563
(dp4564
g62
(dp4565
g82
g83
ssg71
g4559
sg64
(lp4566
S'title'
p4567
asbag57
(g78
g59
NtRp4568
(dp4569
g62
(dp4570
g89
g90
ssg71
g4559
sg64
(lp4571
S':'
asbag57
(g78
g59
NtRp4572
(dp4573
g62
(dp4574
sg71
g4559
sg64
(lp4575
g57
(g58
g59
NtRp4576
(dp4577
g62
(dp4578
g70
I5
ssg71
g4572
sg64
(lp4579
S'My New App'
p4580
asbasbasbag57
(g73
g59
NtRp4581
(dp4582
g62
(dp4583
sg71
g3673
sg64
(lp4584
g57
(g78
g59
NtRp4585
(dp4586
g62
(dp4587
g82
g83
ssg71
g4581
sg64
(lp4588
g2505
asbag57
(g78
g59
NtRp4589
(dp4590
g62
(dp4591
g89
g90
ssg71
g4581
sg64
(lp4592
S':'
asbag57
(g78
g59
NtRp4593
(dp4594
g62
(dp4595
sg71
g4581
sg64
(lp4596
g57
(g58
g59
NtRp4597
(dp4598
g62
(dp4599
g70
I5
ssg71
g4593
sg64
(lp4600
g2518
asbasbasbag57
(g73
g59
NtRp4601
(dp4602
g62
(dp4603
sg71
g3673
sg64
(lp4604
g57
(g78
g59
NtRp4605
(dp4606
g62
(dp4607
g82
g83
ssg71
g4601
sg64
(lp4608
S'view'
p4609
asbag57
(g78
g59
NtRp4610
(dp4611
g62
(dp4612
g89
g90
ssg71
g4601
sg64
(lp4613
S':'
asbag57
(g78
g59
NtRp4614
(dp4615
g62
(dp4616
sg71
g4601
sg64
(lp4617
g57
(g58
g59
NtRp4618
(dp4619
g62
(dp4620
g70
I5
ssg71
g4614
sg64
(lp4621
S'default/final_ans.html'
p4622
asbasbasbasbasbsS'locals'
p4623
(dp4624
S'fst_l'
p4625
S"['http://dl.acm.org/citation.cfm?id=278245.278246&...M&CFID=200971790&CFTOKEN=80703047&preflayout=flat', 'http://dl.acm.org/citation.cfm?id=310701.310712&...M&CFID=200971790&CFTOKEN=80703047&preflayout=flat', 'http://dl.acm.org/citation.cfm?id=1166074.116608...M&CFID=200971790&CFTOKEN=80703047&preflayout=flat']"
p4626
sg2461
S"'http://dl.acm.org/results.cfm?h=1&query=database+design'"
p4627
sS'bigans'
p4628
S"[['Database design with common sense business reasoning and learning', 'http://dl.acm.org/citation.cfm?id=278245.278246&...M&CFID=200971790&CFTOKEN=80703047&preflayout=flat', 'http://dl.acm.org/ft_gateway.cfm?id=278246&type=pdf&CFID=200971790&CFTOKEN=80703047', 'Storey, Veda C.; Chiang, Roger H. L.; Dey, Debabrata; Goldstein, Robert C.; Sudaresan, Shankar', '12/01/1997', 'Automated database design systems embody knowled...wledge to subsequent design problems (reasoning).', '20', ['http://dl.acm.org/citation.cfm?id=728209&CFID=200971790&CFTOKEN=80703047&preflayout=flat', 'http://dl.acm.org/citation.cfm?id=665971&CFID=200971790&CFTOKEN=80703047&preflayout=flat', 'http://dl.acm.org/citation.cfm?id=758149&CFID=200971790&CFTOKEN=80703047&preflayout=flat'], ['Reuse of Database Design Decisions', 'http://dl.acm.org/citation.cfm?id=728209&CFID=200971790&CFTOKEN=80703047&preflayout=flat', 'http://dl.acm.org/citation.cfm?id=728209&CFID=200971790&CFTOKEN=80703047&preflayout=flat', 'Klettke, Meike', '11/15/1999', 'Reuse of available databases can support databas... libraries are suggested for use in this process.', 0, []], ['Understanding and Representing Relationship Semantics in Database Design', 'http://dl.acm.org/citation.cfm?id=665971&CFID=200971790&CFTOKEN=80703047&preflayout=flat', 'http://dl.acm.org/citation.cfm?id=665971&CFID=200971790&CFTOKEN=80703047&preflayout=flat', 'Storey, Veda C.', '06/28/2000', 'Much of the research that deals with understandi... on a number of cases illustrates its usefulness.', '2', ['http://dl.acm.org/citation.cfm?id=2135330&CFID=200971790&CFTOKEN=80703047&preflayout=flat', 'http://dl.acm.org/citation.cfm?id=2111163&CFID=200971790&CFTOKEN=80703047&preflayout=flat', '']], ['An Ontology-Based Framework for Generating and Improving Database Design', 'http://dl.acm.org/citation.cfm?id=758149&CFID=200971790&CFTOKEN=80703047&preflayout=flat', 'http://dl.acm.org/citation.cfm?id=758149&CFID=200971790&CFTOKEN=80703047&preflayout=flat', 'Sugumaran, Vijayan; Storey, Veda C.', '06/27/2002', 'It is well-accepted that there is a need to inco... prototype that illustrates the research results.', '5', ['http://dl.acm.org/citation.cfm?id=1894731&CFID=200971790&CFTOKEN=80703047&preflayout=flat', 'http://dl.acm.org/citation.cfm?id=1196114&CFID=200971790&CFTOKEN=80703047&preflayout=flat', 'http://dl.acm.org/citation.cfm?id=1862518&CFID=200971790&CFTOKEN=80703047&preflayout=flat']]], ['Database design for incomplete relations', 'http://dl.acm.org/citation.cfm?id=310701.310712&...M&CFID=200971790&CFTOKEN=80703047&preflayout=flat', 'http://dl.acm.org/ft_gateway.cfm?id=310712&type=pdf&CFID=200971790&CFTOKEN=80703047', 'Levene, Mark; Loizou, George', '03/01/1999', 'Although there has been a vast amount of researc... be attained in polynomial time in the size of F.', '11', ['http://dl.acm.org/citation.cfm?id=1777209&CFID=200971790&CFTOKEN=80703047&preflayout=flat', 'http://dl.acm.org/citation.cfm?id=656418&CFID=200971790&CFTOKEN=80703047&preflayout=flat', 'http://dl.acm.org/citation.cfm?id=1886802&CFID=200971790&CFTOKEN=80703047&preflayout=flat'], ['Mining correct properties in incomplete databases', 'http://dl.acm.org/citation.cfm?id=1777209&CFID=200971790&CFTOKEN=80703047&preflayout=flat', 'http://dl.acm.org/citation.cfm?id=1777209&CFID=200971790&CFTOKEN=80703047&preflayout=flat', 'Rioult, Fran&#231;ois; Cr&#233;milleux, Bruno', '09/18/2006', 'Missing values issue in databases is an importan...</i>-free patterns in presence of missing values.', 1, ['http://dl.acm.org/citation.cfm?id=1617587&CFID=200971790&CFTOKEN=80703047&preflayout=flat', '', '']], ['FUN: An Efficient Algorithm for Mining Functional and Embedded Dependencies', 'http://dl.acm.org/citation.cfm?id=656418&CFID=200971790&CFTOKEN=80703047&preflayout=flat', 'http://dl.acm.org/citation.cfm?id=656418&CFID=200971790&CFTOKEN=80703047&preflayout=flat', 'Novelli, Noel; Cicchetti, Rosine', '01/04/2001', 'Discovering functional dependencies from existin...used in particular for managing data warehouses).', '7', ['http://dl.acm.org/citation.cfm?id=2026737&CFID=200971790&CFTOKEN=80703047&preflayout=flat', 'http://dl.acm.org/citation.cfm?id=2041339&CFID=200971790&CFTOKEN=80703047&preflayout=flat', 'http://dl.acm.org/citation.cfm?id=1883984&CFID=200971790&CFTOKEN=80703047&preflayout=flat']], ['On the role of the complementation rule for data dependencies over incomplete relations', 'http://dl.acm.org/citation.cfm?id=1886802&CFID=200971790&CFTOKEN=80703047&preflayout=flat', 'http://dl.acm.org/citation.cfm?id=1886802&CFID=200971790&CFTOKEN=80703047&preflayout=flat', 'Ferrarotti, Flavio; Hartmann, Sven; Link, Sebastian', '07/06/2010', 'Recently, an axiomatization for functional depen...ify previous results for the special cases above.', '2', ['http://dl.acm.org/citation.cfm?id=2198182&CFID=200971790&CFTOKEN=80703047&preflayout=flat', 'http://dl.acm.org/citation.cfm?id=2351783&CFID=200971790&CFTOKEN=80703047&preflayout=flat', '']]], ['The role of domain ontologies in database design...gy management and conceptual modeling environment', 'http://dl.acm.org/citation.cfm?id=1166074.116608...M&CFID=200971790&CFTOKEN=80703047&preflayout=flat', 'http://dl.acm.org/ft_gateway.cfm?id=1166083&ftid=382508&dwn=1&CFID=200971790&CFTOKEN=80703047', 'Sugumaran, Vijayan; Storey, Veda C.', '09/01/2006', 'Database design is difficult because it involves...effective in creating entity-relationship models.', '16', ['http://dl.acm.org/citation.cfm?id=1434580&CFID=200971790&CFTOKEN=80703047&preflayout=flat', 'http://dl.acm.org/citation.cfm?id=1330610&CFID=200971790&CFTOKEN=80703047&preflayout=flat', 'http://dl.acm.org/citation.cfm?id=2264285&CFID=200971790&CFTOKEN=80703047&preflayout=flat'], ['Extending the ANSI/SPARC Architecture Database w...plicit Data Semantics: An Ontology-Based Approach', 'http://dl.acm.org/citation.cfm?id=1434580&CFID=200971790&CFTOKEN=80703047&preflayout=flat', 'http://dl.acm.org/citation.cfm?id=1434580&CFID=200971790&CFTOKEN=80703047&preflayout=flat', 'Fankam, Chim&#232;ne; Jean, St&#233;phane; Bellatreche, Ladjel; A&#239;t-Ameur, Yamine', '09/29/2008', 'The database (DB) design process follows the tra...end the ANSI/SPARC architecture to support OBDBs.', '2', ['http://dl.acm.org/citation.cfm?id=2075882&CFID=200971790&CFTOKEN=80703047&preflayout=flat', 'http://dl.acm.org/citation.cfm?id=1690995&CFID=200971790&CFTOKEN=80703047&preflayout=flat', '']], ['An algorithm for the automatic transformation of ontology axioms into a rule model', 'http://dl.acm.org/citation.cfm?id=1330610&CFID=200971790&CFTOKEN=80703047&preflayout=flat', 'http://dl.acm.org/ft_gateway.cfm?id=1330610&type=pdf&CFID=200971790&CFTOKEN=80703047', 'Vasilecas, Olegas; Bugaite, Diana', '06/14/2007', 'Quite a number of authors are analysing transfor...nsformation of ontology axioms into a rule model.', '5', ['http://dl.acm.org/citation.cfm?id=2008668&CFID=200971790&CFTOKEN=80703047&preflayout=flat', 'http://dl.acm.org/citation.cfm?id=1693909&CFID=200971790&CFTOKEN=80703047&preflayout=flat', 'http://dl.acm.org/citation.cfm?id=1805328&CFID=200971790&CFTOKEN=80703047&preflayout=flat']], ['Transforming semi-structured life science diagrams into meaningful domain ontologies with DiDOn', 'http://dl.acm.org/citation.cfm?id=2264285&CFID=200971790&CFTOKEN=80703047&preflayout=flat', 'http://dl.acm.org/citation.cfm?id=2264285&CFID=200971790&CFTOKEN=80703047&preflayout=flat', 'Keet, C. Maria', '06/01/2012', 'Bio-ontology development is a resource-consuming...s illustrated using Pathway Studio as case study.', 0, []]]]"
p4629
sS'au'
p4630
S"<Row {'username': 'manu1', 'auth_event': <gluon...._record': <function <lambda> at 0x7f8010c13758>}>"
p4631
sS'l1'
p4632
S"['database design', 2, 3, True, True, True]"
p4633
sS'email'
p4634
S"'papireddygarimaneesha88@gmail.com'"
p4635
sssS'traceback'
p4636
S'Traceback (most recent call last):\n  File "/home/maneesha/Downloads/web2py/gluon/restricted.py", line 205, in restricted\n    exec ccode in environment\n  File "/home/maneesha/Downloads/web2py/applications/cite_mf/controllers/default.py", line 235, in <module>\n  File "/home/maneesha/Downloads/web2py/gluon/globals.py", line 173, in <lambda>\n    self._caller = lambda f: f()\n  File "/home/maneesha/Downloads/web2py/applications/cite_mf/controllers/default.py", line 73, in final_ans\n    return dict(bigans=bigans,level=l1[1],top=l1[2],ret1=ret1,email=email)\nNameError: global name \'ret1\' is not defined\n'
p4637
s.