(dp1
S'output'
p2
S"<class 'urllib2.URLError'> <urlopen error [Errno -2] Name or service not known>"
p3
sS'layer'
p4
S'/home/maneesha/Downloads/web2py/applications/ssad3a/controllers/default.py'
p5
sS'code'
p6
S'# -*- coding: utf-8 -*-\n### required - do no delete\n#def user(): return dict(form=auth())\n#def download(): return response.download(request,db)\n#def call(): return service()\n### end requires\n#def index():\n #   return dict()\n\n#def error():\n #   return dict()\nfrom gluon.tools import fetch\nimport re\nlistf=[]\ncount=0\nbigans=[]\ndef index():\n    form=SQLFORM(db.input)\n    if form.process().accepted:\n        response.flash = \'you entred\'\n        redirect(URL(\'final_ans\'))\n    return dict(form=form)\ndef year_user(index_yr):   #index_yr - only in this code not in main one\n    flag=index_yr\n    redirect(URL(\'final_ans()\'))\n    flag=0\n    #return dict(ans=ll1[0],l_yr=ll1[1])\ndef extract1(url,l1):\n    ret=[]\n    html=fetch(url)\n    html_splitted=html.split("<A HREF=\\"citation.cfm")\n    del html_splitted[0]\n    k=html_splitted[0].split(\'>\')\n    if k[1][:-3]==l1[0]:\n        k=html_splitted[0].find(\'\\"\')\n        s="http://dl.acm.org/citation.cfm"+html_splitted[0][:k]\n        ret.append(s.split(\'&preflayout\')[0]+\'&preflayout=flat\')\n    else:\n        for i in range(0,l1[2]):\n            k=html_splitted[i].find(\'\\"\')\n            s="http://dl.acm.org/citation.cfm"+html_splitted[i][:k]\n            ret.append(s.split(\'&preflayout\')[0]+\'&preflayout=flat\')\n    return ret\n    \n    \ndef final_ans():\n    l1=u_filter() \n    url="http://dl.acm.org/results.cfm?h=1&query="+\'+\'.join(l1[0].split())\n    fst_l=extract1(url,l1)\n    #for l in fst_l:\n     #   listf.append(cite(l))\n    rec(fst_l,l1,bigans)\n    global listf\n    return dict(bigans=bigans,level=l1[1],top=l1[2])\ndef rec(list1,l1,bigans):\n    global count\n    count=count+1\n    global listf\n    listf.append([])\n    for x in list1:\n        if x!=\'\':\n            z=cite(x)\n            #global listf\n            #listf[count-1].append(z)\n            bigans.append(z)\n            if count < l1[1]:\n                rec(z[5],l1,bigans[-1])\n    count=count-1\n    return\ndef cite(url):\n    if url==\'\':\n        return []\n    l1=u_filter()\n    html=fetch(url)\n    temp=[]\n        #temp=[]\n    d=re.search(\'<meta name="citation_title"[\\w\\W]*?>\',html).group()\n    d=bold(d)\n        #temp.append(d.split(\'>\')[0][9:-1])\n    temp.append(d.split(\'=\')[2][1:-2])\n    temp.append(url)\n    c=re.search(\'<meta name="citation_authors"[\\w\\W]*?>\',html).group()\n    c=bold(c)\n    if l1[3]==1:\n        #temp.append(d.split(\'>\')[0][9:-1])\n        temp.append(c.split(\'=\')[2][1:-2])\n    else:\n        temp.append(-1)\n    b=re.search(\'<meta name="citation_date"[\\w\\W]*?>\',html).group()\n    b=bold(b)\n    if l1[5]==1:\n        temp.append(b.split(\'=\')[2][1:-2])\n    else:\n        temp.append(-1)\n    s=re.search(\'CITED BY[\\w\\W]*?INDEX TERMS\',html).group()\n    if \'Citings are not available\' not in s:\n        e=re.search(\'\\d* Citations\',s)\n        if l1[4]!=1:\n            temp.append(-1)\n        elif e!=None:\n            temp.append(e.group().split()[0])\n        else:                                                                            \n            temp.append(1)\n        i=0\n        cit=[]\n        while i < l1[2]:\n            i+=1\n            s1=re.search(\'<a href[\\w\\W]*?</a>\',s)\n            if s1==None:\n                cit.append(\'\')\n            elif s1!=None:\n                k=s.find(s1.group())\n                #k1=s[:k]\n                cit.append(("http://dl.acm.org/"+s1.group().split(\'\\"\')[1]).split(\'&preflayout\')[0]+\'&preflayout=flat\')\n                s=s[k+2:]\n           \n        temp.append(cit)\n    else:\n        if l1[4]==1:\n            temp.append(0)\n        else:\n            temp.append(-1)\n        temp.append([])\n    return temp\ndef u_filter():\n    inpu=db().select(db.input.ALL)\n    for inp in inpu:\n        key=inp.keywords\n        level=inp.level\n        top=inp.top\n        auth=inp.author\n        cited_by=inp.cited_by\n        year=inp.year\n    return [key,level,top,auth,cited_by,year]\ndef bold(d):\n    pre=""\n    while pre!=d:\n        pre=d\n        d=d.replace("<b>","");\n        d=d.replace("</b>","");\n    return d\n\nresponse._vars=response._caller(final_ans)\n'
p7
sS'snapshot'
p8
(dp9
S'exception'
p10
(dp11
S'__module__'
p12
S"'urllib2'"
p13
sS'__getslice__'
p14
S"<method-wrapper '__getslice__' of URLError object>"
p15
sS'__str__'
p16
S"<bound method URLError.__str__ of URLError(gaierror(-2, 'Name or service not known'),)>"
p17
sS'__reduce__'
p18
S'<built-in method __reduce__ of URLError object>'
p19
sS'__dict__'
p20
S"{'reason': gaierror(-2, 'Name or service not known')}"
p21
sS'__sizeof__'
p22
S'<built-in method __sizeof__ of URLError object>'
p23
sS'__weakref__'
p24
S'None'
p25
sS'__init__'
p26
S"<bound method URLError.__init__ of URLError(gaierror(-2, 'Name or service not known'),)>"
p27
sS'__setattr__'
p28
S"<method-wrapper '__setattr__' of URLError object>"
p29
sS'__reduce_ex__'
p30
S'<built-in method __reduce_ex__ of URLError object>'
p31
sS'__new__'
p32
S'<built-in method __new__ of type object>'
p33
sS'errno'
p34
S'None'
p35
sS'__format__'
p36
S'<built-in method __format__ of URLError object>'
p37
sS'__class__'
p38
S"<class 'urllib2.URLError'>"
p39
sS'filename'
p40
S'None'
p41
sS'__doc__'
p42
S'None'
p43
sS'__getitem__'
p44
S"<method-wrapper '__getitem__' of URLError object>"
p45
sS'__setstate__'
p46
S'<built-in method __setstate__ of URLError object>'
p47
sS'__getattribute__'
p48
S"<method-wrapper '__getattribute__' of URLError object>"
p49
sS'args'
p50
S"(gaierror(-2, 'Name or service not known'),)"
p51
sS'reason'
p52
S"gaierror(-2, 'Name or service not known')"
p53
sS'__subclasshook__'
p54
S'<built-in method __subclasshook__ of type object>'
p55
sS'__unicode__'
p56
S'<built-in method __unicode__ of URLError object>'
p57
sS'strerror'
p58
S'None'
p59
sS'__delattr__'
p60
S"<method-wrapper '__delattr__' of URLError object>"
p61
sS'__repr__'
p62
S"<method-wrapper '__repr__' of URLError object>"
p63
sS'__hash__'
p64
S"<method-wrapper '__hash__' of URLError object>"
p65
ssS'evalue'
p66
S'<urlopen error [Errno -2] Name or service not known>'
p67
sS'request'
p68
ccopy_reg
_reconstructor
p69
(cgluon.html
BEAUTIFY
p70
c__builtin__
object
p71
NtRp72
(dp73
S'attributes'
p74
(dp75
sS'components'
p76
(lp77
g69
(cgluon.html
TABLE
p78
g71
NtRp79
(dp80
g74
(dp81
S'level'
p82
I5
ssS'parent'
p83
Nsg76
(lp84
g69
(cgluon.html
TR
p85
g71
NtRp86
(dp87
g74
(dp88
sg83
g79
sg76
(lp89
g69
(cgluon.html
TD
p90
g71
NtRp91
(dp92
g74
(dp93
S'_style'
p94
S'font-weight:bold;vertical-align:top'
p95
ssg83
g86
sg76
(lp96
S'ajax'
p97
asbag69
(g90
g71
NtRp98
(dp99
g74
(dp100
S'_valign'
p101
S'top'
p102
ssg83
g86
sg76
(lp103
S':'
asbag69
(g90
g71
NtRp104
(dp105
g74
(dp106
sg83
g86
sg76
(lp107
g69
(g70
g71
NtRp108
(dp109
g74
(dp110
g82
I5
ssg83
g104
sg76
(lp111
S'False'
p112
asbasbasbag69
(g85
g71
NtRp113
(dp114
g74
(dp115
sg83
g79
sg76
(lp116
g69
(g90
g71
NtRp117
(dp118
g74
(dp119
g94
g95
ssg83
g113
sg76
(lp120
S'application'
p121
asbag69
(g90
g71
NtRp122
(dp123
g74
(dp124
g101
g102
ssg83
g113
sg76
(lp125
S':'
asbag69
(g90
g71
NtRp126
(dp127
g74
(dp128
sg83
g113
sg76
(lp129
g69
(g70
g71
NtRp130
(dp131
g74
(dp132
g82
I5
ssg83
g126
sg76
(lp133
S'ssad3a'
p134
asbasbasbag69
(g85
g71
NtRp135
(dp136
g74
(dp137
sg83
g79
sg76
(lp138
g69
(g90
g71
NtRp139
(dp140
g74
(dp141
g94
g95
ssg83
g135
sg76
(lp142
g50
asbag69
(g90
g71
NtRp143
(dp144
g74
(dp145
g101
g102
ssg83
g135
sg76
(lp146
S':'
asbag69
(g90
g71
NtRp147
(dp148
g74
(dp149
sg83
g135
sg76
(lp150
g69
(g70
g71
NtRp151
(dp152
g74
(dp153
g82
I5
ssg83
g147
sg76
(lp154
g69
(g78
g71
NtRp155
(dp156
g74
(dp157
g82
I4
ssg83
Nsg76
(lp158
sbasbasbasbag69
(g85
g71
NtRp159
(dp160
g74
(dp161
sg83
g79
sg76
(lp162
g69
(g90
g71
NtRp163
(dp164
g74
(dp165
g94
g95
ssg83
g159
sg76
(lp166
S'body'
p167
asbag69
(g90
g71
NtRp168
(dp169
g74
(dp170
g101
g102
ssg83
g159
sg76
(lp171
S':'
asbag69
(g90
g71
NtRp172
(dp173
g74
(dp174
sg83
g159
sg76
(lp175
g69
(g70
g71
NtRp176
(dp177
g74
(dp178
g82
I5
ssg83
g172
sg76
(lp179
S'<cStringIO.StringO object at 0x7f8f0c41f1b8>'
p180
asbasbasbag69
(g85
g71
NtRp181
(dp182
g74
(dp183
sg83
g79
sg76
(lp184
g69
(g90
g71
NtRp185
(dp186
g74
(dp187
g94
g95
ssg83
g181
sg76
(lp188
S'client'
p189
asbag69
(g90
g71
NtRp190
(dp191
g74
(dp192
g101
g102
ssg83
g181
sg76
(lp193
S':'
asbag69
(g90
g71
NtRp194
(dp195
g74
(dp196
sg83
g181
sg76
(lp197
g69
(g70
g71
NtRp198
(dp199
g74
(dp200
g82
I5
ssg83
g194
sg76
(lp201
S'127.0.0.1'
p202
asbasbasbag69
(g85
g71
NtRp203
(dp204
g74
(dp205
sg83
g79
sg76
(lp206
g69
(g90
g71
NtRp207
(dp208
g74
(dp209
g94
g95
ssg83
g203
sg76
(lp210
S'controller'
p211
asbag69
(g90
g71
NtRp212
(dp213
g74
(dp214
g101
g102
ssg83
g203
sg76
(lp215
S':'
asbag69
(g90
g71
NtRp216
(dp217
g74
(dp218
sg83
g203
sg76
(lp219
g69
(g70
g71
NtRp220
(dp221
g74
(dp222
g82
I5
ssg83
g216
sg76
(lp223
S'default'
p224
asbasbasbag69
(g85
g71
NtRp225
(dp226
g74
(dp227
sg83
g79
sg76
(lp228
g69
(g90
g71
NtRp229
(dp230
g74
(dp231
g94
g95
ssg83
g225
sg76
(lp232
S'cookies'
p233
asbag69
(g90
g71
NtRp234
(dp235
g74
(dp236
g101
g102
ssg83
g225
sg76
(lp237
S':'
asbag69
(g90
g71
NtRp238
(dp239
g74
(dp240
sg83
g225
sg76
(lp241
g69
(g70
g71
NtRp242
(dp243
g74
(dp244
g82
I5
ssg83
g238
sg76
(lp245
g69
(g78
g71
NtRp246
(dp247
g74
(dp248
g82
I4
ssg83
Nsg76
(lp249
g69
(g85
g71
NtRp250
(dp251
g74
(dp252
sg83
g246
sg76
(lp253
g69
(g90
g71
NtRp254
(dp255
g74
(dp256
g94
g95
ssg83
g250
sg76
(lp257
S'session_id_admin'
p258
asbag69
(g90
g71
NtRp259
(dp260
g74
(dp261
g101
g102
ssg83
g250
sg76
(lp262
S':'
asbag69
(g90
g71
NtRp263
(dp264
g74
(dp265
sg83
g250
sg76
(lp266
g69
(g70
g71
NtRp267
(dp268
g74
(dp269
g82
I4
ssg83
g263
sg76
(lp270
g69
(g78
g71
NtRp271
(dp272
g74
(dp273
g82
I3
ssg83
Nsg76
(lp274
g69
(g85
g71
NtRp275
(dp276
g74
(dp277
sg83
g271
sg76
(lp278
g69
(g90
g71
NtRp279
(dp280
g74
(dp281
g94
g95
ssg83
g275
sg76
(lp282
S'comment'
p283
asbag69
(g90
g71
NtRp284
(dp285
g74
(dp286
g101
g102
ssg83
g275
sg76
(lp287
S':'
asbag69
(g90
g71
NtRp288
(dp289
g74
(dp290
sg83
g275
sg76
(lp291
g69
(g70
g71
NtRp292
(dp293
g74
(dp294
g82
I3
ssg83
g288
sg76
(lp295
S''
asbasbasbag69
(g85
g71
NtRp296
(dp297
g74
(dp298
sg83
g271
sg76
(lp299
g69
(g90
g71
NtRp300
(dp301
g74
(dp302
g94
g95
ssg83
g296
sg76
(lp303
S'domain'
p304
asbag69
(g90
g71
NtRp305
(dp306
g74
(dp307
g101
g102
ssg83
g296
sg76
(lp308
S':'
asbag69
(g90
g71
NtRp309
(dp310
g74
(dp311
sg83
g296
sg76
(lp312
g69
(g70
g71
NtRp313
(dp314
g74
(dp315
g82
I3
ssg83
g309
sg76
(lp316
S''
asbasbasbag69
(g85
g71
NtRp317
(dp318
g74
(dp319
sg83
g271
sg76
(lp320
g69
(g90
g71
NtRp321
(dp322
g74
(dp323
g94
g95
ssg83
g317
sg76
(lp324
S'expires'
p325
asbag69
(g90
g71
NtRp326
(dp327
g74
(dp328
g101
g102
ssg83
g317
sg76
(lp329
S':'
asbag69
(g90
g71
NtRp330
(dp331
g74
(dp332
sg83
g317
sg76
(lp333
g69
(g70
g71
NtRp334
(dp335
g74
(dp336
g82
I3
ssg83
g330
sg76
(lp337
S''
asbasbasbag69
(g85
g71
NtRp338
(dp339
g74
(dp340
sg83
g271
sg76
(lp341
g69
(g90
g71
NtRp342
(dp343
g74
(dp344
g94
g95
ssg83
g338
sg76
(lp345
S'httponly'
p346
asbag69
(g90
g71
NtRp347
(dp348
g74
(dp349
g101
g102
ssg83
g338
sg76
(lp350
S':'
asbag69
(g90
g71
NtRp351
(dp352
g74
(dp353
sg83
g338
sg76
(lp354
g69
(g70
g71
NtRp355
(dp356
g74
(dp357
g82
I3
ssg83
g351
sg76
(lp358
S''
asbasbasbag69
(g85
g71
NtRp359
(dp360
g74
(dp361
sg83
g271
sg76
(lp362
g69
(g90
g71
NtRp363
(dp364
g74
(dp365
g94
g95
ssg83
g359
sg76
(lp366
S'max-age'
p367
asbag69
(g90
g71
NtRp368
(dp369
g74
(dp370
g101
g102
ssg83
g359
sg76
(lp371
S':'
asbag69
(g90
g71
NtRp372
(dp373
g74
(dp374
sg83
g359
sg76
(lp375
g69
(g70
g71
NtRp376
(dp377
g74
(dp378
g82
I3
ssg83
g372
sg76
(lp379
S''
asbasbasbag69
(g85
g71
NtRp380
(dp381
g74
(dp382
sg83
g271
sg76
(lp383
g69
(g90
g71
NtRp384
(dp385
g74
(dp386
g94
g95
ssg83
g380
sg76
(lp387
S'path'
p388
asbag69
(g90
g71
NtRp389
(dp390
g74
(dp391
g101
g102
ssg83
g380
sg76
(lp392
S':'
asbag69
(g90
g71
NtRp393
(dp394
g74
(dp395
sg83
g380
sg76
(lp396
g69
(g70
g71
NtRp397
(dp398
g74
(dp399
g82
I3
ssg83
g393
sg76
(lp400
S''
asbasbasbag69
(g85
g71
NtRp401
(dp402
g74
(dp403
sg83
g271
sg76
(lp404
g69
(g90
g71
NtRp405
(dp406
g74
(dp407
g94
g95
ssg83
g401
sg76
(lp408
S'secure'
p409
asbag69
(g90
g71
NtRp410
(dp411
g74
(dp412
g101
g102
ssg83
g401
sg76
(lp413
S':'
asbag69
(g90
g71
NtRp414
(dp415
g74
(dp416
sg83
g401
sg76
(lp417
g69
(g70
g71
NtRp418
(dp419
g74
(dp420
g82
I3
ssg83
g414
sg76
(lp421
S''
asbasbasbag69
(g85
g71
NtRp422
(dp423
g74
(dp424
sg83
g271
sg76
(lp425
g69
(g90
g71
NtRp426
(dp427
g74
(dp428
g94
g95
ssg83
g422
sg76
(lp429
S'version'
p430
asbag69
(g90
g71
NtRp431
(dp432
g74
(dp433
g101
g102
ssg83
g422
sg76
(lp434
S':'
asbag69
(g90
g71
NtRp435
(dp436
g74
(dp437
sg83
g422
sg76
(lp438
g69
(g70
g71
NtRp439
(dp440
g74
(dp441
g82
I3
ssg83
g435
sg76
(lp442
S''
asbasbasbasbasbasbasbag69
(g85
g71
NtRp443
(dp444
g74
(dp445
sg83
g246
sg76
(lp446
g69
(g90
g71
NtRp447
(dp448
g74
(dp449
g94
g95
ssg83
g443
sg76
(lp450
S'session_id_ssad3a'
p451
asbag69
(g90
g71
NtRp452
(dp453
g74
(dp454
g101
g102
ssg83
g443
sg76
(lp455
S':'
asbag69
(g90
g71
NtRp456
(dp457
g74
(dp458
sg83
g443
sg76
(lp459
g69
(g70
g71
NtRp460
(dp461
g74
(dp462
g82
I4
ssg83
g456
sg76
(lp463
g69
(g78
g71
NtRp464
(dp465
g74
(dp466
g82
I3
ssg83
Nsg76
(lp467
g69
(g85
g71
NtRp468
(dp469
g74
(dp470
sg83
g464
sg76
(lp471
g69
(g90
g71
NtRp472
(dp473
g74
(dp474
g94
g95
ssg83
g468
sg76
(lp475
g283
asbag69
(g90
g71
NtRp476
(dp477
g74
(dp478
g101
g102
ssg83
g468
sg76
(lp479
S':'
asbag69
(g90
g71
NtRp480
(dp481
g74
(dp482
sg83
g468
sg76
(lp483
g69
(g70
g71
NtRp484
(dp485
g74
(dp486
g82
I3
ssg83
g480
sg76
(lp487
S''
asbasbasbag69
(g85
g71
NtRp488
(dp489
g74
(dp490
sg83
g464
sg76
(lp491
g69
(g90
g71
NtRp492
(dp493
g74
(dp494
g94
g95
ssg83
g488
sg76
(lp495
g304
asbag69
(g90
g71
NtRp496
(dp497
g74
(dp498
g101
g102
ssg83
g488
sg76
(lp499
S':'
asbag69
(g90
g71
NtRp500
(dp501
g74
(dp502
sg83
g488
sg76
(lp503
g69
(g70
g71
NtRp504
(dp505
g74
(dp506
g82
I3
ssg83
g500
sg76
(lp507
S''
asbasbasbag69
(g85
g71
NtRp508
(dp509
g74
(dp510
sg83
g464
sg76
(lp511
g69
(g90
g71
NtRp512
(dp513
g74
(dp514
g94
g95
ssg83
g508
sg76
(lp515
g325
asbag69
(g90
g71
NtRp516
(dp517
g74
(dp518
g101
g102
ssg83
g508
sg76
(lp519
S':'
asbag69
(g90
g71
NtRp520
(dp521
g74
(dp522
sg83
g508
sg76
(lp523
g69
(g70
g71
NtRp524
(dp525
g74
(dp526
g82
I3
ssg83
g520
sg76
(lp527
S''
asbasbasbag69
(g85
g71
NtRp528
(dp529
g74
(dp530
sg83
g464
sg76
(lp531
g69
(g90
g71
NtRp532
(dp533
g74
(dp534
g94
g95
ssg83
g528
sg76
(lp535
g346
asbag69
(g90
g71
NtRp536
(dp537
g74
(dp538
g101
g102
ssg83
g528
sg76
(lp539
S':'
asbag69
(g90
g71
NtRp540
(dp541
g74
(dp542
sg83
g528
sg76
(lp543
g69
(g70
g71
NtRp544
(dp545
g74
(dp546
g82
I3
ssg83
g540
sg76
(lp547
S''
asbasbasbag69
(g85
g71
NtRp548
(dp549
g74
(dp550
sg83
g464
sg76
(lp551
g69
(g90
g71
NtRp552
(dp553
g74
(dp554
g94
g95
ssg83
g548
sg76
(lp555
g367
asbag69
(g90
g71
NtRp556
(dp557
g74
(dp558
g101
g102
ssg83
g548
sg76
(lp559
S':'
asbag69
(g90
g71
NtRp560
(dp561
g74
(dp562
sg83
g548
sg76
(lp563
g69
(g70
g71
NtRp564
(dp565
g74
(dp566
g82
I3
ssg83
g560
sg76
(lp567
S''
asbasbasbag69
(g85
g71
NtRp568
(dp569
g74
(dp570
sg83
g464
sg76
(lp571
g69
(g90
g71
NtRp572
(dp573
g74
(dp574
g94
g95
ssg83
g568
sg76
(lp575
g388
asbag69
(g90
g71
NtRp576
(dp577
g74
(dp578
g101
g102
ssg83
g568
sg76
(lp579
S':'
asbag69
(g90
g71
NtRp580
(dp581
g74
(dp582
sg83
g568
sg76
(lp583
g69
(g70
g71
NtRp584
(dp585
g74
(dp586
g82
I3
ssg83
g580
sg76
(lp587
S''
asbasbasbag69
(g85
g71
NtRp588
(dp589
g74
(dp590
sg83
g464
sg76
(lp591
g69
(g90
g71
NtRp592
(dp593
g74
(dp594
g94
g95
ssg83
g588
sg76
(lp595
g409
asbag69
(g90
g71
NtRp596
(dp597
g74
(dp598
g101
g102
ssg83
g588
sg76
(lp599
S':'
asbag69
(g90
g71
NtRp600
(dp601
g74
(dp602
sg83
g588
sg76
(lp603
g69
(g70
g71
NtRp604
(dp605
g74
(dp606
g82
I3
ssg83
g600
sg76
(lp607
S''
asbasbasbag69
(g85
g71
NtRp608
(dp609
g74
(dp610
sg83
g464
sg76
(lp611
g69
(g90
g71
NtRp612
(dp613
g74
(dp614
g94
g95
ssg83
g608
sg76
(lp615
g430
asbag69
(g90
g71
NtRp616
(dp617
g74
(dp618
g101
g102
ssg83
g608
sg76
(lp619
S':'
asbag69
(g90
g71
NtRp620
(dp621
g74
(dp622
sg83
g608
sg76
(lp623
g69
(g70
g71
NtRp624
(dp625
g74
(dp626
g82
I3
ssg83
g620
sg76
(lp627
S''
asbasbasbasbasbasbasbag69
(g85
g71
NtRp628
(dp629
g74
(dp630
sg83
g246
sg76
(lp631
g69
(g90
g71
NtRp632
(dp633
g74
(dp634
g94
g95
ssg83
g628
sg76
(lp635
S'session_id_welcome'
p636
asbag69
(g90
g71
NtRp637
(dp638
g74
(dp639
g101
g102
ssg83
g628
sg76
(lp640
S':'
asbag69
(g90
g71
NtRp641
(dp642
g74
(dp643
sg83
g628
sg76
(lp644
g69
(g70
g71
NtRp645
(dp646
g74
(dp647
g82
I4
ssg83
g641
sg76
(lp648
g69
(g78
g71
NtRp649
(dp650
g74
(dp651
g82
I3
ssg83
Nsg76
(lp652
g69
(g85
g71
NtRp653
(dp654
g74
(dp655
sg83
g649
sg76
(lp656
g69
(g90
g71
NtRp657
(dp658
g74
(dp659
g94
g95
ssg83
g653
sg76
(lp660
g283
asbag69
(g90
g71
NtRp661
(dp662
g74
(dp663
g101
g102
ssg83
g653
sg76
(lp664
S':'
asbag69
(g90
g71
NtRp665
(dp666
g74
(dp667
sg83
g653
sg76
(lp668
g69
(g70
g71
NtRp669
(dp670
g74
(dp671
g82
I3
ssg83
g665
sg76
(lp672
S''
asbasbasbag69
(g85
g71
NtRp673
(dp674
g74
(dp675
sg83
g649
sg76
(lp676
g69
(g90
g71
NtRp677
(dp678
g74
(dp679
g94
g95
ssg83
g673
sg76
(lp680
g304
asbag69
(g90
g71
NtRp681
(dp682
g74
(dp683
g101
g102
ssg83
g673
sg76
(lp684
S':'
asbag69
(g90
g71
NtRp685
(dp686
g74
(dp687
sg83
g673
sg76
(lp688
g69
(g70
g71
NtRp689
(dp690
g74
(dp691
g82
I3
ssg83
g685
sg76
(lp692
S''
asbasbasbag69
(g85
g71
NtRp693
(dp694
g74
(dp695
sg83
g649
sg76
(lp696
g69
(g90
g71
NtRp697
(dp698
g74
(dp699
g94
g95
ssg83
g693
sg76
(lp700
g325
asbag69
(g90
g71
NtRp701
(dp702
g74
(dp703
g101
g102
ssg83
g693
sg76
(lp704
S':'
asbag69
(g90
g71
NtRp705
(dp706
g74
(dp707
sg83
g693
sg76
(lp708
g69
(g70
g71
NtRp709
(dp710
g74
(dp711
g82
I3
ssg83
g705
sg76
(lp712
S''
asbasbasbag69
(g85
g71
NtRp713
(dp714
g74
(dp715
sg83
g649
sg76
(lp716
g69
(g90
g71
NtRp717
(dp718
g74
(dp719
g94
g95
ssg83
g713
sg76
(lp720
g346
asbag69
(g90
g71
NtRp721
(dp722
g74
(dp723
g101
g102
ssg83
g713
sg76
(lp724
S':'
asbag69
(g90
g71
NtRp725
(dp726
g74
(dp727
sg83
g713
sg76
(lp728
g69
(g70
g71
NtRp729
(dp730
g74
(dp731
g82
I3
ssg83
g725
sg76
(lp732
S''
asbasbasbag69
(g85
g71
NtRp733
(dp734
g74
(dp735
sg83
g649
sg76
(lp736
g69
(g90
g71
NtRp737
(dp738
g74
(dp739
g94
g95
ssg83
g733
sg76
(lp740
g367
asbag69
(g90
g71
NtRp741
(dp742
g74
(dp743
g101
g102
ssg83
g733
sg76
(lp744
S':'
asbag69
(g90
g71
NtRp745
(dp746
g74
(dp747
sg83
g733
sg76
(lp748
g69
(g70
g71
NtRp749
(dp750
g74
(dp751
g82
I3
ssg83
g745
sg76
(lp752
S''
asbasbasbag69
(g85
g71
NtRp753
(dp754
g74
(dp755
sg83
g649
sg76
(lp756
g69
(g90
g71
NtRp757
(dp758
g74
(dp759
g94
g95
ssg83
g753
sg76
(lp760
g388
asbag69
(g90
g71
NtRp761
(dp762
g74
(dp763
g101
g102
ssg83
g753
sg76
(lp764
S':'
asbag69
(g90
g71
NtRp765
(dp766
g74
(dp767
sg83
g753
sg76
(lp768
g69
(g70
g71
NtRp769
(dp770
g74
(dp771
g82
I3
ssg83
g765
sg76
(lp772
S''
asbasbasbag69
(g85
g71
NtRp773
(dp774
g74
(dp775
sg83
g649
sg76
(lp776
g69
(g90
g71
NtRp777
(dp778
g74
(dp779
g94
g95
ssg83
g773
sg76
(lp780
g409
asbag69
(g90
g71
NtRp781
(dp782
g74
(dp783
g101
g102
ssg83
g773
sg76
(lp784
S':'
asbag69
(g90
g71
NtRp785
(dp786
g74
(dp787
sg83
g773
sg76
(lp788
g69
(g70
g71
NtRp789
(dp790
g74
(dp791
g82
I3
ssg83
g785
sg76
(lp792
S''
asbasbasbag69
(g85
g71
NtRp793
(dp794
g74
(dp795
sg83
g649
sg76
(lp796
g69
(g90
g71
NtRp797
(dp798
g74
(dp799
g94
g95
ssg83
g793
sg76
(lp800
g430
asbag69
(g90
g71
NtRp801
(dp802
g74
(dp803
g101
g102
ssg83
g793
sg76
(lp804
S':'
asbag69
(g90
g71
NtRp805
(dp806
g74
(dp807
sg83
g793
sg76
(lp808
g69
(g70
g71
NtRp809
(dp810
g74
(dp811
g82
I3
ssg83
g805
sg76
(lp812
S''
asbasbasbasbasbasbasbasbasbasbasbag69
(g85
g71
NtRp813
(dp814
g74
(dp815
sg83
g79
sg76
(lp816
g69
(g90
g71
NtRp817
(dp818
g74
(dp819
g94
g95
ssg83
g813
sg76
(lp820
S'env'
p821
asbag69
(g90
g71
NtRp822
(dp823
g74
(dp824
g101
g102
ssg83
g813
sg76
(lp825
S':'
asbag69
(g90
g71
NtRp826
(dp827
g74
(dp828
sg83
g813
sg76
(lp829
g69
(g70
g71
NtRp830
(dp831
g74
(dp832
g82
I5
ssg83
g826
sg76
(lp833
g69
(g78
g71
NtRp834
(dp835
g74
(dp836
g82
I4
ssg83
Nsg76
(lp837
g69
(g85
g71
NtRp838
(dp839
g74
(dp840
sg83
g834
sg76
(lp841
g69
(g90
g71
NtRp842
(dp843
g74
(dp844
g94
g95
ssg83
g838
sg76
(lp845
S'app_folders'
p846
asbag69
(g90
g71
NtRp847
(dp848
g74
(dp849
g101
g102
ssg83
g838
sg76
(lp850
S':'
asbag69
(g90
g71
NtRp851
(dp852
g74
(dp853
sg83
g838
sg76
(lp854
g69
(g70
g71
NtRp855
(dp856
g74
(dp857
g82
I4
ssg83
g851
sg76
(lp858
S"set(['/home/maneesha/Downloads/web2py/applications/welcome/', '/home/maneesha/Downloads/web2py/applications/admin/', '/home/maneesha/Downloads/web2py/applications/ssad3a/'])"
p859
asbasbasbag69
(g85
g71
NtRp860
(dp861
g74
(dp862
sg83
g834
sg76
(lp863
g69
(g90
g71
NtRp864
(dp865
g74
(dp866
g94
g95
ssg83
g860
sg76
(lp867
S'applications_parent'
p868
asbag69
(g90
g71
NtRp869
(dp870
g74
(dp871
g101
g102
ssg83
g860
sg76
(lp872
S':'
asbag69
(g90
g71
NtRp873
(dp874
g74
(dp875
sg83
g860
sg76
(lp876
g69
(g70
g71
NtRp877
(dp878
g74
(dp879
g82
I4
ssg83
g873
sg76
(lp880
S'/home/maneesha/Downloads/web2py'
p881
asbasbasbag69
(g85
g71
NtRp882
(dp883
g74
(dp884
sg83
g834
sg76
(lp885
g69
(g90
g71
NtRp886
(dp887
g74
(dp888
g94
g95
ssg83
g882
sg76
(lp889
S'cmd_args'
p890
asbag69
(g90
g71
NtRp891
(dp892
g74
(dp893
g101
g102
ssg83
g882
sg76
(lp894
S':'
asbag69
(g90
g71
NtRp895
(dp896
g74
(dp897
sg83
g882
sg76
(lp898
g69
(g70
g71
NtRp899
(dp900
g74
(dp901
g82
I4
ssg83
g895
sg76
(lp902
g69
(g78
g71
NtRp903
(dp904
g74
(dp905
g82
I3
ssg83
Nsg76
(lp906
sbasbasbasbag69
(g85
g71
NtRp907
(dp908
g74
(dp909
sg83
g834
sg76
(lp910
g69
(g90
g71
NtRp911
(dp912
g74
(dp913
g94
g95
ssg83
g907
sg76
(lp914
S'cmd_options'
p915
asbag69
(g90
g71
NtRp916
(dp917
g74
(dp918
g101
g102
ssg83
g907
sg76
(lp919
S':'
asbag69
(g90
g71
NtRp920
(dp921
g74
(dp922
sg83
g907
sg76
(lp923
g69
(g70
g71
NtRp924
(dp925
g74
(dp926
g82
I4
ssg83
g920
sg76
(lp927
S"<Values at 0x2c89b00: {'verbose': False, 'ip': '127.0.0.1', 'shutdown_timeout': 5, 'taskbar': False, 'nocron': False, 'pid_filename': 'httpserver.pid', 'maxthreads': None, 'softcron': False, 'server_name': 'maneesha-Inspiron-N5050', 'bpython': False, 'nogui': False, 'port': 8000, 'extcron': False, 'debuglevel': 30, 'test': None, 'folder': '/home/maneesha/Downloads/web2py', 'config': '', 'import_models': False, 'winservice': '', 'shell': None, 'run': '', 'log_filename': 'httpserver.log', 'args': [''], 'socket_timeout': 5, 'ssl_ca_certificate': None, 'scheduler': None, 'profiler_filename': None, 'ssl_private_key': '', 'password': '<ask>', 'request_queue_size': 5, 'ssl_certificate': '', 'cronjob': False, 'numthreads': None, 'quiet': False, 'interfaces': None, 'minthreads': None, 'timeout': 10, 'plain': False, 'nobanner': False}>"
p928
asbasbasbag69
(g85
g71
NtRp929
(dp930
g74
(dp931
sg83
g834
sg76
(lp932
g69
(g90
g71
NtRp933
(dp934
g74
(dp935
g94
g95
ssg83
g929
sg76
(lp936
S'db_sessions'
p937
asbag69
(g90
g71
NtRp938
(dp939
g74
(dp940
g101
g102
ssg83
g929
sg76
(lp941
S':'
asbag69
(g90
g71
NtRp942
(dp943
g74
(dp944
sg83
g929
sg76
(lp945
g69
(g70
g71
NtRp946
(dp947
g74
(dp948
g82
I4
ssg83
g942
sg76
(lp949
S'set([])'
p950
asbasbasbag69
(g85
g71
NtRp951
(dp952
g74
(dp953
sg83
g834
sg76
(lp954
g69
(g90
g71
NtRp955
(dp956
g74
(dp957
g94
g95
ssg83
g951
sg76
(lp958
S'debugging'
p959
asbag69
(g90
g71
NtRp960
(dp961
g74
(dp962
g101
g102
ssg83
g951
sg76
(lp963
S':'
asbag69
(g90
g71
NtRp964
(dp965
g74
(dp966
sg83
g951
sg76
(lp967
g69
(g70
g71
NtRp968
(dp969
g74
(dp970
g82
I4
ssg83
g964
sg76
(lp971
g112
asbasbasbag69
(g85
g71
NtRp972
(dp973
g74
(dp974
sg83
g834
sg76
(lp975
g69
(g90
g71
NtRp976
(dp977
g74
(dp978
g94
g95
ssg83
g972
sg76
(lp979
S'gluon_parent'
p980
asbag69
(g90
g71
NtRp981
(dp982
g74
(dp983
g101
g102
ssg83
g972
sg76
(lp984
S':'
asbag69
(g90
g71
NtRp985
(dp986
g74
(dp987
sg83
g972
sg76
(lp988
g69
(g70
g71
NtRp989
(dp990
g74
(dp991
g82
I4
ssg83
g985
sg76
(lp992
S'/home/maneesha/Downloads/web2py'
p993
asbasbasbag69
(g85
g71
NtRp994
(dp995
g74
(dp996
sg83
g834
sg76
(lp997
g69
(g90
g71
NtRp998
(dp999
g74
(dp1000
g94
g95
ssg83
g994
sg76
(lp1001
S'http_accept'
p1002
asbag69
(g90
g71
NtRp1003
(dp1004
g74
(dp1005
g101
g102
ssg83
g994
sg76
(lp1006
S':'
asbag69
(g90
g71
NtRp1007
(dp1008
g74
(dp1009
sg83
g994
sg76
(lp1010
g69
(g70
g71
NtRp1011
(dp1012
g74
(dp1013
g82
I4
ssg83
g1007
sg76
(lp1014
S'text/html,application/xhtml+xml,application/xml;q=0.9,*/*;q=0.8'
p1015
asbasbasbag69
(g85
g71
NtRp1016
(dp1017
g74
(dp1018
sg83
g834
sg76
(lp1019
g69
(g90
g71
NtRp1020
(dp1021
g74
(dp1022
g94
g95
ssg83
g1016
sg76
(lp1023
S'http_accept_encoding'
p1024
asbag69
(g90
g71
NtRp1025
(dp1026
g74
(dp1027
g101
g102
ssg83
g1016
sg76
(lp1028
S':'
asbag69
(g90
g71
NtRp1029
(dp1030
g74
(dp1031
sg83
g1016
sg76
(lp1032
g69
(g70
g71
NtRp1033
(dp1034
g74
(dp1035
g82
I4
ssg83
g1029
sg76
(lp1036
S'gzip, deflate'
p1037
asbasbasbag69
(g85
g71
NtRp1038
(dp1039
g74
(dp1040
sg83
g834
sg76
(lp1041
g69
(g90
g71
NtRp1042
(dp1043
g74
(dp1044
g94
g95
ssg83
g1038
sg76
(lp1045
S'http_accept_language'
p1046
asbag69
(g90
g71
NtRp1047
(dp1048
g74
(dp1049
g101
g102
ssg83
g1038
sg76
(lp1050
S':'
asbag69
(g90
g71
NtRp1051
(dp1052
g74
(dp1053
sg83
g1038
sg76
(lp1054
g69
(g70
g71
NtRp1055
(dp1056
g74
(dp1057
g82
I4
ssg83
g1051
sg76
(lp1058
S'en-us,en;q=0.5'
p1059
asbasbasbag69
(g85
g71
NtRp1060
(dp1061
g74
(dp1062
sg83
g834
sg76
(lp1063
g69
(g90
g71
NtRp1064
(dp1065
g74
(dp1066
g94
g95
ssg83
g1060
sg76
(lp1067
S'http_connection'
p1068
asbag69
(g90
g71
NtRp1069
(dp1070
g74
(dp1071
g101
g102
ssg83
g1060
sg76
(lp1072
S':'
asbag69
(g90
g71
NtRp1073
(dp1074
g74
(dp1075
sg83
g1060
sg76
(lp1076
g69
(g70
g71
NtRp1077
(dp1078
g74
(dp1079
g82
I4
ssg83
g1073
sg76
(lp1080
S'keep-alive'
p1081
asbasbasbag69
(g85
g71
NtRp1082
(dp1083
g74
(dp1084
sg83
g834
sg76
(lp1085
g69
(g90
g71
NtRp1086
(dp1087
g74
(dp1088
g94
g95
ssg83
g1082
sg76
(lp1089
S'http_cookie'
p1090
asbag69
(g90
g71
NtRp1091
(dp1092
g74
(dp1093
g101
g102
ssg83
g1082
sg76
(lp1094
S':'
asbag69
(g90
g71
NtRp1095
(dp1096
g74
(dp1097
sg83
g1082
sg76
(lp1098
g69
(g70
g71
NtRp1099
(dp1100
g74
(dp1101
g82
I4
ssg83
g1095
sg76
(lp1102
S'session_id_welcome=127.0.0.1-2e765136-2cee-482e-9926-98f15c2e804b; session_id_admin=127.0.0.1-b3b1ac7e-10ee-447e-9052-36a1f7c81d9c; session_id_ssad3a=127.0.0.1-6ed7d82a-b24f-449d-a6cd-700fcc760505'
p1103
asbasbasbag69
(g85
g71
NtRp1104
(dp1105
g74
(dp1106
sg83
g834
sg76
(lp1107
g69
(g90
g71
NtRp1108
(dp1109
g74
(dp1110
g94
g95
ssg83
g1104
sg76
(lp1111
S'http_host'
p1112
asbag69
(g90
g71
NtRp1113
(dp1114
g74
(dp1115
g101
g102
ssg83
g1104
sg76
(lp1116
S':'
asbag69
(g90
g71
NtRp1117
(dp1118
g74
(dp1119
sg83
g1104
sg76
(lp1120
g69
(g70
g71
NtRp1121
(dp1122
g74
(dp1123
g82
I4
ssg83
g1117
sg76
(lp1124
S'127.0.0.1:8000'
p1125
asbasbasbag69
(g85
g71
NtRp1126
(dp1127
g74
(dp1128
sg83
g834
sg76
(lp1129
g69
(g90
g71
NtRp1130
(dp1131
g74
(dp1132
g94
g95
ssg83
g1126
sg76
(lp1133
S'http_user_agent'
p1134
asbag69
(g90
g71
NtRp1135
(dp1136
g74
(dp1137
g101
g102
ssg83
g1126
sg76
(lp1138
S':'
asbag69
(g90
g71
NtRp1139
(dp1140
g74
(dp1141
sg83
g1126
sg76
(lp1142
g69
(g70
g71
NtRp1143
(dp1144
g74
(dp1145
g82
I4
ssg83
g1139
sg76
(lp1146
S'Mozilla/5.0 (X11; Ubuntu; Linux x86_64; rv:15.0) Gecko/20100101 Firefox/15.0.1'
p1147
asbasbasbag69
(g85
g71
NtRp1148
(dp1149
g74
(dp1150
sg83
g834
sg76
(lp1151
g69
(g90
g71
NtRp1152
(dp1153
g74
(dp1154
g94
g95
ssg83
g1148
sg76
(lp1155
S'is_jython'
p1156
asbag69
(g90
g71
NtRp1157
(dp1158
g74
(dp1159
g101
g102
ssg83
g1148
sg76
(lp1160
S':'
asbag69
(g90
g71
NtRp1161
(dp1162
g74
(dp1163
sg83
g1148
sg76
(lp1164
g69
(g70
g71
NtRp1165
(dp1166
g74
(dp1167
g82
I4
ssg83
g1161
sg76
(lp1168
g112
asbasbasbag69
(g85
g71
NtRp1169
(dp1170
g74
(dp1171
sg83
g834
sg76
(lp1172
g69
(g90
g71
NtRp1173
(dp1174
g74
(dp1175
g94
g95
ssg83
g1169
sg76
(lp1176
S'is_pypy'
p1177
asbag69
(g90
g71
NtRp1178
(dp1179
g74
(dp1180
g101
g102
ssg83
g1169
sg76
(lp1181
S':'
asbag69
(g90
g71
NtRp1182
(dp1183
g74
(dp1184
sg83
g1169
sg76
(lp1185
g69
(g70
g71
NtRp1186
(dp1187
g74
(dp1188
g82
I4
ssg83
g1182
sg76
(lp1189
g112
asbasbasbag69
(g85
g71
NtRp1190
(dp1191
g74
(dp1192
sg83
g834
sg76
(lp1193
g69
(g90
g71
NtRp1194
(dp1195
g74
(dp1196
g94
g95
ssg83
g1190
sg76
(lp1197
S'path_info'
p1198
asbag69
(g90
g71
NtRp1199
(dp1200
g74
(dp1201
g101
g102
ssg83
g1190
sg76
(lp1202
S':'
asbag69
(g90
g71
NtRp1203
(dp1204
g74
(dp1205
sg83
g1190
sg76
(lp1206
g69
(g70
g71
NtRp1207
(dp1208
g74
(dp1209
g82
I4
ssg83
g1203
sg76
(lp1210
S'/ssad3a/default/final_ans'
p1211
asbasbasbag69
(g85
g71
NtRp1212
(dp1213
g74
(dp1214
sg83
g834
sg76
(lp1215
g69
(g90
g71
NtRp1216
(dp1217
g74
(dp1218
g94
g95
ssg83
g1212
sg76
(lp1219
S'query_string'
p1220
asbag69
(g90
g71
NtRp1221
(dp1222
g74
(dp1223
g101
g102
ssg83
g1212
sg76
(lp1224
S':'
asbag69
(g90
g71
NtRp1225
(dp1226
g74
(dp1227
sg83
g1212
sg76
(lp1228
g69
(g70
g71
NtRp1229
(dp1230
g74
(dp1231
g82
I4
ssg83
g1225
sg76
(lp1232
S''
asbasbasbag69
(g85
g71
NtRp1233
(dp1234
g74
(dp1235
sg83
g834
sg76
(lp1236
g69
(g90
g71
NtRp1237
(dp1238
g74
(dp1239
g94
g95
ssg83
g1233
sg76
(lp1240
S'remote_addr'
p1241
asbag69
(g90
g71
NtRp1242
(dp1243
g74
(dp1244
g101
g102
ssg83
g1233
sg76
(lp1245
S':'
asbag69
(g90
g71
NtRp1246
(dp1247
g74
(dp1248
sg83
g1233
sg76
(lp1249
g69
(g70
g71
NtRp1250
(dp1251
g74
(dp1252
g82
I4
ssg83
g1246
sg76
(lp1253
g202
asbasbasbag69
(g85
g71
NtRp1254
(dp1255
g74
(dp1256
sg83
g834
sg76
(lp1257
g69
(g90
g71
NtRp1258
(dp1259
g74
(dp1260
g94
g95
ssg83
g1254
sg76
(lp1261
S'remote_port'
p1262
asbag69
(g90
g71
NtRp1263
(dp1264
g74
(dp1265
g101
g102
ssg83
g1254
sg76
(lp1266
S':'
asbag69
(g90
g71
NtRp1267
(dp1268
g74
(dp1269
sg83
g1254
sg76
(lp1270
g69
(g70
g71
NtRp1271
(dp1272
g74
(dp1273
g82
I4
ssg83
g1267
sg76
(lp1274
S'33948'
p1275
asbasbasbag69
(g85
g71
NtRp1276
(dp1277
g74
(dp1278
sg83
g834
sg76
(lp1279
g69
(g90
g71
NtRp1280
(dp1281
g74
(dp1282
g94
g95
ssg83
g1276
sg76
(lp1283
S'request_method'
p1284
asbag69
(g90
g71
NtRp1285
(dp1286
g74
(dp1287
g101
g102
ssg83
g1276
sg76
(lp1288
S':'
asbag69
(g90
g71
NtRp1289
(dp1290
g74
(dp1291
sg83
g1276
sg76
(lp1292
g69
(g70
g71
NtRp1293
(dp1294
g74
(dp1295
g82
I4
ssg83
g1289
sg76
(lp1296
S'GET'
p1297
asbasbasbag69
(g85
g71
NtRp1298
(dp1299
g74
(dp1300
sg83
g834
sg76
(lp1301
g69
(g90
g71
NtRp1302
(dp1303
g74
(dp1304
g94
g95
ssg83
g1298
sg76
(lp1305
S'script_name'
p1306
asbag69
(g90
g71
NtRp1307
(dp1308
g74
(dp1309
g101
g102
ssg83
g1298
sg76
(lp1310
S':'
asbag69
(g90
g71
NtRp1311
(dp1312
g74
(dp1313
sg83
g1298
sg76
(lp1314
g69
(g70
g71
NtRp1315
(dp1316
g74
(dp1317
g82
I4
ssg83
g1311
sg76
(lp1318
S''
asbasbasbag69
(g85
g71
NtRp1319
(dp1320
g74
(dp1321
sg83
g834
sg76
(lp1322
g69
(g90
g71
NtRp1323
(dp1324
g74
(dp1325
g94
g95
ssg83
g1319
sg76
(lp1326
S'server_name'
p1327
asbag69
(g90
g71
NtRp1328
(dp1329
g74
(dp1330
g101
g102
ssg83
g1319
sg76
(lp1331
S':'
asbag69
(g90
g71
NtRp1332
(dp1333
g74
(dp1334
sg83
g1319
sg76
(lp1335
g69
(g70
g71
NtRp1336
(dp1337
g74
(dp1338
g82
I4
ssg83
g1332
sg76
(lp1339
S'maneesha-Inspiron-N5050'
p1340
asbasbasbag69
(g85
g71
NtRp1341
(dp1342
g74
(dp1343
sg83
g834
sg76
(lp1344
g69
(g90
g71
NtRp1345
(dp1346
g74
(dp1347
g94
g95
ssg83
g1341
sg76
(lp1348
S'server_port'
p1349
asbag69
(g90
g71
NtRp1350
(dp1351
g74
(dp1352
g101
g102
ssg83
g1341
sg76
(lp1353
S':'
asbag69
(g90
g71
NtRp1354
(dp1355
g74
(dp1356
sg83
g1341
sg76
(lp1357
g69
(g70
g71
NtRp1358
(dp1359
g74
(dp1360
g82
I4
ssg83
g1354
sg76
(lp1361
S'8000'
p1362
asbasbasbag69
(g85
g71
NtRp1363
(dp1364
g74
(dp1365
sg83
g834
sg76
(lp1366
g69
(g90
g71
NtRp1367
(dp1368
g74
(dp1369
g94
g95
ssg83
g1363
sg76
(lp1370
S'server_protocol'
p1371
asbag69
(g90
g71
NtRp1372
(dp1373
g74
(dp1374
g101
g102
ssg83
g1363
sg76
(lp1375
S':'
asbag69
(g90
g71
NtRp1376
(dp1377
g74
(dp1378
sg83
g1363
sg76
(lp1379
g69
(g70
g71
NtRp1380
(dp1381
g74
(dp1382
g82
I4
ssg83
g1376
sg76
(lp1383
S'HTTP/1.1'
p1384
asbasbasbag69
(g85
g71
NtRp1385
(dp1386
g74
(dp1387
sg83
g834
sg76
(lp1388
g69
(g90
g71
NtRp1389
(dp1390
g74
(dp1391
g94
g95
ssg83
g1385
sg76
(lp1392
S'server_software'
p1393
asbag69
(g90
g71
NtRp1394
(dp1395
g74
(dp1396
g101
g102
ssg83
g1385
sg76
(lp1397
S':'
asbag69
(g90
g71
NtRp1398
(dp1399
g74
(dp1400
sg83
g1385
sg76
(lp1401
g69
(g70
g71
NtRp1402
(dp1403
g74
(dp1404
g82
I4
ssg83
g1398
sg76
(lp1405
S'Rocket 1.2.4'
p1406
asbasbasbag69
(g85
g71
NtRp1407
(dp1408
g74
(dp1409
sg83
g834
sg76
(lp1410
g69
(g90
g71
NtRp1411
(dp1412
g74
(dp1413
g94
g95
ssg83
g1407
sg76
(lp1414
S'web2py_crontype'
p1415
asbag69
(g90
g71
NtRp1416
(dp1417
g74
(dp1418
g101
g102
ssg83
g1407
sg76
(lp1419
S':'
asbag69
(g90
g71
NtRp1420
(dp1421
g74
(dp1422
sg83
g1407
sg76
(lp1423
g69
(g70
g71
NtRp1424
(dp1425
g74
(dp1426
g82
I4
ssg83
g1420
sg76
(lp1427
S'hard'
p1428
asbasbasbag69
(g85
g71
NtRp1429
(dp1430
g74
(dp1431
sg83
g834
sg76
(lp1432
g69
(g90
g71
NtRp1433
(dp1434
g74
(dp1435
g94
g95
ssg83
g1429
sg76
(lp1436
S'web2py_path'
p1437
asbag69
(g90
g71
NtRp1438
(dp1439
g74
(dp1440
g101
g102
ssg83
g1429
sg76
(lp1441
S':'
asbag69
(g90
g71
NtRp1442
(dp1443
g74
(dp1444
sg83
g1429
sg76
(lp1445
g69
(g70
g71
NtRp1446
(dp1447
g74
(dp1448
g82
I4
ssg83
g1442
sg76
(lp1449
g881
asbasbasbag69
(g85
g71
NtRp1450
(dp1451
g74
(dp1452
sg83
g834
sg76
(lp1453
g69
(g90
g71
NtRp1454
(dp1455
g74
(dp1456
g94
g95
ssg83
g1450
sg76
(lp1457
S'web2py_version'
p1458
asbag69
(g90
g71
NtRp1459
(dp1460
g74
(dp1461
g101
g102
ssg83
g1450
sg76
(lp1462
S':'
asbag69
(g90
g71
NtRp1463
(dp1464
g74
(dp1465
sg83
g1450
sg76
(lp1466
g69
(g70
g71
NtRp1467
(dp1468
g74
(dp1469
g82
I4
ssg83
g1463
sg76
(lp1470
g69
(g78
g71
NtRp1471
(dp1472
g74
(dp1473
g82
I3
ssg83
Nsg76
(lp1474
g69
(g85
g71
NtRp1475
(dp1476
g74
(dp1477
sg83
g1471
sg76
(lp1478
g69
(g90
g71
NtRp1479
(dp1480
g74
(dp1481
sg83
g1475
sg76
(lp1482
g69
(g70
g71
NtRp1483
(dp1484
g74
(dp1485
g82
I3
ssg83
g1479
sg76
(lp1486
S'1'
asbasbasbag69
(g85
g71
NtRp1487
(dp1488
g74
(dp1489
sg83
g1471
sg76
(lp1490
g69
(g90
g71
NtRp1491
(dp1492
g74
(dp1493
sg83
g1487
sg76
(lp1494
g69
(g70
g71
NtRp1495
(dp1496
g74
(dp1497
g82
I3
ssg83
g1491
sg76
(lp1498
S'99'
p1499
asbasbasbag69
(g85
g71
NtRp1500
(dp1501
g74
(dp1502
sg83
g1471
sg76
(lp1503
g69
(g90
g71
NtRp1504
(dp1505
g74
(dp1506
sg83
g1500
sg76
(lp1507
g69
(g70
g71
NtRp1508
(dp1509
g74
(dp1510
g82
I3
ssg83
g1504
sg76
(lp1511
S'7'
asbasbasbag69
(g85
g71
NtRp1512
(dp1513
g74
(dp1514
sg83
g1471
sg76
(lp1515
g69
(g90
g71
NtRp1516
(dp1517
g74
(dp1518
sg83
g1512
sg76
(lp1519
g69
(g70
g71
NtRp1520
(dp1521
g74
(dp1522
g82
I3
ssg83
g1516
sg76
(lp1523
S'datetime.datetime(2012, 3, 4, 22, 12, 8)'
p1524
asbasbasbag69
(g85
g71
NtRp1525
(dp1526
g74
(dp1527
sg83
g1471
sg76
(lp1528
g69
(g90
g71
NtRp1529
(dp1530
g74
(dp1531
sg83
g1525
sg76
(lp1532
g69
(g70
g71
NtRp1533
(dp1534
g74
(dp1535
g82
I3
ssg83
g1529
sg76
(lp1536
S'stable'
p1537
asbasbasbasbasbasbasbag69
(g85
g71
NtRp1538
(dp1539
g74
(dp1540
sg83
g834
sg76
(lp1541
g69
(g90
g71
NtRp1542
(dp1543
g74
(dp1544
g94
g95
ssg83
g1538
sg76
(lp1545
S'wsgi_errors'
p1546
asbag69
(g90
g71
NtRp1547
(dp1548
g74
(dp1549
g101
g102
ssg83
g1538
sg76
(lp1550
S':'
asbag69
(g90
g71
NtRp1551
(dp1552
g74
(dp1553
sg83
g1538
sg76
(lp1554
g69
(g70
g71
NtRp1555
(dp1556
g74
(dp1557
g82
I4
ssg83
g1551
sg76
(lp1558
S"<open file '<stderr>', mode 'w' at 0x7f8f2c0b0270>"
p1559
asbasbasbag69
(g85
g71
NtRp1560
(dp1561
g74
(dp1562
sg83
g834
sg76
(lp1563
g69
(g90
g71
NtRp1564
(dp1565
g74
(dp1566
g94
g95
ssg83
g1560
sg76
(lp1567
S'wsgi_file_wrapper'
p1568
asbag69
(g90
g71
NtRp1569
(dp1570
g74
(dp1571
g101
g102
ssg83
g1560
sg76
(lp1572
S':'
asbag69
(g90
g71
NtRp1573
(dp1574
g74
(dp1575
sg83
g1560
sg76
(lp1576
g69
(g70
g71
NtRp1577
(dp1578
g74
(dp1579
g82
I4
ssg83
g1573
sg76
(lp1580
S'<class wsgiref.util.FileWrapper at 0x2b5dd50>'
p1581
asbasbasbag69
(g85
g71
NtRp1582
(dp1583
g74
(dp1584
sg83
g834
sg76
(lp1585
g69
(g90
g71
NtRp1586
(dp1587
g74
(dp1588
g94
g95
ssg83
g1582
sg76
(lp1589
S'wsgi_input'
p1590
asbag69
(g90
g71
NtRp1591
(dp1592
g74
(dp1593
g101
g102
ssg83
g1582
sg76
(lp1594
S':'
asbag69
(g90
g71
NtRp1595
(dp1596
g74
(dp1597
sg83
g1582
sg76
(lp1598
g69
(g70
g71
NtRp1599
(dp1600
g74
(dp1601
g82
I4
ssg83
g1595
sg76
(lp1602
S'<socket._fileobject object at 0x7f8eec28a450>'
p1603
asbasbasbag69
(g85
g71
NtRp1604
(dp1605
g74
(dp1606
sg83
g834
sg76
(lp1607
g69
(g90
g71
NtRp1608
(dp1609
g74
(dp1610
g94
g95
ssg83
g1604
sg76
(lp1611
S'wsgi_multiprocess'
p1612
asbag69
(g90
g71
NtRp1613
(dp1614
g74
(dp1615
g101
g102
ssg83
g1604
sg76
(lp1616
S':'
asbag69
(g90
g71
NtRp1617
(dp1618
g74
(dp1619
sg83
g1604
sg76
(lp1620
g69
(g70
g71
NtRp1621
(dp1622
g74
(dp1623
g82
I4
ssg83
g1617
sg76
(lp1624
g112
asbasbasbag69
(g85
g71
NtRp1625
(dp1626
g74
(dp1627
sg83
g834
sg76
(lp1628
g69
(g90
g71
NtRp1629
(dp1630
g74
(dp1631
g94
g95
ssg83
g1625
sg76
(lp1632
S'wsgi_multithread'
p1633
asbag69
(g90
g71
NtRp1634
(dp1635
g74
(dp1636
g101
g102
ssg83
g1625
sg76
(lp1637
S':'
asbag69
(g90
g71
NtRp1638
(dp1639
g74
(dp1640
sg83
g1625
sg76
(lp1641
g69
(g70
g71
NtRp1642
(dp1643
g74
(dp1644
g82
I4
ssg83
g1638
sg76
(lp1645
S'True'
p1646
asbasbasbag69
(g85
g71
NtRp1647
(dp1648
g74
(dp1649
sg83
g834
sg76
(lp1650
g69
(g90
g71
NtRp1651
(dp1652
g74
(dp1653
g94
g95
ssg83
g1647
sg76
(lp1654
S'wsgi_run_once'
p1655
asbag69
(g90
g71
NtRp1656
(dp1657
g74
(dp1658
g101
g102
ssg83
g1647
sg76
(lp1659
S':'
asbag69
(g90
g71
NtRp1660
(dp1661
g74
(dp1662
sg83
g1647
sg76
(lp1663
g69
(g70
g71
NtRp1664
(dp1665
g74
(dp1666
g82
I4
ssg83
g1660
sg76
(lp1667
g112
asbasbasbag69
(g85
g71
NtRp1668
(dp1669
g74
(dp1670
sg83
g834
sg76
(lp1671
g69
(g90
g71
NtRp1672
(dp1673
g74
(dp1674
g94
g95
ssg83
g1668
sg76
(lp1675
S'wsgi_url_scheme'
p1676
asbag69
(g90
g71
NtRp1677
(dp1678
g74
(dp1679
g101
g102
ssg83
g1668
sg76
(lp1680
S':'
asbag69
(g90
g71
NtRp1681
(dp1682
g74
(dp1683
sg83
g1668
sg76
(lp1684
g69
(g70
g71
NtRp1685
(dp1686
g74
(dp1687
g82
I4
ssg83
g1681
sg76
(lp1688
S'http'
p1689
asbasbasbag69
(g85
g71
NtRp1690
(dp1691
g74
(dp1692
sg83
g834
sg76
(lp1693
g69
(g90
g71
NtRp1694
(dp1695
g74
(dp1696
g94
g95
ssg83
g1690
sg76
(lp1697
S'wsgi_version'
p1698
asbag69
(g90
g71
NtRp1699
(dp1700
g74
(dp1701
g101
g102
ssg83
g1690
sg76
(lp1702
S':'
asbag69
(g90
g71
NtRp1703
(dp1704
g74
(dp1705
sg83
g1690
sg76
(lp1706
g69
(g70
g71
NtRp1707
(dp1708
g74
(dp1709
g82
I4
ssg83
g1703
sg76
(lp1710
g69
(g78
g71
NtRp1711
(dp1712
g74
(dp1713
g82
I3
ssg83
Nsg76
(lp1714
g69
(g85
g71
NtRp1715
(dp1716
g74
(dp1717
sg83
g1711
sg76
(lp1718
g69
(g90
g71
NtRp1719
(dp1720
g74
(dp1721
sg83
g1715
sg76
(lp1722
g69
(g70
g71
NtRp1723
(dp1724
g74
(dp1725
g82
I3
ssg83
g1719
sg76
(lp1726
S'1'
asbasbasbag69
(g85
g71
NtRp1727
(dp1728
g74
(dp1729
sg83
g1711
sg76
(lp1730
g69
(g90
g71
NtRp1731
(dp1732
g74
(dp1733
sg83
g1727
sg76
(lp1734
g69
(g70
g71
NtRp1735
(dp1736
g74
(dp1737
g82
I3
ssg83
g1731
sg76
(lp1738
S'0'
asbasbasbasbasbasbasbasbasbasbasbag69
(g85
g71
NtRp1739
(dp1740
g74
(dp1741
sg83
g79
sg76
(lp1742
g69
(g90
g71
NtRp1743
(dp1744
g74
(dp1745
g94
g95
ssg83
g1739
sg76
(lp1746
S'extension'
p1747
asbag69
(g90
g71
NtRp1748
(dp1749
g74
(dp1750
g101
g102
ssg83
g1739
sg76
(lp1751
S':'
asbag69
(g90
g71
NtRp1752
(dp1753
g74
(dp1754
sg83
g1739
sg76
(lp1755
g69
(g70
g71
NtRp1756
(dp1757
g74
(dp1758
g82
I5
ssg83
g1752
sg76
(lp1759
S'html'
p1760
asbasbasbag69
(g85
g71
NtRp1761
(dp1762
g74
(dp1763
sg83
g79
sg76
(lp1764
g69
(g90
g71
NtRp1765
(dp1766
g74
(dp1767
g94
g95
ssg83
g1761
sg76
(lp1768
S'folder'
p1769
asbag69
(g90
g71
NtRp1770
(dp1771
g74
(dp1772
g101
g102
ssg83
g1761
sg76
(lp1773
S':'
asbag69
(g90
g71
NtRp1774
(dp1775
g74
(dp1776
sg83
g1761
sg76
(lp1777
g69
(g70
g71
NtRp1778
(dp1779
g74
(dp1780
g82
I5
ssg83
g1774
sg76
(lp1781
S'/home/maneesha/Downloads/web2py/applications/ssad3a/'
p1782
asbasbasbag69
(g85
g71
NtRp1783
(dp1784
g74
(dp1785
sg83
g79
sg76
(lp1786
g69
(g90
g71
NtRp1787
(dp1788
g74
(dp1789
g94
g95
ssg83
g1783
sg76
(lp1790
S'function'
p1791
asbag69
(g90
g71
NtRp1792
(dp1793
g74
(dp1794
g101
g102
ssg83
g1783
sg76
(lp1795
S':'
asbag69
(g90
g71
NtRp1796
(dp1797
g74
(dp1798
sg83
g1783
sg76
(lp1799
g69
(g70
g71
NtRp1800
(dp1801
g74
(dp1802
g82
I5
ssg83
g1796
sg76
(lp1803
S'final_ans'
p1804
asbasbasbag69
(g85
g71
NtRp1805
(dp1806
g74
(dp1807
sg83
g79
sg76
(lp1808
g69
(g90
g71
NtRp1809
(dp1810
g74
(dp1811
g94
g95
ssg83
g1805
sg76
(lp1812
S'get_vars'
p1813
asbag69
(g90
g71
NtRp1814
(dp1815
g74
(dp1816
g101
g102
ssg83
g1805
sg76
(lp1817
S':'
asbag69
(g90
g71
NtRp1818
(dp1819
g74
(dp1820
sg83
g1805
sg76
(lp1821
g69
(g70
g71
NtRp1822
(dp1823
g74
(dp1824
g82
I5
ssg83
g1818
sg76
(lp1825
g69
(g78
g71
NtRp1826
(dp1827
g74
(dp1828
g82
I4
ssg83
Nsg76
(lp1829
sbasbasbasbag69
(g85
g71
NtRp1830
(dp1831
g74
(dp1832
sg83
g79
sg76
(lp1833
g69
(g90
g71
NtRp1834
(dp1835
g74
(dp1836
g94
g95
ssg83
g1830
sg76
(lp1837
S'global_settings'
p1838
asbag69
(g90
g71
NtRp1839
(dp1840
g74
(dp1841
g101
g102
ssg83
g1830
sg76
(lp1842
S':'
asbag69
(g90
g71
NtRp1843
(dp1844
g74
(dp1845
sg83
g1830
sg76
(lp1846
g69
(g70
g71
NtRp1847
(dp1848
g74
(dp1849
g82
I5
ssg83
g1843
sg76
(lp1850
g69
(g78
g71
NtRp1851
(dp1852
g74
(dp1853
g82
I4
ssg83
Nsg76
(lp1854
g69
(g85
g71
NtRp1855
(dp1856
g74
(dp1857
sg83
g1851
sg76
(lp1858
g69
(g90
g71
NtRp1859
(dp1860
g74
(dp1861
g94
g95
ssg83
g1855
sg76
(lp1862
g846
asbag69
(g90
g71
NtRp1863
(dp1864
g74
(dp1865
g101
g102
ssg83
g1855
sg76
(lp1866
S':'
asbag69
(g90
g71
NtRp1867
(dp1868
g74
(dp1869
sg83
g1855
sg76
(lp1870
g69
(g70
g71
NtRp1871
(dp1872
g74
(dp1873
g82
I4
ssg83
g1867
sg76
(lp1874
S"set(['/home/maneesha/Downloads/web2py/applications/welcome/', '/home/maneesha/Downloads/web2py/applications/admin/', '/home/maneesha/Downloads/web2py/applications/ssad3a/'])"
p1875
asbasbasbag69
(g85
g71
NtRp1876
(dp1877
g74
(dp1878
sg83
g1851
sg76
(lp1879
g69
(g90
g71
NtRp1880
(dp1881
g74
(dp1882
g94
g95
ssg83
g1876
sg76
(lp1883
g868
asbag69
(g90
g71
NtRp1884
(dp1885
g74
(dp1886
g101
g102
ssg83
g1876
sg76
(lp1887
S':'
asbag69
(g90
g71
NtRp1888
(dp1889
g74
(dp1890
sg83
g1876
sg76
(lp1891
g69
(g70
g71
NtRp1892
(dp1893
g74
(dp1894
g82
I4
ssg83
g1888
sg76
(lp1895
g881
asbasbasbag69
(g85
g71
NtRp1896
(dp1897
g74
(dp1898
sg83
g1851
sg76
(lp1899
g69
(g90
g71
NtRp1900
(dp1901
g74
(dp1902
g94
g95
ssg83
g1896
sg76
(lp1903
g890
asbag69
(g90
g71
NtRp1904
(dp1905
g74
(dp1906
g101
g102
ssg83
g1896
sg76
(lp1907
S':'
asbag69
(g90
g71
NtRp1908
(dp1909
g74
(dp1910
sg83
g1896
sg76
(lp1911
g69
(g70
g71
NtRp1912
(dp1913
g74
(dp1914
g82
I4
ssg83
g1908
sg76
(lp1915
g69
(g78
g71
NtRp1916
(dp1917
g74
(dp1918
g82
I3
ssg83
Nsg76
(lp1919
sbasbasbasbag69
(g85
g71
NtRp1920
(dp1921
g74
(dp1922
sg83
g1851
sg76
(lp1923
g69
(g90
g71
NtRp1924
(dp1925
g74
(dp1926
g94
g95
ssg83
g1920
sg76
(lp1927
g915
asbag69
(g90
g71
NtRp1928
(dp1929
g74
(dp1930
g101
g102
ssg83
g1920
sg76
(lp1931
S':'
asbag69
(g90
g71
NtRp1932
(dp1933
g74
(dp1934
sg83
g1920
sg76
(lp1935
g69
(g70
g71
NtRp1936
(dp1937
g74
(dp1938
g82
I4
ssg83
g1932
sg76
(lp1939
S"<Values at 0x2c89b00: {'verbose': False, 'ip': '127.0.0.1', 'shutdown_timeout': 5, 'taskbar': False, 'nocron': False, 'pid_filename': 'httpserver.pid', 'maxthreads': None, 'softcron': False, 'server_name': 'maneesha-Inspiron-N5050', 'bpython': False, 'nogui': False, 'port': 8000, 'extcron': False, 'debuglevel': 30, 'test': None, 'folder': '/home/maneesha/Downloads/web2py', 'config': '', 'import_models': False, 'winservice': '', 'shell': None, 'run': '', 'log_filename': 'httpserver.log', 'args': [''], 'socket_timeout': 5, 'ssl_ca_certificate': None, 'scheduler': None, 'profiler_filename': None, 'ssl_private_key': '', 'password': '<ask>', 'request_queue_size': 5, 'ssl_certificate': '', 'cronjob': False, 'numthreads': None, 'quiet': False, 'interfaces': None, 'minthreads': None, 'timeout': 10, 'plain': False, 'nobanner': False}>"
p1940
asbasbasbag69
(g85
g71
NtRp1941
(dp1942
g74
(dp1943
sg83
g1851
sg76
(lp1944
g69
(g90
g71
NtRp1945
(dp1946
g74
(dp1947
g94
g95
ssg83
g1941
sg76
(lp1948
g937
asbag69
(g90
g71
NtRp1949
(dp1950
g74
(dp1951
g101
g102
ssg83
g1941
sg76
(lp1952
S':'
asbag69
(g90
g71
NtRp1953
(dp1954
g74
(dp1955
sg83
g1941
sg76
(lp1956
g69
(g70
g71
NtRp1957
(dp1958
g74
(dp1959
g82
I4
ssg83
g1953
sg76
(lp1960
S'set([])'
p1961
asbasbasbag69
(g85
g71
NtRp1962
(dp1963
g74
(dp1964
sg83
g1851
sg76
(lp1965
g69
(g90
g71
NtRp1966
(dp1967
g74
(dp1968
g94
g95
ssg83
g1962
sg76
(lp1969
g959
asbag69
(g90
g71
NtRp1970
(dp1971
g74
(dp1972
g101
g102
ssg83
g1962
sg76
(lp1973
S':'
asbag69
(g90
g71
NtRp1974
(dp1975
g74
(dp1976
sg83
g1962
sg76
(lp1977
g69
(g70
g71
NtRp1978
(dp1979
g74
(dp1980
g82
I4
ssg83
g1974
sg76
(lp1981
g112
asbasbasbag69
(g85
g71
NtRp1982
(dp1983
g74
(dp1984
sg83
g1851
sg76
(lp1985
g69
(g90
g71
NtRp1986
(dp1987
g74
(dp1988
g94
g95
ssg83
g1982
sg76
(lp1989
g980
asbag69
(g90
g71
NtRp1990
(dp1991
g74
(dp1992
g101
g102
ssg83
g1982
sg76
(lp1993
S':'
asbag69
(g90
g71
NtRp1994
(dp1995
g74
(dp1996
sg83
g1982
sg76
(lp1997
g69
(g70
g71
NtRp1998
(dp1999
g74
(dp2000
g82
I4
ssg83
g1994
sg76
(lp2001
g993
asbasbasbag69
(g85
g71
NtRp2002
(dp2003
g74
(dp2004
sg83
g1851
sg76
(lp2005
g69
(g90
g71
NtRp2006
(dp2007
g74
(dp2008
g94
g95
ssg83
g2002
sg76
(lp2009
g1156
asbag69
(g90
g71
NtRp2010
(dp2011
g74
(dp2012
g101
g102
ssg83
g2002
sg76
(lp2013
S':'
asbag69
(g90
g71
NtRp2014
(dp2015
g74
(dp2016
sg83
g2002
sg76
(lp2017
g69
(g70
g71
NtRp2018
(dp2019
g74
(dp2020
g82
I4
ssg83
g2014
sg76
(lp2021
g112
asbasbasbag69
(g85
g71
NtRp2022
(dp2023
g74
(dp2024
sg83
g1851
sg76
(lp2025
g69
(g90
g71
NtRp2026
(dp2027
g74
(dp2028
g94
g95
ssg83
g2022
sg76
(lp2029
g1177
asbag69
(g90
g71
NtRp2030
(dp2031
g74
(dp2032
g101
g102
ssg83
g2022
sg76
(lp2033
S':'
asbag69
(g90
g71
NtRp2034
(dp2035
g74
(dp2036
sg83
g2022
sg76
(lp2037
g69
(g70
g71
NtRp2038
(dp2039
g74
(dp2040
g82
I4
ssg83
g2034
sg76
(lp2041
g112
asbasbasbag69
(g85
g71
NtRp2042
(dp2043
g74
(dp2044
sg83
g1851
sg76
(lp2045
g69
(g90
g71
NtRp2046
(dp2047
g74
(dp2048
g94
g95
ssg83
g2042
sg76
(lp2049
g1415
asbag69
(g90
g71
NtRp2050
(dp2051
g74
(dp2052
g101
g102
ssg83
g2042
sg76
(lp2053
S':'
asbag69
(g90
g71
NtRp2054
(dp2055
g74
(dp2056
sg83
g2042
sg76
(lp2057
g69
(g70
g71
NtRp2058
(dp2059
g74
(dp2060
g82
I4
ssg83
g2054
sg76
(lp2061
g1428
asbasbasbag69
(g85
g71
NtRp2062
(dp2063
g74
(dp2064
sg83
g1851
sg76
(lp2065
g69
(g90
g71
NtRp2066
(dp2067
g74
(dp2068
g94
g95
ssg83
g2062
sg76
(lp2069
g1458
asbag69
(g90
g71
NtRp2070
(dp2071
g74
(dp2072
g101
g102
ssg83
g2062
sg76
(lp2073
S':'
asbag69
(g90
g71
NtRp2074
(dp2075
g74
(dp2076
sg83
g2062
sg76
(lp2077
g69
(g70
g71
NtRp2078
(dp2079
g74
(dp2080
g82
I4
ssg83
g2074
sg76
(lp2081
g69
(g78
g71
NtRp2082
(dp2083
g74
(dp2084
g82
I3
ssg83
Nsg76
(lp2085
g69
(g85
g71
NtRp2086
(dp2087
g74
(dp2088
sg83
g2082
sg76
(lp2089
g69
(g90
g71
NtRp2090
(dp2091
g74
(dp2092
sg83
g2086
sg76
(lp2093
g69
(g70
g71
NtRp2094
(dp2095
g74
(dp2096
g82
I3
ssg83
g2090
sg76
(lp2097
S'1'
asbasbasbag69
(g85
g71
NtRp2098
(dp2099
g74
(dp2100
sg83
g2082
sg76
(lp2101
g69
(g90
g71
NtRp2102
(dp2103
g74
(dp2104
sg83
g2098
sg76
(lp2105
g69
(g70
g71
NtRp2106
(dp2107
g74
(dp2108
g82
I3
ssg83
g2102
sg76
(lp2109
S'99'
p2110
asbasbasbag69
(g85
g71
NtRp2111
(dp2112
g74
(dp2113
sg83
g2082
sg76
(lp2114
g69
(g90
g71
NtRp2115
(dp2116
g74
(dp2117
sg83
g2111
sg76
(lp2118
g69
(g70
g71
NtRp2119
(dp2120
g74
(dp2121
g82
I3
ssg83
g2115
sg76
(lp2122
S'7'
asbasbasbag69
(g85
g71
NtRp2123
(dp2124
g74
(dp2125
sg83
g2082
sg76
(lp2126
g69
(g90
g71
NtRp2127
(dp2128
g74
(dp2129
sg83
g2123
sg76
(lp2130
g69
(g70
g71
NtRp2131
(dp2132
g74
(dp2133
g82
I3
ssg83
g2127
sg76
(lp2134
S'datetime.datetime(2012, 3, 4, 22, 12, 8)'
p2135
asbasbasbag69
(g85
g71
NtRp2136
(dp2137
g74
(dp2138
sg83
g2082
sg76
(lp2139
g69
(g90
g71
NtRp2140
(dp2141
g74
(dp2142
sg83
g2136
sg76
(lp2143
g69
(g70
g71
NtRp2144
(dp2145
g74
(dp2146
g82
I3
ssg83
g2140
sg76
(lp2147
g1537
asbasbasbasbasbasbasbasbasbasbasbag69
(g85
g71
NtRp2148
(dp2149
g74
(dp2150
sg83
g79
sg76
(lp2151
g69
(g90
g71
NtRp2152
(dp2153
g74
(dp2154
g94
g95
ssg83
g2148
sg76
(lp2155
S'is_https'
p2156
asbag69
(g90
g71
NtRp2157
(dp2158
g74
(dp2159
g101
g102
ssg83
g2148
sg76
(lp2160
S':'
asbag69
(g90
g71
NtRp2161
(dp2162
g74
(dp2163
sg83
g2148
sg76
(lp2164
g69
(g70
g71
NtRp2165
(dp2166
g74
(dp2167
g82
I5
ssg83
g2161
sg76
(lp2168
g112
asbasbasbag69
(g85
g71
NtRp2169
(dp2170
g74
(dp2171
sg83
g79
sg76
(lp2172
g69
(g90
g71
NtRp2173
(dp2174
g74
(dp2175
g94
g95
ssg83
g2169
sg76
(lp2176
S'is_local'
p2177
asbag69
(g90
g71
NtRp2178
(dp2179
g74
(dp2180
g101
g102
ssg83
g2169
sg76
(lp2181
S':'
asbag69
(g90
g71
NtRp2182
(dp2183
g74
(dp2184
sg83
g2169
sg76
(lp2185
g69
(g70
g71
NtRp2186
(dp2187
g74
(dp2188
g82
I5
ssg83
g2182
sg76
(lp2189
g1646
asbasbasbag69
(g85
g71
NtRp2190
(dp2191
g74
(dp2192
sg83
g79
sg76
(lp2193
g69
(g90
g71
NtRp2194
(dp2195
g74
(dp2196
g94
g95
ssg83
g2190
sg76
(lp2197
S'is_restful'
p2198
asbag69
(g90
g71
NtRp2199
(dp2200
g74
(dp2201
g101
g102
ssg83
g2190
sg76
(lp2202
S':'
asbag69
(g90
g71
NtRp2203
(dp2204
g74
(dp2205
sg83
g2190
sg76
(lp2206
g69
(g70
g71
NtRp2207
(dp2208
g74
(dp2209
g82
I5
ssg83
g2203
sg76
(lp2210
g112
asbasbasbag69
(g85
g71
NtRp2211
(dp2212
g74
(dp2213
sg83
g79
sg76
(lp2214
g69
(g90
g71
NtRp2215
(dp2216
g74
(dp2217
g94
g95
ssg83
g2211
sg76
(lp2218
S'now'
p2219
asbag69
(g90
g71
NtRp2220
(dp2221
g74
(dp2222
g101
g102
ssg83
g2211
sg76
(lp2223
S':'
asbag69
(g90
g71
NtRp2224
(dp2225
g74
(dp2226
sg83
g2211
sg76
(lp2227
g69
(g70
g71
NtRp2228
(dp2229
g74
(dp2230
g82
I5
ssg83
g2224
sg76
(lp2231
S'datetime.datetime(2012, 10, 15, 22, 26, 2, 507248)'
p2232
asbasbasbag69
(g85
g71
NtRp2233
(dp2234
g74
(dp2235
sg83
g79
sg76
(lp2236
g69
(g90
g71
NtRp2237
(dp2238
g74
(dp2239
g94
g95
ssg83
g2233
sg76
(lp2240
S'post_vars'
p2241
asbag69
(g90
g71
NtRp2242
(dp2243
g74
(dp2244
g101
g102
ssg83
g2233
sg76
(lp2245
S':'
asbag69
(g90
g71
NtRp2246
(dp2247
g74
(dp2248
sg83
g2233
sg76
(lp2249
g69
(g70
g71
NtRp2250
(dp2251
g74
(dp2252
g82
I5
ssg83
g2246
sg76
(lp2253
g69
(g78
g71
NtRp2254
(dp2255
g74
(dp2256
g82
I4
ssg83
Nsg76
(lp2257
sbasbasbasbag69
(g85
g71
NtRp2258
(dp2259
g74
(dp2260
sg83
g79
sg76
(lp2261
g69
(g90
g71
NtRp2262
(dp2263
g74
(dp2264
g94
g95
ssg83
g2258
sg76
(lp2265
S'url'
p2266
asbag69
(g90
g71
NtRp2267
(dp2268
g74
(dp2269
g101
g102
ssg83
g2258
sg76
(lp2270
S':'
asbag69
(g90
g71
NtRp2271
(dp2272
g74
(dp2273
sg83
g2258
sg76
(lp2274
g69
(g70
g71
NtRp2275
(dp2276
g74
(dp2277
g82
I5
ssg83
g2271
sg76
(lp2278
S'/ssad3a/default/final_ans'
p2279
asbasbasbag69
(g85
g71
NtRp2280
(dp2281
g74
(dp2282
sg83
g79
sg76
(lp2283
g69
(g90
g71
NtRp2284
(dp2285
g74
(dp2286
g94
g95
ssg83
g2280
sg76
(lp2287
S'utcnow'
p2288
asbag69
(g90
g71
NtRp2289
(dp2290
g74
(dp2291
g101
g102
ssg83
g2280
sg76
(lp2292
S':'
asbag69
(g90
g71
NtRp2293
(dp2294
g74
(dp2295
sg83
g2280
sg76
(lp2296
g69
(g70
g71
NtRp2297
(dp2298
g74
(dp2299
g82
I5
ssg83
g2293
sg76
(lp2300
S'datetime.datetime(2012, 10, 15, 16, 56, 2, 507307)'
p2301
asbasbasbag69
(g85
g71
NtRp2302
(dp2303
g74
(dp2304
sg83
g79
sg76
(lp2305
g69
(g90
g71
NtRp2306
(dp2307
g74
(dp2308
g94
g95
ssg83
g2302
sg76
(lp2309
S'uuid'
p2310
asbag69
(g90
g71
NtRp2311
(dp2312
g74
(dp2313
g101
g102
ssg83
g2302
sg76
(lp2314
S':'
asbag69
(g90
g71
NtRp2315
(dp2316
g74
(dp2317
sg83
g2302
sg76
(lp2318
g69
(g70
g71
NtRp2319
(dp2320
g74
(dp2321
g82
I5
ssg83
g2315
sg76
(lp2322
S'ssad3a/127.0.0.1.2012-10-15.22-26-02.94640e25-9377-462e-8cac-ae0890d5488f'
p2323
asbasbasbag69
(g85
g71
NtRp2324
(dp2325
g74
(dp2326
sg83
g79
sg76
(lp2327
g69
(g90
g71
NtRp2328
(dp2329
g74
(dp2330
g94
g95
ssg83
g2324
sg76
(lp2331
S'vars'
p2332
asbag69
(g90
g71
NtRp2333
(dp2334
g74
(dp2335
g101
g102
ssg83
g2324
sg76
(lp2336
S':'
asbag69
(g90
g71
NtRp2337
(dp2338
g74
(dp2339
sg83
g2324
sg76
(lp2340
g69
(g70
g71
NtRp2341
(dp2342
g74
(dp2343
g82
I5
ssg83
g2337
sg76
(lp2344
g69
(g78
g71
NtRp2345
(dp2346
g74
(dp2347
g82
I4
ssg83
Nsg76
(lp2348
sbasbasbasbag69
(g85
g71
NtRp2349
(dp2350
g74
(dp2351
sg83
g79
sg76
(lp2352
g69
(g90
g71
NtRp2353
(dp2354
g74
(dp2355
g94
g95
ssg83
g2349
sg76
(lp2356
S'wsgi'
p2357
asbag69
(g90
g71
NtRp2358
(dp2359
g74
(dp2360
g101
g102
ssg83
g2349
sg76
(lp2361
S':'
asbag69
(g90
g71
NtRp2362
(dp2363
g74
(dp2364
sg83
g2349
sg76
(lp2365
g69
(g70
g71
NtRp2366
(dp2367
g74
(dp2368
g82
I5
ssg83
g2362
sg76
(lp2369
g69
(g78
g71
NtRp2370
(dp2371
g74
(dp2372
g82
I4
ssg83
Nsg76
(lp2373
g69
(g85
g71
NtRp2374
(dp2375
g74
(dp2376
sg83
g2370
sg76
(lp2377
g69
(g90
g71
NtRp2378
(dp2379
g74
(dp2380
g94
g95
ssg83
g2374
sg76
(lp2381
S'environ'
p2382
asbag69
(g90
g71
NtRp2383
(dp2384
g74
(dp2385
g101
g102
ssg83
g2374
sg76
(lp2386
S':'
asbag69
(g90
g71
NtRp2387
(dp2388
g74
(dp2389
sg83
g2374
sg76
(lp2390
g69
(g70
g71
NtRp2391
(dp2392
g74
(dp2393
g82
I4
ssg83
g2387
sg76
(lp2394
g69
(g78
g71
NtRp2395
(dp2396
g74
(dp2397
g82
I3
ssg83
Nsg76
(lp2398
g69
(g85
g71
NtRp2399
(dp2400
g74
(dp2401
sg83
g2395
sg76
(lp2402
g69
(g90
g71
NtRp2403
(dp2404
g74
(dp2405
g94
g95
ssg83
g2399
sg76
(lp2406
S'HTTP_ACCEPT'
p2407
asbag69
(g90
g71
NtRp2408
(dp2409
g74
(dp2410
g101
g102
ssg83
g2399
sg76
(lp2411
S':'
asbag69
(g90
g71
NtRp2412
(dp2413
g74
(dp2414
sg83
g2399
sg76
(lp2415
g69
(g70
g71
NtRp2416
(dp2417
g74
(dp2418
g82
I3
ssg83
g2412
sg76
(lp2419
g1015
asbasbasbag69
(g85
g71
NtRp2420
(dp2421
g74
(dp2422
sg83
g2395
sg76
(lp2423
g69
(g90
g71
NtRp2424
(dp2425
g74
(dp2426
g94
g95
ssg83
g2420
sg76
(lp2427
S'HTTP_ACCEPT_ENCODING'
p2428
asbag69
(g90
g71
NtRp2429
(dp2430
g74
(dp2431
g101
g102
ssg83
g2420
sg76
(lp2432
S':'
asbag69
(g90
g71
NtRp2433
(dp2434
g74
(dp2435
sg83
g2420
sg76
(lp2436
g69
(g70
g71
NtRp2437
(dp2438
g74
(dp2439
g82
I3
ssg83
g2433
sg76
(lp2440
g1037
asbasbasbag69
(g85
g71
NtRp2441
(dp2442
g74
(dp2443
sg83
g2395
sg76
(lp2444
g69
(g90
g71
NtRp2445
(dp2446
g74
(dp2447
g94
g95
ssg83
g2441
sg76
(lp2448
S'HTTP_ACCEPT_LANGUAGE'
p2449
asbag69
(g90
g71
NtRp2450
(dp2451
g74
(dp2452
g101
g102
ssg83
g2441
sg76
(lp2453
S':'
asbag69
(g90
g71
NtRp2454
(dp2455
g74
(dp2456
sg83
g2441
sg76
(lp2457
g69
(g70
g71
NtRp2458
(dp2459
g74
(dp2460
g82
I3
ssg83
g2454
sg76
(lp2461
g1059
asbasbasbag69
(g85
g71
NtRp2462
(dp2463
g74
(dp2464
sg83
g2395
sg76
(lp2465
g69
(g90
g71
NtRp2466
(dp2467
g74
(dp2468
g94
g95
ssg83
g2462
sg76
(lp2469
S'HTTP_CONNECTION'
p2470
asbag69
(g90
g71
NtRp2471
(dp2472
g74
(dp2473
g101
g102
ssg83
g2462
sg76
(lp2474
S':'
asbag69
(g90
g71
NtRp2475
(dp2476
g74
(dp2477
sg83
g2462
sg76
(lp2478
g69
(g70
g71
NtRp2479
(dp2480
g74
(dp2481
g82
I3
ssg83
g2475
sg76
(lp2482
g1081
asbasbasbag69
(g85
g71
NtRp2483
(dp2484
g74
(dp2485
sg83
g2395
sg76
(lp2486
g69
(g90
g71
NtRp2487
(dp2488
g74
(dp2489
g94
g95
ssg83
g2483
sg76
(lp2490
S'HTTP_COOKIE'
p2491
asbag69
(g90
g71
NtRp2492
(dp2493
g74
(dp2494
g101
g102
ssg83
g2483
sg76
(lp2495
S':'
asbag69
(g90
g71
NtRp2496
(dp2497
g74
(dp2498
sg83
g2483
sg76
(lp2499
g69
(g70
g71
NtRp2500
(dp2501
g74
(dp2502
g82
I3
ssg83
g2496
sg76
(lp2503
g1103
asbasbasbag69
(g85
g71
NtRp2504
(dp2505
g74
(dp2506
sg83
g2395
sg76
(lp2507
g69
(g90
g71
NtRp2508
(dp2509
g74
(dp2510
g94
g95
ssg83
g2504
sg76
(lp2511
S'HTTP_HOST'
p2512
asbag69
(g90
g71
NtRp2513
(dp2514
g74
(dp2515
g101
g102
ssg83
g2504
sg76
(lp2516
S':'
asbag69
(g90
g71
NtRp2517
(dp2518
g74
(dp2519
sg83
g2504
sg76
(lp2520
g69
(g70
g71
NtRp2521
(dp2522
g74
(dp2523
g82
I3
ssg83
g2517
sg76
(lp2524
g1125
asbasbasbag69
(g85
g71
NtRp2525
(dp2526
g74
(dp2527
sg83
g2395
sg76
(lp2528
g69
(g90
g71
NtRp2529
(dp2530
g74
(dp2531
g94
g95
ssg83
g2525
sg76
(lp2532
S'HTTP_USER_AGENT'
p2533
asbag69
(g90
g71
NtRp2534
(dp2535
g74
(dp2536
g101
g102
ssg83
g2525
sg76
(lp2537
S':'
asbag69
(g90
g71
NtRp2538
(dp2539
g74
(dp2540
sg83
g2525
sg76
(lp2541
g69
(g70
g71
NtRp2542
(dp2543
g74
(dp2544
g82
I3
ssg83
g2538
sg76
(lp2545
g1147
asbasbasbag69
(g85
g71
NtRp2546
(dp2547
g74
(dp2548
sg83
g2395
sg76
(lp2549
g69
(g90
g71
NtRp2550
(dp2551
g74
(dp2552
g94
g95
ssg83
g2546
sg76
(lp2553
S'PATH_INFO'
p2554
asbag69
(g90
g71
NtRp2555
(dp2556
g74
(dp2557
g101
g102
ssg83
g2546
sg76
(lp2558
S':'
asbag69
(g90
g71
NtRp2559
(dp2560
g74
(dp2561
sg83
g2546
sg76
(lp2562
g69
(g70
g71
NtRp2563
(dp2564
g74
(dp2565
g82
I3
ssg83
g2559
sg76
(lp2566
g1211
asbasbasbag69
(g85
g71
NtRp2567
(dp2568
g74
(dp2569
sg83
g2395
sg76
(lp2570
g69
(g90
g71
NtRp2571
(dp2572
g74
(dp2573
g94
g95
ssg83
g2567
sg76
(lp2574
S'QUERY_STRING'
p2575
asbag69
(g90
g71
NtRp2576
(dp2577
g74
(dp2578
g101
g102
ssg83
g2567
sg76
(lp2579
S':'
asbag69
(g90
g71
NtRp2580
(dp2581
g74
(dp2582
sg83
g2567
sg76
(lp2583
g69
(g70
g71
NtRp2584
(dp2585
g74
(dp2586
g82
I3
ssg83
g2580
sg76
(lp2587
S''
asbasbasbag69
(g85
g71
NtRp2588
(dp2589
g74
(dp2590
sg83
g2395
sg76
(lp2591
g69
(g90
g71
NtRp2592
(dp2593
g74
(dp2594
g94
g95
ssg83
g2588
sg76
(lp2595
S'REMOTE_ADDR'
p2596
asbag69
(g90
g71
NtRp2597
(dp2598
g74
(dp2599
g101
g102
ssg83
g2588
sg76
(lp2600
S':'
asbag69
(g90
g71
NtRp2601
(dp2602
g74
(dp2603
sg83
g2588
sg76
(lp2604
g69
(g70
g71
NtRp2605
(dp2606
g74
(dp2607
g82
I3
ssg83
g2601
sg76
(lp2608
g202
asbasbasbag69
(g85
g71
NtRp2609
(dp2610
g74
(dp2611
sg83
g2395
sg76
(lp2612
g69
(g90
g71
NtRp2613
(dp2614
g74
(dp2615
g94
g95
ssg83
g2609
sg76
(lp2616
S'REMOTE_PORT'
p2617
asbag69
(g90
g71
NtRp2618
(dp2619
g74
(dp2620
g101
g102
ssg83
g2609
sg76
(lp2621
S':'
asbag69
(g90
g71
NtRp2622
(dp2623
g74
(dp2624
sg83
g2609
sg76
(lp2625
g69
(g70
g71
NtRp2626
(dp2627
g74
(dp2628
g82
I3
ssg83
g2622
sg76
(lp2629
g1275
asbasbasbag69
(g85
g71
NtRp2630
(dp2631
g74
(dp2632
sg83
g2395
sg76
(lp2633
g69
(g90
g71
NtRp2634
(dp2635
g74
(dp2636
g94
g95
ssg83
g2630
sg76
(lp2637
S'REQUEST_METHOD'
p2638
asbag69
(g90
g71
NtRp2639
(dp2640
g74
(dp2641
g101
g102
ssg83
g2630
sg76
(lp2642
S':'
asbag69
(g90
g71
NtRp2643
(dp2644
g74
(dp2645
sg83
g2630
sg76
(lp2646
g69
(g70
g71
NtRp2647
(dp2648
g74
(dp2649
g82
I3
ssg83
g2643
sg76
(lp2650
g1297
asbasbasbag69
(g85
g71
NtRp2651
(dp2652
g74
(dp2653
sg83
g2395
sg76
(lp2654
g69
(g90
g71
NtRp2655
(dp2656
g74
(dp2657
g94
g95
ssg83
g2651
sg76
(lp2658
S'SCRIPT_NAME'
p2659
asbag69
(g90
g71
NtRp2660
(dp2661
g74
(dp2662
g101
g102
ssg83
g2651
sg76
(lp2663
S':'
asbag69
(g90
g71
NtRp2664
(dp2665
g74
(dp2666
sg83
g2651
sg76
(lp2667
g69
(g70
g71
NtRp2668
(dp2669
g74
(dp2670
g82
I3
ssg83
g2664
sg76
(lp2671
S''
asbasbasbag69
(g85
g71
NtRp2672
(dp2673
g74
(dp2674
sg83
g2395
sg76
(lp2675
g69
(g90
g71
NtRp2676
(dp2677
g74
(dp2678
g94
g95
ssg83
g2672
sg76
(lp2679
S'SERVER_NAME'
p2680
asbag69
(g90
g71
NtRp2681
(dp2682
g74
(dp2683
g101
g102
ssg83
g2672
sg76
(lp2684
S':'
asbag69
(g90
g71
NtRp2685
(dp2686
g74
(dp2687
sg83
g2672
sg76
(lp2688
g69
(g70
g71
NtRp2689
(dp2690
g74
(dp2691
g82
I3
ssg83
g2685
sg76
(lp2692
g1340
asbasbasbag69
(g85
g71
NtRp2693
(dp2694
g74
(dp2695
sg83
g2395
sg76
(lp2696
g69
(g90
g71
NtRp2697
(dp2698
g74
(dp2699
g94
g95
ssg83
g2693
sg76
(lp2700
S'SERVER_PORT'
p2701
asbag69
(g90
g71
NtRp2702
(dp2703
g74
(dp2704
g101
g102
ssg83
g2693
sg76
(lp2705
S':'
asbag69
(g90
g71
NtRp2706
(dp2707
g74
(dp2708
sg83
g2693
sg76
(lp2709
g69
(g70
g71
NtRp2710
(dp2711
g74
(dp2712
g82
I3
ssg83
g2706
sg76
(lp2713
g1362
asbasbasbag69
(g85
g71
NtRp2714
(dp2715
g74
(dp2716
sg83
g2395
sg76
(lp2717
g69
(g90
g71
NtRp2718
(dp2719
g74
(dp2720
g94
g95
ssg83
g2714
sg76
(lp2721
S'SERVER_PROTOCOL'
p2722
asbag69
(g90
g71
NtRp2723
(dp2724
g74
(dp2725
g101
g102
ssg83
g2714
sg76
(lp2726
S':'
asbag69
(g90
g71
NtRp2727
(dp2728
g74
(dp2729
sg83
g2714
sg76
(lp2730
g69
(g70
g71
NtRp2731
(dp2732
g74
(dp2733
g82
I3
ssg83
g2727
sg76
(lp2734
g1384
asbasbasbag69
(g85
g71
NtRp2735
(dp2736
g74
(dp2737
sg83
g2395
sg76
(lp2738
g69
(g90
g71
NtRp2739
(dp2740
g74
(dp2741
g94
g95
ssg83
g2735
sg76
(lp2742
S'SERVER_SOFTWARE'
p2743
asbag69
(g90
g71
NtRp2744
(dp2745
g74
(dp2746
g101
g102
ssg83
g2735
sg76
(lp2747
S':'
asbag69
(g90
g71
NtRp2748
(dp2749
g74
(dp2750
sg83
g2735
sg76
(lp2751
g69
(g70
g71
NtRp2752
(dp2753
g74
(dp2754
g82
I3
ssg83
g2748
sg76
(lp2755
g1406
asbasbasbag69
(g85
g71
NtRp2756
(dp2757
g74
(dp2758
sg83
g2395
sg76
(lp2759
g69
(g90
g71
NtRp2760
(dp2761
g74
(dp2762
g94
g95
ssg83
g2756
sg76
(lp2763
S'wsgi.errors'
p2764
asbag69
(g90
g71
NtRp2765
(dp2766
g74
(dp2767
g101
g102
ssg83
g2756
sg76
(lp2768
S':'
asbag69
(g90
g71
NtRp2769
(dp2770
g74
(dp2771
sg83
g2756
sg76
(lp2772
g69
(g70
g71
NtRp2773
(dp2774
g74
(dp2775
g82
I3
ssg83
g2769
sg76
(lp2776
S"<open file '<stderr>', mode 'w' at 0x7f8f2c0b0270>"
p2777
asbasbasbag69
(g85
g71
NtRp2778
(dp2779
g74
(dp2780
sg83
g2395
sg76
(lp2781
g69
(g90
g71
NtRp2782
(dp2783
g74
(dp2784
g94
g95
ssg83
g2778
sg76
(lp2785
S'wsgi.file_wrapper'
p2786
asbag69
(g90
g71
NtRp2787
(dp2788
g74
(dp2789
g101
g102
ssg83
g2778
sg76
(lp2790
S':'
asbag69
(g90
g71
NtRp2791
(dp2792
g74
(dp2793
sg83
g2778
sg76
(lp2794
g69
(g70
g71
NtRp2795
(dp2796
g74
(dp2797
g82
I3
ssg83
g2791
sg76
(lp2798
S'<class wsgiref.util.FileWrapper at 0x2b5dd50>'
p2799
asbasbasbag69
(g85
g71
NtRp2800
(dp2801
g74
(dp2802
sg83
g2395
sg76
(lp2803
g69
(g90
g71
NtRp2804
(dp2805
g74
(dp2806
g94
g95
ssg83
g2800
sg76
(lp2807
S'wsgi.input'
p2808
asbag69
(g90
g71
NtRp2809
(dp2810
g74
(dp2811
g101
g102
ssg83
g2800
sg76
(lp2812
S':'
asbag69
(g90
g71
NtRp2813
(dp2814
g74
(dp2815
sg83
g2800
sg76
(lp2816
g69
(g70
g71
NtRp2817
(dp2818
g74
(dp2819
g82
I3
ssg83
g2813
sg76
(lp2820
S'<cStringIO.StringO object at 0x7f8f0c41f1b8>'
p2821
asbasbasbag69
(g85
g71
NtRp2822
(dp2823
g74
(dp2824
sg83
g2395
sg76
(lp2825
g69
(g90
g71
NtRp2826
(dp2827
g74
(dp2828
g94
g95
ssg83
g2822
sg76
(lp2829
S'wsgi.multiprocess'
p2830
asbag69
(g90
g71
NtRp2831
(dp2832
g74
(dp2833
g101
g102
ssg83
g2822
sg76
(lp2834
S':'
asbag69
(g90
g71
NtRp2835
(dp2836
g74
(dp2837
sg83
g2822
sg76
(lp2838
g69
(g70
g71
NtRp2839
(dp2840
g74
(dp2841
g82
I3
ssg83
g2835
sg76
(lp2842
g112
asbasbasbag69
(g85
g71
NtRp2843
(dp2844
g74
(dp2845
sg83
g2395
sg76
(lp2846
g69
(g90
g71
NtRp2847
(dp2848
g74
(dp2849
g94
g95
ssg83
g2843
sg76
(lp2850
S'wsgi.multithread'
p2851
asbag69
(g90
g71
NtRp2852
(dp2853
g74
(dp2854
g101
g102
ssg83
g2843
sg76
(lp2855
S':'
asbag69
(g90
g71
NtRp2856
(dp2857
g74
(dp2858
sg83
g2843
sg76
(lp2859
g69
(g70
g71
NtRp2860
(dp2861
g74
(dp2862
g82
I3
ssg83
g2856
sg76
(lp2863
g1646
asbasbasbag69
(g85
g71
NtRp2864
(dp2865
g74
(dp2866
sg83
g2395
sg76
(lp2867
g69
(g90
g71
NtRp2868
(dp2869
g74
(dp2870
g94
g95
ssg83
g2864
sg76
(lp2871
S'wsgi.run_once'
p2872
asbag69
(g90
g71
NtRp2873
(dp2874
g74
(dp2875
g101
g102
ssg83
g2864
sg76
(lp2876
S':'
asbag69
(g90
g71
NtRp2877
(dp2878
g74
(dp2879
sg83
g2864
sg76
(lp2880
g69
(g70
g71
NtRp2881
(dp2882
g74
(dp2883
g82
I3
ssg83
g2877
sg76
(lp2884
g112
asbasbasbag69
(g85
g71
NtRp2885
(dp2886
g74
(dp2887
sg83
g2395
sg76
(lp2888
g69
(g90
g71
NtRp2889
(dp2890
g74
(dp2891
g94
g95
ssg83
g2885
sg76
(lp2892
S'wsgi.url_scheme'
p2893
asbag69
(g90
g71
NtRp2894
(dp2895
g74
(dp2896
g101
g102
ssg83
g2885
sg76
(lp2897
S':'
asbag69
(g90
g71
NtRp2898
(dp2899
g74
(dp2900
sg83
g2885
sg76
(lp2901
g69
(g70
g71
NtRp2902
(dp2903
g74
(dp2904
g82
I3
ssg83
g2898
sg76
(lp2905
g1689
asbasbasbag69
(g85
g71
NtRp2906
(dp2907
g74
(dp2908
sg83
g2395
sg76
(lp2909
g69
(g90
g71
NtRp2910
(dp2911
g74
(dp2912
g94
g95
ssg83
g2906
sg76
(lp2913
S'wsgi.version'
p2914
asbag69
(g90
g71
NtRp2915
(dp2916
g74
(dp2917
g101
g102
ssg83
g2906
sg76
(lp2918
S':'
asbag69
(g90
g71
NtRp2919
(dp2920
g74
(dp2921
sg83
g2906
sg76
(lp2922
g69
(g70
g71
NtRp2923
(dp2924
g74
(dp2925
g82
I3
ssg83
g2919
sg76
(lp2926
S'1'
asbasbasbasbasbasbasbasbasbasbasbasbasbsS'frames'
p2927
(lp2928
(dp2929
S'file'
p2930
S'/home/maneesha/Downloads/web2py/gluon/restricted.py'
p2931
sS'dump'
p2932
(dp2933
S'environment'
p2934
S"{'A': <class 'gluon.html.A'>, 'Auth': <class 'gluon.tools.Auth'>, 'B': <class 'gluon.html.B'>, 'BEAUTIFY': <class 'gluon.html.BEAUTIFY'>, 'BODY': <class 'gluon.html.BODY'>, 'BR': <class 'gluon.html.BR'>, 'BUTTON': <class 'gluon.html.BUTTON'>, 'CAT': <class 'gluon.html.CAT'>, 'CENTER': <class 'gluon.html.CENTER'>, 'CLEANUP': <class 'gluon.validators.CLEANUP'>, ...}"
p2935
sS'ccode'
p2936
S'<code object <module> at 0x7f8ef40dae30, file "/...ications/ssad3a/controllers/default.py", line 12>'
p2937
ssS'lnum'
p2938
I205
sS'lines'
p2939
(dp2940
I200
S'    try:'
p2941
sI201
S'        if type(code) == types.CodeType:'
p2942
sI202
S'            ccode = code'
p2943
sI203
S'        else:'
p2944
sI204
S'            ccode = compile2(code,layer)'
p2945
sI205
S'        exec ccode in environment'
p2946
sI206
S'    except HTTP:'
p2947
sI207
S'        raise'
p2948
sI208
S'    except RestrictedError:'
p2949
sI209
S'        # do not encapsulate (obfuscate) the original RestrictedError'
p2950
ssS'call'
p2951
S"(code='# -*- coding: utf-8 -*-\\n### required - do no del...rn d\\n\\nresponse._vars=response._caller(final_ans)\\n', environment={'A': <class 'gluon.html.A'>, 'Auth': <class 'gluon.tools.Auth'>, 'B': <class 'gluon.html.B'>, 'BEAUTIFY': <class 'gluon.html.BEAUTIFY'>, 'BODY': <class 'gluon.html.BODY'>, 'BR': <class 'gluon.html.BR'>, 'BUTTON': <class 'gluon.html.BUTTON'>, 'CAT': <class 'gluon.html.CAT'>, 'CENTER': <class 'gluon.html.CENTER'>, 'CLEANUP': <class 'gluon.validators.CLEANUP'>, ...}, layer='/home/maneesha/Downloads/web2py/applications/ssad3a/controllers/default.py')"
p2952
sS'func'
p2953
S'restricted'
p2954
sa(dp2955
g2930
S'/home/maneesha/Downloads/web2py/applications/ssad3a/controllers/default.py'
p2956
sg2932
(dp2957
sg2938
I143
sg2939
(dp2958
I132
S'        cited_by=inp.cited_by'
p2959
sI133
S'        year=inp.year'
p2960
sI134
S'    return [key,level,top,auth,cited_by,year]'
p2961
sI135
S'def bold(d):'
p2962
sI136
S'    pre=""'
p2963
sI137
S'    while pre!=d:'
p2964
sI138
S'        pre=d'
p2965
sI139
S'        d=d.replace("<b>","");'
p2966
sI140
S'        d=d.replace("</b>","");'
p2967
sI141
S'    return d'
p2968
ssg2951
S'()'
p2969
sg2953
S'<module>'
p2970
sa(dp2971
g2930
S'/home/maneesha/Downloads/web2py/gluon/globals.py'
p2972
sg2932
(dp2973
S'self'
p2974
S'undefined'
p2975
sS'f'
S'<function final_ans>'
p2976
ssg2938
I173
sg2939
(dp2977
I168
S'        self.menu = []             # used by the default view layout'
p2978
sI169
S'        self.files = []            # used by web2py_ajax.html'
p2979
sI170
S'        self.generic_patterns = [] # patterns to allow generic views'
p2980
sI171
S"        self.delimiters = ('{{','}}')"
p2981
sI172
S'        self._vars = None'
p2982
sI173
S'        self._caller = lambda f: f()'
p2983
sI174
S'        self._view_environment = None'
p2984
sI175
S'        self._custom_commit = None'
p2985
sI176
S'        self._custom_rollback = None'
p2986
sI177
S''
ssg2951
S'(f=<function final_ans>)'
p2987
sg2953
S'<lambda>'
p2988
sa(dp2989
g2930
S'/home/maneesha/Downloads/web2py/applications/ssad3a/controllers/default.py'
p2990
sg2932
(dp2991
S'global extract1'
p2992
S'<function extract1>'
p2993
sS'url'
p2994
S"'http://dl.acm.org/results.cfm?h=1&query=database+design'"
p2995
sS'l1'
p2996
S"['database design', 2, 3, True, True, True]"
p2997
sS'fst_l'
p2998
g2975
ssg2938
I49
sg2939
(dp2999
I44
S''
sI45
S''
sI46
S'def final_ans():'
p3000
sI47
S'    l1=u_filter()'
p3001
sI48
S'    url="http://dl.acm.org/results.cfm?h=1&query="+\'+\'.join(l1[0].split())'
p3002
sI49
S'    fst_l=extract1(url,l1)'
p3003
sI50
S'    #for l in fst_l:'
p3004
sI51
S'     #   listf.append(cite(l))'
p3005
sI52
S'    rec(fst_l,l1,bigans)'
p3006
sI53
S'    global listf'
p3007
ssg2951
S'()'
p3008
sg2953
S'final_ans'
p3009
sa(dp3010
g2930
S'/home/maneesha/Downloads/web2py/applications/ssad3a/controllers/default.py'
p3011
sg2932
(dp3012
S'url'
p3013
S"'http://dl.acm.org/results.cfm?h=1&query=database+design'"
p3014
sS'html'
p3015
g2975
sS'global fetch'
p3016
S'<function fetch>'
p3017
ssg2938
I30
sg2939
(dp3018
I32
S'    del html_splitted[0]'
p3019
sI33
S"    k=html_splitted[0].split('>')"
p3020
sI34
S'    if k[1][:-3]==l1[0]:'
p3021
sI25
S"    redirect(URL('final_ans()'))"
p3022
sI26
S'    flag=0'
p3023
sI27
S'    #return dict(ans=ll1[0],l_yr=ll1[1])'
p3024
sI28
S'def extract1(url,l1):'
p3025
sI29
S'    ret=[]'
p3026
sI30
S'    html=fetch(url)'
p3027
sI31
S'    html_splitted=html.split("<A HREF=\\"citation.cfm")'
p3028
ssg2951
S"(url='http://dl.acm.org/results.cfm?h=1&query=database+design', l1=['database design', 2, 3, True, True, True])"
p3029
sg2953
S'extract1'
p3030
sa(dp3031
g2930
S'/home/maneesha/Downloads/web2py/gluon/tools.py'
p3032
sg2932
(dp3033
S'urllib2.urlopen'
p3034
S'<function urlopen>'
p3035
sS'global urllib2'
p3036
S"<module 'urllib2' from '/usr/lib/python2.7/urllib2.pyc'>"
p3037
sS'html'
p3038
g2975
sS'req'
p3039
S'<urllib2.Request instance>'
p3040
sS').read'
p3041
g2975
ssg2938
I3424
sg2939
(dp3042
I3424
S'        html = urllib2.urlopen(req).read()'
p3043
sI3425
S'    else:'
p3044
sI3426
S'        method = ((data is None) and urlfetch.GET) or urlfetch.POST'
p3045
sI3427
S'        while url is not None:'
p3046
sI3428
S'            response = urlfetch.fetch(url=url, payload=data,'
p3047
sI3419
S"    headers['Cookie'] = ' '.join(['%s=%s;'%(c.key,c.value) for c in cookie.values()])"
p3048
sI3420
S'    try:'
p3049
sI3421
S'        from google.appengine.api import urlfetch'
p3050
sI3422
S'    except ImportError:'
p3051
sI3423
S'        req = urllib2.Request(url, data, headers)'
p3052
ssg2951
S"(url='http://dl.acm.org/results.cfm?h=1&query=database+design', data=None, headers={'Cookie': '', 'User-agent': 'Mozilla/5.0'}, cookie=<SimpleCookie: >, user_agent='Mozilla/5.0')"
p3053
sg2953
S'fetch'
p3054
sa(dp3055
g2930
S'/usr/lib/python2.7/urllib2.py'
p3056
sg2932
(dp3057
S'_opener.open'
p3058
S'<bound method OpenerDirector.open of <urllib2.OpenerDirector instance>>'
p3059
sS'url'
p3060
S'<urllib2.Request instance>'
p3061
sS'data'
p3062
S'None'
p3063
sS'global _opener'
p3064
S'<urllib2.OpenerDirector instance>'
p3065
sS'timeout'
p3066
S'<object object>'
p3067
ssg2938
I126
sg2939
(dp3068
I128
S'def install_opener(opener):'
p3069
sI129
S'    global _opener'
p3070
sI130
S'    _opener = opener'
p3071
sI121
S'_opener = None'
p3072
sI122
S'def urlopen(url, data=None, timeout=socket._GLOBAL_DEFAULT_TIMEOUT):'
p3073
sI123
S'    global _opener'
p3074
sI124
S'    if _opener is None:'
p3075
sI125
S'        _opener = build_opener()'
p3076
sI126
S'    return _opener.open(url, data, timeout)'
p3077
sI127
S''
ssg2951
S'(url=<urllib2.Request instance>, data=None, timeout=<object object>)'
p3078
sg2953
S'urlopen'
p3079
sa(dp3080
g2930
S'/usr/lib/python2.7/urllib2.py'
p3081
sg2932
(dp3082
S'self'
p3083
S'<urllib2.OpenerDirector instance>'
p3084
sS'req'
p3085
S'<urllib2.Request instance>'
p3086
sS'data'
p3087
S'None'
p3088
sS'response'
p3089
g2975
sS'self._open'
p3090
S'<bound method OpenerDirector._open of <urllib2.OpenerDirector instance>>'
p3091
ssg2938
I400
sg2939
(dp3092
I395
S'        meth_name = protocol+"_request"'
p3093
sI396
S'        for processor in self.process_request.get(protocol, []):'
p3094
sI397
S'            meth = getattr(processor, meth_name)'
p3095
sI398
S'            req = meth(req)'
p3096
sI399
S''
sI400
S'        response = self._open(req, data)'
p3097
sI401
S''
sI402
S'        # post-process response'
p3098
sI403
S'        meth_name = protocol+"_response"'
p3099
sI404
S'        for processor in self.process_response.get(protocol, []):'
p3100
ssg2951
S'(self=<urllib2.OpenerDirector instance>, fullurl=<urllib2.Request instance>, data=None, timeout=<object object>)'
p3101
sg2953
S'open'
p3102
sa(dp3103
g2930
S'/usr/lib/python2.7/urllib2.py'
p3104
sg2932
(dp3105
S'req'
p3106
S'<urllib2.Request instance>'
p3107
ssg2938
I418
sg2939
(dp3108
I416
S'        protocol = req.get_type()'
p3109
sI417
S'        result = self._call_chain(self.handle_open, protocol, protocol +'
p3110
sI418
S"                                  '_open', req)"
p3111
sI419
S'        if result:'
p3112
sI420
S'            return result'
p3113
sI421
S''
sI422
S"        return self._call_chain(self.handle_open, 'unknown',"
p3114
sI413
S'        if result:'
p3115
sI414
S'            return result'
p3116
sI415
S''
ssg2951
S'(self=<urllib2.OpenerDirector instance>, req=<urllib2.Request instance>, data=None)'
p3117
sg2953
S'_open'
p3118
sa(dp3119
g2930
S'/usr/lib/python2.7/urllib2.py'
p3120
sg2932
(dp3121
S'args'
p3122
S'(<urllib2.Request instance>,)'
p3123
sS'result'
p3124
S'None'
p3125
sS'func'
p3126
S'<bound method HTTPHandler.http_open of <urllib2.HTTPHandler instance>>'
p3127
ssg2938
I378
sg2939
(dp3128
I373
S'        # could.  Otherwise, they return the response.'
p3129
sI374
S'        handlers = chain.get(kind, ())'
p3130
sI375
S'        for handler in handlers:'
p3131
sI376
S'            func = getattr(handler, meth_name)'
p3132
sI377
S''
sI378
S'            result = func(*args)'
p3133
sI379
S'            if result is not None:'
p3134
sI380
S'                return result'
p3135
sI381
S''
sI382
S'    def open(self, fullurl, data=None, timeout=socket._GLOBAL_DEFAULT_TIMEOUT):'
p3136
ssg2951
S"(self=<urllib2.OpenerDirector instance>, chain={'all': [<urllib2.ProxyHandler instance>], 'file': [<urllib2.FileHandler instance>], 'ftp': [<urllib2.ProxyHandler instance>, <urllib2.FTPHandler instance>], 'http': [<urllib2.ProxyHandler instance>, <urllib2.HTTPHandler instance>], 'https': [<urllib2.ProxyHandler instance>, <urllib2.HTTPSHandler instance>], 'no': [<urllib2.ProxyHandler instance>], 'socks': [<urllib2.ProxyHandler instance>], 'unknown': [<urllib2.UnknownHandler instance>]}, kind='http', meth_name='http_open', *args=(<urllib2.Request instance>,))"
p3137
sg2953
S'_call_chain'
p3138
sa(dp3139
g2930
S'/usr/lib/python2.7/urllib2.py'
p3140
sg2932
(dp3141
S'self'
p3142
S'<urllib2.HTTPHandler instance>'
p3143
sS'req'
p3144
S'<urllib2.Request instance>'
p3145
sS'global httplib'
p3146
S"<module 'httplib' from '/usr/lib/python2.7/httplib.pyc'>"
p3147
sS'self.do_open'
p3148
S'<bound method HTTPHandler.do_open of <urllib2.HTTPHandler instance>>'
p3149
sS'httplib.HTTPConnection'
p3150
S'<class httplib.HTTPConnection>'
p3151
ssg2938
I1207
sg2939
(dp3152
I1202
S''
sI1203
S''
sI1204
S'class HTTPHandler(AbstractHTTPHandler):'
p3153
sI1205
S''
sI1206
S'    def http_open(self, req):'
p3154
sI1207
S'        return self.do_open(httplib.HTTPConnection, req)'
p3155
sI1208
S''
sI1209
S'    http_request = AbstractHTTPHandler.do_request_'
p3156
sI1210
S''
sI1211
S"if hasattr(httplib, 'HTTPS'):"
p3157
ssg2951
S'(self=<urllib2.HTTPHandler instance>, req=<urllib2.Request instance>)'
p3158
sg2953
S'http_open'
p3159
sa(dp3160
g2930
S'/usr/lib/python2.7/urllib2.py'
p3161
sg2932
(dp3162
S'err'
p3163
S"gaierror(-2, 'Name or service not known')"
p3164
sS'global URLError'
p3165
S"<class 'urllib2.URLError'>"
p3166
ssg2938
I1177
sg2939
(dp3167
I1172
S''
sI1173
S'        try:'
p3168
sI1174
S'            h.request(req.get_method(), req.get_selector(), req.data, headers)'
p3169
sI1175
S'        except socket.error, err: # XXX what error?'
p3170
sI1176
S'            h.close()'
p3171
sI1177
S'            raise URLError(err)'
p3172
sI1178
S'        else:'
p3173
sI1179
S'            try:'
p3174
sI1180
S'                r = h.getresponse(buffering=True)'
p3175
sI1181
S'            except TypeError: # buffering kw not supported'
p3176
ssg2951
S'(self=<urllib2.HTTPHandler instance>, http_class=<class httplib.HTTPConnection>, req=<urllib2.Request instance>)'
p3177
sg2953
S'do_open'
p3178
sasS'pyver'
p3179
S'Python 2.7.3: /usr/bin/python'
p3180
sS'session'
p3181
g69
(g70
g71
NtRp3182
(dp3183
g74
(dp3184
sg76
(lp3185
g69
(g78
g71
NtRp3186
(dp3187
g74
(dp3188
g82
I5
ssg83
Nsg76
(lp3189
sbasbsS'etype'
p3190
S"<class 'urllib2.URLError'>"
p3191
sS'date'
p3192
S'Mon Oct 15 22:26:02 2012'
p3193
sS'response'
p3194
g69
(g70
g71
NtRp3195
(dp3196
g74
(dp3197
sg76
(lp3198
g69
(g78
g71
NtRp3199
(dp3200
g74
(dp3201
g82
I5
ssg83
Nsg76
(lp3202
g69
(g85
g71
NtRp3203
(dp3204
g74
(dp3205
sg83
g3199
sg76
(lp3206
g69
(g90
g71
NtRp3207
(dp3208
g74
(dp3209
g94
g95
ssg83
g3203
sg76
(lp3210
g167
asbag69
(g90
g71
NtRp3211
(dp3212
g74
(dp3213
g101
g102
ssg83
g3203
sg76
(lp3214
S':'
asbag69
(g90
g71
NtRp3215
(dp3216
g74
(dp3217
sg83
g3203
sg76
(lp3218
g69
(g70
g71
NtRp3219
(dp3220
g74
(dp3221
g82
I5
ssg83
g3215
sg76
(lp3222
S'<cStringIO.StringO object at 0x7f8f0c41f768>'
p3223
asbasbasbag69
(g85
g71
NtRp3224
(dp3225
g74
(dp3226
sg83
g3199
sg76
(lp3227
g69
(g90
g71
NtRp3228
(dp3229
g74
(dp3230
g94
g95
ssg83
g3224
sg76
(lp3231
g233
asbag69
(g90
g71
NtRp3232
(dp3233
g74
(dp3234
g101
g102
ssg83
g3224
sg76
(lp3235
S':'
asbag69
(g90
g71
NtRp3236
(dp3237
g74
(dp3238
sg83
g3224
sg76
(lp3239
g69
(g70
g71
NtRp3240
(dp3241
g74
(dp3242
g82
I5
ssg83
g3236
sg76
(lp3243
g69
(g78
g71
NtRp3244
(dp3245
g74
(dp3246
g82
I4
ssg83
Nsg76
(lp3247
g69
(g85
g71
NtRp3248
(dp3249
g74
(dp3250
sg83
g3244
sg76
(lp3251
g69
(g90
g71
NtRp3252
(dp3253
g74
(dp3254
g94
g95
ssg83
g3248
sg76
(lp3255
S'session_id_ssad3a'
p3256
asbag69
(g90
g71
NtRp3257
(dp3258
g74
(dp3259
g101
g102
ssg83
g3248
sg76
(lp3260
S':'
asbag69
(g90
g71
NtRp3261
(dp3262
g74
(dp3263
sg83
g3248
sg76
(lp3264
g69
(g70
g71
NtRp3265
(dp3266
g74
(dp3267
g82
I4
ssg83
g3261
sg76
(lp3268
g69
(g78
g71
NtRp3269
(dp3270
g74
(dp3271
g82
I3
ssg83
Nsg76
(lp3272
g69
(g85
g71
NtRp3273
(dp3274
g74
(dp3275
sg83
g3269
sg76
(lp3276
g69
(g90
g71
NtRp3277
(dp3278
g74
(dp3279
g94
g95
ssg83
g3273
sg76
(lp3280
g283
asbag69
(g90
g71
NtRp3281
(dp3282
g74
(dp3283
g101
g102
ssg83
g3273
sg76
(lp3284
S':'
asbag69
(g90
g71
NtRp3285
(dp3286
g74
(dp3287
sg83
g3273
sg76
(lp3288
g69
(g70
g71
NtRp3289
(dp3290
g74
(dp3291
g82
I3
ssg83
g3285
sg76
(lp3292
S''
asbasbasbag69
(g85
g71
NtRp3293
(dp3294
g74
(dp3295
sg83
g3269
sg76
(lp3296
g69
(g90
g71
NtRp3297
(dp3298
g74
(dp3299
g94
g95
ssg83
g3293
sg76
(lp3300
g304
asbag69
(g90
g71
NtRp3301
(dp3302
g74
(dp3303
g101
g102
ssg83
g3293
sg76
(lp3304
S':'
asbag69
(g90
g71
NtRp3305
(dp3306
g74
(dp3307
sg83
g3293
sg76
(lp3308
g69
(g70
g71
NtRp3309
(dp3310
g74
(dp3311
g82
I3
ssg83
g3305
sg76
(lp3312
S''
asbasbasbag69
(g85
g71
NtRp3313
(dp3314
g74
(dp3315
sg83
g3269
sg76
(lp3316
g69
(g90
g71
NtRp3317
(dp3318
g74
(dp3319
g94
g95
ssg83
g3313
sg76
(lp3320
g325
asbag69
(g90
g71
NtRp3321
(dp3322
g74
(dp3323
g101
g102
ssg83
g3313
sg76
(lp3324
S':'
asbag69
(g90
g71
NtRp3325
(dp3326
g74
(dp3327
sg83
g3313
sg76
(lp3328
g69
(g70
g71
NtRp3329
(dp3330
g74
(dp3331
g82
I3
ssg83
g3325
sg76
(lp3332
S''
asbasbasbag69
(g85
g71
NtRp3333
(dp3334
g74
(dp3335
sg83
g3269
sg76
(lp3336
g69
(g90
g71
NtRp3337
(dp3338
g74
(dp3339
g94
g95
ssg83
g3333
sg76
(lp3340
g346
asbag69
(g90
g71
NtRp3341
(dp3342
g74
(dp3343
g101
g102
ssg83
g3333
sg76
(lp3344
S':'
asbag69
(g90
g71
NtRp3345
(dp3346
g74
(dp3347
sg83
g3333
sg76
(lp3348
g69
(g70
g71
NtRp3349
(dp3350
g74
(dp3351
g82
I3
ssg83
g3345
sg76
(lp3352
S''
asbasbasbag69
(g85
g71
NtRp3353
(dp3354
g74
(dp3355
sg83
g3269
sg76
(lp3356
g69
(g90
g71
NtRp3357
(dp3358
g74
(dp3359
g94
g95
ssg83
g3353
sg76
(lp3360
g367
asbag69
(g90
g71
NtRp3361
(dp3362
g74
(dp3363
g101
g102
ssg83
g3353
sg76
(lp3364
S':'
asbag69
(g90
g71
NtRp3365
(dp3366
g74
(dp3367
sg83
g3353
sg76
(lp3368
g69
(g70
g71
NtRp3369
(dp3370
g74
(dp3371
g82
I3
ssg83
g3365
sg76
(lp3372
S''
asbasbasbag69
(g85
g71
NtRp3373
(dp3374
g74
(dp3375
sg83
g3269
sg76
(lp3376
g69
(g90
g71
NtRp3377
(dp3378
g74
(dp3379
g94
g95
ssg83
g3373
sg76
(lp3380
g388
asbag69
(g90
g71
NtRp3381
(dp3382
g74
(dp3383
g101
g102
ssg83
g3373
sg76
(lp3384
S':'
asbag69
(g90
g71
NtRp3385
(dp3386
g74
(dp3387
sg83
g3373
sg76
(lp3388
g69
(g70
g71
NtRp3389
(dp3390
g74
(dp3391
g82
I3
ssg83
g3385
sg76
(lp3392
S'/'
asbasbasbag69
(g85
g71
NtRp3393
(dp3394
g74
(dp3395
sg83
g3269
sg76
(lp3396
g69
(g90
g71
NtRp3397
(dp3398
g74
(dp3399
g94
g95
ssg83
g3393
sg76
(lp3400
g409
asbag69
(g90
g71
NtRp3401
(dp3402
g74
(dp3403
g101
g102
ssg83
g3393
sg76
(lp3404
S':'
asbag69
(g90
g71
NtRp3405
(dp3406
g74
(dp3407
sg83
g3393
sg76
(lp3408
g69
(g70
g71
NtRp3409
(dp3410
g74
(dp3411
g82
I3
ssg83
g3405
sg76
(lp3412
S''
asbasbasbag69
(g85
g71
NtRp3413
(dp3414
g74
(dp3415
sg83
g3269
sg76
(lp3416
g69
(g90
g71
NtRp3417
(dp3418
g74
(dp3419
g94
g95
ssg83
g3413
sg76
(lp3420
g430
asbag69
(g90
g71
NtRp3421
(dp3422
g74
(dp3423
g101
g102
ssg83
g3413
sg76
(lp3424
S':'
asbag69
(g90
g71
NtRp3425
(dp3426
g74
(dp3427
sg83
g3413
sg76
(lp3428
g69
(g70
g71
NtRp3429
(dp3430
g74
(dp3431
g82
I3
ssg83
g3425
sg76
(lp3432
S''
asbasbasbasbasbasbasbasbasbasbasbag69
(g85
g71
NtRp3433
(dp3434
g74
(dp3435
sg83
g3199
sg76
(lp3436
g69
(g90
g71
NtRp3437
(dp3438
g74
(dp3439
g94
g95
ssg83
g3433
sg76
(lp3440
S'delimiters'
p3441
asbag69
(g90
g71
NtRp3442
(dp3443
g74
(dp3444
g101
g102
ssg83
g3433
sg76
(lp3445
S':'
asbag69
(g90
g71
NtRp3446
(dp3447
g74
(dp3448
sg83
g3433
sg76
(lp3449
g69
(g70
g71
NtRp3450
(dp3451
g74
(dp3452
g82
I5
ssg83
g3446
sg76
(lp3453
g69
(g78
g71
NtRp3454
(dp3455
g74
(dp3456
g82
I4
ssg83
Nsg76
(lp3457
g69
(g85
g71
NtRp3458
(dp3459
g74
(dp3460
sg83
g3454
sg76
(lp3461
g69
(g90
g71
NtRp3462
(dp3463
g74
(dp3464
sg83
g3458
sg76
(lp3465
g69
(g70
g71
NtRp3466
(dp3467
g74
(dp3468
g82
I4
ssg83
g3462
sg76
(lp3469
S'{{'
p3470
asbasbasbag69
(g85
g71
NtRp3471
(dp3472
g74
(dp3473
sg83
g3454
sg76
(lp3474
g69
(g90
g71
NtRp3475
(dp3476
g74
(dp3477
sg83
g3471
sg76
(lp3478
g69
(g70
g71
NtRp3479
(dp3480
g74
(dp3481
g82
I4
ssg83
g3475
sg76
(lp3482
S'}}'
p3483
asbasbasbasbasbasbasbag69
(g85
g71
NtRp3484
(dp3485
g74
(dp3486
sg83
g3199
sg76
(lp3487
g69
(g90
g71
NtRp3488
(dp3489
g74
(dp3490
g94
g95
ssg83
g3484
sg76
(lp3491
S'files'
p3492
asbag69
(g90
g71
NtRp3493
(dp3494
g74
(dp3495
g101
g102
ssg83
g3484
sg76
(lp3496
S':'
asbag69
(g90
g71
NtRp3497
(dp3498
g74
(dp3499
sg83
g3484
sg76
(lp3500
g69
(g70
g71
NtRp3501
(dp3502
g74
(dp3503
g82
I5
ssg83
g3497
sg76
(lp3504
g69
(g78
g71
NtRp3505
(dp3506
g74
(dp3507
g82
I4
ssg83
Nsg76
(lp3508
sbasbasbasbag69
(g85
g71
NtRp3509
(dp3510
g74
(dp3511
sg83
g3199
sg76
(lp3512
g69
(g90
g71
NtRp3513
(dp3514
g74
(dp3515
g94
g95
ssg83
g3509
sg76
(lp3516
S'flash'
p3517
asbag69
(g90
g71
NtRp3518
(dp3519
g74
(dp3520
g101
g102
ssg83
g3509
sg76
(lp3521
S':'
asbag69
(g90
g71
NtRp3522
(dp3523
g74
(dp3524
sg83
g3509
sg76
(lp3525
g69
(g70
g71
NtRp3526
(dp3527
g74
(dp3528
g82
I5
ssg83
g3522
sg76
(lp3529
S''
asbasbasbag69
(g85
g71
NtRp3530
(dp3531
g74
(dp3532
sg83
g3199
sg76
(lp3533
g69
(g90
g71
NtRp3534
(dp3535
g74
(dp3536
g94
g95
ssg83
g3530
sg76
(lp3537
S'generic_patterns'
p3538
asbag69
(g90
g71
NtRp3539
(dp3540
g74
(dp3541
g101
g102
ssg83
g3530
sg76
(lp3542
S':'
asbag69
(g90
g71
NtRp3543
(dp3544
g74
(dp3545
sg83
g3530
sg76
(lp3546
g69
(g70
g71
NtRp3547
(dp3548
g74
(dp3549
g82
I5
ssg83
g3543
sg76
(lp3550
g69
(g78
g71
NtRp3551
(dp3552
g74
(dp3553
g82
I4
ssg83
Nsg76
(lp3554
g69
(g85
g71
NtRp3555
(dp3556
g74
(dp3557
sg83
g3551
sg76
(lp3558
g69
(g90
g71
NtRp3559
(dp3560
g74
(dp3561
sg83
g3555
sg76
(lp3562
g69
(g70
g71
NtRp3563
(dp3564
g74
(dp3565
g82
I4
ssg83
g3559
sg76
(lp3566
S'*'
asbasbasbasbasbasbasbag69
(g85
g71
NtRp3567
(dp3568
g74
(dp3569
sg83
g3199
sg76
(lp3570
g69
(g90
g71
NtRp3571
(dp3572
g74
(dp3573
g94
g95
ssg83
g3567
sg76
(lp3574
S'headers'
p3575
asbag69
(g90
g71
NtRp3576
(dp3577
g74
(dp3578
g101
g102
ssg83
g3567
sg76
(lp3579
S':'
asbag69
(g90
g71
NtRp3580
(dp3581
g74
(dp3582
sg83
g3567
sg76
(lp3583
g69
(g70
g71
NtRp3584
(dp3585
g74
(dp3586
g82
I5
ssg83
g3580
sg76
(lp3587
g69
(g78
g71
NtRp3588
(dp3589
g74
(dp3590
g82
I4
ssg83
Nsg76
(lp3591
g69
(g85
g71
NtRp3592
(dp3593
g74
(dp3594
sg83
g3588
sg76
(lp3595
g69
(g90
g71
NtRp3596
(dp3597
g74
(dp3598
g94
g95
ssg83
g3592
sg76
(lp3599
S'Cache-Control'
p3600
asbag69
(g90
g71
NtRp3601
(dp3602
g74
(dp3603
g101
g102
ssg83
g3592
sg76
(lp3604
S':'
asbag69
(g90
g71
NtRp3605
(dp3606
g74
(dp3607
sg83
g3592
sg76
(lp3608
g69
(g70
g71
NtRp3609
(dp3610
g74
(dp3611
g82
I4
ssg83
g3605
sg76
(lp3612
S'no-store, no-cache, must-revalidate, post-check=0, pre-check=0'
p3613
asbasbasbag69
(g85
g71
NtRp3614
(dp3615
g74
(dp3616
sg83
g3588
sg76
(lp3617
g69
(g90
g71
NtRp3618
(dp3619
g74
(dp3620
g94
g95
ssg83
g3614
sg76
(lp3621
S'Content-Type'
p3622
asbag69
(g90
g71
NtRp3623
(dp3624
g74
(dp3625
g101
g102
ssg83
g3614
sg76
(lp3626
S':'
asbag69
(g90
g71
NtRp3627
(dp3628
g74
(dp3629
sg83
g3614
sg76
(lp3630
g69
(g70
g71
NtRp3631
(dp3632
g74
(dp3633
g82
I4
ssg83
g3627
sg76
(lp3634
S'text/html; charset=utf-8'
p3635
asbasbasbag69
(g85
g71
NtRp3636
(dp3637
g74
(dp3638
sg83
g3588
sg76
(lp3639
g69
(g90
g71
NtRp3640
(dp3641
g74
(dp3642
g94
g95
ssg83
g3636
sg76
(lp3643
S'Expires'
p3644
asbag69
(g90
g71
NtRp3645
(dp3646
g74
(dp3647
g101
g102
ssg83
g3636
sg76
(lp3648
S':'
asbag69
(g90
g71
NtRp3649
(dp3650
g74
(dp3651
sg83
g3636
sg76
(lp3652
g69
(g70
g71
NtRp3653
(dp3654
g74
(dp3655
g82
I4
ssg83
g3649
sg76
(lp3656
S'Mon, 15 Oct 2012 16:56:02 GMT'
p3657
asbasbasbag69
(g85
g71
NtRp3658
(dp3659
g74
(dp3660
sg83
g3588
sg76
(lp3661
g69
(g90
g71
NtRp3662
(dp3663
g74
(dp3664
g94
g95
ssg83
g3658
sg76
(lp3665
S'Pragma'
p3666
asbag69
(g90
g71
NtRp3667
(dp3668
g74
(dp3669
g101
g102
ssg83
g3658
sg76
(lp3670
S':'
asbag69
(g90
g71
NtRp3671
(dp3672
g74
(dp3673
sg83
g3658
sg76
(lp3674
g69
(g70
g71
NtRp3675
(dp3676
g74
(dp3677
g82
I4
ssg83
g3671
sg76
(lp3678
S'no-cache'
p3679
asbasbasbag69
(g85
g71
NtRp3680
(dp3681
g74
(dp3682
sg83
g3588
sg76
(lp3683
g69
(g90
g71
NtRp3684
(dp3685
g74
(dp3686
g94
g95
ssg83
g3680
sg76
(lp3687
S'X-Powered-By'
p3688
asbag69
(g90
g71
NtRp3689
(dp3690
g74
(dp3691
g101
g102
ssg83
g3680
sg76
(lp3692
S':'
asbag69
(g90
g71
NtRp3693
(dp3694
g74
(dp3695
sg83
g3680
sg76
(lp3696
g69
(g70
g71
NtRp3697
(dp3698
g74
(dp3699
g82
I4
ssg83
g3693
sg76
(lp3700
S'web2py'
p3701
asbasbasbasbasbasbasbag69
(g85
g71
NtRp3702
(dp3703
g74
(dp3704
sg83
g3199
sg76
(lp3705
g69
(g90
g71
NtRp3706
(dp3707
g74
(dp3708
g94
g95
ssg83
g3702
sg76
(lp3709
S'menu'
p3710
asbag69
(g90
g71
NtRp3711
(dp3712
g74
(dp3713
g101
g102
ssg83
g3702
sg76
(lp3714
S':'
asbag69
(g90
g71
NtRp3715
(dp3716
g74
(dp3717
sg83
g3702
sg76
(lp3718
g69
(g70
g71
NtRp3719
(dp3720
g74
(dp3721
g82
I5
ssg83
g3715
sg76
(lp3722
g69
(g78
g71
NtRp3723
(dp3724
g74
(dp3725
g82
I4
ssg83
Nsg76
(lp3726
g69
(g85
g71
NtRp3727
(dp3728
g74
(dp3729
sg83
g3723
sg76
(lp3730
g69
(g90
g71
NtRp3731
(dp3732
g74
(dp3733
sg83
g3727
sg76
(lp3734
g69
(g70
g71
NtRp3735
(dp3736
g74
(dp3737
g82
I4
ssg83
g3731
sg76
(lp3738
g69
(g78
g71
NtRp3739
(dp3740
g74
(dp3741
g82
I3
ssg83
Nsg76
(lp3742
g69
(g85
g71
NtRp3743
(dp3744
g74
(dp3745
sg83
g3739
sg76
(lp3746
g69
(g90
g71
NtRp3747
(dp3748
g74
(dp3749
sg83
g3743
sg76
(lp3750
g69
(g70
g71
NtRp3751
(dp3752
g74
(dp3753
g82
I3
ssg83
g3747
sg76
(lp3754
cgluon.languages
lazyT_unpickle
p3755
(S't\x05\x00\x00\x00Index'
tRp3756
asbasbasbag69
(g85
g71
NtRp3757
(dp3758
g74
(dp3759
sg83
g3739
sg76
(lp3760
g69
(g90
g71
NtRp3761
(dp3762
g74
(dp3763
sg83
g3757
sg76
(lp3764
g69
(g70
g71
NtRp3765
(dp3766
g74
(dp3767
g82
I3
ssg83
g3761
sg76
(lp3768
g112
asbasbasbag69
(g85
g71
NtRp3769
(dp3770
g74
(dp3771
sg83
g3739
sg76
(lp3772
g69
(g90
g71
NtRp3773
(dp3774
g74
(dp3775
sg83
g3769
sg76
(lp3776
g69
(g70
g71
NtRp3777
(dp3778
g74
(dp3779
g82
I3
ssg83
g3773
sg76
(lp3780
S'/ssad3a/default/index'
p3781
asbasbasbag69
(g85
g71
NtRp3782
(dp3783
g74
(dp3784
sg83
g3739
sg76
(lp3785
g69
(g90
g71
NtRp3786
(dp3787
g74
(dp3788
sg83
g3782
sg76
(lp3789
g69
(g70
g71
NtRp3790
(dp3791
g74
(dp3792
g82
I3
ssg83
g3786
sg76
(lp3793
g69
(g78
g71
NtRp3794
(dp3795
g74
(dp3796
g82
I2
ssg83
Nsg76
(lp3797
sbasbasbasbasbasbasbasbasbasbasbasbag69
(g85
g71
NtRp3798
(dp3799
g74
(dp3800
sg83
g3199
sg76
(lp3801
g69
(g90
g71
NtRp3802
(dp3803
g74
(dp3804
g94
g95
ssg83
g3798
sg76
(lp3805
S'meta'
p3806
asbag69
(g90
g71
NtRp3807
(dp3808
g74
(dp3809
g101
g102
ssg83
g3798
sg76
(lp3810
S':'
asbag69
(g90
g71
NtRp3811
(dp3812
g74
(dp3813
sg83
g3798
sg76
(lp3814
g69
(g70
g71
NtRp3815
(dp3816
g74
(dp3817
g82
I5
ssg83
g3811
sg76
(lp3818
g69
(g78
g71
NtRp3819
(dp3820
g74
(dp3821
g82
I4
ssg83
Nsg76
(lp3822
g69
(g85
g71
NtRp3823
(dp3824
g74
(dp3825
sg83
g3819
sg76
(lp3826
g69
(g90
g71
NtRp3827
(dp3828
g74
(dp3829
g94
g95
ssg83
g3823
sg76
(lp3830
S'author'
p3831
asbag69
(g90
g71
NtRp3832
(dp3833
g74
(dp3834
g101
g102
ssg83
g3823
sg76
(lp3835
S':'
asbag69
(g90
g71
NtRp3836
(dp3837
g74
(dp3838
sg83
g3823
sg76
(lp3839
g69
(g70
g71
NtRp3840
(dp3841
g74
(dp3842
g82
I4
ssg83
g3836
sg76
(lp3843
S'you <you@example.com>'
p3844
asbasbasbag69
(g85
g71
NtRp3845
(dp3846
g74
(dp3847
sg83
g3819
sg76
(lp3848
g69
(g90
g71
NtRp3849
(dp3850
g74
(dp3851
g94
g95
ssg83
g3845
sg76
(lp3852
S'description'
p3853
asbag69
(g90
g71
NtRp3854
(dp3855
g74
(dp3856
g101
g102
ssg83
g3845
sg76
(lp3857
S':'
asbag69
(g90
g71
NtRp3858
(dp3859
g74
(dp3860
sg83
g3845
sg76
(lp3861
g69
(g70
g71
NtRp3862
(dp3863
g74
(dp3864
g82
I4
ssg83
g3858
sg76
(lp3865
S''
asbasbasbag69
(g85
g71
NtRp3866
(dp3867
g74
(dp3868
sg83
g3819
sg76
(lp3869
g69
(g90
g71
NtRp3870
(dp3871
g74
(dp3872
g94
g95
ssg83
g3866
sg76
(lp3873
S'keywords'
p3874
asbag69
(g90
g71
NtRp3875
(dp3876
g74
(dp3877
g101
g102
ssg83
g3866
sg76
(lp3878
S':'
asbag69
(g90
g71
NtRp3879
(dp3880
g74
(dp3881
sg83
g3866
sg76
(lp3882
g69
(g70
g71
NtRp3883
(dp3884
g74
(dp3885
g82
I4
ssg83
g3879
sg76
(lp3886
S''
asbasbasbasbasbasbasbag69
(g85
g71
NtRp3887
(dp3888
g74
(dp3889
sg83
g3199
sg76
(lp3890
g69
(g90
g71
NtRp3891
(dp3892
g74
(dp3893
g94
g95
ssg83
g3887
sg76
(lp3894
S'postprocessing'
p3895
asbag69
(g90
g71
NtRp3896
(dp3897
g74
(dp3898
g101
g102
ssg83
g3887
sg76
(lp3899
S':'
asbag69
(g90
g71
NtRp3900
(dp3901
g74
(dp3902
sg83
g3887
sg76
(lp3903
g69
(g70
g71
NtRp3904
(dp3905
g74
(dp3906
g82
I5
ssg83
g3900
sg76
(lp3907
g69
(g78
g71
NtRp3908
(dp3909
g74
(dp3910
g82
I4
ssg83
Nsg76
(lp3911
sbasbasbasbag69
(g85
g71
NtRp3912
(dp3913
g74
(dp3914
sg83
g3199
sg76
(lp3915
g69
(g90
g71
NtRp3916
(dp3917
g74
(dp3918
g94
g95
ssg83
g3912
sg76
(lp3919
S'session_file'
p3920
asbag69
(g90
g71
NtRp3921
(dp3922
g74
(dp3923
g101
g102
ssg83
g3912
sg76
(lp3924
S':'
asbag69
(g90
g71
NtRp3925
(dp3926
g74
(dp3927
sg83
g3912
sg76
(lp3928
g69
(g70
g71
NtRp3929
(dp3930
g74
(dp3931
g82
I5
ssg83
g3925
sg76
(lp3932
S"<open file '/home/maneesha/Downloads/web2py/applications/ssad3a/sessions/127.0.0.1-6ed7d82a-b24f-449d-a6cd-700fcc760505', mode 'rb+' at 0x7f8f0c421780>"
p3933
asbasbasbag69
(g85
g71
NtRp3934
(dp3935
g74
(dp3936
sg83
g3199
sg76
(lp3937
g69
(g90
g71
NtRp3938
(dp3939
g74
(dp3940
g94
g95
ssg83
g3934
sg76
(lp3941
S'session_filename'
p3942
asbag69
(g90
g71
NtRp3943
(dp3944
g74
(dp3945
g101
g102
ssg83
g3934
sg76
(lp3946
S':'
asbag69
(g90
g71
NtRp3947
(dp3948
g74
(dp3949
sg83
g3934
sg76
(lp3950
g69
(g70
g71
NtRp3951
(dp3952
g74
(dp3953
g82
I5
ssg83
g3947
sg76
(lp3954
S'/home/maneesha/Downloads/web2py/applications/ssad3a/sessions/127.0.0.1-6ed7d82a-b24f-449d-a6cd-700fcc760505'
p3955
asbasbasbag69
(g85
g71
NtRp3956
(dp3957
g74
(dp3958
sg83
g3199
sg76
(lp3959
g69
(g90
g71
NtRp3960
(dp3961
g74
(dp3962
g94
g95
ssg83
g3956
sg76
(lp3963
S'session_id'
p3964
asbag69
(g90
g71
NtRp3965
(dp3966
g74
(dp3967
g101
g102
ssg83
g3956
sg76
(lp3968
S':'
asbag69
(g90
g71
NtRp3969
(dp3970
g74
(dp3971
sg83
g3956
sg76
(lp3972
g69
(g70
g71
NtRp3973
(dp3974
g74
(dp3975
g82
I5
ssg83
g3969
sg76
(lp3976
S'127.0.0.1-6ed7d82a-b24f-449d-a6cd-700fcc760505'
p3977
asbasbasbag69
(g85
g71
NtRp3978
(dp3979
g74
(dp3980
sg83
g3199
sg76
(lp3981
g69
(g90
g71
NtRp3982
(dp3983
g74
(dp3984
g94
g95
ssg83
g3978
sg76
(lp3985
S'session_id_name'
p3986
asbag69
(g90
g71
NtRp3987
(dp3988
g74
(dp3989
g101
g102
ssg83
g3978
sg76
(lp3990
S':'
asbag69
(g90
g71
NtRp3991
(dp3992
g74
(dp3993
sg83
g3978
sg76
(lp3994
g69
(g70
g71
NtRp3995
(dp3996
g74
(dp3997
g82
I5
ssg83
g3991
sg76
(lp3998
g3256
asbasbasbag69
(g85
g71
NtRp3999
(dp4000
g74
(dp4001
sg83
g3199
sg76
(lp4002
g69
(g90
g71
NtRp4003
(dp4004
g74
(dp4005
g94
g95
ssg83
g3999
sg76
(lp4006
S'session_locked'
p4007
asbag69
(g90
g71
NtRp4008
(dp4009
g74
(dp4010
g101
g102
ssg83
g3999
sg76
(lp4011
S':'
asbag69
(g90
g71
NtRp4012
(dp4013
g74
(dp4014
sg83
g3999
sg76
(lp4015
g69
(g70
g71
NtRp4016
(dp4017
g74
(dp4018
g82
I5
ssg83
g4012
sg76
(lp4019
g1646
asbasbasbag69
(g85
g71
NtRp4020
(dp4021
g74
(dp4022
sg83
g3199
sg76
(lp4023
g69
(g90
g71
NtRp4024
(dp4025
g74
(dp4026
g94
g95
ssg83
g4020
sg76
(lp4027
S'session_new'
p4028
asbag69
(g90
g71
NtRp4029
(dp4030
g74
(dp4031
g101
g102
ssg83
g4020
sg76
(lp4032
S':'
asbag69
(g90
g71
NtRp4033
(dp4034
g74
(dp4035
sg83
g4020
sg76
(lp4036
g69
(g70
g71
NtRp4037
(dp4038
g74
(dp4039
g82
I5
ssg83
g4033
sg76
(lp4040
g112
asbasbasbag69
(g85
g71
NtRp4041
(dp4042
g74
(dp4043
sg83
g3199
sg76
(lp4044
g69
(g90
g71
NtRp4045
(dp4046
g74
(dp4047
g94
g95
ssg83
g4041
sg76
(lp4048
S'status'
p4049
asbag69
(g90
g71
NtRp4050
(dp4051
g74
(dp4052
g101
g102
ssg83
g4041
sg76
(lp4053
S':'
asbag69
(g90
g71
NtRp4054
(dp4055
g74
(dp4056
sg83
g4041
sg76
(lp4057
g69
(g70
g71
NtRp4058
(dp4059
g74
(dp4060
g82
I5
ssg83
g4054
sg76
(lp4061
S'200'
p4062
asbasbasbag69
(g85
g71
NtRp4063
(dp4064
g74
(dp4065
sg83
g3199
sg76
(lp4066
g69
(g90
g71
NtRp4067
(dp4068
g74
(dp4069
g94
g95
ssg83
g4063
sg76
(lp4070
S'subtitle'
p4071
asbag69
(g90
g71
NtRp4072
(dp4073
g74
(dp4074
g101
g102
ssg83
g4063
sg76
(lp4075
S':'
asbag69
(g90
g71
NtRp4076
(dp4077
g74
(dp4078
sg83
g4063
sg76
(lp4079
g69
(g70
g71
NtRp4080
(dp4081
g74
(dp4082
g82
I5
ssg83
g4076
sg76
(lp4083
S'powered by web2py'
p4084
asbasbasbag69
(g85
g71
NtRp4085
(dp4086
g74
(dp4087
sg83
g3199
sg76
(lp4088
g69
(g90
g71
NtRp4089
(dp4090
g74
(dp4091
g94
g95
ssg83
g4085
sg76
(lp4092
S'title'
p4093
asbag69
(g90
g71
NtRp4094
(dp4095
g74
(dp4096
g101
g102
ssg83
g4085
sg76
(lp4097
S':'
asbag69
(g90
g71
NtRp4098
(dp4099
g74
(dp4100
sg83
g4085
sg76
(lp4101
g69
(g70
g71
NtRp4102
(dp4103
g74
(dp4104
g82
I5
ssg83
g4098
sg76
(lp4105
S'My New App'
p4106
asbasbasbag69
(g85
g71
NtRp4107
(dp4108
g74
(dp4109
sg83
g3199
sg76
(lp4110
g69
(g90
g71
NtRp4111
(dp4112
g74
(dp4113
g94
g95
ssg83
g4107
sg76
(lp4114
g2310
asbag69
(g90
g71
NtRp4115
(dp4116
g74
(dp4117
g101
g102
ssg83
g4107
sg76
(lp4118
S':'
asbag69
(g90
g71
NtRp4119
(dp4120
g74
(dp4121
sg83
g4107
sg76
(lp4122
g69
(g70
g71
NtRp4123
(dp4124
g74
(dp4125
g82
I5
ssg83
g4119
sg76
(lp4126
g2323
asbasbasbag69
(g85
g71
NtRp4127
(dp4128
g74
(dp4129
sg83
g3199
sg76
(lp4130
g69
(g90
g71
NtRp4131
(dp4132
g74
(dp4133
g94
g95
ssg83
g4127
sg76
(lp4134
S'view'
p4135
asbag69
(g90
g71
NtRp4136
(dp4137
g74
(dp4138
g101
g102
ssg83
g4127
sg76
(lp4139
S':'
asbag69
(g90
g71
NtRp4140
(dp4141
g74
(dp4142
sg83
g4127
sg76
(lp4143
g69
(g70
g71
NtRp4144
(dp4145
g74
(dp4146
g82
I5
ssg83
g4140
sg76
(lp4147
S'default/final_ans.html'
p4148
asbasbasbasbasbsS'locals'
p4149
(dp4150
S'err'
p4151
S"gaierror(-2, 'Name or service not known')"
p4152
sS'h'
S'<httplib.HTTPConnection instance>'
p4153
sS'self'
p4154
S'<urllib2.HTTPHandler instance>'
p4155
sS'req'
p4156
S'<urllib2.Request instance>'
p4157
sg3575
S"{'Connection': 'close', 'Cookie': '', 'Host': 'dl.acm.org', 'User-Agent': 'Mozilla/5.0'}"
p4158
sS'host'
p4159
S"'proxy.iiit.ac.in:8080'"
p4160
sS'http_class'
p4161
S'<class httplib.HTTPConnection>'
p4162
sssS'traceback'
p4163
S'Traceback (most recent call last):\n  File "/home/maneesha/Downloads/web2py/gluon/restricted.py", line 205, in restricted\n    exec ccode in environment\n  File "/home/maneesha/Downloads/web2py/applications/ssad3a/controllers/default.py", line 143, in <module>\n  File "/home/maneesha/Downloads/web2py/gluon/globals.py", line 173, in <lambda>\n    self._caller = lambda f: f()\n  File "/home/maneesha/Downloads/web2py/applications/ssad3a/controllers/default.py", line 49, in final_ans\n    fst_l=extract1(url,l1)\n  File "/home/maneesha/Downloads/web2py/applications/ssad3a/controllers/default.py", line 30, in extract1\n    html=fetch(url)\n  File "/home/maneesha/Downloads/web2py/gluon/tools.py", line 3424, in fetch\n    html = urllib2.urlopen(req).read()\n  File "/usr/lib/python2.7/urllib2.py", line 126, in urlopen\n    return _opener.open(url, data, timeout)\n  File "/usr/lib/python2.7/urllib2.py", line 400, in open\n    response = self._open(req, data)\n  File "/usr/lib/python2.7/urllib2.py", line 418, in _open\n    \'_open\', req)\n  File "/usr/lib/python2.7/urllib2.py", line 378, in _call_chain\n    result = func(*args)\n  File "/usr/lib/python2.7/urllib2.py", line 1207, in http_open\n    return self.do_open(httplib.HTTPConnection, req)\n  File "/usr/lib/python2.7/urllib2.py", line 1177, in do_open\n    raise URLError(err)\nURLError: <urlopen error [Errno -2] Name or service not known>\n'
p4164
s.