(dp1
S'output'
p2
S"<class 'urllib2.HTTPError'> HTTP Error 504: Gateway Time-out"
p3
sS'layer'
p4
S'/home/maneesha/Downloads/web2py/applications/cite_mf/controllers/default.py'
p5
sS'code'
p6
S'# -*- coding: utf-8 -*-\n### required - do no delete\ndef user(): return dict(form=auth())\n#def download(): return response.download(request,db)\n#def call(): return service()\n### end requires\n#def index():\n #   return dict()\n\n#def error():\n #   return dict()\nfrom gluon.tools import fetch  \nfrom time import sleep\nfrom random import randrange\nimport re\nlistf=[]\ncount=0\nbigans=[]# store the final ouput to be passed into the view\n@auth.requires_login()    #login reqired to access index page\ndef index():\n    form=SQLFORM(db.input) #displays the form to user for taking the input from the user\n    if form.process().accepted:\n        response.flash = \'Login successful\'\n        redirect(URL(\'final_ans\'))\n    return dict(form=form)\ndef extract1(url,l1): #extracts the top_result urls from the first page\n    ret=[]\n    html=fetch(url) #fetches the html page of the given url ans stores it in a string html\n    html_splitted=html.split("<A HREF=\\"citation.cfm") #splitting the fetched string\n    ht=html_splitted[0]\n    del html_splitted[0]\n    k=html_splitted[0].split(\'>\')\n    if k[1][:-3]==l1[0]:#if the user inputs title of a paper\n        k=html_splitted[0].find(\'\\"\')\n        s="http://dl.acm.org/citation.cfm"+html_splitted[0][:k]\n        ret.append(s.split(\'&preflayout\')[0]+\'&preflayout=flat\')\n    else: #if user inputs some keywords\n        for i in range(0,l1[2]):\n            k=html_splitted[i].find(\'\\"\')\n            s="http://dl.acm.org/citation.cfm"+html_splitted[i][:k]\n            ret.append(s.split(\'&preflayout\')[0]+\'&preflayout=flat\')\n    return ret\ndef sorting():\n    bigans=[]   #stores final output in a list\n    l1=u_filter() #stores the user input in list l1\n    url="http://dl.acm.org/results.cfm?h=1&query="+\'+\'.join(l1[0].split()) #construct corresponding url\n    fst_l=[]\n    ret1=[]\n    fst_l=extract1(url,l1) #extracts the urls of query results and stores it in a list fst_l\n    rec(fst_l,l1,bigans)  #this function recursively fetches the required information and stores every result in list bigans.\n    if request.args(0)==\'0\':  #if the list needs to be sorted by relevence,the bigans doesnt change.\n        pass\n    else:\n        bigans=sorted(bigans,key=lambda x:(x[4][6:]*360+x[4][:2]*30+x[4][3:5]),reverse=True)    #if the list needs to be sorted according to release date,it is sorted by sorted() python inbuilt function.\n    au=db(auth.user.username==db.auth_user.username).select().first()   \n    email=au.email        #email of user who is logged in is extracted.\n    return dict(bigans=bigans,level=l1[1],top=l1[2],ret1=ret1,email=email)   \ndef final_ans():\n    bigans=[] #stores the final output in a list\n    l1=u_filter() #extracting the user input in a list\n    url="http://dl.acm.org/results.cfm?h=1&query="+\'+\'.join(l1[0].split()) #forming the url\n    fst_l=[]\n    ret1=[]\n    fst_l=extract1(url,l1)     #extracts the urls of query results and stores it in a list fst_l\n    rec(fst_l,l1,bigans)  #this function recursively fetches the required information and stores every result in list bigans.\n    au=db(auth.user.username==db.auth_user.username).select().first()\n    email=au.email       #email of user who is logged in is extracted.\n    return dict(bigans=bigans,level=l1[1],top=l1[2],ret1=ret1,email=email)\ndef rec(list1,l1,bigans):     #recursion that results the tree of citations.\n    global count #variable for level of recursion.\n    count=count+1\n    global listf\n    listf.append([])\n    for x in list1:\n        if x!=\'\':\n            sleep(randrange(1,5))      #this is to avoid flooding the target url by multiple requests with less time gap.\n            z=cite(x)               #parsing the url x and storing it in a list z\n            bigans.append(z)        #stores that information in bigans\n            if count < l1[1]:            #if level of recursion is less than user input only then continue recursion else return\n                rec(z[7],l1,bigans[-1])     #recursive calls\n    count=count-1\n    return\ndef cite(url):\n    if url==\'\':\n        return []\n    l1=u_filter()\n    html=fetch(url)\n    temp=[]\n    d=re.search(\'<meta name="citation_title"[\\w\\W]*?>\',html).group()\n    d=bold(d)\n    temp.append(d.split(\'=\')[2][1:-2])\n    temp.append(url)\n    f=re.search(\'\\"ft_gateway.cfm[\\w\\W]*?\\"\',html)\n    if f!=None:\n        f=f.group()\n        f=bold(f)\n        temp.append(\'http://dl.acm.org/\'+f[1:-1])\n    else:\n        temp.append(url)\n    c=re.search(\'<meta name="citation_authors"[\\w\\W]*?>\',html).group()\n    c=bold(c)\n    if l1[3]==1:\n        temp.append(c.split(\'=\')[2][1:-2])\n    else:\n        temp.append(-1)\n    b=re.search(\'<meta name="citation_date"[\\w\\W]*?>\',html).group()\n    b=bold(b)\n    if l1[5]==1:\n        temp.append(b.split(\'=\')[2][1:-2])\n    else:\n        temp.append(-1)\n    h=re.search(\'<A NAME="abstract" class="small-text">ABSTRACT[\\w\\W]*?</div>\',html)\n    if h!=None:\n        h=h.group()\n        h=bold(h)\n        if \'An abstract is not available.\' in h:\n            h1="An abstract is not available."\n        elif \'<div style=\\"display:inline\\">\' in h:\n\n            h1=h.split(\'<div style=\\"display:inline\\">\')[1]\n            h1=remove(h1)\n        else:\n            h=h.replace(\'</A></h1>\',\'\')\n            h=remove(h)\n            h1=h.split(\'>\')[1]\n    else:\n        h1=-1\n    temp.append(h1)\n    s=re.search(\'CITED BY[\\w\\W]*?INDEX TERMS\',html).group()\n    if \'Citings are not available\' not in s:\n        e=re.search(\'\\d* Citations\',s)\n        if l1[4]!=1:\n            temp.append(-1)\n        elif e!=None:\n            temp.append(e.group().split()[0])\n        else:                                                                            \n            temp.append(1)\n        i=0\n        cit=[]\n        while i < l1[2]:\n            i+=1\n            s1=re.search(\'<a href[\\w\\W]*?</a>\',s)\n            if s1==None:\n                cit.append(\'\')\n            elif s1!=None:\n                k=s.find(s1.group())\n                cit.append(("http://dl.acm.org/"+s1.group().split(\'\\"\')[1]).split(\'&preflayout\')[0]+\'&preflayout=flat\')\n                s=s[k+2:]\n           \n        temp.append(cit)\n    else:\n        if l1[4]==1:\n            temp.append(0)\n        else:\n            temp.append(-1)\n        temp.append([])\n    return temp\ndef u_filter():\n    inpu=db().select(db.input.ALL)  #selects the last entry in the database table\n    for inp in inpu:\n        key=inp.keywords                    #stores each entry of database into a variable\n        level=inp.Recursion_levels\n        top=inp.Top_results\n        auth=inp.Show_author\n        cited_by=inp.Show_no_of_citations\n        year=inp.Show_release_date\n    return [key,level,top,auth,cited_by,year]      #returns a list\ndef bold(d):              #this function removes the unwanted bold tags from the html page extracted\n    pre=""\n    while pre!=d:\n        pre=d\n        d=d.replace("<b>","")\n        d=d.replace("</b>","")\n    return d\ndef remove(d):          #this function removes unwanted html tags from text.\n    pre=""\n    while pre!=d:                     #removes paragraph tags\n        pre=d\n        d=d.replace("<p>","")\n        d=d.replace("</p>","")\n    pre=""\n    while pre!=d:                     #removes div tags\n        pre=d\n        d=d.replace("<div style=\\"display:inline\\">","") \n        d=d.replace("</div>","")\n    pre=""\n    while pre!=d:                     #removes br tags\n        pre=d\n        d=d.replace("<br>","")\n    pre=""\n    while pre!=d:                     #removes par tags\n        pre=d\n        d=d.replace("<par>","")\n        d=d.replace("</par>","")\n    return d            #returns the filtered text\ndef abstract1():\n    abss=request.args[0]\n    pre=""\n    while pre!=abss:\n        pre=abss\n        abss=abss.replace("_"," ")\n    abss1=abss.split(".")       \n    return dict(abss1=abss1)\n\nresponse._vars=response._caller(final_ans)\n'
p7
sS'snapshot'
p8
(dp9
S'exception'
p10
(dp11
S'__module__'
p12
S"'urllib2'"
p13
sg6
S'504'
p14
sS'__getslice__'
p15
S"<method-wrapper '__getslice__' of HTTPError object>"
p16
sS'__str__'
p17
S'<bound method HTTPError.__str__ of HTTPError()>'
p18
sS'__reduce__'
p19
S'<built-in method __reduce__ of HTTPError object>'
p20
sS'strerror'
p21
S'None'
p22
sS'__dict__'
p23
S"{'__iter__': <bound method _fileobject.__iter__ of <socket._fileobject object>>, 'code': 504, 'fileno': <bound method _fileobject.fileno of <socket._fileobject object>>, 'fp': <addinfourl at 139642004726776 whose fp = <socket._fileobject object>>, 'hdrs': <httplib.HTTPMessage instance>, 'headers': <httplib.HTTPMessage instance>, 'msg': 'Gateway Time-out', 'next': <bound method _fileobject.next of <socket._fileobject object>>, 'read': <bound method _fileobject.read of <socket._fileobject object>>, 'readline': <bound method _fileobject.readline of <socket._fileobject object>>, ...}"
p24
sS'close'
p25
S'<bound method HTTPError.close of HTTPError()>'
p26
sS'__sizeof__'
p27
S'<built-in method __sizeof__ of HTTPError object>'
p28
sS'next'
p29
S'<bound method _fileobject.next of <socket._fileobject object>>'
p30
sS'__weakref__'
p31
S'None'
p32
sS'__init__'
p33
S'<bound method HTTPError.__init__ of HTTPError()>'
p34
sS'__setattr__'
p35
S"<method-wrapper '__setattr__' of HTTPError object>"
p36
sS'__reduce_ex__'
p37
S'<built-in method __reduce_ex__ of HTTPError object>'
p38
sS'__new__'
p39
S'<built-in method __new__ of type object>'
p40
sS'headers'
p41
S'<httplib.HTTPMessage instance>'
p42
sS'errno'
p43
S'None'
p44
sS'readlines'
p45
S'<bound method _fileobject.readlines of <socket._fileobject object>>'
p46
sS'__format__'
p47
S'<built-in method __format__ of HTTPError object>'
p48
sS'__class__'
p49
S"<class 'urllib2.HTTPError'>"
p50
sS'filename'
p51
S"'http://dl.acm.org/results.cfm?h=1&query=database+design'"
p52
sS'_HTTPError__super_init'
p53
S'<bound method HTTPError.__init__ of HTTPError()>'
p54
sS'msg'
p55
S"'Gateway Time-out'"
p56
sS'__doc__'
p57
S"'Raised when HTTP error occurs, but also acts like non-error return'"
p58
sS'fp'
p59
S'<addinfourl at 139642004726776 whose fp = <socket._fileobject object>>'
p60
sS'hdrs'
p61
S'<httplib.HTTPMessage instance>'
p62
sS'__getitem__'
p63
S"<method-wrapper '__getitem__' of HTTPError object>"
p64
sS'__setstate__'
p65
S'<built-in method __setstate__ of HTTPError object>'
p66
sS'read'
p67
S'<bound method _fileobject.read of <socket._fileobject object>>'
p68
sS'__getattribute__'
p69
S"<method-wrapper '__getattribute__' of HTTPError object>"
p70
sS'args'
p71
S'()'
p72
sS'__iter__'
p73
S'<bound method _fileobject.__iter__ of <socket._fileobject object>>'
p74
sS'__subclasshook__'
p75
S'<built-in method __subclasshook__ of type object>'
p76
sS'readline'
p77
S'<bound method _fileobject.readline of <socket._fileobject object>>'
p78
sS'__unicode__'
p79
S'<built-in method __unicode__ of HTTPError object>'
p80
sS'info'
p81
S'<bound method HTTPError.info of HTTPError()>'
p82
sS'fileno'
p83
S'<bound method _fileobject.fileno of <socket._fileobject object>>'
p84
sS'getcode'
p85
S'<bound method HTTPError.getcode of HTTPError()>'
p86
sS'url'
p87
S"'http://dl.acm.org/results.cfm?h=1&query=database+design'"
p88
sS'reason'
p89
S"'Gateway Time-out'"
p90
sS'geturl'
p91
S'<bound method HTTPError.geturl of HTTPError()>'
p92
sS'__delattr__'
p93
S"<method-wrapper '__delattr__' of HTTPError object>"
p94
sS'__repr__'
p95
S"<method-wrapper '__repr__' of HTTPError object>"
p96
sS'__hash__'
p97
S"<method-wrapper '__hash__' of HTTPError object>"
p98
ssS'evalue'
p99
S'HTTP Error 504: Gateway Time-out'
p100
sS'request'
p101
ccopy_reg
_reconstructor
p102
(cgluon.html
BEAUTIFY
p103
c__builtin__
object
p104
NtRp105
(dp106
S'attributes'
p107
(dp108
sS'components'
p109
(lp110
g102
(cgluon.html
TABLE
p111
g104
NtRp112
(dp113
g107
(dp114
S'level'
p115
I5
ssS'parent'
p116
Nsg109
(lp117
g102
(cgluon.html
TR
p118
g104
NtRp119
(dp120
g107
(dp121
sg116
g112
sg109
(lp122
g102
(cgluon.html
TD
p123
g104
NtRp124
(dp125
g107
(dp126
S'_style'
p127
S'font-weight:bold;vertical-align:top'
p128
ssg116
g119
sg109
(lp129
S'ajax'
p130
asbag102
(g123
g104
NtRp131
(dp132
g107
(dp133
S'_valign'
p134
S'top'
p135
ssg116
g119
sg109
(lp136
S':'
asbag102
(g123
g104
NtRp137
(dp138
g107
(dp139
sg116
g119
sg109
(lp140
g102
(g103
g104
NtRp141
(dp142
g107
(dp143
g115
I5
ssg116
g137
sg109
(lp144
S'False'
p145
asbasbasbag102
(g118
g104
NtRp146
(dp147
g107
(dp148
sg116
g112
sg109
(lp149
g102
(g123
g104
NtRp150
(dp151
g107
(dp152
g127
g128
ssg116
g146
sg109
(lp153
S'application'
p154
asbag102
(g123
g104
NtRp155
(dp156
g107
(dp157
g134
g135
ssg116
g146
sg109
(lp158
S':'
asbag102
(g123
g104
NtRp159
(dp160
g107
(dp161
sg116
g146
sg109
(lp162
g102
(g103
g104
NtRp163
(dp164
g107
(dp165
g115
I5
ssg116
g159
sg109
(lp166
S'cite_mf'
p167
asbasbasbag102
(g118
g104
NtRp168
(dp169
g107
(dp170
sg116
g112
sg109
(lp171
g102
(g123
g104
NtRp172
(dp173
g107
(dp174
g127
g128
ssg116
g168
sg109
(lp175
g71
asbag102
(g123
g104
NtRp176
(dp177
g107
(dp178
g134
g135
ssg116
g168
sg109
(lp179
S':'
asbag102
(g123
g104
NtRp180
(dp181
g107
(dp182
sg116
g168
sg109
(lp183
g102
(g103
g104
NtRp184
(dp185
g107
(dp186
g115
I5
ssg116
g180
sg109
(lp187
g102
(g111
g104
NtRp188
(dp189
g107
(dp190
g115
I4
ssg116
Nsg109
(lp191
sbasbasbasbag102
(g118
g104
NtRp192
(dp193
g107
(dp194
sg116
g112
sg109
(lp195
g102
(g123
g104
NtRp196
(dp197
g107
(dp198
g127
g128
ssg116
g192
sg109
(lp199
S'body'
p200
asbag102
(g123
g104
NtRp201
(dp202
g107
(dp203
g134
g135
ssg116
g192
sg109
(lp204
S':'
asbag102
(g123
g104
NtRp205
(dp206
g107
(dp207
sg116
g192
sg109
(lp208
g102
(g103
g104
NtRp209
(dp210
g107
(dp211
g115
I5
ssg116
g205
sg109
(lp212
S'<cStringIO.StringO object at 0x7f00e42197a0>'
p213
asbasbasbag102
(g118
g104
NtRp214
(dp215
g107
(dp216
sg116
g112
sg109
(lp217
g102
(g123
g104
NtRp218
(dp219
g107
(dp220
g127
g128
ssg116
g214
sg109
(lp221
S'client'
p222
asbag102
(g123
g104
NtRp223
(dp224
g107
(dp225
g134
g135
ssg116
g214
sg109
(lp226
S':'
asbag102
(g123
g104
NtRp227
(dp228
g107
(dp229
sg116
g214
sg109
(lp230
g102
(g103
g104
NtRp231
(dp232
g107
(dp233
g115
I5
ssg116
g227
sg109
(lp234
S'127.0.0.1'
p235
asbasbasbag102
(g118
g104
NtRp236
(dp237
g107
(dp238
sg116
g112
sg109
(lp239
g102
(g123
g104
NtRp240
(dp241
g107
(dp242
g127
g128
ssg116
g236
sg109
(lp243
S'controller'
p244
asbag102
(g123
g104
NtRp245
(dp246
g107
(dp247
g134
g135
ssg116
g236
sg109
(lp248
S':'
asbag102
(g123
g104
NtRp249
(dp250
g107
(dp251
sg116
g236
sg109
(lp252
g102
(g103
g104
NtRp253
(dp254
g107
(dp255
g115
I5
ssg116
g249
sg109
(lp256
S'default'
p257
asbasbasbag102
(g118
g104
NtRp258
(dp259
g107
(dp260
sg116
g112
sg109
(lp261
g102
(g123
g104
NtRp262
(dp263
g107
(dp264
g127
g128
ssg116
g258
sg109
(lp265
S'cookies'
p266
asbag102
(g123
g104
NtRp267
(dp268
g107
(dp269
g134
g135
ssg116
g258
sg109
(lp270
S':'
asbag102
(g123
g104
NtRp271
(dp272
g107
(dp273
sg116
g258
sg109
(lp274
g102
(g103
g104
NtRp275
(dp276
g107
(dp277
g115
I5
ssg116
g271
sg109
(lp278
g102
(g111
g104
NtRp279
(dp280
g107
(dp281
g115
I4
ssg116
Nsg109
(lp282
g102
(g118
g104
NtRp283
(dp284
g107
(dp285
sg116
g279
sg109
(lp286
g102
(g123
g104
NtRp287
(dp288
g107
(dp289
g127
g128
ssg116
g283
sg109
(lp290
S'session_id_admin'
p291
asbag102
(g123
g104
NtRp292
(dp293
g107
(dp294
g134
g135
ssg116
g283
sg109
(lp295
S':'
asbag102
(g123
g104
NtRp296
(dp297
g107
(dp298
sg116
g283
sg109
(lp299
g102
(g103
g104
NtRp300
(dp301
g107
(dp302
g115
I4
ssg116
g296
sg109
(lp303
g102
(g111
g104
NtRp304
(dp305
g107
(dp306
g115
I3
ssg116
Nsg109
(lp307
g102
(g118
g104
NtRp308
(dp309
g107
(dp310
sg116
g304
sg109
(lp311
g102
(g123
g104
NtRp312
(dp313
g107
(dp314
g127
g128
ssg116
g308
sg109
(lp315
S'comment'
p316
asbag102
(g123
g104
NtRp317
(dp318
g107
(dp319
g134
g135
ssg116
g308
sg109
(lp320
S':'
asbag102
(g123
g104
NtRp321
(dp322
g107
(dp323
sg116
g308
sg109
(lp324
g102
(g103
g104
NtRp325
(dp326
g107
(dp327
g115
I3
ssg116
g321
sg109
(lp328
S''
asbasbasbag102
(g118
g104
NtRp329
(dp330
g107
(dp331
sg116
g304
sg109
(lp332
g102
(g123
g104
NtRp333
(dp334
g107
(dp335
g127
g128
ssg116
g329
sg109
(lp336
S'domain'
p337
asbag102
(g123
g104
NtRp338
(dp339
g107
(dp340
g134
g135
ssg116
g329
sg109
(lp341
S':'
asbag102
(g123
g104
NtRp342
(dp343
g107
(dp344
sg116
g329
sg109
(lp345
g102
(g103
g104
NtRp346
(dp347
g107
(dp348
g115
I3
ssg116
g342
sg109
(lp349
S''
asbasbasbag102
(g118
g104
NtRp350
(dp351
g107
(dp352
sg116
g304
sg109
(lp353
g102
(g123
g104
NtRp354
(dp355
g107
(dp356
g127
g128
ssg116
g350
sg109
(lp357
S'expires'
p358
asbag102
(g123
g104
NtRp359
(dp360
g107
(dp361
g134
g135
ssg116
g350
sg109
(lp362
S':'
asbag102
(g123
g104
NtRp363
(dp364
g107
(dp365
sg116
g350
sg109
(lp366
g102
(g103
g104
NtRp367
(dp368
g107
(dp369
g115
I3
ssg116
g363
sg109
(lp370
S''
asbasbasbag102
(g118
g104
NtRp371
(dp372
g107
(dp373
sg116
g304
sg109
(lp374
g102
(g123
g104
NtRp375
(dp376
g107
(dp377
g127
g128
ssg116
g371
sg109
(lp378
S'httponly'
p379
asbag102
(g123
g104
NtRp380
(dp381
g107
(dp382
g134
g135
ssg116
g371
sg109
(lp383
S':'
asbag102
(g123
g104
NtRp384
(dp385
g107
(dp386
sg116
g371
sg109
(lp387
g102
(g103
g104
NtRp388
(dp389
g107
(dp390
g115
I3
ssg116
g384
sg109
(lp391
S''
asbasbasbag102
(g118
g104
NtRp392
(dp393
g107
(dp394
sg116
g304
sg109
(lp395
g102
(g123
g104
NtRp396
(dp397
g107
(dp398
g127
g128
ssg116
g392
sg109
(lp399
S'max-age'
p400
asbag102
(g123
g104
NtRp401
(dp402
g107
(dp403
g134
g135
ssg116
g392
sg109
(lp404
S':'
asbag102
(g123
g104
NtRp405
(dp406
g107
(dp407
sg116
g392
sg109
(lp408
g102
(g103
g104
NtRp409
(dp410
g107
(dp411
g115
I3
ssg116
g405
sg109
(lp412
S''
asbasbasbag102
(g118
g104
NtRp413
(dp414
g107
(dp415
sg116
g304
sg109
(lp416
g102
(g123
g104
NtRp417
(dp418
g107
(dp419
g127
g128
ssg116
g413
sg109
(lp420
S'path'
p421
asbag102
(g123
g104
NtRp422
(dp423
g107
(dp424
g134
g135
ssg116
g413
sg109
(lp425
S':'
asbag102
(g123
g104
NtRp426
(dp427
g107
(dp428
sg116
g413
sg109
(lp429
g102
(g103
g104
NtRp430
(dp431
g107
(dp432
g115
I3
ssg116
g426
sg109
(lp433
S''
asbasbasbag102
(g118
g104
NtRp434
(dp435
g107
(dp436
sg116
g304
sg109
(lp437
g102
(g123
g104
NtRp438
(dp439
g107
(dp440
g127
g128
ssg116
g434
sg109
(lp441
S'secure'
p442
asbag102
(g123
g104
NtRp443
(dp444
g107
(dp445
g134
g135
ssg116
g434
sg109
(lp446
S':'
asbag102
(g123
g104
NtRp447
(dp448
g107
(dp449
sg116
g434
sg109
(lp450
g102
(g103
g104
NtRp451
(dp452
g107
(dp453
g115
I3
ssg116
g447
sg109
(lp454
S''
asbasbasbag102
(g118
g104
NtRp455
(dp456
g107
(dp457
sg116
g304
sg109
(lp458
g102
(g123
g104
NtRp459
(dp460
g107
(dp461
g127
g128
ssg116
g455
sg109
(lp462
S'version'
p463
asbag102
(g123
g104
NtRp464
(dp465
g107
(dp466
g134
g135
ssg116
g455
sg109
(lp467
S':'
asbag102
(g123
g104
NtRp468
(dp469
g107
(dp470
sg116
g455
sg109
(lp471
g102
(g103
g104
NtRp472
(dp473
g107
(dp474
g115
I3
ssg116
g468
sg109
(lp475
S''
asbasbasbasbasbasbasbag102
(g118
g104
NtRp476
(dp477
g107
(dp478
sg116
g279
sg109
(lp479
g102
(g123
g104
NtRp480
(dp481
g107
(dp482
g127
g128
ssg116
g476
sg109
(lp483
S'session_id_cite_mf'
p484
asbag102
(g123
g104
NtRp485
(dp486
g107
(dp487
g134
g135
ssg116
g476
sg109
(lp488
S':'
asbag102
(g123
g104
NtRp489
(dp490
g107
(dp491
sg116
g476
sg109
(lp492
g102
(g103
g104
NtRp493
(dp494
g107
(dp495
g115
I4
ssg116
g489
sg109
(lp496
g102
(g111
g104
NtRp497
(dp498
g107
(dp499
g115
I3
ssg116
Nsg109
(lp500
g102
(g118
g104
NtRp501
(dp502
g107
(dp503
sg116
g497
sg109
(lp504
g102
(g123
g104
NtRp505
(dp506
g107
(dp507
g127
g128
ssg116
g501
sg109
(lp508
g316
asbag102
(g123
g104
NtRp509
(dp510
g107
(dp511
g134
g135
ssg116
g501
sg109
(lp512
S':'
asbag102
(g123
g104
NtRp513
(dp514
g107
(dp515
sg116
g501
sg109
(lp516
g102
(g103
g104
NtRp517
(dp518
g107
(dp519
g115
I3
ssg116
g513
sg109
(lp520
S''
asbasbasbag102
(g118
g104
NtRp521
(dp522
g107
(dp523
sg116
g497
sg109
(lp524
g102
(g123
g104
NtRp525
(dp526
g107
(dp527
g127
g128
ssg116
g521
sg109
(lp528
g337
asbag102
(g123
g104
NtRp529
(dp530
g107
(dp531
g134
g135
ssg116
g521
sg109
(lp532
S':'
asbag102
(g123
g104
NtRp533
(dp534
g107
(dp535
sg116
g521
sg109
(lp536
g102
(g103
g104
NtRp537
(dp538
g107
(dp539
g115
I3
ssg116
g533
sg109
(lp540
S''
asbasbasbag102
(g118
g104
NtRp541
(dp542
g107
(dp543
sg116
g497
sg109
(lp544
g102
(g123
g104
NtRp545
(dp546
g107
(dp547
g127
g128
ssg116
g541
sg109
(lp548
g358
asbag102
(g123
g104
NtRp549
(dp550
g107
(dp551
g134
g135
ssg116
g541
sg109
(lp552
S':'
asbag102
(g123
g104
NtRp553
(dp554
g107
(dp555
sg116
g541
sg109
(lp556
g102
(g103
g104
NtRp557
(dp558
g107
(dp559
g115
I3
ssg116
g553
sg109
(lp560
S''
asbasbasbag102
(g118
g104
NtRp561
(dp562
g107
(dp563
sg116
g497
sg109
(lp564
g102
(g123
g104
NtRp565
(dp566
g107
(dp567
g127
g128
ssg116
g561
sg109
(lp568
g379
asbag102
(g123
g104
NtRp569
(dp570
g107
(dp571
g134
g135
ssg116
g561
sg109
(lp572
S':'
asbag102
(g123
g104
NtRp573
(dp574
g107
(dp575
sg116
g561
sg109
(lp576
g102
(g103
g104
NtRp577
(dp578
g107
(dp579
g115
I3
ssg116
g573
sg109
(lp580
S''
asbasbasbag102
(g118
g104
NtRp581
(dp582
g107
(dp583
sg116
g497
sg109
(lp584
g102
(g123
g104
NtRp585
(dp586
g107
(dp587
g127
g128
ssg116
g581
sg109
(lp588
g400
asbag102
(g123
g104
NtRp589
(dp590
g107
(dp591
g134
g135
ssg116
g581
sg109
(lp592
S':'
asbag102
(g123
g104
NtRp593
(dp594
g107
(dp595
sg116
g581
sg109
(lp596
g102
(g103
g104
NtRp597
(dp598
g107
(dp599
g115
I3
ssg116
g593
sg109
(lp600
S''
asbasbasbag102
(g118
g104
NtRp601
(dp602
g107
(dp603
sg116
g497
sg109
(lp604
g102
(g123
g104
NtRp605
(dp606
g107
(dp607
g127
g128
ssg116
g601
sg109
(lp608
g421
asbag102
(g123
g104
NtRp609
(dp610
g107
(dp611
g134
g135
ssg116
g601
sg109
(lp612
S':'
asbag102
(g123
g104
NtRp613
(dp614
g107
(dp615
sg116
g601
sg109
(lp616
g102
(g103
g104
NtRp617
(dp618
g107
(dp619
g115
I3
ssg116
g613
sg109
(lp620
S''
asbasbasbag102
(g118
g104
NtRp621
(dp622
g107
(dp623
sg116
g497
sg109
(lp624
g102
(g123
g104
NtRp625
(dp626
g107
(dp627
g127
g128
ssg116
g621
sg109
(lp628
g442
asbag102
(g123
g104
NtRp629
(dp630
g107
(dp631
g134
g135
ssg116
g621
sg109
(lp632
S':'
asbag102
(g123
g104
NtRp633
(dp634
g107
(dp635
sg116
g621
sg109
(lp636
g102
(g103
g104
NtRp637
(dp638
g107
(dp639
g115
I3
ssg116
g633
sg109
(lp640
S''
asbasbasbag102
(g118
g104
NtRp641
(dp642
g107
(dp643
sg116
g497
sg109
(lp644
g102
(g123
g104
NtRp645
(dp646
g107
(dp647
g127
g128
ssg116
g641
sg109
(lp648
g463
asbag102
(g123
g104
NtRp649
(dp650
g107
(dp651
g134
g135
ssg116
g641
sg109
(lp652
S':'
asbag102
(g123
g104
NtRp653
(dp654
g107
(dp655
sg116
g641
sg109
(lp656
g102
(g103
g104
NtRp657
(dp658
g107
(dp659
g115
I3
ssg116
g653
sg109
(lp660
S''
asbasbasbasbasbasbasbasbasbasbasbag102
(g118
g104
NtRp661
(dp662
g107
(dp663
sg116
g112
sg109
(lp664
g102
(g123
g104
NtRp665
(dp666
g107
(dp667
g127
g128
ssg116
g661
sg109
(lp668
S'env'
p669
asbag102
(g123
g104
NtRp670
(dp671
g107
(dp672
g134
g135
ssg116
g661
sg109
(lp673
S':'
asbag102
(g123
g104
NtRp674
(dp675
g107
(dp676
sg116
g661
sg109
(lp677
g102
(g103
g104
NtRp678
(dp679
g107
(dp680
g115
I5
ssg116
g674
sg109
(lp681
g102
(g111
g104
NtRp682
(dp683
g107
(dp684
g115
I4
ssg116
Nsg109
(lp685
g102
(g118
g104
NtRp686
(dp687
g107
(dp688
sg116
g682
sg109
(lp689
g102
(g123
g104
NtRp690
(dp691
g107
(dp692
g127
g128
ssg116
g686
sg109
(lp693
S'app_folders'
p694
asbag102
(g123
g104
NtRp695
(dp696
g107
(dp697
g134
g135
ssg116
g686
sg109
(lp698
S':'
asbag102
(g123
g104
NtRp699
(dp700
g107
(dp701
sg116
g686
sg109
(lp702
g102
(g103
g104
NtRp703
(dp704
g107
(dp705
g115
I4
ssg116
g699
sg109
(lp706
S"set(['/home/maneesha/Downloads/web2py/applications/welcome/', '/home/maneesha/Downloads/web2py/applications/admin/', '/home/maneesha/Downloads/web2py/applications/cite_mf/'])"
p707
asbasbasbag102
(g118
g104
NtRp708
(dp709
g107
(dp710
sg116
g682
sg109
(lp711
g102
(g123
g104
NtRp712
(dp713
g107
(dp714
g127
g128
ssg116
g708
sg109
(lp715
S'applications_parent'
p716
asbag102
(g123
g104
NtRp717
(dp718
g107
(dp719
g134
g135
ssg116
g708
sg109
(lp720
S':'
asbag102
(g123
g104
NtRp721
(dp722
g107
(dp723
sg116
g708
sg109
(lp724
g102
(g103
g104
NtRp725
(dp726
g107
(dp727
g115
I4
ssg116
g721
sg109
(lp728
S'/home/maneesha/Downloads/web2py'
p729
asbasbasbag102
(g118
g104
NtRp730
(dp731
g107
(dp732
sg116
g682
sg109
(lp733
g102
(g123
g104
NtRp734
(dp735
g107
(dp736
g127
g128
ssg116
g730
sg109
(lp737
S'cmd_args'
p738
asbag102
(g123
g104
NtRp739
(dp740
g107
(dp741
g134
g135
ssg116
g730
sg109
(lp742
S':'
asbag102
(g123
g104
NtRp743
(dp744
g107
(dp745
sg116
g730
sg109
(lp746
g102
(g103
g104
NtRp747
(dp748
g107
(dp749
g115
I4
ssg116
g743
sg109
(lp750
g102
(g111
g104
NtRp751
(dp752
g107
(dp753
g115
I3
ssg116
Nsg109
(lp754
sbasbasbasbag102
(g118
g104
NtRp755
(dp756
g107
(dp757
sg116
g682
sg109
(lp758
g102
(g123
g104
NtRp759
(dp760
g107
(dp761
g127
g128
ssg116
g755
sg109
(lp762
S'cmd_options'
p763
asbag102
(g123
g104
NtRp764
(dp765
g107
(dp766
g134
g135
ssg116
g755
sg109
(lp767
S':'
asbag102
(g123
g104
NtRp768
(dp769
g107
(dp770
sg116
g755
sg109
(lp771
g102
(g103
g104
NtRp772
(dp773
g107
(dp774
g115
I4
ssg116
g768
sg109
(lp775
S"<Values at 0x14beb00: {'verbose': False, 'ip': '127.0.0.1', 'shutdown_timeout': 5, 'taskbar': False, 'nocron': False, 'pid_filename': 'httpserver.pid', 'maxthreads': None, 'softcron': False, 'server_name': 'maneesha-Inspiron-N5050', 'bpython': False, 'nogui': False, 'port': 8000, 'extcron': False, 'debuglevel': 30, 'test': None, 'folder': '/home/maneesha/Downloads/web2py', 'config': '', 'import_models': False, 'winservice': '', 'shell': None, 'run': '', 'log_filename': 'httpserver.log', 'args': [''], 'socket_timeout': 5, 'ssl_ca_certificate': None, 'scheduler': None, 'profiler_filename': None, 'ssl_private_key': '', 'password': '<ask>', 'request_queue_size': 5, 'ssl_certificate': '', 'cronjob': False, 'numthreads': None, 'quiet': False, 'interfaces': None, 'minthreads': None, 'timeout': 10, 'plain': False, 'nobanner': False}>"
p776
asbasbasbag102
(g118
g104
NtRp777
(dp778
g107
(dp779
sg116
g682
sg109
(lp780
g102
(g123
g104
NtRp781
(dp782
g107
(dp783
g127
g128
ssg116
g777
sg109
(lp784
S'db_sessions'
p785
asbag102
(g123
g104
NtRp786
(dp787
g107
(dp788
g134
g135
ssg116
g777
sg109
(lp789
S':'
asbag102
(g123
g104
NtRp790
(dp791
g107
(dp792
sg116
g777
sg109
(lp793
g102
(g103
g104
NtRp794
(dp795
g107
(dp796
g115
I4
ssg116
g790
sg109
(lp797
S'set([])'
p798
asbasbasbag102
(g118
g104
NtRp799
(dp800
g107
(dp801
sg116
g682
sg109
(lp802
g102
(g123
g104
NtRp803
(dp804
g107
(dp805
g127
g128
ssg116
g799
sg109
(lp806
S'debugging'
p807
asbag102
(g123
g104
NtRp808
(dp809
g107
(dp810
g134
g135
ssg116
g799
sg109
(lp811
S':'
asbag102
(g123
g104
NtRp812
(dp813
g107
(dp814
sg116
g799
sg109
(lp815
g102
(g103
g104
NtRp816
(dp817
g107
(dp818
g115
I4
ssg116
g812
sg109
(lp819
g145
asbasbasbag102
(g118
g104
NtRp820
(dp821
g107
(dp822
sg116
g682
sg109
(lp823
g102
(g123
g104
NtRp824
(dp825
g107
(dp826
g127
g128
ssg116
g820
sg109
(lp827
S'gluon_parent'
p828
asbag102
(g123
g104
NtRp829
(dp830
g107
(dp831
g134
g135
ssg116
g820
sg109
(lp832
S':'
asbag102
(g123
g104
NtRp833
(dp834
g107
(dp835
sg116
g820
sg109
(lp836
g102
(g103
g104
NtRp837
(dp838
g107
(dp839
g115
I4
ssg116
g833
sg109
(lp840
S'/home/maneesha/Downloads/web2py'
p841
asbasbasbag102
(g118
g104
NtRp842
(dp843
g107
(dp844
sg116
g682
sg109
(lp845
g102
(g123
g104
NtRp846
(dp847
g107
(dp848
g127
g128
ssg116
g842
sg109
(lp849
S'http_accept'
p850
asbag102
(g123
g104
NtRp851
(dp852
g107
(dp853
g134
g135
ssg116
g842
sg109
(lp854
S':'
asbag102
(g123
g104
NtRp855
(dp856
g107
(dp857
sg116
g842
sg109
(lp858
g102
(g103
g104
NtRp859
(dp860
g107
(dp861
g115
I4
ssg116
g855
sg109
(lp862
S'text/html,application/xhtml+xml,application/xml;q=0.9,*/*;q=0.8'
p863
asbasbasbag102
(g118
g104
NtRp864
(dp865
g107
(dp866
sg116
g682
sg109
(lp867
g102
(g123
g104
NtRp868
(dp869
g107
(dp870
g127
g128
ssg116
g864
sg109
(lp871
S'http_accept_encoding'
p872
asbag102
(g123
g104
NtRp873
(dp874
g107
(dp875
g134
g135
ssg116
g864
sg109
(lp876
S':'
asbag102
(g123
g104
NtRp877
(dp878
g107
(dp879
sg116
g864
sg109
(lp880
g102
(g103
g104
NtRp881
(dp882
g107
(dp883
g115
I4
ssg116
g877
sg109
(lp884
S'gzip, deflate'
p885
asbasbasbag102
(g118
g104
NtRp886
(dp887
g107
(dp888
sg116
g682
sg109
(lp889
g102
(g123
g104
NtRp890
(dp891
g107
(dp892
g127
g128
ssg116
g886
sg109
(lp893
S'http_accept_language'
p894
asbag102
(g123
g104
NtRp895
(dp896
g107
(dp897
g134
g135
ssg116
g886
sg109
(lp898
S':'
asbag102
(g123
g104
NtRp899
(dp900
g107
(dp901
sg116
g886
sg109
(lp902
g102
(g103
g104
NtRp903
(dp904
g107
(dp905
g115
I4
ssg116
g899
sg109
(lp906
S'en-US,en;q=0.5'
p907
asbasbasbag102
(g118
g104
NtRp908
(dp909
g107
(dp910
sg116
g682
sg109
(lp911
g102
(g123
g104
NtRp912
(dp913
g107
(dp914
g127
g128
ssg116
g908
sg109
(lp915
S'http_cache_control'
p916
asbag102
(g123
g104
NtRp917
(dp918
g107
(dp919
g134
g135
ssg116
g908
sg109
(lp920
S':'
asbag102
(g123
g104
NtRp921
(dp922
g107
(dp923
sg116
g908
sg109
(lp924
g102
(g103
g104
NtRp925
(dp926
g107
(dp927
g115
I4
ssg116
g921
sg109
(lp928
S'max-age=0'
p929
asbasbasbag102
(g118
g104
NtRp930
(dp931
g107
(dp932
sg116
g682
sg109
(lp933
g102
(g123
g104
NtRp934
(dp935
g107
(dp936
g127
g128
ssg116
g930
sg109
(lp937
S'http_connection'
p938
asbag102
(g123
g104
NtRp939
(dp940
g107
(dp941
g134
g135
ssg116
g930
sg109
(lp942
S':'
asbag102
(g123
g104
NtRp943
(dp944
g107
(dp945
sg116
g930
sg109
(lp946
g102
(g103
g104
NtRp947
(dp948
g107
(dp949
g115
I4
ssg116
g943
sg109
(lp950
S'keep-alive'
p951
asbasbasbag102
(g118
g104
NtRp952
(dp953
g107
(dp954
sg116
g682
sg109
(lp955
g102
(g123
g104
NtRp956
(dp957
g107
(dp958
g127
g128
ssg116
g952
sg109
(lp959
S'http_cookie'
p960
asbag102
(g123
g104
NtRp961
(dp962
g107
(dp963
g134
g135
ssg116
g952
sg109
(lp964
S':'
asbag102
(g123
g104
NtRp965
(dp966
g107
(dp967
sg116
g952
sg109
(lp968
g102
(g103
g104
NtRp969
(dp970
g107
(dp971
g115
I4
ssg116
g965
sg109
(lp972
S'session_id_cite_mf=127.0.0.1-c428480d-4e16-4535-aab3-fa9a791ba35c; session_id_admin=127.0.0.1-18185c76-eec6-4aec-b9a4-f2e5145edbd5'
p973
asbasbasbag102
(g118
g104
NtRp974
(dp975
g107
(dp976
sg116
g682
sg109
(lp977
g102
(g123
g104
NtRp978
(dp979
g107
(dp980
g127
g128
ssg116
g974
sg109
(lp981
S'http_host'
p982
asbag102
(g123
g104
NtRp983
(dp984
g107
(dp985
g134
g135
ssg116
g974
sg109
(lp986
S':'
asbag102
(g123
g104
NtRp987
(dp988
g107
(dp989
sg116
g974
sg109
(lp990
g102
(g103
g104
NtRp991
(dp992
g107
(dp993
g115
I4
ssg116
g987
sg109
(lp994
S'127.0.0.1:8000'
p995
asbasbasbag102
(g118
g104
NtRp996
(dp997
g107
(dp998
sg116
g682
sg109
(lp999
g102
(g123
g104
NtRp1000
(dp1001
g107
(dp1002
g127
g128
ssg116
g996
sg109
(lp1003
S'http_referer'
p1004
asbag102
(g123
g104
NtRp1005
(dp1006
g107
(dp1007
g134
g135
ssg116
g996
sg109
(lp1008
S':'
asbag102
(g123
g104
NtRp1009
(dp1010
g107
(dp1011
sg116
g996
sg109
(lp1012
g102
(g103
g104
NtRp1013
(dp1014
g107
(dp1015
g115
I4
ssg116
g1009
sg109
(lp1016
S'http://127.0.0.1:8000/cite_mf/default/index'
p1017
asbasbasbag102
(g118
g104
NtRp1018
(dp1019
g107
(dp1020
sg116
g682
sg109
(lp1021
g102
(g123
g104
NtRp1022
(dp1023
g107
(dp1024
g127
g128
ssg116
g1018
sg109
(lp1025
S'http_user_agent'
p1026
asbag102
(g123
g104
NtRp1027
(dp1028
g107
(dp1029
g134
g135
ssg116
g1018
sg109
(lp1030
S':'
asbag102
(g123
g104
NtRp1031
(dp1032
g107
(dp1033
sg116
g1018
sg109
(lp1034
g102
(g103
g104
NtRp1035
(dp1036
g107
(dp1037
g115
I4
ssg116
g1031
sg109
(lp1038
S'Mozilla/5.0 (X11; Ubuntu; Linux x86_64; rv:16.0) Gecko/20100101 Firefox/16.0'
p1039
asbasbasbag102
(g118
g104
NtRp1040
(dp1041
g107
(dp1042
sg116
g682
sg109
(lp1043
g102
(g123
g104
NtRp1044
(dp1045
g107
(dp1046
g127
g128
ssg116
g1040
sg109
(lp1047
S'is_jython'
p1048
asbag102
(g123
g104
NtRp1049
(dp1050
g107
(dp1051
g134
g135
ssg116
g1040
sg109
(lp1052
S':'
asbag102
(g123
g104
NtRp1053
(dp1054
g107
(dp1055
sg116
g1040
sg109
(lp1056
g102
(g103
g104
NtRp1057
(dp1058
g107
(dp1059
g115
I4
ssg116
g1053
sg109
(lp1060
g145
asbasbasbag102
(g118
g104
NtRp1061
(dp1062
g107
(dp1063
sg116
g682
sg109
(lp1064
g102
(g123
g104
NtRp1065
(dp1066
g107
(dp1067
g127
g128
ssg116
g1061
sg109
(lp1068
S'is_pypy'
p1069
asbag102
(g123
g104
NtRp1070
(dp1071
g107
(dp1072
g134
g135
ssg116
g1061
sg109
(lp1073
S':'
asbag102
(g123
g104
NtRp1074
(dp1075
g107
(dp1076
sg116
g1061
sg109
(lp1077
g102
(g103
g104
NtRp1078
(dp1079
g107
(dp1080
g115
I4
ssg116
g1074
sg109
(lp1081
g145
asbasbasbag102
(g118
g104
NtRp1082
(dp1083
g107
(dp1084
sg116
g682
sg109
(lp1085
g102
(g123
g104
NtRp1086
(dp1087
g107
(dp1088
g127
g128
ssg116
g1082
sg109
(lp1089
S'path_info'
p1090
asbag102
(g123
g104
NtRp1091
(dp1092
g107
(dp1093
g134
g135
ssg116
g1082
sg109
(lp1094
S':'
asbag102
(g123
g104
NtRp1095
(dp1096
g107
(dp1097
sg116
g1082
sg109
(lp1098
g102
(g103
g104
NtRp1099
(dp1100
g107
(dp1101
g115
I4
ssg116
g1095
sg109
(lp1102
S'/cite_mf/default/final_ans'
p1103
asbasbasbag102
(g118
g104
NtRp1104
(dp1105
g107
(dp1106
sg116
g682
sg109
(lp1107
g102
(g123
g104
NtRp1108
(dp1109
g107
(dp1110
g127
g128
ssg116
g1104
sg109
(lp1111
S'query_string'
p1112
asbag102
(g123
g104
NtRp1113
(dp1114
g107
(dp1115
g134
g135
ssg116
g1104
sg109
(lp1116
S':'
asbag102
(g123
g104
NtRp1117
(dp1118
g107
(dp1119
sg116
g1104
sg109
(lp1120
g102
(g103
g104
NtRp1121
(dp1122
g107
(dp1123
g115
I4
ssg116
g1117
sg109
(lp1124
S''
asbasbasbag102
(g118
g104
NtRp1125
(dp1126
g107
(dp1127
sg116
g682
sg109
(lp1128
g102
(g123
g104
NtRp1129
(dp1130
g107
(dp1131
g127
g128
ssg116
g1125
sg109
(lp1132
S'remote_addr'
p1133
asbag102
(g123
g104
NtRp1134
(dp1135
g107
(dp1136
g134
g135
ssg116
g1125
sg109
(lp1137
S':'
asbag102
(g123
g104
NtRp1138
(dp1139
g107
(dp1140
sg116
g1125
sg109
(lp1141
g102
(g103
g104
NtRp1142
(dp1143
g107
(dp1144
g115
I4
ssg116
g1138
sg109
(lp1145
g235
asbasbasbag102
(g118
g104
NtRp1146
(dp1147
g107
(dp1148
sg116
g682
sg109
(lp1149
g102
(g123
g104
NtRp1150
(dp1151
g107
(dp1152
g127
g128
ssg116
g1146
sg109
(lp1153
S'remote_port'
p1154
asbag102
(g123
g104
NtRp1155
(dp1156
g107
(dp1157
g134
g135
ssg116
g1146
sg109
(lp1158
S':'
asbag102
(g123
g104
NtRp1159
(dp1160
g107
(dp1161
sg116
g1146
sg109
(lp1162
g102
(g103
g104
NtRp1163
(dp1164
g107
(dp1165
g115
I4
ssg116
g1159
sg109
(lp1166
S'43961'
p1167
asbasbasbag102
(g118
g104
NtRp1168
(dp1169
g107
(dp1170
sg116
g682
sg109
(lp1171
g102
(g123
g104
NtRp1172
(dp1173
g107
(dp1174
g127
g128
ssg116
g1168
sg109
(lp1175
S'request_method'
p1176
asbag102
(g123
g104
NtRp1177
(dp1178
g107
(dp1179
g134
g135
ssg116
g1168
sg109
(lp1180
S':'
asbag102
(g123
g104
NtRp1181
(dp1182
g107
(dp1183
sg116
g1168
sg109
(lp1184
g102
(g103
g104
NtRp1185
(dp1186
g107
(dp1187
g115
I4
ssg116
g1181
sg109
(lp1188
S'GET'
p1189
asbasbasbag102
(g118
g104
NtRp1190
(dp1191
g107
(dp1192
sg116
g682
sg109
(lp1193
g102
(g123
g104
NtRp1194
(dp1195
g107
(dp1196
g127
g128
ssg116
g1190
sg109
(lp1197
S'script_name'
p1198
asbag102
(g123
g104
NtRp1199
(dp1200
g107
(dp1201
g134
g135
ssg116
g1190
sg109
(lp1202
S':'
asbag102
(g123
g104
NtRp1203
(dp1204
g107
(dp1205
sg116
g1190
sg109
(lp1206
g102
(g103
g104
NtRp1207
(dp1208
g107
(dp1209
g115
I4
ssg116
g1203
sg109
(lp1210
S''
asbasbasbag102
(g118
g104
NtRp1211
(dp1212
g107
(dp1213
sg116
g682
sg109
(lp1214
g102
(g123
g104
NtRp1215
(dp1216
g107
(dp1217
g127
g128
ssg116
g1211
sg109
(lp1218
S'server_name'
p1219
asbag102
(g123
g104
NtRp1220
(dp1221
g107
(dp1222
g134
g135
ssg116
g1211
sg109
(lp1223
S':'
asbag102
(g123
g104
NtRp1224
(dp1225
g107
(dp1226
sg116
g1211
sg109
(lp1227
g102
(g103
g104
NtRp1228
(dp1229
g107
(dp1230
g115
I4
ssg116
g1224
sg109
(lp1231
S'maneesha-Inspiron-N5050'
p1232
asbasbasbag102
(g118
g104
NtRp1233
(dp1234
g107
(dp1235
sg116
g682
sg109
(lp1236
g102
(g123
g104
NtRp1237
(dp1238
g107
(dp1239
g127
g128
ssg116
g1233
sg109
(lp1240
S'server_port'
p1241
asbag102
(g123
g104
NtRp1242
(dp1243
g107
(dp1244
g134
g135
ssg116
g1233
sg109
(lp1245
S':'
asbag102
(g123
g104
NtRp1246
(dp1247
g107
(dp1248
sg116
g1233
sg109
(lp1249
g102
(g103
g104
NtRp1250
(dp1251
g107
(dp1252
g115
I4
ssg116
g1246
sg109
(lp1253
S'8000'
p1254
asbasbasbag102
(g118
g104
NtRp1255
(dp1256
g107
(dp1257
sg116
g682
sg109
(lp1258
g102
(g123
g104
NtRp1259
(dp1260
g107
(dp1261
g127
g128
ssg116
g1255
sg109
(lp1262
S'server_protocol'
p1263
asbag102
(g123
g104
NtRp1264
(dp1265
g107
(dp1266
g134
g135
ssg116
g1255
sg109
(lp1267
S':'
asbag102
(g123
g104
NtRp1268
(dp1269
g107
(dp1270
sg116
g1255
sg109
(lp1271
g102
(g103
g104
NtRp1272
(dp1273
g107
(dp1274
g115
I4
ssg116
g1268
sg109
(lp1275
S'HTTP/1.1'
p1276
asbasbasbag102
(g118
g104
NtRp1277
(dp1278
g107
(dp1279
sg116
g682
sg109
(lp1280
g102
(g123
g104
NtRp1281
(dp1282
g107
(dp1283
g127
g128
ssg116
g1277
sg109
(lp1284
S'server_software'
p1285
asbag102
(g123
g104
NtRp1286
(dp1287
g107
(dp1288
g134
g135
ssg116
g1277
sg109
(lp1289
S':'
asbag102
(g123
g104
NtRp1290
(dp1291
g107
(dp1292
sg116
g1277
sg109
(lp1293
g102
(g103
g104
NtRp1294
(dp1295
g107
(dp1296
g115
I4
ssg116
g1290
sg109
(lp1297
S'Rocket 1.2.4'
p1298
asbasbasbag102
(g118
g104
NtRp1299
(dp1300
g107
(dp1301
sg116
g682
sg109
(lp1302
g102
(g123
g104
NtRp1303
(dp1304
g107
(dp1305
g127
g128
ssg116
g1299
sg109
(lp1306
S'web2py_crontype'
p1307
asbag102
(g123
g104
NtRp1308
(dp1309
g107
(dp1310
g134
g135
ssg116
g1299
sg109
(lp1311
S':'
asbag102
(g123
g104
NtRp1312
(dp1313
g107
(dp1314
sg116
g1299
sg109
(lp1315
g102
(g103
g104
NtRp1316
(dp1317
g107
(dp1318
g115
I4
ssg116
g1312
sg109
(lp1319
S'hard'
p1320
asbasbasbag102
(g118
g104
NtRp1321
(dp1322
g107
(dp1323
sg116
g682
sg109
(lp1324
g102
(g123
g104
NtRp1325
(dp1326
g107
(dp1327
g127
g128
ssg116
g1321
sg109
(lp1328
S'web2py_path'
p1329
asbag102
(g123
g104
NtRp1330
(dp1331
g107
(dp1332
g134
g135
ssg116
g1321
sg109
(lp1333
S':'
asbag102
(g123
g104
NtRp1334
(dp1335
g107
(dp1336
sg116
g1321
sg109
(lp1337
g102
(g103
g104
NtRp1338
(dp1339
g107
(dp1340
g115
I4
ssg116
g1334
sg109
(lp1341
g729
asbasbasbag102
(g118
g104
NtRp1342
(dp1343
g107
(dp1344
sg116
g682
sg109
(lp1345
g102
(g123
g104
NtRp1346
(dp1347
g107
(dp1348
g127
g128
ssg116
g1342
sg109
(lp1349
S'web2py_version'
p1350
asbag102
(g123
g104
NtRp1351
(dp1352
g107
(dp1353
g134
g135
ssg116
g1342
sg109
(lp1354
S':'
asbag102
(g123
g104
NtRp1355
(dp1356
g107
(dp1357
sg116
g1342
sg109
(lp1358
g102
(g103
g104
NtRp1359
(dp1360
g107
(dp1361
g115
I4
ssg116
g1355
sg109
(lp1362
g102
(g111
g104
NtRp1363
(dp1364
g107
(dp1365
g115
I3
ssg116
Nsg109
(lp1366
g102
(g118
g104
NtRp1367
(dp1368
g107
(dp1369
sg116
g1363
sg109
(lp1370
g102
(g123
g104
NtRp1371
(dp1372
g107
(dp1373
sg116
g1367
sg109
(lp1374
g102
(g103
g104
NtRp1375
(dp1376
g107
(dp1377
g115
I3
ssg116
g1371
sg109
(lp1378
S'1'
asbasbasbag102
(g118
g104
NtRp1379
(dp1380
g107
(dp1381
sg116
g1363
sg109
(lp1382
g102
(g123
g104
NtRp1383
(dp1384
g107
(dp1385
sg116
g1379
sg109
(lp1386
g102
(g103
g104
NtRp1387
(dp1388
g107
(dp1389
g115
I3
ssg116
g1383
sg109
(lp1390
S'99'
p1391
asbasbasbag102
(g118
g104
NtRp1392
(dp1393
g107
(dp1394
sg116
g1363
sg109
(lp1395
g102
(g123
g104
NtRp1396
(dp1397
g107
(dp1398
sg116
g1392
sg109
(lp1399
g102
(g103
g104
NtRp1400
(dp1401
g107
(dp1402
g115
I3
ssg116
g1396
sg109
(lp1403
S'7'
asbasbasbag102
(g118
g104
NtRp1404
(dp1405
g107
(dp1406
sg116
g1363
sg109
(lp1407
g102
(g123
g104
NtRp1408
(dp1409
g107
(dp1410
sg116
g1404
sg109
(lp1411
g102
(g103
g104
NtRp1412
(dp1413
g107
(dp1414
g115
I3
ssg116
g1408
sg109
(lp1415
S'datetime.datetime(2012, 3, 4, 22, 12, 8)'
p1416
asbasbasbag102
(g118
g104
NtRp1417
(dp1418
g107
(dp1419
sg116
g1363
sg109
(lp1420
g102
(g123
g104
NtRp1421
(dp1422
g107
(dp1423
sg116
g1417
sg109
(lp1424
g102
(g103
g104
NtRp1425
(dp1426
g107
(dp1427
g115
I3
ssg116
g1421
sg109
(lp1428
S'stable'
p1429
asbasbasbasbasbasbasbag102
(g118
g104
NtRp1430
(dp1431
g107
(dp1432
sg116
g682
sg109
(lp1433
g102
(g123
g104
NtRp1434
(dp1435
g107
(dp1436
g127
g128
ssg116
g1430
sg109
(lp1437
S'wsgi_errors'
p1438
asbag102
(g123
g104
NtRp1439
(dp1440
g107
(dp1441
g134
g135
ssg116
g1430
sg109
(lp1442
S':'
asbag102
(g123
g104
NtRp1443
(dp1444
g107
(dp1445
sg116
g1430
sg109
(lp1446
g102
(g103
g104
NtRp1447
(dp1448
g107
(dp1449
g115
I4
ssg116
g1443
sg109
(lp1450
S"<open file '<stderr>', mode 'w' at 0x7f010c458270>"
p1451
asbasbasbag102
(g118
g104
NtRp1452
(dp1453
g107
(dp1454
sg116
g682
sg109
(lp1455
g102
(g123
g104
NtRp1456
(dp1457
g107
(dp1458
g127
g128
ssg116
g1452
sg109
(lp1459
S'wsgi_file_wrapper'
p1460
asbag102
(g123
g104
NtRp1461
(dp1462
g107
(dp1463
g134
g135
ssg116
g1452
sg109
(lp1464
S':'
asbag102
(g123
g104
NtRp1465
(dp1466
g107
(dp1467
sg116
g1452
sg109
(lp1468
g102
(g103
g104
NtRp1469
(dp1470
g107
(dp1471
g115
I4
ssg116
g1465
sg109
(lp1472
S'<class wsgiref.util.FileWrapper at 0x138eef0>'
p1473
asbasbasbag102
(g118
g104
NtRp1474
(dp1475
g107
(dp1476
sg116
g682
sg109
(lp1477
g102
(g123
g104
NtRp1478
(dp1479
g107
(dp1480
g127
g128
ssg116
g1474
sg109
(lp1481
S'wsgi_input'
p1482
asbag102
(g123
g104
NtRp1483
(dp1484
g107
(dp1485
g134
g135
ssg116
g1474
sg109
(lp1486
S':'
asbag102
(g123
g104
NtRp1487
(dp1488
g107
(dp1489
sg116
g1474
sg109
(lp1490
g102
(g103
g104
NtRp1491
(dp1492
g107
(dp1493
g115
I4
ssg116
g1487
sg109
(lp1494
S'<socket._fileobject object at 0x7f00e40d43d0>'
p1495
asbasbasbag102
(g118
g104
NtRp1496
(dp1497
g107
(dp1498
sg116
g682
sg109
(lp1499
g102
(g123
g104
NtRp1500
(dp1501
g107
(dp1502
g127
g128
ssg116
g1496
sg109
(lp1503
S'wsgi_multiprocess'
p1504
asbag102
(g123
g104
NtRp1505
(dp1506
g107
(dp1507
g134
g135
ssg116
g1496
sg109
(lp1508
S':'
asbag102
(g123
g104
NtRp1509
(dp1510
g107
(dp1511
sg116
g1496
sg109
(lp1512
g102
(g103
g104
NtRp1513
(dp1514
g107
(dp1515
g115
I4
ssg116
g1509
sg109
(lp1516
g145
asbasbasbag102
(g118
g104
NtRp1517
(dp1518
g107
(dp1519
sg116
g682
sg109
(lp1520
g102
(g123
g104
NtRp1521
(dp1522
g107
(dp1523
g127
g128
ssg116
g1517
sg109
(lp1524
S'wsgi_multithread'
p1525
asbag102
(g123
g104
NtRp1526
(dp1527
g107
(dp1528
g134
g135
ssg116
g1517
sg109
(lp1529
S':'
asbag102
(g123
g104
NtRp1530
(dp1531
g107
(dp1532
sg116
g1517
sg109
(lp1533
g102
(g103
g104
NtRp1534
(dp1535
g107
(dp1536
g115
I4
ssg116
g1530
sg109
(lp1537
S'True'
p1538
asbasbasbag102
(g118
g104
NtRp1539
(dp1540
g107
(dp1541
sg116
g682
sg109
(lp1542
g102
(g123
g104
NtRp1543
(dp1544
g107
(dp1545
g127
g128
ssg116
g1539
sg109
(lp1546
S'wsgi_run_once'
p1547
asbag102
(g123
g104
NtRp1548
(dp1549
g107
(dp1550
g134
g135
ssg116
g1539
sg109
(lp1551
S':'
asbag102
(g123
g104
NtRp1552
(dp1553
g107
(dp1554
sg116
g1539
sg109
(lp1555
g102
(g103
g104
NtRp1556
(dp1557
g107
(dp1558
g115
I4
ssg116
g1552
sg109
(lp1559
g145
asbasbasbag102
(g118
g104
NtRp1560
(dp1561
g107
(dp1562
sg116
g682
sg109
(lp1563
g102
(g123
g104
NtRp1564
(dp1565
g107
(dp1566
g127
g128
ssg116
g1560
sg109
(lp1567
S'wsgi_url_scheme'
p1568
asbag102
(g123
g104
NtRp1569
(dp1570
g107
(dp1571
g134
g135
ssg116
g1560
sg109
(lp1572
S':'
asbag102
(g123
g104
NtRp1573
(dp1574
g107
(dp1575
sg116
g1560
sg109
(lp1576
g102
(g103
g104
NtRp1577
(dp1578
g107
(dp1579
g115
I4
ssg116
g1573
sg109
(lp1580
S'http'
p1581
asbasbasbag102
(g118
g104
NtRp1582
(dp1583
g107
(dp1584
sg116
g682
sg109
(lp1585
g102
(g123
g104
NtRp1586
(dp1587
g107
(dp1588
g127
g128
ssg116
g1582
sg109
(lp1589
S'wsgi_version'
p1590
asbag102
(g123
g104
NtRp1591
(dp1592
g107
(dp1593
g134
g135
ssg116
g1582
sg109
(lp1594
S':'
asbag102
(g123
g104
NtRp1595
(dp1596
g107
(dp1597
sg116
g1582
sg109
(lp1598
g102
(g103
g104
NtRp1599
(dp1600
g107
(dp1601
g115
I4
ssg116
g1595
sg109
(lp1602
g102
(g111
g104
NtRp1603
(dp1604
g107
(dp1605
g115
I3
ssg116
Nsg109
(lp1606
g102
(g118
g104
NtRp1607
(dp1608
g107
(dp1609
sg116
g1603
sg109
(lp1610
g102
(g123
g104
NtRp1611
(dp1612
g107
(dp1613
sg116
g1607
sg109
(lp1614
g102
(g103
g104
NtRp1615
(dp1616
g107
(dp1617
g115
I3
ssg116
g1611
sg109
(lp1618
S'1'
asbasbasbag102
(g118
g104
NtRp1619
(dp1620
g107
(dp1621
sg116
g1603
sg109
(lp1622
g102
(g123
g104
NtRp1623
(dp1624
g107
(dp1625
sg116
g1619
sg109
(lp1626
g102
(g103
g104
NtRp1627
(dp1628
g107
(dp1629
g115
I3
ssg116
g1623
sg109
(lp1630
S'0'
asbasbasbasbasbasbasbasbasbasbasbag102
(g118
g104
NtRp1631
(dp1632
g107
(dp1633
sg116
g112
sg109
(lp1634
g102
(g123
g104
NtRp1635
(dp1636
g107
(dp1637
g127
g128
ssg116
g1631
sg109
(lp1638
S'extension'
p1639
asbag102
(g123
g104
NtRp1640
(dp1641
g107
(dp1642
g134
g135
ssg116
g1631
sg109
(lp1643
S':'
asbag102
(g123
g104
NtRp1644
(dp1645
g107
(dp1646
sg116
g1631
sg109
(lp1647
g102
(g103
g104
NtRp1648
(dp1649
g107
(dp1650
g115
I5
ssg116
g1644
sg109
(lp1651
S'html'
p1652
asbasbasbag102
(g118
g104
NtRp1653
(dp1654
g107
(dp1655
sg116
g112
sg109
(lp1656
g102
(g123
g104
NtRp1657
(dp1658
g107
(dp1659
g127
g128
ssg116
g1653
sg109
(lp1660
S'folder'
p1661
asbag102
(g123
g104
NtRp1662
(dp1663
g107
(dp1664
g134
g135
ssg116
g1653
sg109
(lp1665
S':'
asbag102
(g123
g104
NtRp1666
(dp1667
g107
(dp1668
sg116
g1653
sg109
(lp1669
g102
(g103
g104
NtRp1670
(dp1671
g107
(dp1672
g115
I5
ssg116
g1666
sg109
(lp1673
S'/home/maneesha/Downloads/web2py/applications/cite_mf/'
p1674
asbasbasbag102
(g118
g104
NtRp1675
(dp1676
g107
(dp1677
sg116
g112
sg109
(lp1678
g102
(g123
g104
NtRp1679
(dp1680
g107
(dp1681
g127
g128
ssg116
g1675
sg109
(lp1682
S'function'
p1683
asbag102
(g123
g104
NtRp1684
(dp1685
g107
(dp1686
g134
g135
ssg116
g1675
sg109
(lp1687
S':'
asbag102
(g123
g104
NtRp1688
(dp1689
g107
(dp1690
sg116
g1675
sg109
(lp1691
g102
(g103
g104
NtRp1692
(dp1693
g107
(dp1694
g115
I5
ssg116
g1688
sg109
(lp1695
S'final_ans'
p1696
asbasbasbag102
(g118
g104
NtRp1697
(dp1698
g107
(dp1699
sg116
g112
sg109
(lp1700
g102
(g123
g104
NtRp1701
(dp1702
g107
(dp1703
g127
g128
ssg116
g1697
sg109
(lp1704
S'get_vars'
p1705
asbag102
(g123
g104
NtRp1706
(dp1707
g107
(dp1708
g134
g135
ssg116
g1697
sg109
(lp1709
S':'
asbag102
(g123
g104
NtRp1710
(dp1711
g107
(dp1712
sg116
g1697
sg109
(lp1713
g102
(g103
g104
NtRp1714
(dp1715
g107
(dp1716
g115
I5
ssg116
g1710
sg109
(lp1717
g102
(g111
g104
NtRp1718
(dp1719
g107
(dp1720
g115
I4
ssg116
Nsg109
(lp1721
sbasbasbasbag102
(g118
g104
NtRp1722
(dp1723
g107
(dp1724
sg116
g112
sg109
(lp1725
g102
(g123
g104
NtRp1726
(dp1727
g107
(dp1728
g127
g128
ssg116
g1722
sg109
(lp1729
S'global_settings'
p1730
asbag102
(g123
g104
NtRp1731
(dp1732
g107
(dp1733
g134
g135
ssg116
g1722
sg109
(lp1734
S':'
asbag102
(g123
g104
NtRp1735
(dp1736
g107
(dp1737
sg116
g1722
sg109
(lp1738
g102
(g103
g104
NtRp1739
(dp1740
g107
(dp1741
g115
I5
ssg116
g1735
sg109
(lp1742
g102
(g111
g104
NtRp1743
(dp1744
g107
(dp1745
g115
I4
ssg116
Nsg109
(lp1746
g102
(g118
g104
NtRp1747
(dp1748
g107
(dp1749
sg116
g1743
sg109
(lp1750
g102
(g123
g104
NtRp1751
(dp1752
g107
(dp1753
g127
g128
ssg116
g1747
sg109
(lp1754
g694
asbag102
(g123
g104
NtRp1755
(dp1756
g107
(dp1757
g134
g135
ssg116
g1747
sg109
(lp1758
S':'
asbag102
(g123
g104
NtRp1759
(dp1760
g107
(dp1761
sg116
g1747
sg109
(lp1762
g102
(g103
g104
NtRp1763
(dp1764
g107
(dp1765
g115
I4
ssg116
g1759
sg109
(lp1766
S"set(['/home/maneesha/Downloads/web2py/applications/welcome/', '/home/maneesha/Downloads/web2py/applications/admin/', '/home/maneesha/Downloads/web2py/applications/cite_mf/'])"
p1767
asbasbasbag102
(g118
g104
NtRp1768
(dp1769
g107
(dp1770
sg116
g1743
sg109
(lp1771
g102
(g123
g104
NtRp1772
(dp1773
g107
(dp1774
g127
g128
ssg116
g1768
sg109
(lp1775
g716
asbag102
(g123
g104
NtRp1776
(dp1777
g107
(dp1778
g134
g135
ssg116
g1768
sg109
(lp1779
S':'
asbag102
(g123
g104
NtRp1780
(dp1781
g107
(dp1782
sg116
g1768
sg109
(lp1783
g102
(g103
g104
NtRp1784
(dp1785
g107
(dp1786
g115
I4
ssg116
g1780
sg109
(lp1787
g729
asbasbasbag102
(g118
g104
NtRp1788
(dp1789
g107
(dp1790
sg116
g1743
sg109
(lp1791
g102
(g123
g104
NtRp1792
(dp1793
g107
(dp1794
g127
g128
ssg116
g1788
sg109
(lp1795
g738
asbag102
(g123
g104
NtRp1796
(dp1797
g107
(dp1798
g134
g135
ssg116
g1788
sg109
(lp1799
S':'
asbag102
(g123
g104
NtRp1800
(dp1801
g107
(dp1802
sg116
g1788
sg109
(lp1803
g102
(g103
g104
NtRp1804
(dp1805
g107
(dp1806
g115
I4
ssg116
g1800
sg109
(lp1807
g102
(g111
g104
NtRp1808
(dp1809
g107
(dp1810
g115
I3
ssg116
Nsg109
(lp1811
sbasbasbasbag102
(g118
g104
NtRp1812
(dp1813
g107
(dp1814
sg116
g1743
sg109
(lp1815
g102
(g123
g104
NtRp1816
(dp1817
g107
(dp1818
g127
g128
ssg116
g1812
sg109
(lp1819
g763
asbag102
(g123
g104
NtRp1820
(dp1821
g107
(dp1822
g134
g135
ssg116
g1812
sg109
(lp1823
S':'
asbag102
(g123
g104
NtRp1824
(dp1825
g107
(dp1826
sg116
g1812
sg109
(lp1827
g102
(g103
g104
NtRp1828
(dp1829
g107
(dp1830
g115
I4
ssg116
g1824
sg109
(lp1831
S"<Values at 0x14beb00: {'verbose': False, 'ip': '127.0.0.1', 'shutdown_timeout': 5, 'taskbar': False, 'nocron': False, 'pid_filename': 'httpserver.pid', 'maxthreads': None, 'softcron': False, 'server_name': 'maneesha-Inspiron-N5050', 'bpython': False, 'nogui': False, 'port': 8000, 'extcron': False, 'debuglevel': 30, 'test': None, 'folder': '/home/maneesha/Downloads/web2py', 'config': '', 'import_models': False, 'winservice': '', 'shell': None, 'run': '', 'log_filename': 'httpserver.log', 'args': [''], 'socket_timeout': 5, 'ssl_ca_certificate': None, 'scheduler': None, 'profiler_filename': None, 'ssl_private_key': '', 'password': '<ask>', 'request_queue_size': 5, 'ssl_certificate': '', 'cronjob': False, 'numthreads': None, 'quiet': False, 'interfaces': None, 'minthreads': None, 'timeout': 10, 'plain': False, 'nobanner': False}>"
p1832
asbasbasbag102
(g118
g104
NtRp1833
(dp1834
g107
(dp1835
sg116
g1743
sg109
(lp1836
g102
(g123
g104
NtRp1837
(dp1838
g107
(dp1839
g127
g128
ssg116
g1833
sg109
(lp1840
g785
asbag102
(g123
g104
NtRp1841
(dp1842
g107
(dp1843
g134
g135
ssg116
g1833
sg109
(lp1844
S':'
asbag102
(g123
g104
NtRp1845
(dp1846
g107
(dp1847
sg116
g1833
sg109
(lp1848
g102
(g103
g104
NtRp1849
(dp1850
g107
(dp1851
g115
I4
ssg116
g1845
sg109
(lp1852
S'set([])'
p1853
asbasbasbag102
(g118
g104
NtRp1854
(dp1855
g107
(dp1856
sg116
g1743
sg109
(lp1857
g102
(g123
g104
NtRp1858
(dp1859
g107
(dp1860
g127
g128
ssg116
g1854
sg109
(lp1861
g807
asbag102
(g123
g104
NtRp1862
(dp1863
g107
(dp1864
g134
g135
ssg116
g1854
sg109
(lp1865
S':'
asbag102
(g123
g104
NtRp1866
(dp1867
g107
(dp1868
sg116
g1854
sg109
(lp1869
g102
(g103
g104
NtRp1870
(dp1871
g107
(dp1872
g115
I4
ssg116
g1866
sg109
(lp1873
g145
asbasbasbag102
(g118
g104
NtRp1874
(dp1875
g107
(dp1876
sg116
g1743
sg109
(lp1877
g102
(g123
g104
NtRp1878
(dp1879
g107
(dp1880
g127
g128
ssg116
g1874
sg109
(lp1881
g828
asbag102
(g123
g104
NtRp1882
(dp1883
g107
(dp1884
g134
g135
ssg116
g1874
sg109
(lp1885
S':'
asbag102
(g123
g104
NtRp1886
(dp1887
g107
(dp1888
sg116
g1874
sg109
(lp1889
g102
(g103
g104
NtRp1890
(dp1891
g107
(dp1892
g115
I4
ssg116
g1886
sg109
(lp1893
g841
asbasbasbag102
(g118
g104
NtRp1894
(dp1895
g107
(dp1896
sg116
g1743
sg109
(lp1897
g102
(g123
g104
NtRp1898
(dp1899
g107
(dp1900
g127
g128
ssg116
g1894
sg109
(lp1901
g1048
asbag102
(g123
g104
NtRp1902
(dp1903
g107
(dp1904
g134
g135
ssg116
g1894
sg109
(lp1905
S':'
asbag102
(g123
g104
NtRp1906
(dp1907
g107
(dp1908
sg116
g1894
sg109
(lp1909
g102
(g103
g104
NtRp1910
(dp1911
g107
(dp1912
g115
I4
ssg116
g1906
sg109
(lp1913
g145
asbasbasbag102
(g118
g104
NtRp1914
(dp1915
g107
(dp1916
sg116
g1743
sg109
(lp1917
g102
(g123
g104
NtRp1918
(dp1919
g107
(dp1920
g127
g128
ssg116
g1914
sg109
(lp1921
g1069
asbag102
(g123
g104
NtRp1922
(dp1923
g107
(dp1924
g134
g135
ssg116
g1914
sg109
(lp1925
S':'
asbag102
(g123
g104
NtRp1926
(dp1927
g107
(dp1928
sg116
g1914
sg109
(lp1929
g102
(g103
g104
NtRp1930
(dp1931
g107
(dp1932
g115
I4
ssg116
g1926
sg109
(lp1933
g145
asbasbasbag102
(g118
g104
NtRp1934
(dp1935
g107
(dp1936
sg116
g1743
sg109
(lp1937
g102
(g123
g104
NtRp1938
(dp1939
g107
(dp1940
g127
g128
ssg116
g1934
sg109
(lp1941
g1307
asbag102
(g123
g104
NtRp1942
(dp1943
g107
(dp1944
g134
g135
ssg116
g1934
sg109
(lp1945
S':'
asbag102
(g123
g104
NtRp1946
(dp1947
g107
(dp1948
sg116
g1934
sg109
(lp1949
g102
(g103
g104
NtRp1950
(dp1951
g107
(dp1952
g115
I4
ssg116
g1946
sg109
(lp1953
g1320
asbasbasbag102
(g118
g104
NtRp1954
(dp1955
g107
(dp1956
sg116
g1743
sg109
(lp1957
g102
(g123
g104
NtRp1958
(dp1959
g107
(dp1960
g127
g128
ssg116
g1954
sg109
(lp1961
g1350
asbag102
(g123
g104
NtRp1962
(dp1963
g107
(dp1964
g134
g135
ssg116
g1954
sg109
(lp1965
S':'
asbag102
(g123
g104
NtRp1966
(dp1967
g107
(dp1968
sg116
g1954
sg109
(lp1969
g102
(g103
g104
NtRp1970
(dp1971
g107
(dp1972
g115
I4
ssg116
g1966
sg109
(lp1973
g102
(g111
g104
NtRp1974
(dp1975
g107
(dp1976
g115
I3
ssg116
Nsg109
(lp1977
g102
(g118
g104
NtRp1978
(dp1979
g107
(dp1980
sg116
g1974
sg109
(lp1981
g102
(g123
g104
NtRp1982
(dp1983
g107
(dp1984
sg116
g1978
sg109
(lp1985
g102
(g103
g104
NtRp1986
(dp1987
g107
(dp1988
g115
I3
ssg116
g1982
sg109
(lp1989
S'1'
asbasbasbag102
(g118
g104
NtRp1990
(dp1991
g107
(dp1992
sg116
g1974
sg109
(lp1993
g102
(g123
g104
NtRp1994
(dp1995
g107
(dp1996
sg116
g1990
sg109
(lp1997
g102
(g103
g104
NtRp1998
(dp1999
g107
(dp2000
g115
I3
ssg116
g1994
sg109
(lp2001
S'99'
p2002
asbasbasbag102
(g118
g104
NtRp2003
(dp2004
g107
(dp2005
sg116
g1974
sg109
(lp2006
g102
(g123
g104
NtRp2007
(dp2008
g107
(dp2009
sg116
g2003
sg109
(lp2010
g102
(g103
g104
NtRp2011
(dp2012
g107
(dp2013
g115
I3
ssg116
g2007
sg109
(lp2014
S'7'
asbasbasbag102
(g118
g104
NtRp2015
(dp2016
g107
(dp2017
sg116
g1974
sg109
(lp2018
g102
(g123
g104
NtRp2019
(dp2020
g107
(dp2021
sg116
g2015
sg109
(lp2022
g102
(g103
g104
NtRp2023
(dp2024
g107
(dp2025
g115
I3
ssg116
g2019
sg109
(lp2026
S'datetime.datetime(2012, 3, 4, 22, 12, 8)'
p2027
asbasbasbag102
(g118
g104
NtRp2028
(dp2029
g107
(dp2030
sg116
g1974
sg109
(lp2031
g102
(g123
g104
NtRp2032
(dp2033
g107
(dp2034
sg116
g2028
sg109
(lp2035
g102
(g103
g104
NtRp2036
(dp2037
g107
(dp2038
g115
I3
ssg116
g2032
sg109
(lp2039
g1429
asbasbasbasbasbasbasbasbasbasbasbag102
(g118
g104
NtRp2040
(dp2041
g107
(dp2042
sg116
g112
sg109
(lp2043
g102
(g123
g104
NtRp2044
(dp2045
g107
(dp2046
g127
g128
ssg116
g2040
sg109
(lp2047
S'is_https'
p2048
asbag102
(g123
g104
NtRp2049
(dp2050
g107
(dp2051
g134
g135
ssg116
g2040
sg109
(lp2052
S':'
asbag102
(g123
g104
NtRp2053
(dp2054
g107
(dp2055
sg116
g2040
sg109
(lp2056
g102
(g103
g104
NtRp2057
(dp2058
g107
(dp2059
g115
I5
ssg116
g2053
sg109
(lp2060
g145
asbasbasbag102
(g118
g104
NtRp2061
(dp2062
g107
(dp2063
sg116
g112
sg109
(lp2064
g102
(g123
g104
NtRp2065
(dp2066
g107
(dp2067
g127
g128
ssg116
g2061
sg109
(lp2068
S'is_local'
p2069
asbag102
(g123
g104
NtRp2070
(dp2071
g107
(dp2072
g134
g135
ssg116
g2061
sg109
(lp2073
S':'
asbag102
(g123
g104
NtRp2074
(dp2075
g107
(dp2076
sg116
g2061
sg109
(lp2077
g102
(g103
g104
NtRp2078
(dp2079
g107
(dp2080
g115
I5
ssg116
g2074
sg109
(lp2081
g1538
asbasbasbag102
(g118
g104
NtRp2082
(dp2083
g107
(dp2084
sg116
g112
sg109
(lp2085
g102
(g123
g104
NtRp2086
(dp2087
g107
(dp2088
g127
g128
ssg116
g2082
sg109
(lp2089
S'is_restful'
p2090
asbag102
(g123
g104
NtRp2091
(dp2092
g107
(dp2093
g134
g135
ssg116
g2082
sg109
(lp2094
S':'
asbag102
(g123
g104
NtRp2095
(dp2096
g107
(dp2097
sg116
g2082
sg109
(lp2098
g102
(g103
g104
NtRp2099
(dp2100
g107
(dp2101
g115
I5
ssg116
g2095
sg109
(lp2102
g145
asbasbasbag102
(g118
g104
NtRp2103
(dp2104
g107
(dp2105
sg116
g112
sg109
(lp2106
g102
(g123
g104
NtRp2107
(dp2108
g107
(dp2109
g127
g128
ssg116
g2103
sg109
(lp2110
S'now'
p2111
asbag102
(g123
g104
NtRp2112
(dp2113
g107
(dp2114
g134
g135
ssg116
g2103
sg109
(lp2115
S':'
asbag102
(g123
g104
NtRp2116
(dp2117
g107
(dp2118
sg116
g2103
sg109
(lp2119
g102
(g103
g104
NtRp2120
(dp2121
g107
(dp2122
g115
I5
ssg116
g2116
sg109
(lp2123
S'datetime.datetime(2012, 11, 15, 22, 2, 57, 731235)'
p2124
asbasbasbag102
(g118
g104
NtRp2125
(dp2126
g107
(dp2127
sg116
g112
sg109
(lp2128
g102
(g123
g104
NtRp2129
(dp2130
g107
(dp2131
g127
g128
ssg116
g2125
sg109
(lp2132
S'post_vars'
p2133
asbag102
(g123
g104
NtRp2134
(dp2135
g107
(dp2136
g134
g135
ssg116
g2125
sg109
(lp2137
S':'
asbag102
(g123
g104
NtRp2138
(dp2139
g107
(dp2140
sg116
g2125
sg109
(lp2141
g102
(g103
g104
NtRp2142
(dp2143
g107
(dp2144
g115
I5
ssg116
g2138
sg109
(lp2145
g102
(g111
g104
NtRp2146
(dp2147
g107
(dp2148
g115
I4
ssg116
Nsg109
(lp2149
sbasbasbasbag102
(g118
g104
NtRp2150
(dp2151
g107
(dp2152
sg116
g112
sg109
(lp2153
g102
(g123
g104
NtRp2154
(dp2155
g107
(dp2156
g127
g128
ssg116
g2150
sg109
(lp2157
g87
asbag102
(g123
g104
NtRp2158
(dp2159
g107
(dp2160
g134
g135
ssg116
g2150
sg109
(lp2161
S':'
asbag102
(g123
g104
NtRp2162
(dp2163
g107
(dp2164
sg116
g2150
sg109
(lp2165
g102
(g103
g104
NtRp2166
(dp2167
g107
(dp2168
g115
I5
ssg116
g2162
sg109
(lp2169
S'/cite_mf/default/final_ans'
p2170
asbasbasbag102
(g118
g104
NtRp2171
(dp2172
g107
(dp2173
sg116
g112
sg109
(lp2174
g102
(g123
g104
NtRp2175
(dp2176
g107
(dp2177
g127
g128
ssg116
g2171
sg109
(lp2178
S'utcnow'
p2179
asbag102
(g123
g104
NtRp2180
(dp2181
g107
(dp2182
g134
g135
ssg116
g2171
sg109
(lp2183
S':'
asbag102
(g123
g104
NtRp2184
(dp2185
g107
(dp2186
sg116
g2171
sg109
(lp2187
g102
(g103
g104
NtRp2188
(dp2189
g107
(dp2190
g115
I5
ssg116
g2184
sg109
(lp2191
S'datetime.datetime(2012, 11, 15, 16, 32, 57, 731267)'
p2192
asbasbasbag102
(g118
g104
NtRp2193
(dp2194
g107
(dp2195
sg116
g112
sg109
(lp2196
g102
(g123
g104
NtRp2197
(dp2198
g107
(dp2199
g127
g128
ssg116
g2193
sg109
(lp2200
S'uuid'
p2201
asbag102
(g123
g104
NtRp2202
(dp2203
g107
(dp2204
g134
g135
ssg116
g2193
sg109
(lp2205
S':'
asbag102
(g123
g104
NtRp2206
(dp2207
g107
(dp2208
sg116
g2193
sg109
(lp2209
g102
(g103
g104
NtRp2210
(dp2211
g107
(dp2212
g115
I5
ssg116
g2206
sg109
(lp2213
S'cite_mf/127.0.0.1.2012-11-15.22-02-57.c334e4db-a8c3-46f7-988a-21041cdce9f2'
p2214
asbasbasbag102
(g118
g104
NtRp2215
(dp2216
g107
(dp2217
sg116
g112
sg109
(lp2218
g102
(g123
g104
NtRp2219
(dp2220
g107
(dp2221
g127
g128
ssg116
g2215
sg109
(lp2222
S'vars'
p2223
asbag102
(g123
g104
NtRp2224
(dp2225
g107
(dp2226
g134
g135
ssg116
g2215
sg109
(lp2227
S':'
asbag102
(g123
g104
NtRp2228
(dp2229
g107
(dp2230
sg116
g2215
sg109
(lp2231
g102
(g103
g104
NtRp2232
(dp2233
g107
(dp2234
g115
I5
ssg116
g2228
sg109
(lp2235
g102
(g111
g104
NtRp2236
(dp2237
g107
(dp2238
g115
I4
ssg116
Nsg109
(lp2239
sbasbasbasbag102
(g118
g104
NtRp2240
(dp2241
g107
(dp2242
sg116
g112
sg109
(lp2243
g102
(g123
g104
NtRp2244
(dp2245
g107
(dp2246
g127
g128
ssg116
g2240
sg109
(lp2247
S'wsgi'
p2248
asbag102
(g123
g104
NtRp2249
(dp2250
g107
(dp2251
g134
g135
ssg116
g2240
sg109
(lp2252
S':'
asbag102
(g123
g104
NtRp2253
(dp2254
g107
(dp2255
sg116
g2240
sg109
(lp2256
g102
(g103
g104
NtRp2257
(dp2258
g107
(dp2259
g115
I5
ssg116
g2253
sg109
(lp2260
g102
(g111
g104
NtRp2261
(dp2262
g107
(dp2263
g115
I4
ssg116
Nsg109
(lp2264
g102
(g118
g104
NtRp2265
(dp2266
g107
(dp2267
sg116
g2261
sg109
(lp2268
g102
(g123
g104
NtRp2269
(dp2270
g107
(dp2271
g127
g128
ssg116
g2265
sg109
(lp2272
S'environ'
p2273
asbag102
(g123
g104
NtRp2274
(dp2275
g107
(dp2276
g134
g135
ssg116
g2265
sg109
(lp2277
S':'
asbag102
(g123
g104
NtRp2278
(dp2279
g107
(dp2280
sg116
g2265
sg109
(lp2281
g102
(g103
g104
NtRp2282
(dp2283
g107
(dp2284
g115
I4
ssg116
g2278
sg109
(lp2285
g102
(g111
g104
NtRp2286
(dp2287
g107
(dp2288
g115
I3
ssg116
Nsg109
(lp2289
g102
(g118
g104
NtRp2290
(dp2291
g107
(dp2292
sg116
g2286
sg109
(lp2293
g102
(g123
g104
NtRp2294
(dp2295
g107
(dp2296
g127
g128
ssg116
g2290
sg109
(lp2297
S'HTTP_ACCEPT'
p2298
asbag102
(g123
g104
NtRp2299
(dp2300
g107
(dp2301
g134
g135
ssg116
g2290
sg109
(lp2302
S':'
asbag102
(g123
g104
NtRp2303
(dp2304
g107
(dp2305
sg116
g2290
sg109
(lp2306
g102
(g103
g104
NtRp2307
(dp2308
g107
(dp2309
g115
I3
ssg116
g2303
sg109
(lp2310
g863
asbasbasbag102
(g118
g104
NtRp2311
(dp2312
g107
(dp2313
sg116
g2286
sg109
(lp2314
g102
(g123
g104
NtRp2315
(dp2316
g107
(dp2317
g127
g128
ssg116
g2311
sg109
(lp2318
S'HTTP_ACCEPT_ENCODING'
p2319
asbag102
(g123
g104
NtRp2320
(dp2321
g107
(dp2322
g134
g135
ssg116
g2311
sg109
(lp2323
S':'
asbag102
(g123
g104
NtRp2324
(dp2325
g107
(dp2326
sg116
g2311
sg109
(lp2327
g102
(g103
g104
NtRp2328
(dp2329
g107
(dp2330
g115
I3
ssg116
g2324
sg109
(lp2331
g885
asbasbasbag102
(g118
g104
NtRp2332
(dp2333
g107
(dp2334
sg116
g2286
sg109
(lp2335
g102
(g123
g104
NtRp2336
(dp2337
g107
(dp2338
g127
g128
ssg116
g2332
sg109
(lp2339
S'HTTP_ACCEPT_LANGUAGE'
p2340
asbag102
(g123
g104
NtRp2341
(dp2342
g107
(dp2343
g134
g135
ssg116
g2332
sg109
(lp2344
S':'
asbag102
(g123
g104
NtRp2345
(dp2346
g107
(dp2347
sg116
g2332
sg109
(lp2348
g102
(g103
g104
NtRp2349
(dp2350
g107
(dp2351
g115
I3
ssg116
g2345
sg109
(lp2352
g907
asbasbasbag102
(g118
g104
NtRp2353
(dp2354
g107
(dp2355
sg116
g2286
sg109
(lp2356
g102
(g123
g104
NtRp2357
(dp2358
g107
(dp2359
g127
g128
ssg116
g2353
sg109
(lp2360
S'HTTP_CACHE_CONTROL'
p2361
asbag102
(g123
g104
NtRp2362
(dp2363
g107
(dp2364
g134
g135
ssg116
g2353
sg109
(lp2365
S':'
asbag102
(g123
g104
NtRp2366
(dp2367
g107
(dp2368
sg116
g2353
sg109
(lp2369
g102
(g103
g104
NtRp2370
(dp2371
g107
(dp2372
g115
I3
ssg116
g2366
sg109
(lp2373
g929
asbasbasbag102
(g118
g104
NtRp2374
(dp2375
g107
(dp2376
sg116
g2286
sg109
(lp2377
g102
(g123
g104
NtRp2378
(dp2379
g107
(dp2380
g127
g128
ssg116
g2374
sg109
(lp2381
S'HTTP_CONNECTION'
p2382
asbag102
(g123
g104
NtRp2383
(dp2384
g107
(dp2385
g134
g135
ssg116
g2374
sg109
(lp2386
S':'
asbag102
(g123
g104
NtRp2387
(dp2388
g107
(dp2389
sg116
g2374
sg109
(lp2390
g102
(g103
g104
NtRp2391
(dp2392
g107
(dp2393
g115
I3
ssg116
g2387
sg109
(lp2394
g951
asbasbasbag102
(g118
g104
NtRp2395
(dp2396
g107
(dp2397
sg116
g2286
sg109
(lp2398
g102
(g123
g104
NtRp2399
(dp2400
g107
(dp2401
g127
g128
ssg116
g2395
sg109
(lp2402
S'HTTP_COOKIE'
p2403
asbag102
(g123
g104
NtRp2404
(dp2405
g107
(dp2406
g134
g135
ssg116
g2395
sg109
(lp2407
S':'
asbag102
(g123
g104
NtRp2408
(dp2409
g107
(dp2410
sg116
g2395
sg109
(lp2411
g102
(g103
g104
NtRp2412
(dp2413
g107
(dp2414
g115
I3
ssg116
g2408
sg109
(lp2415
g973
asbasbasbag102
(g118
g104
NtRp2416
(dp2417
g107
(dp2418
sg116
g2286
sg109
(lp2419
g102
(g123
g104
NtRp2420
(dp2421
g107
(dp2422
g127
g128
ssg116
g2416
sg109
(lp2423
S'HTTP_HOST'
p2424
asbag102
(g123
g104
NtRp2425
(dp2426
g107
(dp2427
g134
g135
ssg116
g2416
sg109
(lp2428
S':'
asbag102
(g123
g104
NtRp2429
(dp2430
g107
(dp2431
sg116
g2416
sg109
(lp2432
g102
(g103
g104
NtRp2433
(dp2434
g107
(dp2435
g115
I3
ssg116
g2429
sg109
(lp2436
g995
asbasbasbag102
(g118
g104
NtRp2437
(dp2438
g107
(dp2439
sg116
g2286
sg109
(lp2440
g102
(g123
g104
NtRp2441
(dp2442
g107
(dp2443
g127
g128
ssg116
g2437
sg109
(lp2444
S'HTTP_REFERER'
p2445
asbag102
(g123
g104
NtRp2446
(dp2447
g107
(dp2448
g134
g135
ssg116
g2437
sg109
(lp2449
S':'
asbag102
(g123
g104
NtRp2450
(dp2451
g107
(dp2452
sg116
g2437
sg109
(lp2453
g102
(g103
g104
NtRp2454
(dp2455
g107
(dp2456
g115
I3
ssg116
g2450
sg109
(lp2457
g1017
asbasbasbag102
(g118
g104
NtRp2458
(dp2459
g107
(dp2460
sg116
g2286
sg109
(lp2461
g102
(g123
g104
NtRp2462
(dp2463
g107
(dp2464
g127
g128
ssg116
g2458
sg109
(lp2465
S'HTTP_USER_AGENT'
p2466
asbag102
(g123
g104
NtRp2467
(dp2468
g107
(dp2469
g134
g135
ssg116
g2458
sg109
(lp2470
S':'
asbag102
(g123
g104
NtRp2471
(dp2472
g107
(dp2473
sg116
g2458
sg109
(lp2474
g102
(g103
g104
NtRp2475
(dp2476
g107
(dp2477
g115
I3
ssg116
g2471
sg109
(lp2478
g1039
asbasbasbag102
(g118
g104
NtRp2479
(dp2480
g107
(dp2481
sg116
g2286
sg109
(lp2482
g102
(g123
g104
NtRp2483
(dp2484
g107
(dp2485
g127
g128
ssg116
g2479
sg109
(lp2486
S'PATH_INFO'
p2487
asbag102
(g123
g104
NtRp2488
(dp2489
g107
(dp2490
g134
g135
ssg116
g2479
sg109
(lp2491
S':'
asbag102
(g123
g104
NtRp2492
(dp2493
g107
(dp2494
sg116
g2479
sg109
(lp2495
g102
(g103
g104
NtRp2496
(dp2497
g107
(dp2498
g115
I3
ssg116
g2492
sg109
(lp2499
g1103
asbasbasbag102
(g118
g104
NtRp2500
(dp2501
g107
(dp2502
sg116
g2286
sg109
(lp2503
g102
(g123
g104
NtRp2504
(dp2505
g107
(dp2506
g127
g128
ssg116
g2500
sg109
(lp2507
S'QUERY_STRING'
p2508
asbag102
(g123
g104
NtRp2509
(dp2510
g107
(dp2511
g134
g135
ssg116
g2500
sg109
(lp2512
S':'
asbag102
(g123
g104
NtRp2513
(dp2514
g107
(dp2515
sg116
g2500
sg109
(lp2516
g102
(g103
g104
NtRp2517
(dp2518
g107
(dp2519
g115
I3
ssg116
g2513
sg109
(lp2520
S''
asbasbasbag102
(g118
g104
NtRp2521
(dp2522
g107
(dp2523
sg116
g2286
sg109
(lp2524
g102
(g123
g104
NtRp2525
(dp2526
g107
(dp2527
g127
g128
ssg116
g2521
sg109
(lp2528
S'REMOTE_ADDR'
p2529
asbag102
(g123
g104
NtRp2530
(dp2531
g107
(dp2532
g134
g135
ssg116
g2521
sg109
(lp2533
S':'
asbag102
(g123
g104
NtRp2534
(dp2535
g107
(dp2536
sg116
g2521
sg109
(lp2537
g102
(g103
g104
NtRp2538
(dp2539
g107
(dp2540
g115
I3
ssg116
g2534
sg109
(lp2541
g235
asbasbasbag102
(g118
g104
NtRp2542
(dp2543
g107
(dp2544
sg116
g2286
sg109
(lp2545
g102
(g123
g104
NtRp2546
(dp2547
g107
(dp2548
g127
g128
ssg116
g2542
sg109
(lp2549
S'REMOTE_PORT'
p2550
asbag102
(g123
g104
NtRp2551
(dp2552
g107
(dp2553
g134
g135
ssg116
g2542
sg109
(lp2554
S':'
asbag102
(g123
g104
NtRp2555
(dp2556
g107
(dp2557
sg116
g2542
sg109
(lp2558
g102
(g103
g104
NtRp2559
(dp2560
g107
(dp2561
g115
I3
ssg116
g2555
sg109
(lp2562
g1167
asbasbasbag102
(g118
g104
NtRp2563
(dp2564
g107
(dp2565
sg116
g2286
sg109
(lp2566
g102
(g123
g104
NtRp2567
(dp2568
g107
(dp2569
g127
g128
ssg116
g2563
sg109
(lp2570
S'REQUEST_METHOD'
p2571
asbag102
(g123
g104
NtRp2572
(dp2573
g107
(dp2574
g134
g135
ssg116
g2563
sg109
(lp2575
S':'
asbag102
(g123
g104
NtRp2576
(dp2577
g107
(dp2578
sg116
g2563
sg109
(lp2579
g102
(g103
g104
NtRp2580
(dp2581
g107
(dp2582
g115
I3
ssg116
g2576
sg109
(lp2583
g1189
asbasbasbag102
(g118
g104
NtRp2584
(dp2585
g107
(dp2586
sg116
g2286
sg109
(lp2587
g102
(g123
g104
NtRp2588
(dp2589
g107
(dp2590
g127
g128
ssg116
g2584
sg109
(lp2591
S'SCRIPT_NAME'
p2592
asbag102
(g123
g104
NtRp2593
(dp2594
g107
(dp2595
g134
g135
ssg116
g2584
sg109
(lp2596
S':'
asbag102
(g123
g104
NtRp2597
(dp2598
g107
(dp2599
sg116
g2584
sg109
(lp2600
g102
(g103
g104
NtRp2601
(dp2602
g107
(dp2603
g115
I3
ssg116
g2597
sg109
(lp2604
S''
asbasbasbag102
(g118
g104
NtRp2605
(dp2606
g107
(dp2607
sg116
g2286
sg109
(lp2608
g102
(g123
g104
NtRp2609
(dp2610
g107
(dp2611
g127
g128
ssg116
g2605
sg109
(lp2612
S'SERVER_NAME'
p2613
asbag102
(g123
g104
NtRp2614
(dp2615
g107
(dp2616
g134
g135
ssg116
g2605
sg109
(lp2617
S':'
asbag102
(g123
g104
NtRp2618
(dp2619
g107
(dp2620
sg116
g2605
sg109
(lp2621
g102
(g103
g104
NtRp2622
(dp2623
g107
(dp2624
g115
I3
ssg116
g2618
sg109
(lp2625
g1232
asbasbasbag102
(g118
g104
NtRp2626
(dp2627
g107
(dp2628
sg116
g2286
sg109
(lp2629
g102
(g123
g104
NtRp2630
(dp2631
g107
(dp2632
g127
g128
ssg116
g2626
sg109
(lp2633
S'SERVER_PORT'
p2634
asbag102
(g123
g104
NtRp2635
(dp2636
g107
(dp2637
g134
g135
ssg116
g2626
sg109
(lp2638
S':'
asbag102
(g123
g104
NtRp2639
(dp2640
g107
(dp2641
sg116
g2626
sg109
(lp2642
g102
(g103
g104
NtRp2643
(dp2644
g107
(dp2645
g115
I3
ssg116
g2639
sg109
(lp2646
g1254
asbasbasbag102
(g118
g104
NtRp2647
(dp2648
g107
(dp2649
sg116
g2286
sg109
(lp2650
g102
(g123
g104
NtRp2651
(dp2652
g107
(dp2653
g127
g128
ssg116
g2647
sg109
(lp2654
S'SERVER_PROTOCOL'
p2655
asbag102
(g123
g104
NtRp2656
(dp2657
g107
(dp2658
g134
g135
ssg116
g2647
sg109
(lp2659
S':'
asbag102
(g123
g104
NtRp2660
(dp2661
g107
(dp2662
sg116
g2647
sg109
(lp2663
g102
(g103
g104
NtRp2664
(dp2665
g107
(dp2666
g115
I3
ssg116
g2660
sg109
(lp2667
g1276
asbasbasbag102
(g118
g104
NtRp2668
(dp2669
g107
(dp2670
sg116
g2286
sg109
(lp2671
g102
(g123
g104
NtRp2672
(dp2673
g107
(dp2674
g127
g128
ssg116
g2668
sg109
(lp2675
S'SERVER_SOFTWARE'
p2676
asbag102
(g123
g104
NtRp2677
(dp2678
g107
(dp2679
g134
g135
ssg116
g2668
sg109
(lp2680
S':'
asbag102
(g123
g104
NtRp2681
(dp2682
g107
(dp2683
sg116
g2668
sg109
(lp2684
g102
(g103
g104
NtRp2685
(dp2686
g107
(dp2687
g115
I3
ssg116
g2681
sg109
(lp2688
g1298
asbasbasbag102
(g118
g104
NtRp2689
(dp2690
g107
(dp2691
sg116
g2286
sg109
(lp2692
g102
(g123
g104
NtRp2693
(dp2694
g107
(dp2695
g127
g128
ssg116
g2689
sg109
(lp2696
S'wsgi.errors'
p2697
asbag102
(g123
g104
NtRp2698
(dp2699
g107
(dp2700
g134
g135
ssg116
g2689
sg109
(lp2701
S':'
asbag102
(g123
g104
NtRp2702
(dp2703
g107
(dp2704
sg116
g2689
sg109
(lp2705
g102
(g103
g104
NtRp2706
(dp2707
g107
(dp2708
g115
I3
ssg116
g2702
sg109
(lp2709
S"<open file '<stderr>', mode 'w' at 0x7f010c458270>"
p2710
asbasbasbag102
(g118
g104
NtRp2711
(dp2712
g107
(dp2713
sg116
g2286
sg109
(lp2714
g102
(g123
g104
NtRp2715
(dp2716
g107
(dp2717
g127
g128
ssg116
g2711
sg109
(lp2718
S'wsgi.file_wrapper'
p2719
asbag102
(g123
g104
NtRp2720
(dp2721
g107
(dp2722
g134
g135
ssg116
g2711
sg109
(lp2723
S':'
asbag102
(g123
g104
NtRp2724
(dp2725
g107
(dp2726
sg116
g2711
sg109
(lp2727
g102
(g103
g104
NtRp2728
(dp2729
g107
(dp2730
g115
I3
ssg116
g2724
sg109
(lp2731
S'<class wsgiref.util.FileWrapper at 0x138eef0>'
p2732
asbasbasbag102
(g118
g104
NtRp2733
(dp2734
g107
(dp2735
sg116
g2286
sg109
(lp2736
g102
(g123
g104
NtRp2737
(dp2738
g107
(dp2739
g127
g128
ssg116
g2733
sg109
(lp2740
S'wsgi.input'
p2741
asbag102
(g123
g104
NtRp2742
(dp2743
g107
(dp2744
g134
g135
ssg116
g2733
sg109
(lp2745
S':'
asbag102
(g123
g104
NtRp2746
(dp2747
g107
(dp2748
sg116
g2733
sg109
(lp2749
g102
(g103
g104
NtRp2750
(dp2751
g107
(dp2752
g115
I3
ssg116
g2746
sg109
(lp2753
S'<cStringIO.StringO object at 0x7f00e42197a0>'
p2754
asbasbasbag102
(g118
g104
NtRp2755
(dp2756
g107
(dp2757
sg116
g2286
sg109
(lp2758
g102
(g123
g104
NtRp2759
(dp2760
g107
(dp2761
g127
g128
ssg116
g2755
sg109
(lp2762
S'wsgi.multiprocess'
p2763
asbag102
(g123
g104
NtRp2764
(dp2765
g107
(dp2766
g134
g135
ssg116
g2755
sg109
(lp2767
S':'
asbag102
(g123
g104
NtRp2768
(dp2769
g107
(dp2770
sg116
g2755
sg109
(lp2771
g102
(g103
g104
NtRp2772
(dp2773
g107
(dp2774
g115
I3
ssg116
g2768
sg109
(lp2775
g145
asbasbasbag102
(g118
g104
NtRp2776
(dp2777
g107
(dp2778
sg116
g2286
sg109
(lp2779
g102
(g123
g104
NtRp2780
(dp2781
g107
(dp2782
g127
g128
ssg116
g2776
sg109
(lp2783
S'wsgi.multithread'
p2784
asbag102
(g123
g104
NtRp2785
(dp2786
g107
(dp2787
g134
g135
ssg116
g2776
sg109
(lp2788
S':'
asbag102
(g123
g104
NtRp2789
(dp2790
g107
(dp2791
sg116
g2776
sg109
(lp2792
g102
(g103
g104
NtRp2793
(dp2794
g107
(dp2795
g115
I3
ssg116
g2789
sg109
(lp2796
g1538
asbasbasbag102
(g118
g104
NtRp2797
(dp2798
g107
(dp2799
sg116
g2286
sg109
(lp2800
g102
(g123
g104
NtRp2801
(dp2802
g107
(dp2803
g127
g128
ssg116
g2797
sg109
(lp2804
S'wsgi.run_once'
p2805
asbag102
(g123
g104
NtRp2806
(dp2807
g107
(dp2808
g134
g135
ssg116
g2797
sg109
(lp2809
S':'
asbag102
(g123
g104
NtRp2810
(dp2811
g107
(dp2812
sg116
g2797
sg109
(lp2813
g102
(g103
g104
NtRp2814
(dp2815
g107
(dp2816
g115
I3
ssg116
g2810
sg109
(lp2817
g145
asbasbasbag102
(g118
g104
NtRp2818
(dp2819
g107
(dp2820
sg116
g2286
sg109
(lp2821
g102
(g123
g104
NtRp2822
(dp2823
g107
(dp2824
g127
g128
ssg116
g2818
sg109
(lp2825
S'wsgi.url_scheme'
p2826
asbag102
(g123
g104
NtRp2827
(dp2828
g107
(dp2829
g134
g135
ssg116
g2818
sg109
(lp2830
S':'
asbag102
(g123
g104
NtRp2831
(dp2832
g107
(dp2833
sg116
g2818
sg109
(lp2834
g102
(g103
g104
NtRp2835
(dp2836
g107
(dp2837
g115
I3
ssg116
g2831
sg109
(lp2838
g1581
asbasbasbag102
(g118
g104
NtRp2839
(dp2840
g107
(dp2841
sg116
g2286
sg109
(lp2842
g102
(g123
g104
NtRp2843
(dp2844
g107
(dp2845
g127
g128
ssg116
g2839
sg109
(lp2846
S'wsgi.version'
p2847
asbag102
(g123
g104
NtRp2848
(dp2849
g107
(dp2850
g134
g135
ssg116
g2839
sg109
(lp2851
S':'
asbag102
(g123
g104
NtRp2852
(dp2853
g107
(dp2854
sg116
g2839
sg109
(lp2855
g102
(g103
g104
NtRp2856
(dp2857
g107
(dp2858
g115
I3
ssg116
g2852
sg109
(lp2859
S'1'
asbasbasbasbasbasbasbasbasbasbasbasbasbsS'frames'
p2860
(lp2861
(dp2862
S'file'
p2863
S'/home/maneesha/Downloads/web2py/gluon/restricted.py'
p2864
sS'dump'
p2865
(dp2866
S'environment'
p2867
S"{'A': <class 'gluon.html.A'>, 'Auth': <class 'gluon.tools.Auth'>, 'B': <class 'gluon.html.B'>, 'BEAUTIFY': <class 'gluon.html.BEAUTIFY'>, 'BODY': <class 'gluon.html.BODY'>, 'BR': <class 'gluon.html.BR'>, 'BUTTON': <class 'gluon.html.BUTTON'>, 'CAT': <class 'gluon.html.CAT'>, 'CENTER': <class 'gluon.html.CENTER'>, 'CLEANUP': <class 'gluon.validators.CLEANUP'>, ...}"
p2868
sS'ccode'
p2869
S'<code object <module> at 0x7f00ec1846b0, file "/...ications/cite_mf/controllers/default.py", line 3>'
p2870
ssS'lnum'
p2871
I205
sS'lines'
p2872
(dp2873
I200
S'    try:'
p2874
sI201
S'        if type(code) == types.CodeType:'
p2875
sI202
S'            ccode = code'
p2876
sI203
S'        else:'
p2877
sI204
S'            ccode = compile2(code,layer)'
p2878
sI205
S'        exec ccode in environment'
p2879
sI206
S'    except HTTP:'
p2880
sI207
S'        raise'
p2881
sI208
S'    except RestrictedError:'
p2882
sI209
S'        # do not encapsulate (obfuscate) the original RestrictedError'
p2883
ssS'call'
p2884
S"(code='# -*- coding: utf-8 -*-\\n### required - do no del...ss1)\\n\\nresponse._vars=response._caller(final_ans)\\n', environment={'A': <class 'gluon.html.A'>, 'Auth': <class 'gluon.tools.Auth'>, 'B': <class 'gluon.html.B'>, 'BEAUTIFY': <class 'gluon.html.BEAUTIFY'>, 'BODY': <class 'gluon.html.BODY'>, 'BR': <class 'gluon.html.BR'>, 'BUTTON': <class 'gluon.html.BUTTON'>, 'CAT': <class 'gluon.html.CAT'>, 'CENTER': <class 'gluon.html.CENTER'>, 'CLEANUP': <class 'gluon.validators.CLEANUP'>, ...}, layer='/home/maneesha/Downloads/web2py/applications/cite_mf/controllers/default.py')"
p2885
sS'func'
p2886
S'restricted'
p2887
sa(dp2888
g2863
S'/home/maneesha/Downloads/web2py/applications/cite_mf/controllers/default.py'
p2889
sg2865
(dp2890
sg2871
I205
sg2872
(dp2891
I194
S'        d=d.replace("</par>","")'
p2892
sI195
S'    return d            #returns the filtered text'
p2893
sI196
S'def abstract1():'
p2894
sI197
S'    abss=request.args[0]'
p2895
sI198
S'    pre=""'
p2896
sI199
S'    while pre!=abss:'
p2897
sI200
S'        pre=abss'
p2898
sI201
S'        abss=abss.replace("_"," ")'
p2899
sI202
S'    abss1=abss.split(".")'
p2900
sI203
S'    return dict(abss1=abss1)'
p2901
ssg2884
S'()'
p2902
sg2886
S'<module>'
p2903
sa(dp2904
g2863
S'/home/maneesha/Downloads/web2py/gluon/globals.py'
p2905
sg2865
(dp2906
S'self'
p2907
S'undefined'
p2908
sS'f'
S'<function final_ans>'
p2909
ssg2871
I173
sg2872
(dp2910
I168
S'        self.menu = []             # used by the default view layout'
p2911
sI169
S'        self.files = []            # used by web2py_ajax.html'
p2912
sI170
S'        self.generic_patterns = [] # patterns to allow generic views'
p2913
sI171
S"        self.delimiters = ('{{','}}')"
p2914
sI172
S'        self._vars = None'
p2915
sI173
S'        self._caller = lambda f: f()'
p2916
sI174
S'        self._view_environment = None'
p2917
sI175
S'        self._custom_commit = None'
p2918
sI176
S'        self._custom_rollback = None'
p2919
sI177
S''
ssg2884
S'(f=<function final_ans>)'
p2920
sg2886
S'<lambda>'
p2921
sa(dp2922
g2863
S'/home/maneesha/Downloads/web2py/applications/cite_mf/controllers/default.py'
p2923
sg2865
(dp2924
S'global extract1'
p2925
S'<function extract1>'
p2926
sS'url'
p2927
S"'http://dl.acm.org/results.cfm?h=1&query=database+design'"
p2928
sS'l1'
p2929
S"['database design', 3, 3, True, True, True]"
p2930
sS'fst_l'
p2931
S'[]'
p2932
ssg2871
I64
sg2872
(dp2933
I64
S'    fst_l=extract1(url,l1)     #extracts the urls of query results and stores it in a list fst_l'
p2934
sI65
S'    rec(fst_l,l1,bigans)  #this function recursively fetches the required information and stores every result in list bigans.'
p2935
sI66
S'    au=db(auth.user.username==db.auth_user.username).select().first()'
p2936
sI67
S'    email=au.email       #email of user who is logged in is extracted.'
p2937
sI68
S'    return dict(bigans=bigans,level=l1[1],top=l1[2],ret1=ret1,email=email)'
p2938
sI59
S'    bigans=[] #stores the final output in a list'
p2939
sI60
S'    l1=u_filter() #extracting the user input in a list'
p2940
sI61
S'    url="http://dl.acm.org/results.cfm?h=1&query="+\'+\'.join(l1[0].split()) #forming the url'
p2941
sI62
S'    fst_l=[]'
p2942
sI63
S'    ret1=[]'
p2943
ssg2884
S'()'
p2944
sg2886
S'final_ans'
p2945
sa(dp2946
g2863
S'/home/maneesha/Downloads/web2py/applications/cite_mf/controllers/default.py'
p2947
sg2865
(dp2948
S'url'
p2949
S"'http://dl.acm.org/results.cfm?h=1&query=database+design'"
p2950
sS'html'
p2951
g2908
sS'global fetch'
p2952
S'<function fetch>'
p2953
ssg2871
I28
sg2872
(dp2954
I32
S"    k=html_splitted[0].split('>')"
p2955
sI23
S"        response.flash = 'Login successful'"
p2956
sI24
S"        redirect(URL('final_ans'))"
p2957
sI25
S'    return dict(form=form)'
p2958
sI26
S'def extract1(url,l1): #extracts the top_result urls from the first page'
p2959
sI27
S'    ret=[]'
p2960
sI28
S'    html=fetch(url) #fetches the html page of the given url ans stores it in a string html'
p2961
sI29
S'    html_splitted=html.split("<A HREF=\\"citation.cfm") #splitting the fetched string'
p2962
sI30
S'    ht=html_splitted[0]'
p2963
sI31
S'    del html_splitted[0]'
p2964
ssg2884
S"(url='http://dl.acm.org/results.cfm?h=1&query=database+design', l1=['database design', 3, 3, True, True, True])"
p2965
sg2886
S'extract1'
p2966
sa(dp2967
g2863
S'/home/maneesha/Downloads/web2py/gluon/tools.py'
p2968
sg2865
(dp2969
S'urllib2.urlopen'
p2970
S'<function urlopen>'
p2971
sS'global urllib2'
p2972
S"<module 'urllib2' from '/usr/lib/python2.7/urllib2.pyc'>"
p2973
sS'html'
p2974
g2908
sS'req'
p2975
S'<urllib2.Request instance>'
p2976
sS').read'
p2977
g2908
ssg2871
I3424
sg2872
(dp2978
I3424
S'        html = urllib2.urlopen(req).read()'
p2979
sI3425
S'    else:'
p2980
sI3426
S'        method = ((data is None) and urlfetch.GET) or urlfetch.POST'
p2981
sI3427
S'        while url is not None:'
p2982
sI3428
S'            response = urlfetch.fetch(url=url, payload=data,'
p2983
sI3419
S"    headers['Cookie'] = ' '.join(['%s=%s;'%(c.key,c.value) for c in cookie.values()])"
p2984
sI3420
S'    try:'
p2985
sI3421
S'        from google.appengine.api import urlfetch'
p2986
sI3422
S'    except ImportError:'
p2987
sI3423
S'        req = urllib2.Request(url, data, headers)'
p2988
ssg2884
S"(url='http://dl.acm.org/results.cfm?h=1&query=database+design', data=None, headers={'Cookie': '', 'User-agent': 'Mozilla/5.0'}, cookie=<SimpleCookie: >, user_agent='Mozilla/5.0')"
p2989
sg2886
S'fetch'
p2990
sa(dp2991
g2863
S'/usr/lib/python2.7/urllib2.py'
p2992
sg2865
(dp2993
S'_opener.open'
p2994
S'<bound method OpenerDirector.open of <urllib2.OpenerDirector instance>>'
p2995
sS'url'
p2996
S'<urllib2.Request instance>'
p2997
sS'data'
p2998
S'None'
p2999
sS'global _opener'
p3000
S'<urllib2.OpenerDirector instance>'
p3001
sS'timeout'
p3002
S'<object object>'
p3003
ssg2871
I126
sg2872
(dp3004
I128
S'def install_opener(opener):'
p3005
sI129
S'    global _opener'
p3006
sI130
S'    _opener = opener'
p3007
sI121
S'_opener = None'
p3008
sI122
S'def urlopen(url, data=None, timeout=socket._GLOBAL_DEFAULT_TIMEOUT):'
p3009
sI123
S'    global _opener'
p3010
sI124
S'    if _opener is None:'
p3011
sI125
S'        _opener = build_opener()'
p3012
sI126
S'    return _opener.open(url, data, timeout)'
p3013
sI127
S''
ssg2884
S'(url=<urllib2.Request instance>, data=None, timeout=<object object>)'
p3014
sg2886
S'urlopen'
p3015
sa(dp3016
g2863
S'/usr/lib/python2.7/urllib2.py'
p3017
sg2865
(dp3018
S'meth'
p3019
S'<bound method HTTPErrorProcessor.http_response of <urllib2.HTTPErrorProcessor instance>>'
p3020
sS'req'
p3021
S'<urllib2.Request instance>'
p3022
sS'response'
p3023
S'<addinfourl at 139642004726776 whose fp = <socket._fileobject object>>'
p3024
ssg2871
I406
sg2872
(dp3025
I401
S''
sI402
S'        # post-process response'
p3026
sI403
S'        meth_name = protocol+"_response"'
p3027
sI404
S'        for processor in self.process_response.get(protocol, []):'
p3028
sI405
S'            meth = getattr(processor, meth_name)'
p3029
sI406
S'            response = meth(req, response)'
p3030
sI407
S''
sI408
S'        return response'
p3031
sI409
S''
sI410
S'    def _open(self, req, data=None):'
p3032
ssg2884
S'(self=<urllib2.OpenerDirector instance>, fullurl=<urllib2.Request instance>, data=None, timeout=<object object>)'
p3033
sg2886
S'open'
p3034
sa(dp3035
g2863
S'/usr/lib/python2.7/urllib2.py'
p3036
sg2865
(dp3037
S'msg'
p3038
S"'Gateway Time-out'"
p3039
sS'code'
p3040
S'504'
p3041
sS'request'
p3042
S'<urllib2.Request instance>'
p3043
sS'response'
p3044
S'<addinfourl at 139642004726776 whose fp = <socket._fileobject object>>'
p3045
sS'hdrs'
p3046
S'<httplib.HTTPMessage instance>'
p3047
ssg2871
I519
sg2872
(dp3048
I514
S''
sI515
S'        # According to RFC 2616, "2xx" code indicates that the client\'s'
p3049
sI516
S'        # request was successfully received, understood, and accepted.'
p3050
sI517
S'        if not (200 <= code < 300):'
p3051
sI518
S'            response = self.parent.error('
p3052
sI519
S"                'http', request, response, code, msg, hdrs)"
p3053
sI520
S''
sI521
S'        return response'
p3054
sI522
S''
sI523
S'    https_response = http_response'
p3055
ssg2884
S'(self=<urllib2.HTTPErrorProcessor instance>, request=<urllib2.Request instance>, response=<addinfourl at 139642004726776 whose fp = <socket._fileobject object>>)'
p3056
sg2886
S'http_response'
p3057
sa(dp3058
g2863
S'/usr/lib/python2.7/urllib2.py'
p3059
sg2865
(dp3060
S'self._call_chain'
p3061
S'<bound method OpenerDirector._call_chain of <urllib2.OpenerDirector instance>>'
p3062
sS'self'
p3063
S'<urllib2.OpenerDirector instance>'
p3064
sS'args'
p3065
S"({301: [<urllib2.HTTPRedirectHandler instance>], 302: [<urllib2.HTTPRedirectHandler instance>], 303: [<urllib2.HTTPRedirectHandler instance>], 307: [<urllib2.HTTPRedirectHandler instance>], 'default': [<urllib2.HTTPDefaultErrorHandler instance>]}, 'default', 'http_error_default', <urllib2.Request instance>, <addinfourl at 139642004726776 whose fp = <socket._fileobject object>>, 504, 'Gateway Time-out', <httplib.HTTPMessage instance>)"
p3066
ssg2871
I444
sg2872
(dp3067
I448
S'# make sense to include both'
p3068
sI439
S'        if result:'
p3069
sI440
S'            return result'
p3070
sI441
S''
sI442
S'        if http_err:'
p3071
sI443
S"            args = (dict, 'default', 'http_error_default') + orig_args"
p3072
sI444
S'            return self._call_chain(*args)'
p3073
sI445
S''
sI446
S'# XXX probably also want an abstract factory that knows when it makes'
p3074
sI447
S'# sense to skip a superclass in favor of a subclass and when it might'
p3075
ssg2884
S"(self=<urllib2.OpenerDirector instance>, proto=504, *args=({301: [<urllib2.HTTPRedirectHandler instance>], 302: [<urllib2.HTTPRedirectHandler instance>], 303: [<urllib2.HTTPRedirectHandler instance>], 307: [<urllib2.HTTPRedirectHandler instance>], 'default': [<urllib2.HTTPDefaultErrorHandler instance>]}, 'default', 'http_error_default', <urllib2.Request instance>, <addinfourl at 139642004726776 whose fp = <socket._fileobject object>>, 504, 'Gateway Time-out', <httplib.HTTPMessage instance>))"
p3076
sg2886
S'error'
p3077
sa(dp3078
g2863
S'/usr/lib/python2.7/urllib2.py'
p3079
sg2865
(dp3080
S'args'
p3081
S"(<urllib2.Request instance>, <addinfourl at 139642004726776 whose fp = <socket._fileobject object>>, 504, 'Gateway Time-out', <httplib.HTTPMessage instance>)"
p3082
sS'result'
p3083
g2908
sS'func'
p3084
S'<bound method HTTPDefaultErrorHandler.http_error...lt of <urllib2.HTTPDefaultErrorHandler instance>>'
p3085
ssg2871
I378
sg2872
(dp3086
I373
S'        # could.  Otherwise, they return the response.'
p3087
sI374
S'        handlers = chain.get(kind, ())'
p3088
sI375
S'        for handler in handlers:'
p3089
sI376
S'            func = getattr(handler, meth_name)'
p3090
sI377
S''
sI378
S'            result = func(*args)'
p3091
sI379
S'            if result is not None:'
p3092
sI380
S'                return result'
p3093
sI381
S''
sI382
S'    def open(self, fullurl, data=None, timeout=socket._GLOBAL_DEFAULT_TIMEOUT):'
p3094
ssg2884
S"(self=<urllib2.OpenerDirector instance>, chain={301: [<urllib2.HTTPRedirectHandler instance>], 302: [<urllib2.HTTPRedirectHandler instance>], 303: [<urllib2.HTTPRedirectHandler instance>], 307: [<urllib2.HTTPRedirectHandler instance>], 'default': [<urllib2.HTTPDefaultErrorHandler instance>]}, kind='default', meth_name='http_error_default', *args=(<urllib2.Request instance>, <addinfourl at 139642004726776 whose fp = <socket._fileobject object>>, 504, 'Gateway Time-out', <httplib.HTTPMessage instance>))"
p3095
sg2886
S'_call_chain'
p3096
sa(dp3097
g2863
S'/usr/lib/python2.7/urllib2.py'
p3098
sg2865
(dp3099
S'fp'
p3100
S'<addinfourl at 139642004726776 whose fp = <socket._fileobject object>>'
p3101
sS'code'
p3102
S'504'
p3103
sS'hdrs'
p3104
S'<httplib.HTTPMessage instance>'
p3105
sS'req'
p3106
S'<urllib2.Request instance>'
p3107
sS'req.get_full_url'
p3108
S'<bound method Request.get_full_url of <urllib2.Request instance>>'
p3109
sS'msg'
p3110
S"'Gateway Time-out'"
p3111
sS'global HTTPError'
p3112
S"<class 'urllib2.HTTPError'>"
p3113
ssg2871
I527
sg2872
(dp3114
I522
S''
sI523
S'    https_response = http_response'
p3115
sI524
S''
sI525
S'class HTTPDefaultErrorHandler(BaseHandler):'
p3116
sI526
S'    def http_error_default(self, req, fp, code, msg, hdrs):'
p3117
sI527
S'        raise HTTPError(req.get_full_url(), code, msg, hdrs, fp)'
p3118
sI528
S''
sI529
S'class HTTPRedirectHandler(BaseHandler):'
p3119
sI530
S'    # maximum number of redirections to any single URL'
p3120
sI531
S'    # this is needed because of the state that cookies introduce'
p3121
ssg2884
S"(self=<urllib2.HTTPDefaultErrorHandler instance>, req=<urllib2.Request instance>, fp=<addinfourl at 139642004726776 whose fp = <socket._fileobject object>>, code=504, msg='Gateway Time-out', hdrs=<httplib.HTTPMessage instance>)"
p3122
sg2886
S'http_error_default'
p3123
sasS'pyver'
p3124
S'Python 2.7.3: /usr/bin/python'
p3125
sS'session'
p3126
g102
(g103
g104
NtRp3127
(dp3128
g107
(dp3129
sg109
(lp3130
g102
(g111
g104
NtRp3131
(dp3132
g107
(dp3133
g115
I5
ssg116
Nsg109
(lp3134
g102
(g118
g104
NtRp3135
(dp3136
g107
(dp3137
sg116
g3131
sg109
(lp3138
g102
(g123
g104
NtRp3139
(dp3140
g107
(dp3141
g127
g128
ssg116
g3135
sg109
(lp3142
S'auth'
p3143
asbag102
(g123
g104
NtRp3144
(dp3145
g107
(dp3146
g134
g135
ssg116
g3135
sg109
(lp3147
S':'
asbag102
(g123
g104
NtRp3148
(dp3149
g107
(dp3150
sg116
g3135
sg109
(lp3151
g102
(g103
g104
NtRp3152
(dp3153
g107
(dp3154
g115
I5
ssg116
g3148
sg109
(lp3155
g102
(g111
g104
NtRp3156
(dp3157
g107
(dp3158
g115
I4
ssg116
Nsg109
(lp3159
g102
(g118
g104
NtRp3160
(dp3161
g107
(dp3162
sg116
g3156
sg109
(lp3163
g102
(g123
g104
NtRp3164
(dp3165
g107
(dp3166
g127
g128
ssg116
g3160
sg109
(lp3167
S'expiration'
p3168
asbag102
(g123
g104
NtRp3169
(dp3170
g107
(dp3171
g134
g135
ssg116
g3160
sg109
(lp3172
S':'
asbag102
(g123
g104
NtRp3173
(dp3174
g107
(dp3175
sg116
g3160
sg109
(lp3176
g102
(g103
g104
NtRp3177
(dp3178
g107
(dp3179
g115
I4
ssg116
g3173
sg109
(lp3180
S'3600'
p3181
asbasbasbag102
(g118
g104
NtRp3182
(dp3183
g107
(dp3184
sg116
g3156
sg109
(lp3185
g102
(g123
g104
NtRp3186
(dp3187
g107
(dp3188
g127
g128
ssg116
g3182
sg109
(lp3189
S'hmac_key'
p3190
asbag102
(g123
g104
NtRp3191
(dp3192
g107
(dp3193
g134
g135
ssg116
g3182
sg109
(lp3194
S':'
asbag102
(g123
g104
NtRp3195
(dp3196
g107
(dp3197
sg116
g3182
sg109
(lp3198
g102
(g103
g104
NtRp3199
(dp3200
g107
(dp3201
g115
I4
ssg116
g3195
sg109
(lp3202
S'a80a4b38-7e48-4189-bf81-9d1c438869e3'
p3203
asbasbasbag102
(g118
g104
NtRp3204
(dp3205
g107
(dp3206
sg116
g3156
sg109
(lp3207
g102
(g123
g104
NtRp3208
(dp3209
g107
(dp3210
g127
g128
ssg116
g3204
sg109
(lp3211
S'last_visit'
p3212
asbag102
(g123
g104
NtRp3213
(dp3214
g107
(dp3215
g134
g135
ssg116
g3204
sg109
(lp3216
S':'
asbag102
(g123
g104
NtRp3217
(dp3218
g107
(dp3219
sg116
g3204
sg109
(lp3220
g102
(g103
g104
NtRp3221
(dp3222
g107
(dp3223
g115
I4
ssg116
g3217
sg109
(lp3224
S'datetime.datetime(2012, 11, 15, 21, 59, 0, 331664)'
p3225
asbasbasbag102
(g118
g104
NtRp3226
(dp3227
g107
(dp3228
sg116
g3156
sg109
(lp3229
g102
(g123
g104
NtRp3230
(dp3231
g107
(dp3232
g127
g128
ssg116
g3226
sg109
(lp3233
S'remember'
p3234
asbag102
(g123
g104
NtRp3235
(dp3236
g107
(dp3237
g134
g135
ssg116
g3226
sg109
(lp3238
S':'
asbag102
(g123
g104
NtRp3239
(dp3240
g107
(dp3241
sg116
g3226
sg109
(lp3242
g102
(g103
g104
NtRp3243
(dp3244
g107
(dp3245
g115
I4
ssg116
g3239
sg109
(lp3246
g145
asbasbasbag102
(g118
g104
NtRp3247
(dp3248
g107
(dp3249
sg116
g3156
sg109
(lp3250
g102
(g123
g104
NtRp3251
(dp3252
g107
(dp3253
g127
g128
ssg116
g3247
sg109
(lp3254
S'user'
p3255
asbag102
(g123
g104
NtRp3256
(dp3257
g107
(dp3258
g134
g135
ssg116
g3247
sg109
(lp3259
S':'
asbag102
(g123
g104
NtRp3260
(dp3261
g107
(dp3262
sg116
g3247
sg109
(lp3263
g102
(g103
g104
NtRp3264
(dp3265
g107
(dp3266
g115
I4
ssg116
g3260
sg109
(lp3267
g102
(g111
g104
NtRp3268
(dp3269
g107
(dp3270
g115
I3
ssg116
Nsg109
(lp3271
g102
(g118
g104
NtRp3272
(dp3273
g107
(dp3274
sg116
g3268
sg109
(lp3275
g102
(g123
g104
NtRp3276
(dp3277
g107
(dp3278
g127
g128
ssg116
g3272
sg109
(lp3279
S'created_on'
p3280
asbag102
(g123
g104
NtRp3281
(dp3282
g107
(dp3283
g134
g135
ssg116
g3272
sg109
(lp3284
S':'
asbag102
(g123
g104
NtRp3285
(dp3286
g107
(dp3287
sg116
g3272
sg109
(lp3288
g102
(g103
g104
NtRp3289
(dp3290
g107
(dp3291
g115
I3
ssg116
g3285
sg109
(lp3292
S'datetime.datetime(2012, 10, 23, 2, 28, 41)'
p3293
asbasbasbag102
(g118
g104
NtRp3294
(dp3295
g107
(dp3296
sg116
g3268
sg109
(lp3297
g102
(g123
g104
NtRp3298
(dp3299
g107
(dp3300
g127
g128
ssg116
g3294
sg109
(lp3301
S'email'
p3302
asbag102
(g123
g104
NtRp3303
(dp3304
g107
(dp3305
g134
g135
ssg116
g3294
sg109
(lp3306
S':'
asbag102
(g123
g104
NtRp3307
(dp3308
g107
(dp3309
sg116
g3294
sg109
(lp3310
g102
(g103
g104
NtRp3311
(dp3312
g107
(dp3313
g115
I3
ssg116
g3307
sg109
(lp3314
S'chitra.khatwani@students.iiit.ac.in'
p3315
asbasbasbag102
(g118
g104
NtRp3316
(dp3317
g107
(dp3318
sg116
g3268
sg109
(lp3319
g102
(g123
g104
NtRp3320
(dp3321
g107
(dp3322
g127
g128
ssg116
g3316
sg109
(lp3323
S'first_name'
p3324
asbag102
(g123
g104
NtRp3325
(dp3326
g107
(dp3327
g134
g135
ssg116
g3316
sg109
(lp3328
S':'
asbag102
(g123
g104
NtRp3329
(dp3330
g107
(dp3331
sg116
g3316
sg109
(lp3332
g102
(g103
g104
NtRp3333
(dp3334
g107
(dp3335
g115
I3
ssg116
g3329
sg109
(lp3336
S'manu'
p3337
asbasbasbag102
(g118
g104
NtRp3338
(dp3339
g107
(dp3340
sg116
g3268
sg109
(lp3341
g102
(g123
g104
NtRp3342
(dp3343
g107
(dp3344
g127
g128
ssg116
g3338
sg109
(lp3345
S'id'
p3346
asbag102
(g123
g104
NtRp3347
(dp3348
g107
(dp3349
g134
g135
ssg116
g3338
sg109
(lp3350
S':'
asbag102
(g123
g104
NtRp3351
(dp3352
g107
(dp3353
sg116
g3338
sg109
(lp3354
g102
(g103
g104
NtRp3355
(dp3356
g107
(dp3357
g115
I3
ssg116
g3351
sg109
(lp3358
S'11'
p3359
asbasbasbag102
(g118
g104
NtRp3360
(dp3361
g107
(dp3362
sg116
g3268
sg109
(lp3363
g102
(g123
g104
NtRp3364
(dp3365
g107
(dp3366
g127
g128
ssg116
g3360
sg109
(lp3367
S'last_name'
p3368
asbag102
(g123
g104
NtRp3369
(dp3370
g107
(dp3371
g134
g135
ssg116
g3360
sg109
(lp3372
S':'
asbag102
(g123
g104
NtRp3373
(dp3374
g107
(dp3375
sg116
g3360
sg109
(lp3376
g102
(g103
g104
NtRp3377
(dp3378
g107
(dp3379
g115
I3
ssg116
g3373
sg109
(lp3380
S'p'
asbasbasbag102
(g118
g104
NtRp3381
(dp3382
g107
(dp3383
sg116
g3268
sg109
(lp3384
g102
(g123
g104
NtRp3385
(dp3386
g107
(dp3387
g127
g128
ssg116
g3381
sg109
(lp3388
S'modified_on'
p3389
asbag102
(g123
g104
NtRp3390
(dp3391
g107
(dp3392
g134
g135
ssg116
g3381
sg109
(lp3393
S':'
asbag102
(g123
g104
NtRp3394
(dp3395
g107
(dp3396
sg116
g3381
sg109
(lp3397
g102
(g103
g104
NtRp3398
(dp3399
g107
(dp3400
g115
I3
ssg116
g3394
sg109
(lp3401
S'datetime.datetime(2012, 11, 15, 21, 54, 14)'
p3402
asbasbasbag102
(g118
g104
NtRp3403
(dp3404
g107
(dp3405
sg116
g3268
sg109
(lp3406
g102
(g123
g104
NtRp3407
(dp3408
g107
(dp3409
g127
g128
ssg116
g3403
sg109
(lp3410
S'password'
p3411
asbag102
(g123
g104
NtRp3412
(dp3413
g107
(dp3414
g134
g135
ssg116
g3403
sg109
(lp3415
S':'
asbag102
(g123
g104
NtRp3416
(dp3417
g107
(dp3418
sg116
g3403
sg109
(lp3419
g102
(g103
g104
NtRp3420
(dp3421
g107
(dp3422
g115
I3
ssg116
g3416
sg109
(lp3423
S'32371e3190f8e63e16755b2e6bf663a2'
p3424
asbasbasbag102
(g118
g104
NtRp3425
(dp3426
g107
(dp3427
sg116
g3268
sg109
(lp3428
g102
(g123
g104
NtRp3429
(dp3430
g107
(dp3431
g127
g128
ssg116
g3425
sg109
(lp3432
S'registration_id'
p3433
asbag102
(g123
g104
NtRp3434
(dp3435
g107
(dp3436
g134
g135
ssg116
g3425
sg109
(lp3437
S':'
asbag102
(g123
g104
NtRp3438
(dp3439
g107
(dp3440
sg116
g3425
sg109
(lp3441
g102
(g103
g104
NtRp3442
(dp3443
g107
(dp3444
g115
I3
ssg116
g3438
sg109
(lp3445
S''
asbasbasbag102
(g118
g104
NtRp3446
(dp3447
g107
(dp3448
sg116
g3268
sg109
(lp3449
g102
(g123
g104
NtRp3450
(dp3451
g107
(dp3452
g127
g128
ssg116
g3446
sg109
(lp3453
S'registration_key'
p3454
asbag102
(g123
g104
NtRp3455
(dp3456
g107
(dp3457
g134
g135
ssg116
g3446
sg109
(lp3458
S':'
asbag102
(g123
g104
NtRp3459
(dp3460
g107
(dp3461
sg116
g3446
sg109
(lp3462
g102
(g103
g104
NtRp3463
(dp3464
g107
(dp3465
g115
I3
ssg116
g3459
sg109
(lp3466
S''
asbasbasbag102
(g118
g104
NtRp3467
(dp3468
g107
(dp3469
sg116
g3268
sg109
(lp3470
g102
(g123
g104
NtRp3471
(dp3472
g107
(dp3473
g127
g128
ssg116
g3467
sg109
(lp3474
S'reset_password_key'
p3475
asbag102
(g123
g104
NtRp3476
(dp3477
g107
(dp3478
g134
g135
ssg116
g3467
sg109
(lp3479
S':'
asbag102
(g123
g104
NtRp3480
(dp3481
g107
(dp3482
sg116
g3467
sg109
(lp3483
g102
(g103
g104
NtRp3484
(dp3485
g107
(dp3486
g115
I3
ssg116
g3480
sg109
(lp3487
S''
asbasbasbag102
(g118
g104
NtRp3488
(dp3489
g107
(dp3490
sg116
g3268
sg109
(lp3491
g102
(g123
g104
NtRp3492
(dp3493
g107
(dp3494
g127
g128
ssg116
g3488
sg109
(lp3495
S'username'
p3496
asbag102
(g123
g104
NtRp3497
(dp3498
g107
(dp3499
g134
g135
ssg116
g3488
sg109
(lp3500
S':'
asbag102
(g123
g104
NtRp3501
(dp3502
g107
(dp3503
sg116
g3488
sg109
(lp3504
g102
(g103
g104
NtRp3505
(dp3506
g107
(dp3507
g115
I3
ssg116
g3501
sg109
(lp3508
S'manu1'
p3509
asbasbasbasbasbasbasbag102
(g118
g104
NtRp3510
(dp3511
g107
(dp3512
sg116
g3156
sg109
(lp3513
g102
(g123
g104
NtRp3514
(dp3515
g107
(dp3516
g127
g128
ssg116
g3510
sg109
(lp3517
S'user_groups'
p3518
asbag102
(g123
g104
NtRp3519
(dp3520
g107
(dp3521
g134
g135
ssg116
g3510
sg109
(lp3522
S':'
asbag102
(g123
g104
NtRp3523
(dp3524
g107
(dp3525
sg116
g3510
sg109
(lp3526
g102
(g103
g104
NtRp3527
(dp3528
g107
(dp3529
g115
I4
ssg116
g3523
sg109
(lp3530
g102
(g111
g104
NtRp3531
(dp3532
g107
(dp3533
g115
I3
ssg116
Nsg109
(lp3534
g102
(g118
g104
NtRp3535
(dp3536
g107
(dp3537
sg116
g3531
sg109
(lp3538
g102
(g123
g104
NtRp3539
(dp3540
g107
(dp3541
g127
g128
ssg116
g3535
sg109
(lp3542
S'1'
asbag102
(g123
g104
NtRp3543
(dp3544
g107
(dp3545
g134
g135
ssg116
g3535
sg109
(lp3546
S':'
asbag102
(g123
g104
NtRp3547
(dp3548
g107
(dp3549
sg116
g3535
sg109
(lp3550
g102
(g103
g104
NtRp3551
(dp3552
g107
(dp3553
g115
I3
ssg116
g3547
sg109
(lp3554
S'user_11'
p3555
asbasbasbasbasbasbasbasbasbasbasbasbasbsS'etype'
p3556
S"<class 'urllib2.HTTPError'>"
p3557
sS'date'
p3558
S'Thu Nov 15 22:06:08 2012'
p3559
sS'response'
p3560
g102
(g103
g104
NtRp3561
(dp3562
g107
(dp3563
sg109
(lp3564
g102
(g111
g104
NtRp3565
(dp3566
g107
(dp3567
g115
I5
ssg116
Nsg109
(lp3568
g102
(g118
g104
NtRp3569
(dp3570
g107
(dp3571
sg116
g3565
sg109
(lp3572
g102
(g123
g104
NtRp3573
(dp3574
g107
(dp3575
g127
g128
ssg116
g3569
sg109
(lp3576
g200
asbag102
(g123
g104
NtRp3577
(dp3578
g107
(dp3579
g134
g135
ssg116
g3569
sg109
(lp3580
S':'
asbag102
(g123
g104
NtRp3581
(dp3582
g107
(dp3583
sg116
g3569
sg109
(lp3584
g102
(g103
g104
NtRp3585
(dp3586
g107
(dp3587
g115
I5
ssg116
g3581
sg109
(lp3588
S'<cStringIO.StringO object at 0x7f00e0207d18>'
p3589
asbasbasbag102
(g118
g104
NtRp3590
(dp3591
g107
(dp3592
sg116
g3565
sg109
(lp3593
g102
(g123
g104
NtRp3594
(dp3595
g107
(dp3596
g127
g128
ssg116
g3590
sg109
(lp3597
g266
asbag102
(g123
g104
NtRp3598
(dp3599
g107
(dp3600
g134
g135
ssg116
g3590
sg109
(lp3601
S':'
asbag102
(g123
g104
NtRp3602
(dp3603
g107
(dp3604
sg116
g3590
sg109
(lp3605
g102
(g103
g104
NtRp3606
(dp3607
g107
(dp3608
g115
I5
ssg116
g3602
sg109
(lp3609
g102
(g111
g104
NtRp3610
(dp3611
g107
(dp3612
g115
I4
ssg116
Nsg109
(lp3613
g102
(g118
g104
NtRp3614
(dp3615
g107
(dp3616
sg116
g3610
sg109
(lp3617
g102
(g123
g104
NtRp3618
(dp3619
g107
(dp3620
g127
g128
ssg116
g3614
sg109
(lp3621
S'session_id_cite_mf'
p3622
asbag102
(g123
g104
NtRp3623
(dp3624
g107
(dp3625
g134
g135
ssg116
g3614
sg109
(lp3626
S':'
asbag102
(g123
g104
NtRp3627
(dp3628
g107
(dp3629
sg116
g3614
sg109
(lp3630
g102
(g103
g104
NtRp3631
(dp3632
g107
(dp3633
g115
I4
ssg116
g3627
sg109
(lp3634
g102
(g111
g104
NtRp3635
(dp3636
g107
(dp3637
g115
I3
ssg116
Nsg109
(lp3638
g102
(g118
g104
NtRp3639
(dp3640
g107
(dp3641
sg116
g3635
sg109
(lp3642
g102
(g123
g104
NtRp3643
(dp3644
g107
(dp3645
g127
g128
ssg116
g3639
sg109
(lp3646
g316
asbag102
(g123
g104
NtRp3647
(dp3648
g107
(dp3649
g134
g135
ssg116
g3639
sg109
(lp3650
S':'
asbag102
(g123
g104
NtRp3651
(dp3652
g107
(dp3653
sg116
g3639
sg109
(lp3654
g102
(g103
g104
NtRp3655
(dp3656
g107
(dp3657
g115
I3
ssg116
g3651
sg109
(lp3658
S''
asbasbasbag102
(g118
g104
NtRp3659
(dp3660
g107
(dp3661
sg116
g3635
sg109
(lp3662
g102
(g123
g104
NtRp3663
(dp3664
g107
(dp3665
g127
g128
ssg116
g3659
sg109
(lp3666
g337
asbag102
(g123
g104
NtRp3667
(dp3668
g107
(dp3669
g134
g135
ssg116
g3659
sg109
(lp3670
S':'
asbag102
(g123
g104
NtRp3671
(dp3672
g107
(dp3673
sg116
g3659
sg109
(lp3674
g102
(g103
g104
NtRp3675
(dp3676
g107
(dp3677
g115
I3
ssg116
g3671
sg109
(lp3678
S''
asbasbasbag102
(g118
g104
NtRp3679
(dp3680
g107
(dp3681
sg116
g3635
sg109
(lp3682
g102
(g123
g104
NtRp3683
(dp3684
g107
(dp3685
g127
g128
ssg116
g3679
sg109
(lp3686
g358
asbag102
(g123
g104
NtRp3687
(dp3688
g107
(dp3689
g134
g135
ssg116
g3679
sg109
(lp3690
S':'
asbag102
(g123
g104
NtRp3691
(dp3692
g107
(dp3693
sg116
g3679
sg109
(lp3694
g102
(g103
g104
NtRp3695
(dp3696
g107
(dp3697
g115
I3
ssg116
g3691
sg109
(lp3698
S''
asbasbasbag102
(g118
g104
NtRp3699
(dp3700
g107
(dp3701
sg116
g3635
sg109
(lp3702
g102
(g123
g104
NtRp3703
(dp3704
g107
(dp3705
g127
g128
ssg116
g3699
sg109
(lp3706
g379
asbag102
(g123
g104
NtRp3707
(dp3708
g107
(dp3709
g134
g135
ssg116
g3699
sg109
(lp3710
S':'
asbag102
(g123
g104
NtRp3711
(dp3712
g107
(dp3713
sg116
g3699
sg109
(lp3714
g102
(g103
g104
NtRp3715
(dp3716
g107
(dp3717
g115
I3
ssg116
g3711
sg109
(lp3718
S''
asbasbasbag102
(g118
g104
NtRp3719
(dp3720
g107
(dp3721
sg116
g3635
sg109
(lp3722
g102
(g123
g104
NtRp3723
(dp3724
g107
(dp3725
g127
g128
ssg116
g3719
sg109
(lp3726
g400
asbag102
(g123
g104
NtRp3727
(dp3728
g107
(dp3729
g134
g135
ssg116
g3719
sg109
(lp3730
S':'
asbag102
(g123
g104
NtRp3731
(dp3732
g107
(dp3733
sg116
g3719
sg109
(lp3734
g102
(g103
g104
NtRp3735
(dp3736
g107
(dp3737
g115
I3
ssg116
g3731
sg109
(lp3738
S''
asbasbasbag102
(g118
g104
NtRp3739
(dp3740
g107
(dp3741
sg116
g3635
sg109
(lp3742
g102
(g123
g104
NtRp3743
(dp3744
g107
(dp3745
g127
g128
ssg116
g3739
sg109
(lp3746
g421
asbag102
(g123
g104
NtRp3747
(dp3748
g107
(dp3749
g134
g135
ssg116
g3739
sg109
(lp3750
S':'
asbag102
(g123
g104
NtRp3751
(dp3752
g107
(dp3753
sg116
g3739
sg109
(lp3754
g102
(g103
g104
NtRp3755
(dp3756
g107
(dp3757
g115
I3
ssg116
g3751
sg109
(lp3758
S'/'
asbasbasbag102
(g118
g104
NtRp3759
(dp3760
g107
(dp3761
sg116
g3635
sg109
(lp3762
g102
(g123
g104
NtRp3763
(dp3764
g107
(dp3765
g127
g128
ssg116
g3759
sg109
(lp3766
g442
asbag102
(g123
g104
NtRp3767
(dp3768
g107
(dp3769
g134
g135
ssg116
g3759
sg109
(lp3770
S':'
asbag102
(g123
g104
NtRp3771
(dp3772
g107
(dp3773
sg116
g3759
sg109
(lp3774
g102
(g103
g104
NtRp3775
(dp3776
g107
(dp3777
g115
I3
ssg116
g3771
sg109
(lp3778
S''
asbasbasbag102
(g118
g104
NtRp3779
(dp3780
g107
(dp3781
sg116
g3635
sg109
(lp3782
g102
(g123
g104
NtRp3783
(dp3784
g107
(dp3785
g127
g128
ssg116
g3779
sg109
(lp3786
g463
asbag102
(g123
g104
NtRp3787
(dp3788
g107
(dp3789
g134
g135
ssg116
g3779
sg109
(lp3790
S':'
asbag102
(g123
g104
NtRp3791
(dp3792
g107
(dp3793
sg116
g3779
sg109
(lp3794
g102
(g103
g104
NtRp3795
(dp3796
g107
(dp3797
g115
I3
ssg116
g3791
sg109
(lp3798
S''
asbasbasbasbasbasbasbasbasbasbasbag102
(g118
g104
NtRp3799
(dp3800
g107
(dp3801
sg116
g3565
sg109
(lp3802
g102
(g123
g104
NtRp3803
(dp3804
g107
(dp3805
g127
g128
ssg116
g3799
sg109
(lp3806
S'delimiters'
p3807
asbag102
(g123
g104
NtRp3808
(dp3809
g107
(dp3810
g134
g135
ssg116
g3799
sg109
(lp3811
S':'
asbag102
(g123
g104
NtRp3812
(dp3813
g107
(dp3814
sg116
g3799
sg109
(lp3815
g102
(g103
g104
NtRp3816
(dp3817
g107
(dp3818
g115
I5
ssg116
g3812
sg109
(lp3819
g102
(g111
g104
NtRp3820
(dp3821
g107
(dp3822
g115
I4
ssg116
Nsg109
(lp3823
g102
(g118
g104
NtRp3824
(dp3825
g107
(dp3826
sg116
g3820
sg109
(lp3827
g102
(g123
g104
NtRp3828
(dp3829
g107
(dp3830
sg116
g3824
sg109
(lp3831
g102
(g103
g104
NtRp3832
(dp3833
g107
(dp3834
g115
I4
ssg116
g3828
sg109
(lp3835
S'{{'
p3836
asbasbasbag102
(g118
g104
NtRp3837
(dp3838
g107
(dp3839
sg116
g3820
sg109
(lp3840
g102
(g123
g104
NtRp3841
(dp3842
g107
(dp3843
sg116
g3837
sg109
(lp3844
g102
(g103
g104
NtRp3845
(dp3846
g107
(dp3847
g115
I4
ssg116
g3841
sg109
(lp3848
S'}}'
p3849
asbasbasbasbasbasbasbag102
(g118
g104
NtRp3850
(dp3851
g107
(dp3852
sg116
g3565
sg109
(lp3853
g102
(g123
g104
NtRp3854
(dp3855
g107
(dp3856
g127
g128
ssg116
g3850
sg109
(lp3857
S'files'
p3858
asbag102
(g123
g104
NtRp3859
(dp3860
g107
(dp3861
g134
g135
ssg116
g3850
sg109
(lp3862
S':'
asbag102
(g123
g104
NtRp3863
(dp3864
g107
(dp3865
sg116
g3850
sg109
(lp3866
g102
(g103
g104
NtRp3867
(dp3868
g107
(dp3869
g115
I5
ssg116
g3863
sg109
(lp3870
g102
(g111
g104
NtRp3871
(dp3872
g107
(dp3873
g115
I4
ssg116
Nsg109
(lp3874
sbasbasbasbag102
(g118
g104
NtRp3875
(dp3876
g107
(dp3877
sg116
g3565
sg109
(lp3878
g102
(g123
g104
NtRp3879
(dp3880
g107
(dp3881
g127
g128
ssg116
g3875
sg109
(lp3882
S'flash'
p3883
asbag102
(g123
g104
NtRp3884
(dp3885
g107
(dp3886
g134
g135
ssg116
g3875
sg109
(lp3887
S':'
asbag102
(g123
g104
NtRp3888
(dp3889
g107
(dp3890
sg116
g3875
sg109
(lp3891
g102
(g103
g104
NtRp3892
(dp3893
g107
(dp3894
g115
I5
ssg116
g3888
sg109
(lp3895
S''
asbasbasbag102
(g118
g104
NtRp3896
(dp3897
g107
(dp3898
sg116
g3565
sg109
(lp3899
g102
(g123
g104
NtRp3900
(dp3901
g107
(dp3902
g127
g128
ssg116
g3896
sg109
(lp3903
S'generic_patterns'
p3904
asbag102
(g123
g104
NtRp3905
(dp3906
g107
(dp3907
g134
g135
ssg116
g3896
sg109
(lp3908
S':'
asbag102
(g123
g104
NtRp3909
(dp3910
g107
(dp3911
sg116
g3896
sg109
(lp3912
g102
(g103
g104
NtRp3913
(dp3914
g107
(dp3915
g115
I5
ssg116
g3909
sg109
(lp3916
g102
(g111
g104
NtRp3917
(dp3918
g107
(dp3919
g115
I4
ssg116
Nsg109
(lp3920
g102
(g118
g104
NtRp3921
(dp3922
g107
(dp3923
sg116
g3917
sg109
(lp3924
g102
(g123
g104
NtRp3925
(dp3926
g107
(dp3927
sg116
g3921
sg109
(lp3928
g102
(g103
g104
NtRp3929
(dp3930
g107
(dp3931
g115
I4
ssg116
g3925
sg109
(lp3932
S'*'
asbasbasbasbasbasbasbag102
(g118
g104
NtRp3933
(dp3934
g107
(dp3935
sg116
g3565
sg109
(lp3936
g102
(g123
g104
NtRp3937
(dp3938
g107
(dp3939
g127
g128
ssg116
g3933
sg109
(lp3940
g41
asbag102
(g123
g104
NtRp3941
(dp3942
g107
(dp3943
g134
g135
ssg116
g3933
sg109
(lp3944
S':'
asbag102
(g123
g104
NtRp3945
(dp3946
g107
(dp3947
sg116
g3933
sg109
(lp3948
g102
(g103
g104
NtRp3949
(dp3950
g107
(dp3951
g115
I5
ssg116
g3945
sg109
(lp3952
g102
(g111
g104
NtRp3953
(dp3954
g107
(dp3955
g115
I4
ssg116
Nsg109
(lp3956
g102
(g118
g104
NtRp3957
(dp3958
g107
(dp3959
sg116
g3953
sg109
(lp3960
g102
(g123
g104
NtRp3961
(dp3962
g107
(dp3963
g127
g128
ssg116
g3957
sg109
(lp3964
S'Cache-Control'
p3965
asbag102
(g123
g104
NtRp3966
(dp3967
g107
(dp3968
g134
g135
ssg116
g3957
sg109
(lp3969
S':'
asbag102
(g123
g104
NtRp3970
(dp3971
g107
(dp3972
sg116
g3957
sg109
(lp3973
g102
(g103
g104
NtRp3974
(dp3975
g107
(dp3976
g115
I4
ssg116
g3970
sg109
(lp3977
S'no-store, no-cache, must-revalidate, post-check=0, pre-check=0'
p3978
asbasbasbag102
(g118
g104
NtRp3979
(dp3980
g107
(dp3981
sg116
g3953
sg109
(lp3982
g102
(g123
g104
NtRp3983
(dp3984
g107
(dp3985
g127
g128
ssg116
g3979
sg109
(lp3986
S'Content-Type'
p3987
asbag102
(g123
g104
NtRp3988
(dp3989
g107
(dp3990
g134
g135
ssg116
g3979
sg109
(lp3991
S':'
asbag102
(g123
g104
NtRp3992
(dp3993
g107
(dp3994
sg116
g3979
sg109
(lp3995
g102
(g103
g104
NtRp3996
(dp3997
g107
(dp3998
g115
I4
ssg116
g3992
sg109
(lp3999
S'text/html; charset=utf-8'
p4000
asbasbasbag102
(g118
g104
NtRp4001
(dp4002
g107
(dp4003
sg116
g3953
sg109
(lp4004
g102
(g123
g104
NtRp4005
(dp4006
g107
(dp4007
g127
g128
ssg116
g4001
sg109
(lp4008
S'Expires'
p4009
asbag102
(g123
g104
NtRp4010
(dp4011
g107
(dp4012
g134
g135
ssg116
g4001
sg109
(lp4013
S':'
asbag102
(g123
g104
NtRp4014
(dp4015
g107
(dp4016
sg116
g4001
sg109
(lp4017
g102
(g103
g104
NtRp4018
(dp4019
g107
(dp4020
g115
I4
ssg116
g4014
sg109
(lp4021
S'Thu, 15 Nov 2012 16:32:57 GMT'
p4022
asbasbasbag102
(g118
g104
NtRp4023
(dp4024
g107
(dp4025
sg116
g3953
sg109
(lp4026
g102
(g123
g104
NtRp4027
(dp4028
g107
(dp4029
g127
g128
ssg116
g4023
sg109
(lp4030
S'Pragma'
p4031
asbag102
(g123
g104
NtRp4032
(dp4033
g107
(dp4034
g134
g135
ssg116
g4023
sg109
(lp4035
S':'
asbag102
(g123
g104
NtRp4036
(dp4037
g107
(dp4038
sg116
g4023
sg109
(lp4039
g102
(g103
g104
NtRp4040
(dp4041
g107
(dp4042
g115
I4
ssg116
g4036
sg109
(lp4043
S'no-cache'
p4044
asbasbasbag102
(g118
g104
NtRp4045
(dp4046
g107
(dp4047
sg116
g3953
sg109
(lp4048
g102
(g123
g104
NtRp4049
(dp4050
g107
(dp4051
g127
g128
ssg116
g4045
sg109
(lp4052
S'X-Powered-By'
p4053
asbag102
(g123
g104
NtRp4054
(dp4055
g107
(dp4056
g134
g135
ssg116
g4045
sg109
(lp4057
S':'
asbag102
(g123
g104
NtRp4058
(dp4059
g107
(dp4060
sg116
g4045
sg109
(lp4061
g102
(g103
g104
NtRp4062
(dp4063
g107
(dp4064
g115
I4
ssg116
g4058
sg109
(lp4065
S'web2py'
p4066
asbasbasbasbasbasbasbag102
(g118
g104
NtRp4067
(dp4068
g107
(dp4069
sg116
g3565
sg109
(lp4070
g102
(g123
g104
NtRp4071
(dp4072
g107
(dp4073
g127
g128
ssg116
g4067
sg109
(lp4074
S'menu'
p4075
asbag102
(g123
g104
NtRp4076
(dp4077
g107
(dp4078
g134
g135
ssg116
g4067
sg109
(lp4079
S':'
asbag102
(g123
g104
NtRp4080
(dp4081
g107
(dp4082
sg116
g4067
sg109
(lp4083
g102
(g103
g104
NtRp4084
(dp4085
g107
(dp4086
g115
I5
ssg116
g4080
sg109
(lp4087
g102
(g111
g104
NtRp4088
(dp4089
g107
(dp4090
g115
I4
ssg116
Nsg109
(lp4091
g102
(g118
g104
NtRp4092
(dp4093
g107
(dp4094
sg116
g4088
sg109
(lp4095
g102
(g123
g104
NtRp4096
(dp4097
g107
(dp4098
sg116
g4092
sg109
(lp4099
g102
(g103
g104
NtRp4100
(dp4101
g107
(dp4102
g115
I4
ssg116
g4096
sg109
(lp4103
g102
(g111
g104
NtRp4104
(dp4105
g107
(dp4106
g115
I3
ssg116
Nsg109
(lp4107
g102
(g118
g104
NtRp4108
(dp4109
g107
(dp4110
sg116
g4104
sg109
(lp4111
g102
(g123
g104
NtRp4112
(dp4113
g107
(dp4114
sg116
g4108
sg109
(lp4115
g102
(g103
g104
NtRp4116
(dp4117
g107
(dp4118
g115
I3
ssg116
g4112
sg109
(lp4119
cgluon.languages
lazyT_unpickle
p4120
(S't\x05\x00\x00\x00Index'
tRp4121
asbasbasbag102
(g118
g104
NtRp4122
(dp4123
g107
(dp4124
sg116
g4104
sg109
(lp4125
g102
(g123
g104
NtRp4126
(dp4127
g107
(dp4128
sg116
g4122
sg109
(lp4129
g102
(g103
g104
NtRp4130
(dp4131
g107
(dp4132
g115
I3
ssg116
g4126
sg109
(lp4133
g145
asbasbasbag102
(g118
g104
NtRp4134
(dp4135
g107
(dp4136
sg116
g4104
sg109
(lp4137
g102
(g123
g104
NtRp4138
(dp4139
g107
(dp4140
sg116
g4134
sg109
(lp4141
g102
(g103
g104
NtRp4142
(dp4143
g107
(dp4144
g115
I3
ssg116
g4138
sg109
(lp4145
S'/cite_mf/default/index'
p4146
asbasbasbag102
(g118
g104
NtRp4147
(dp4148
g107
(dp4149
sg116
g4104
sg109
(lp4150
g102
(g123
g104
NtRp4151
(dp4152
g107
(dp4153
sg116
g4147
sg109
(lp4154
g102
(g103
g104
NtRp4155
(dp4156
g107
(dp4157
g115
I3
ssg116
g4151
sg109
(lp4158
g102
(g111
g104
NtRp4159
(dp4160
g107
(dp4161
g115
I2
ssg116
Nsg109
(lp4162
sbasbasbasbasbasbasbasbasbasbasbasbag102
(g118
g104
NtRp4163
(dp4164
g107
(dp4165
sg116
g3565
sg109
(lp4166
g102
(g123
g104
NtRp4167
(dp4168
g107
(dp4169
g127
g128
ssg116
g4163
sg109
(lp4170
S'meta'
p4171
asbag102
(g123
g104
NtRp4172
(dp4173
g107
(dp4174
g134
g135
ssg116
g4163
sg109
(lp4175
S':'
asbag102
(g123
g104
NtRp4176
(dp4177
g107
(dp4178
sg116
g4163
sg109
(lp4179
g102
(g103
g104
NtRp4180
(dp4181
g107
(dp4182
g115
I5
ssg116
g4176
sg109
(lp4183
g102
(g111
g104
NtRp4184
(dp4185
g107
(dp4186
g115
I4
ssg116
Nsg109
(lp4187
g102
(g118
g104
NtRp4188
(dp4189
g107
(dp4190
sg116
g4184
sg109
(lp4191
g102
(g123
g104
NtRp4192
(dp4193
g107
(dp4194
g127
g128
ssg116
g4188
sg109
(lp4195
S'author'
p4196
asbag102
(g123
g104
NtRp4197
(dp4198
g107
(dp4199
g134
g135
ssg116
g4188
sg109
(lp4200
S':'
asbag102
(g123
g104
NtRp4201
(dp4202
g107
(dp4203
sg116
g4188
sg109
(lp4204
g102
(g103
g104
NtRp4205
(dp4206
g107
(dp4207
g115
I4
ssg116
g4201
sg109
(lp4208
S'you <you@example.com>'
p4209
asbasbasbag102
(g118
g104
NtRp4210
(dp4211
g107
(dp4212
sg116
g4184
sg109
(lp4213
g102
(g123
g104
NtRp4214
(dp4215
g107
(dp4216
g127
g128
ssg116
g4210
sg109
(lp4217
S'description'
p4218
asbag102
(g123
g104
NtRp4219
(dp4220
g107
(dp4221
g134
g135
ssg116
g4210
sg109
(lp4222
S':'
asbag102
(g123
g104
NtRp4223
(dp4224
g107
(dp4225
sg116
g4210
sg109
(lp4226
g102
(g103
g104
NtRp4227
(dp4228
g107
(dp4229
g115
I4
ssg116
g4223
sg109
(lp4230
S''
asbasbasbag102
(g118
g104
NtRp4231
(dp4232
g107
(dp4233
sg116
g4184
sg109
(lp4234
g102
(g123
g104
NtRp4235
(dp4236
g107
(dp4237
g127
g128
ssg116
g4231
sg109
(lp4238
S'keywords'
p4239
asbag102
(g123
g104
NtRp4240
(dp4241
g107
(dp4242
g134
g135
ssg116
g4231
sg109
(lp4243
S':'
asbag102
(g123
g104
NtRp4244
(dp4245
g107
(dp4246
sg116
g4231
sg109
(lp4247
g102
(g103
g104
NtRp4248
(dp4249
g107
(dp4250
g115
I4
ssg116
g4244
sg109
(lp4251
S''
asbasbasbasbasbasbasbag102
(g118
g104
NtRp4252
(dp4253
g107
(dp4254
sg116
g3565
sg109
(lp4255
g102
(g123
g104
NtRp4256
(dp4257
g107
(dp4258
g127
g128
ssg116
g4252
sg109
(lp4259
S'postprocessing'
p4260
asbag102
(g123
g104
NtRp4261
(dp4262
g107
(dp4263
g134
g135
ssg116
g4252
sg109
(lp4264
S':'
asbag102
(g123
g104
NtRp4265
(dp4266
g107
(dp4267
sg116
g4252
sg109
(lp4268
g102
(g103
g104
NtRp4269
(dp4270
g107
(dp4271
g115
I5
ssg116
g4265
sg109
(lp4272
g102
(g111
g104
NtRp4273
(dp4274
g107
(dp4275
g115
I4
ssg116
Nsg109
(lp4276
sbasbasbasbag102
(g118
g104
NtRp4277
(dp4278
g107
(dp4279
sg116
g3565
sg109
(lp4280
g102
(g123
g104
NtRp4281
(dp4282
g107
(dp4283
g127
g128
ssg116
g4277
sg109
(lp4284
S'session_file'
p4285
asbag102
(g123
g104
NtRp4286
(dp4287
g107
(dp4288
g134
g135
ssg116
g4277
sg109
(lp4289
S':'
asbag102
(g123
g104
NtRp4290
(dp4291
g107
(dp4292
sg116
g4277
sg109
(lp4293
g102
(g103
g104
NtRp4294
(dp4295
g107
(dp4296
g115
I5
ssg116
g4290
sg109
(lp4297
S"<open file '/home/maneesha/Downloads/web2py/applications/cite_mf/sessions/127.0.0.1-c428480d-4e16-4535-aab3-fa9a791ba35c', mode 'rb+' at 0x7f00ec20f810>"
p4298
asbasbasbag102
(g118
g104
NtRp4299
(dp4300
g107
(dp4301
sg116
g3565
sg109
(lp4302
g102
(g123
g104
NtRp4303
(dp4304
g107
(dp4305
g127
g128
ssg116
g4299
sg109
(lp4306
S'session_filename'
p4307
asbag102
(g123
g104
NtRp4308
(dp4309
g107
(dp4310
g134
g135
ssg116
g4299
sg109
(lp4311
S':'
asbag102
(g123
g104
NtRp4312
(dp4313
g107
(dp4314
sg116
g4299
sg109
(lp4315
g102
(g103
g104
NtRp4316
(dp4317
g107
(dp4318
g115
I5
ssg116
g4312
sg109
(lp4319
S'/home/maneesha/Downloads/web2py/applications/cite_mf/sessions/127.0.0.1-c428480d-4e16-4535-aab3-fa9a791ba35c'
p4320
asbasbasbag102
(g118
g104
NtRp4321
(dp4322
g107
(dp4323
sg116
g3565
sg109
(lp4324
g102
(g123
g104
NtRp4325
(dp4326
g107
(dp4327
g127
g128
ssg116
g4321
sg109
(lp4328
S'session_id'
p4329
asbag102
(g123
g104
NtRp4330
(dp4331
g107
(dp4332
g134
g135
ssg116
g4321
sg109
(lp4333
S':'
asbag102
(g123
g104
NtRp4334
(dp4335
g107
(dp4336
sg116
g4321
sg109
(lp4337
g102
(g103
g104
NtRp4338
(dp4339
g107
(dp4340
g115
I5
ssg116
g4334
sg109
(lp4341
S'127.0.0.1-c428480d-4e16-4535-aab3-fa9a791ba35c'
p4342
asbasbasbag102
(g118
g104
NtRp4343
(dp4344
g107
(dp4345
sg116
g3565
sg109
(lp4346
g102
(g123
g104
NtRp4347
(dp4348
g107
(dp4349
g127
g128
ssg116
g4343
sg109
(lp4350
S'session_id_name'
p4351
asbag102
(g123
g104
NtRp4352
(dp4353
g107
(dp4354
g134
g135
ssg116
g4343
sg109
(lp4355
S':'
asbag102
(g123
g104
NtRp4356
(dp4357
g107
(dp4358
sg116
g4343
sg109
(lp4359
g102
(g103
g104
NtRp4360
(dp4361
g107
(dp4362
g115
I5
ssg116
g4356
sg109
(lp4363
g3622
asbasbasbag102
(g118
g104
NtRp4364
(dp4365
g107
(dp4366
sg116
g3565
sg109
(lp4367
g102
(g123
g104
NtRp4368
(dp4369
g107
(dp4370
g127
g128
ssg116
g4364
sg109
(lp4371
S'session_locked'
p4372
asbag102
(g123
g104
NtRp4373
(dp4374
g107
(dp4375
g134
g135
ssg116
g4364
sg109
(lp4376
S':'
asbag102
(g123
g104
NtRp4377
(dp4378
g107
(dp4379
sg116
g4364
sg109
(lp4380
g102
(g103
g104
NtRp4381
(dp4382
g107
(dp4383
g115
I5
ssg116
g4377
sg109
(lp4384
g1538
asbasbasbag102
(g118
g104
NtRp4385
(dp4386
g107
(dp4387
sg116
g3565
sg109
(lp4388
g102
(g123
g104
NtRp4389
(dp4390
g107
(dp4391
g127
g128
ssg116
g4385
sg109
(lp4392
S'session_new'
p4393
asbag102
(g123
g104
NtRp4394
(dp4395
g107
(dp4396
g134
g135
ssg116
g4385
sg109
(lp4397
S':'
asbag102
(g123
g104
NtRp4398
(dp4399
g107
(dp4400
sg116
g4385
sg109
(lp4401
g102
(g103
g104
NtRp4402
(dp4403
g107
(dp4404
g115
I5
ssg116
g4398
sg109
(lp4405
g145
asbasbasbag102
(g118
g104
NtRp4406
(dp4407
g107
(dp4408
sg116
g3565
sg109
(lp4409
g102
(g123
g104
NtRp4410
(dp4411
g107
(dp4412
g127
g128
ssg116
g4406
sg109
(lp4413
S'status'
p4414
asbag102
(g123
g104
NtRp4415
(dp4416
g107
(dp4417
g134
g135
ssg116
g4406
sg109
(lp4418
S':'
asbag102
(g123
g104
NtRp4419
(dp4420
g107
(dp4421
sg116
g4406
sg109
(lp4422
g102
(g103
g104
NtRp4423
(dp4424
g107
(dp4425
g115
I5
ssg116
g4419
sg109
(lp4426
S'200'
p4427
asbasbasbag102
(g118
g104
NtRp4428
(dp4429
g107
(dp4430
sg116
g3565
sg109
(lp4431
g102
(g123
g104
NtRp4432
(dp4433
g107
(dp4434
g127
g128
ssg116
g4428
sg109
(lp4435
S'subtitle'
p4436
asbag102
(g123
g104
NtRp4437
(dp4438
g107
(dp4439
g134
g135
ssg116
g4428
sg109
(lp4440
S':'
asbag102
(g123
g104
NtRp4441
(dp4442
g107
(dp4443
sg116
g4428
sg109
(lp4444
g102
(g103
g104
NtRp4445
(dp4446
g107
(dp4447
g115
I5
ssg116
g4441
sg109
(lp4448
S'powered by web2py'
p4449
asbasbasbag102
(g118
g104
NtRp4450
(dp4451
g107
(dp4452
sg116
g3565
sg109
(lp4453
g102
(g123
g104
NtRp4454
(dp4455
g107
(dp4456
g127
g128
ssg116
g4450
sg109
(lp4457
S'title'
p4458
asbag102
(g123
g104
NtRp4459
(dp4460
g107
(dp4461
g134
g135
ssg116
g4450
sg109
(lp4462
S':'
asbag102
(g123
g104
NtRp4463
(dp4464
g107
(dp4465
sg116
g4450
sg109
(lp4466
g102
(g103
g104
NtRp4467
(dp4468
g107
(dp4469
g115
I5
ssg116
g4463
sg109
(lp4470
S'My New App'
p4471
asbasbasbag102
(g118
g104
NtRp4472
(dp4473
g107
(dp4474
sg116
g3565
sg109
(lp4475
g102
(g123
g104
NtRp4476
(dp4477
g107
(dp4478
g127
g128
ssg116
g4472
sg109
(lp4479
g2201
asbag102
(g123
g104
NtRp4480
(dp4481
g107
(dp4482
g134
g135
ssg116
g4472
sg109
(lp4483
S':'
asbag102
(g123
g104
NtRp4484
(dp4485
g107
(dp4486
sg116
g4472
sg109
(lp4487
g102
(g103
g104
NtRp4488
(dp4489
g107
(dp4490
g115
I5
ssg116
g4484
sg109
(lp4491
g2214
asbasbasbag102
(g118
g104
NtRp4492
(dp4493
g107
(dp4494
sg116
g3565
sg109
(lp4495
g102
(g123
g104
NtRp4496
(dp4497
g107
(dp4498
g127
g128
ssg116
g4492
sg109
(lp4499
S'view'
p4500
asbag102
(g123
g104
NtRp4501
(dp4502
g107
(dp4503
g134
g135
ssg116
g4492
sg109
(lp4504
S':'
asbag102
(g123
g104
NtRp4505
(dp4506
g107
(dp4507
sg116
g4492
sg109
(lp4508
g102
(g103
g104
NtRp4509
(dp4510
g107
(dp4511
g115
I5
ssg116
g4505
sg109
(lp4512
S'default/final_ans.html'
p4513
asbasbasbasbasbsS'locals'
p4514
(dp4515
g59
S'<addinfourl at 139642004726776 whose fp = <socket._fileobject object>>'
p4516
sg6
S'504'
p4517
sg61
S'<httplib.HTTPMessage instance>'
p4518
sS'self'
p4519
S'<urllib2.HTTPDefaultErrorHandler instance>'
p4520
sS'req'
p4521
S'<urllib2.Request instance>'
p4522
sg55
S"'Gateway Time-out'"
p4523
sssS'traceback'
p4524
S'Traceback (most recent call last):\n  File "/home/maneesha/Downloads/web2py/gluon/restricted.py", line 205, in restricted\n    exec ccode in environment\n  File "/home/maneesha/Downloads/web2py/applications/cite_mf/controllers/default.py", line 205, in <module>\n  File "/home/maneesha/Downloads/web2py/gluon/globals.py", line 173, in <lambda>\n    self._caller = lambda f: f()\n  File "/home/maneesha/Downloads/web2py/applications/cite_mf/controllers/default.py", line 64, in final_ans\n    fst_l=extract1(url,l1)     #extracts the urls of query results and stores it in a list fst_l\n  File "/home/maneesha/Downloads/web2py/applications/cite_mf/controllers/default.py", line 28, in extract1\n    html=fetch(url) #fetches the html page of the given url ans stores it in a string html\n  File "/home/maneesha/Downloads/web2py/gluon/tools.py", line 3424, in fetch\n    html = urllib2.urlopen(req).read()\n  File "/usr/lib/python2.7/urllib2.py", line 126, in urlopen\n    return _opener.open(url, data, timeout)\n  File "/usr/lib/python2.7/urllib2.py", line 406, in open\n    response = meth(req, response)\n  File "/usr/lib/python2.7/urllib2.py", line 519, in http_response\n    \'http\', request, response, code, msg, hdrs)\n  File "/usr/lib/python2.7/urllib2.py", line 444, in error\n    return self._call_chain(*args)\n  File "/usr/lib/python2.7/urllib2.py", line 378, in _call_chain\n    result = func(*args)\n  File "/usr/lib/python2.7/urllib2.py", line 527, in http_error_default\n    raise HTTPError(req.get_full_url(), code, msg, hdrs, fp)\nHTTPError: HTTP Error 504: Gateway Time-out\n'
p4525
s.