(dp1
S'output'
p2
S"<type 'exceptions.IOError'> [Errno 2] No such file or directory: '/home/maneesha/Downloads/Rough'"
p3
sS'layer'
p4
S'/home/maneesha/Downloads/web2py/applications/cite_m3/views/default/final_ans.html'
p5
sS'code'
p6
S'response.write(\'<html xmlns="http://www.w3.org/1999/xhtml">\\n <head>\\n  <title>\\n   CITE MASTER\\n  </title>\\n  \', escape=False)\nresponse.files.append(URL(request.application,\'static\',\'plugin_layouts/layouts/Blend/default.css\'))\nresponse.write(\'\\n  \', escape=False)\nresponse.files.append(URL(\'static\',\'plugin_layouts/superfish.js\'))\nresponse.write(\'\\n  \', escape=False)\nresponse.write(\'<script type="text/javascript"><!--\\n    // These variables are used by the web2py_ajax_init function in web2py_ajax.js (which is loaded below).\\n    var w2p_ajax_confirm_message = "\', escape=False)\nresponse.write(T(\'Are you sure you want to delete this object?\'))\nresponse.write(\'";\\n    var w2p_ajax_date_format = "\', escape=False)\nresponse.write(T(\'%Y-%m-%d\'))\nresponse.write(\'";\\n    var w2p_ajax_datetime_format = "\', escape=False)\nresponse.write(T(\'%Y-%m-%d %H:%M:%S\'))\nresponse.write(\'";\\n    //--></script>\\n\', escape=False)\nresponse.files.insert(0,URL(\'static\',\'js/jquery.js\'))\nresponse.files.insert(1,URL(\'static\',\'css/calendar.css\'))\nresponse.files.insert(2,URL(\'static\',\'js/calendar.js\'))\nresponse.files.insert(3,URL(\'static\',\'js/web2py.js\'))\nresponse.include_meta()\nresponse.include_files()\nresponse.write(\'\\n\', escape=False)\nresponse.write(\'\\n  <style>\\nul.web2py-menu-vertical { width: 100px; position: relative; top:1em; left:1em;  z-index:30; border:0; margin:0; padding: 0; list-style: none; text-decoration: none;}\\nul.web2py-menu-vertical li { margin:0; padding:0; border:0; width: 150px; background: black; text-align:left;}\\nul.web2py-menu-vertical li a { margin:0; padding: 1px 3px 1px 3px; border:0; width: 194px; color: white; font-size:12px;}\\ndiv.flash { position: fixed; float: right; padding: 10px; top: 10px; right: 10px; opacity: 0.75; margin: 10px 10px 10px 10px; text-align: center; clear: both; color: #fff; font-size: 11pt; text-align: center; vertical-align: middle; cursor: pointer; background: black; border: 2px solid #fff; -moz-border-radius: 5px; -webkit-border-radius: 5px; z-index: 2; }\\ndiv.error { background-color: red; color: white; padding: 3px; }\\n.auth_navbar { text-align:right; z-index:20; position: absolute; top: 2px; right:30px; border:0; padding:0 }\\n  </style>\\n </head>\\n <body>\\n  <!-- start header -->\\n  \', escape=False)\ntry:\n    response.write(auth.navbar(action=URL(\'default\',\'user\')))\nexcept:pass\nresponse.write(\'\\n\\n  <!-- start header -->\\n  <div id="header">\\n   <div id="logo">\\n    <h1>\\n    <span style="text-transform: uppercase">CITE MASTER</span>\\n    </h1>\\n    \\n   </div>\\n   <div id="menu">\\n    \', escape=False)\nresponse.write(MENU(response.menu,_class=\'web2py-menu\'))\nresponse.write(\'\\n    <script>\\n      jQuery(document).ready(function(){jQuery(\\\'ul.web2py-menu\\\').superfish({delay:400});});\\n    </script>\\n   </div>\\n  </div>\\n  <!-- end header -->\\n  <div id="wrapper">\\n   <!-- start page -->\\n   <div id="page">\\n    <!-- start content -->\\n    <div>\\n     <div id="flash">\', escape=False)\nresponse.write(response.flash or \'\')\nresponse.write(\'</div>\\n     \', escape=False)\nresponse.write(\'\\n<ul type="none">\\n\', escape=False)\ncount=0\nresponse.write(\'\\n\', escape=False)\nf=open(\'Rough\',\'w\')\nresponse.write(\'\\n\', escape=False)\ndef print1(bigans):\n    response.write(\'\\n    \', escape=False)\n    global count\n    response.write(\'\\n    \', escape=False)\n    for x in range(0,len(bigans)):\n        response.write(\'\\n        \', escape=False)\n        if type(bigans[x]) is list:\n            response.write(\'\\n            \', escape=False)\n            if count==0:\n                response.write(\'\\n                \', escape=False)\n                count=count+1\n                response.write(\'\\n                \', escape=False)\n                print1(bigans[x])\n                response.write(\'\\n            \', escape=False)\n            elif count!=0 and x!=7:\n                response.write(\'\\n                \', escape=False)\n                count=count+1\n                response.write(\'\\n                \', escape=False)\n                print1(bigans[x])\n                response.write(\'\\n            \', escape=False)\n                pass\n            response.write(\'\\n         \', escape=False)\n        else:\n            response.write(\'\\n             \', escape=False)\n            if x==2:\n                response.write(\'\\n             \', escape=False)\n                response.write(A(\'---------------\'*(count-1)+bigans[0], _href=bigans[2]))\n                response.write(\'\\n             \', escape=False)\n                f.write(\'---------------\'*(count-1)+bigans[0]+\'\\n\')\n                response.write(\'\\n             \', escape=False)\n            elif x==3 and bigans[x]!=-1:\n                response.write(\'\\n                  \', escape=False)\n                response.write(LI(\'---------------\'*(count-1)+\'Authors-\'))\n                response.write(\'\\n                  \', escape=False)\n                f.write(\'---------------\'*(count-1)+\'Authors-\'+\'\\n\')\n                response.write(\'\\n                 \', escape=False)\n                l=bigans[x].split(\';\')\n                response.write(\'\\n                 \', escape=False)\n                for p in l:\n                    response.write(\'\\n                     \', escape=False)\n                    if \',\' in p:\n                        response.write(\'\\n                         \', escape=False)\n                        k=p.split(\',\')[1]+\' \'+p.split(\',\')[0]\n                        response.write(\'\\n                     \', escape=False)\n                    else:\n                        response.write(\'\\n                         \', escape=False)\n                        k=p\n                        response.write(\'\\n                     \', escape=False)\n                        pass\n                    response.write(\'\\n                      \', escape=False)\n                    response.write(LI(\'---------------\'*(count-1)+k))\n                    response.write(\'\\n                      \', escape=False)\n                    f.write(\'---------------\'*(count-1)+k+\'\\n\')\n                    response.write(\'\\n                 \', escape=False)\n                    pass\n                response.write(\'\\n             \', escape=False)\n            elif x==6 and bigans[x]!=-1:\n                response.write(\'\\n                \', escape=False)\n                response.write(LI(\'---------------\'*(count-1)+\'Cited by:\'+str(bigans[x])))\n                response.write(\'\\n                \', escape=False)\n                f.write(\'---------------\'*(count-1)+\'Cited by:\'+str(bigans[x])+\'\\n\')\n                response.write(\'\\n             \', escape=False)\n            elif x==4 and bigans[x]!=-1:\n                response.write(\'\\n                \', escape=False)\n                response.write(LI(\'---------------\'*(count-1)+\'Date:\'+bigans[x]))\n                response.write(\'\\n                \', escape=False)\n                f.write(\'---------------\'*(count-1)+\'Date:\'+bigans[x]+\'\\n\')\n                response.write(\'\\n             \', escape=False)\n            elif x==5 and bigans[x]!=-1:\n                response.write(\'\\n                \', escape=False)\n                response.write(A(\'---------------\'*(count-1)+\'Abstract:\',_href=URL("abstract", args=[bigans[1]])))\n                response.write(\'\\n                \', escape=False)\n                f.write(\'---------------\'*(count-1)+\'Abstract:\'+bigans[x]+\'\\n\')\n                response.write(\'\\n             \', escape=False)\n                pass\n            response.write(\'\\n         \', escape=False)\n            pass\n        response.write(\'\\n     \', escape=False)\n        pass\n    response.write(\'\\n     \', escape=False)\n    count=count-1\n    response.write(\'\\n     \', escape=False)\n    return\nresponse.write(\'\\n<div style="text-align:right">\\n\', escape=False)\nresponse.write(LI(\'Sort by: \'))\nresponse.write(\'\\n\', escape=False)\nresponse.write(LI(A(\'Relevence \',_href=URL("sorting", args=ret1[0]))))\nresponse.write(\'\\n\', escape=False)\nresponse.write(LI(A(\'Publication date \',_href=URL("sorting", args=ret1[1]))))\nresponse.write(\'\\n</div>\\n\', escape=False)\npass\nresponse.write(\'\\n\', escape=False)\nprint1(bigans)\nresponse.write(\'\\n\', escape=False)\nf.close()\nresponse.write(\'\\n\', escape=False)\nfrom reportlab.lib.enums import TA_JUSTIFY\nresponse.write(\'\\n\', escape=False)\nfrom reportlab.lib.pagesizes import letter\nresponse.write(\'\\n\', escape=False)\nfrom reportlab import platypus\nresponse.write(\'\\n\', escape=False)\nfrom reportlab.lib.units import inch\nresponse.write(\'\\n\', escape=False)\nfrom os import path\nresponse.write(\'\\n\', escape=False)\nimport reportlab\nresponse.write(\'\\n\', escape=False)\nfrom reportlab.lib.units import inch, cm\nresponse.write(\'\\n\', escape=False)\nfrom reportlab.lib.pagesizes import A4\nresponse.write(\'\\n\', escape=False)\nfrom reportlab.lib.styles import ParagraphStyle\nresponse.write(\'\\n\', escape=False)\nfrom reportlab.lib.styles import getSampleStyleSheet\nresponse.write(\'\\n\', escape=False)\nstyleSheet = getSampleStyleSheet()\nresponse.write(\'\\n\', escape=False)\nmystyle = ParagraphStyle(name=\'normal\',fontName=\'Courier\',\nfontSize=10,\nalignment=TA_JUSTIFY,\nleading=1.2*12,\nparent=styleSheet[\'Normal\'])\nresponse.write(\'\\n\', escape=False)\npass\nresponse.write(\'\\n\', escape=False)\nmodel_report = \'/home/maneesha/Downloads/Rough\'\nresponse.write(\'\\n\', escape=False)\ndoc = platypus.SimpleDocTemplate("rough.pdf",  \\\nrightMargin=40, leftMargin=40, \\\ntopMargin=40, bottomMargin=25, \\\npageSize=A4)\nresponse.write(\'\\n\', escape=False)\npass\nresponse.write(\'\\n\', escape=False)\nelements = []\nresponse.write(\'\\n\', escape=False)\ninfile   = file(model_report).read()\nresponse.write(\'\\n\', escape=False)\nreport_paragraphs = infile.split("\\n")\nresponse.write(\'\\n\', escape=False)\nfor para in report_paragraphs:\n    response.write(\'\\n    \', escape=False)\n    para1 = \'<font face="Courier" >%s</font>\' % para\n    response.write(\'\\n    \', escape=False)\n    elements.append(platypus.Paragraph(para1, style=mystyle))\n    response.write(\'\\n\', escape=False)\n    pass\nresponse.write(\'\\n\', escape=False)\ndoc.build(elements)\nresponse.write(\'\\n\', escape=False)\npass\nresponse.write(\'\\n\', escape=False)\nfrom gluon.tools import Mail\nmail = Mail()\nmail.settings.server = \'smtp.gmail.com:587\'\nmail.settings.sender = \'papireddygarimaneesha88@gmail.com\'\nmail.settings.login = \'papireddygarimaneesha88:peddamallu\'\nresponse.write(\'\\n\', escape=False)\nmail.send(to=[\'chitra.khatwani19@gmail.com\'],\nsubject=\'hi\',\nmessage=\'hi manu\',\nattachments = [Mail.Attachment(\'rough.pdf\')])\nresponse.write(\'\\n</ul>\\n\', escape=False)\nresponse.write(\'\\n    </div>\\n    <!-- end content -->\\n    <div style="clear: both;">\\n     &nbsp;\\n    </div>\\n   </div>\\n   <!-- end page -->\\n  </div>\\n  <div id="footer">\\n   <p>\\n    &copy;2012 All Rights Reserved. &nbsp;&bull;&nbsp; Design by P.Maneesha,Chitra Khatwani,Rajat Bharadwaj\\n   </p>\\n  </div>\\n </body>\\n</html>\\n\', escape=False)'
p7
sS'snapshot'
p8
(dp9
S'exception'
p10
(dp11
S'__getslice__'
p12
S"<method-wrapper '__getslice__' of exceptions.IOError object>"
p13
sS'__str__'
p14
S"<method-wrapper '__str__' of exceptions.IOError object>"
p15
sS'__reduce__'
p16
S'<built-in method __reduce__ of exceptions.IOError object>'
p17
sS'__dict__'
p18
S'{}'
p19
sS'__sizeof__'
p20
S'<built-in method __sizeof__ of exceptions.IOError object>'
p21
sS'__init__'
p22
S"<method-wrapper '__init__' of exceptions.IOError object>"
p23
sS'__setattr__'
p24
S"<method-wrapper '__setattr__' of exceptions.IOError object>"
p25
sS'__reduce_ex__'
p26
S'<built-in method __reduce_ex__ of exceptions.IOError object>'
p27
sS'__new__'
p28
S'<built-in method __new__ of type object>'
p29
sS'errno'
p30
S'2'
sS'__format__'
p31
S'<built-in method __format__ of exceptions.IOError object>'
p32
sS'__class__'
p33
S"<type 'exceptions.IOError'>"
p34
sS'filename'
p35
S"'/home/maneesha/Downloads/Rough'"
p36
sS'__doc__'
p37
S"'I/O operation failed.'"
p38
sS'__getitem__'
p39
S"<method-wrapper '__getitem__' of exceptions.IOError object>"
p40
sS'__setstate__'
p41
S'<built-in method __setstate__ of exceptions.IOError object>'
p42
sS'__getattribute__'
p43
S"<method-wrapper '__getattribute__' of exceptions.IOError object>"
p44
sS'args'
p45
S"(2, 'No such file or directory')"
p46
sS'__subclasshook__'
p47
S'<built-in method __subclasshook__ of type object>'
p48
sS'__unicode__'
p49
S'<built-in method __unicode__ of exceptions.IOError object>'
p50
sS'strerror'
p51
S"'No such file or directory'"
p52
sS'__delattr__'
p53
S"<method-wrapper '__delattr__' of exceptions.IOError object>"
p54
sS'__repr__'
p55
S"<method-wrapper '__repr__' of exceptions.IOError object>"
p56
sS'__hash__'
p57
S"<method-wrapper '__hash__' of exceptions.IOError object>"
p58
ssS'evalue'
p59
S"[Errno 2] No such file or directory: '/home/maneesha/Downloads/Rough'"
p60
sS'request'
p61
ccopy_reg
_reconstructor
p62
(cgluon.html
BEAUTIFY
p63
c__builtin__
object
p64
NtRp65
(dp66
S'attributes'
p67
(dp68
sS'components'
p69
(lp70
g62
(cgluon.html
TABLE
p71
g64
NtRp72
(dp73
g67
(dp74
S'level'
p75
I5
ssS'parent'
p76
Nsg69
(lp77
g62
(cgluon.html
TR
p78
g64
NtRp79
(dp80
g67
(dp81
sg76
g72
sg69
(lp82
g62
(cgluon.html
TD
p83
g64
NtRp84
(dp85
g67
(dp86
S'_style'
p87
S'font-weight:bold;vertical-align:top'
p88
ssg76
g79
sg69
(lp89
S'ajax'
p90
asbag62
(g83
g64
NtRp91
(dp92
g67
(dp93
S'_valign'
p94
S'top'
p95
ssg76
g79
sg69
(lp96
S':'
asbag62
(g83
g64
NtRp97
(dp98
g67
(dp99
sg76
g79
sg69
(lp100
g62
(g63
g64
NtRp101
(dp102
g67
(dp103
g75
I5
ssg76
g97
sg69
(lp104
S'False'
p105
asbasbasbag62
(g78
g64
NtRp106
(dp107
g67
(dp108
sg76
g72
sg69
(lp109
g62
(g83
g64
NtRp110
(dp111
g67
(dp112
g87
g88
ssg76
g106
sg69
(lp113
S'application'
p114
asbag62
(g83
g64
NtRp115
(dp116
g67
(dp117
g94
g95
ssg76
g106
sg69
(lp118
S':'
asbag62
(g83
g64
NtRp119
(dp120
g67
(dp121
sg76
g106
sg69
(lp122
g62
(g63
g64
NtRp123
(dp124
g67
(dp125
g75
I5
ssg76
g119
sg69
(lp126
S'cite_m3'
p127
asbasbasbag62
(g78
g64
NtRp128
(dp129
g67
(dp130
sg76
g72
sg69
(lp131
g62
(g83
g64
NtRp132
(dp133
g67
(dp134
g87
g88
ssg76
g128
sg69
(lp135
g45
asbag62
(g83
g64
NtRp136
(dp137
g67
(dp138
g94
g95
ssg76
g128
sg69
(lp139
S':'
asbag62
(g83
g64
NtRp140
(dp141
g67
(dp142
sg76
g128
sg69
(lp143
g62
(g63
g64
NtRp144
(dp145
g67
(dp146
g75
I5
ssg76
g140
sg69
(lp147
g62
(g71
g64
NtRp148
(dp149
g67
(dp150
g75
I4
ssg76
Nsg69
(lp151
sbasbasbasbag62
(g78
g64
NtRp152
(dp153
g67
(dp154
sg76
g72
sg69
(lp155
g62
(g83
g64
NtRp156
(dp157
g67
(dp158
g87
g88
ssg76
g152
sg69
(lp159
S'body'
p160
asbag62
(g83
g64
NtRp161
(dp162
g67
(dp163
g94
g95
ssg76
g152
sg69
(lp164
S':'
asbag62
(g83
g64
NtRp165
(dp166
g67
(dp167
sg76
g152
sg69
(lp168
g62
(g63
g64
NtRp169
(dp170
g67
(dp171
g75
I5
ssg76
g165
sg69
(lp172
S'<cStringIO.StringO object at 0x7f45a08408f0>'
p173
asbasbasbag62
(g78
g64
NtRp174
(dp175
g67
(dp176
sg76
g72
sg69
(lp177
g62
(g83
g64
NtRp178
(dp179
g67
(dp180
g87
g88
ssg76
g174
sg69
(lp181
S'client'
p182
asbag62
(g83
g64
NtRp183
(dp184
g67
(dp185
g94
g95
ssg76
g174
sg69
(lp186
S':'
asbag62
(g83
g64
NtRp187
(dp188
g67
(dp189
sg76
g174
sg69
(lp190
g62
(g63
g64
NtRp191
(dp192
g67
(dp193
g75
I5
ssg76
g187
sg69
(lp194
S'127.0.0.1'
p195
asbasbasbag62
(g78
g64
NtRp196
(dp197
g67
(dp198
sg76
g72
sg69
(lp199
g62
(g83
g64
NtRp200
(dp201
g67
(dp202
g87
g88
ssg76
g196
sg69
(lp203
S'controller'
p204
asbag62
(g83
g64
NtRp205
(dp206
g67
(dp207
g94
g95
ssg76
g196
sg69
(lp208
S':'
asbag62
(g83
g64
NtRp209
(dp210
g67
(dp211
sg76
g196
sg69
(lp212
g62
(g63
g64
NtRp213
(dp214
g67
(dp215
g75
I5
ssg76
g209
sg69
(lp216
S'default'
p217
asbasbasbag62
(g78
g64
NtRp218
(dp219
g67
(dp220
sg76
g72
sg69
(lp221
g62
(g83
g64
NtRp222
(dp223
g67
(dp224
g87
g88
ssg76
g218
sg69
(lp225
S'cookies'
p226
asbag62
(g83
g64
NtRp227
(dp228
g67
(dp229
g94
g95
ssg76
g218
sg69
(lp230
S':'
asbag62
(g83
g64
NtRp231
(dp232
g67
(dp233
sg76
g218
sg69
(lp234
g62
(g63
g64
NtRp235
(dp236
g67
(dp237
g75
I5
ssg76
g231
sg69
(lp238
g62
(g71
g64
NtRp239
(dp240
g67
(dp241
g75
I4
ssg76
Nsg69
(lp242
g62
(g78
g64
NtRp243
(dp244
g67
(dp245
sg76
g239
sg69
(lp246
g62
(g83
g64
NtRp247
(dp248
g67
(dp249
g87
g88
ssg76
g243
sg69
(lp250
S'session_id_admin'
p251
asbag62
(g83
g64
NtRp252
(dp253
g67
(dp254
g94
g95
ssg76
g243
sg69
(lp255
S':'
asbag62
(g83
g64
NtRp256
(dp257
g67
(dp258
sg76
g243
sg69
(lp259
g62
(g63
g64
NtRp260
(dp261
g67
(dp262
g75
I4
ssg76
g256
sg69
(lp263
g62
(g71
g64
NtRp264
(dp265
g67
(dp266
g75
I3
ssg76
Nsg69
(lp267
g62
(g78
g64
NtRp268
(dp269
g67
(dp270
sg76
g264
sg69
(lp271
g62
(g83
g64
NtRp272
(dp273
g67
(dp274
g87
g88
ssg76
g268
sg69
(lp275
S'comment'
p276
asbag62
(g83
g64
NtRp277
(dp278
g67
(dp279
g94
g95
ssg76
g268
sg69
(lp280
S':'
asbag62
(g83
g64
NtRp281
(dp282
g67
(dp283
sg76
g268
sg69
(lp284
g62
(g63
g64
NtRp285
(dp286
g67
(dp287
g75
I3
ssg76
g281
sg69
(lp288
S''
asbasbasbag62
(g78
g64
NtRp289
(dp290
g67
(dp291
sg76
g264
sg69
(lp292
g62
(g83
g64
NtRp293
(dp294
g67
(dp295
g87
g88
ssg76
g289
sg69
(lp296
S'domain'
p297
asbag62
(g83
g64
NtRp298
(dp299
g67
(dp300
g94
g95
ssg76
g289
sg69
(lp301
S':'
asbag62
(g83
g64
NtRp302
(dp303
g67
(dp304
sg76
g289
sg69
(lp305
g62
(g63
g64
NtRp306
(dp307
g67
(dp308
g75
I3
ssg76
g302
sg69
(lp309
S''
asbasbasbag62
(g78
g64
NtRp310
(dp311
g67
(dp312
sg76
g264
sg69
(lp313
g62
(g83
g64
NtRp314
(dp315
g67
(dp316
g87
g88
ssg76
g310
sg69
(lp317
S'expires'
p318
asbag62
(g83
g64
NtRp319
(dp320
g67
(dp321
g94
g95
ssg76
g310
sg69
(lp322
S':'
asbag62
(g83
g64
NtRp323
(dp324
g67
(dp325
sg76
g310
sg69
(lp326
g62
(g63
g64
NtRp327
(dp328
g67
(dp329
g75
I3
ssg76
g323
sg69
(lp330
S''
asbasbasbag62
(g78
g64
NtRp331
(dp332
g67
(dp333
sg76
g264
sg69
(lp334
g62
(g83
g64
NtRp335
(dp336
g67
(dp337
g87
g88
ssg76
g331
sg69
(lp338
S'httponly'
p339
asbag62
(g83
g64
NtRp340
(dp341
g67
(dp342
g94
g95
ssg76
g331
sg69
(lp343
S':'
asbag62
(g83
g64
NtRp344
(dp345
g67
(dp346
sg76
g331
sg69
(lp347
g62
(g63
g64
NtRp348
(dp349
g67
(dp350
g75
I3
ssg76
g344
sg69
(lp351
S''
asbasbasbag62
(g78
g64
NtRp352
(dp353
g67
(dp354
sg76
g264
sg69
(lp355
g62
(g83
g64
NtRp356
(dp357
g67
(dp358
g87
g88
ssg76
g352
sg69
(lp359
S'max-age'
p360
asbag62
(g83
g64
NtRp361
(dp362
g67
(dp363
g94
g95
ssg76
g352
sg69
(lp364
S':'
asbag62
(g83
g64
NtRp365
(dp366
g67
(dp367
sg76
g352
sg69
(lp368
g62
(g63
g64
NtRp369
(dp370
g67
(dp371
g75
I3
ssg76
g365
sg69
(lp372
S''
asbasbasbag62
(g78
g64
NtRp373
(dp374
g67
(dp375
sg76
g264
sg69
(lp376
g62
(g83
g64
NtRp377
(dp378
g67
(dp379
g87
g88
ssg76
g373
sg69
(lp380
S'path'
p381
asbag62
(g83
g64
NtRp382
(dp383
g67
(dp384
g94
g95
ssg76
g373
sg69
(lp385
S':'
asbag62
(g83
g64
NtRp386
(dp387
g67
(dp388
sg76
g373
sg69
(lp389
g62
(g63
g64
NtRp390
(dp391
g67
(dp392
g75
I3
ssg76
g386
sg69
(lp393
S''
asbasbasbag62
(g78
g64
NtRp394
(dp395
g67
(dp396
sg76
g264
sg69
(lp397
g62
(g83
g64
NtRp398
(dp399
g67
(dp400
g87
g88
ssg76
g394
sg69
(lp401
S'secure'
p402
asbag62
(g83
g64
NtRp403
(dp404
g67
(dp405
g94
g95
ssg76
g394
sg69
(lp406
S':'
asbag62
(g83
g64
NtRp407
(dp408
g67
(dp409
sg76
g394
sg69
(lp410
g62
(g63
g64
NtRp411
(dp412
g67
(dp413
g75
I3
ssg76
g407
sg69
(lp414
S''
asbasbasbag62
(g78
g64
NtRp415
(dp416
g67
(dp417
sg76
g264
sg69
(lp418
g62
(g83
g64
NtRp419
(dp420
g67
(dp421
g87
g88
ssg76
g415
sg69
(lp422
S'version'
p423
asbag62
(g83
g64
NtRp424
(dp425
g67
(dp426
g94
g95
ssg76
g415
sg69
(lp427
S':'
asbag62
(g83
g64
NtRp428
(dp429
g67
(dp430
sg76
g415
sg69
(lp431
g62
(g63
g64
NtRp432
(dp433
g67
(dp434
g75
I3
ssg76
g428
sg69
(lp435
S''
asbasbasbasbasbasbasbag62
(g78
g64
NtRp436
(dp437
g67
(dp438
sg76
g239
sg69
(lp439
g62
(g83
g64
NtRp440
(dp441
g67
(dp442
g87
g88
ssg76
g436
sg69
(lp443
S'session_id_cite_m'
p444
asbag62
(g83
g64
NtRp445
(dp446
g67
(dp447
g94
g95
ssg76
g436
sg69
(lp448
S':'
asbag62
(g83
g64
NtRp449
(dp450
g67
(dp451
sg76
g436
sg69
(lp452
g62
(g63
g64
NtRp453
(dp454
g67
(dp455
g75
I4
ssg76
g449
sg69
(lp456
g62
(g71
g64
NtRp457
(dp458
g67
(dp459
g75
I3
ssg76
Nsg69
(lp460
g62
(g78
g64
NtRp461
(dp462
g67
(dp463
sg76
g457
sg69
(lp464
g62
(g83
g64
NtRp465
(dp466
g67
(dp467
g87
g88
ssg76
g461
sg69
(lp468
g276
asbag62
(g83
g64
NtRp469
(dp470
g67
(dp471
g94
g95
ssg76
g461
sg69
(lp472
S':'
asbag62
(g83
g64
NtRp473
(dp474
g67
(dp475
sg76
g461
sg69
(lp476
g62
(g63
g64
NtRp477
(dp478
g67
(dp479
g75
I3
ssg76
g473
sg69
(lp480
S''
asbasbasbag62
(g78
g64
NtRp481
(dp482
g67
(dp483
sg76
g457
sg69
(lp484
g62
(g83
g64
NtRp485
(dp486
g67
(dp487
g87
g88
ssg76
g481
sg69
(lp488
g297
asbag62
(g83
g64
NtRp489
(dp490
g67
(dp491
g94
g95
ssg76
g481
sg69
(lp492
S':'
asbag62
(g83
g64
NtRp493
(dp494
g67
(dp495
sg76
g481
sg69
(lp496
g62
(g63
g64
NtRp497
(dp498
g67
(dp499
g75
I3
ssg76
g493
sg69
(lp500
S''
asbasbasbag62
(g78
g64
NtRp501
(dp502
g67
(dp503
sg76
g457
sg69
(lp504
g62
(g83
g64
NtRp505
(dp506
g67
(dp507
g87
g88
ssg76
g501
sg69
(lp508
g318
asbag62
(g83
g64
NtRp509
(dp510
g67
(dp511
g94
g95
ssg76
g501
sg69
(lp512
S':'
asbag62
(g83
g64
NtRp513
(dp514
g67
(dp515
sg76
g501
sg69
(lp516
g62
(g63
g64
NtRp517
(dp518
g67
(dp519
g75
I3
ssg76
g513
sg69
(lp520
S''
asbasbasbag62
(g78
g64
NtRp521
(dp522
g67
(dp523
sg76
g457
sg69
(lp524
g62
(g83
g64
NtRp525
(dp526
g67
(dp527
g87
g88
ssg76
g521
sg69
(lp528
g339
asbag62
(g83
g64
NtRp529
(dp530
g67
(dp531
g94
g95
ssg76
g521
sg69
(lp532
S':'
asbag62
(g83
g64
NtRp533
(dp534
g67
(dp535
sg76
g521
sg69
(lp536
g62
(g63
g64
NtRp537
(dp538
g67
(dp539
g75
I3
ssg76
g533
sg69
(lp540
S''
asbasbasbag62
(g78
g64
NtRp541
(dp542
g67
(dp543
sg76
g457
sg69
(lp544
g62
(g83
g64
NtRp545
(dp546
g67
(dp547
g87
g88
ssg76
g541
sg69
(lp548
g360
asbag62
(g83
g64
NtRp549
(dp550
g67
(dp551
g94
g95
ssg76
g541
sg69
(lp552
S':'
asbag62
(g83
g64
NtRp553
(dp554
g67
(dp555
sg76
g541
sg69
(lp556
g62
(g63
g64
NtRp557
(dp558
g67
(dp559
g75
I3
ssg76
g553
sg69
(lp560
S''
asbasbasbag62
(g78
g64
NtRp561
(dp562
g67
(dp563
sg76
g457
sg69
(lp564
g62
(g83
g64
NtRp565
(dp566
g67
(dp567
g87
g88
ssg76
g561
sg69
(lp568
g381
asbag62
(g83
g64
NtRp569
(dp570
g67
(dp571
g94
g95
ssg76
g561
sg69
(lp572
S':'
asbag62
(g83
g64
NtRp573
(dp574
g67
(dp575
sg76
g561
sg69
(lp576
g62
(g63
g64
NtRp577
(dp578
g67
(dp579
g75
I3
ssg76
g573
sg69
(lp580
S''
asbasbasbag62
(g78
g64
NtRp581
(dp582
g67
(dp583
sg76
g457
sg69
(lp584
g62
(g83
g64
NtRp585
(dp586
g67
(dp587
g87
g88
ssg76
g581
sg69
(lp588
g402
asbag62
(g83
g64
NtRp589
(dp590
g67
(dp591
g94
g95
ssg76
g581
sg69
(lp592
S':'
asbag62
(g83
g64
NtRp593
(dp594
g67
(dp595
sg76
g581
sg69
(lp596
g62
(g63
g64
NtRp597
(dp598
g67
(dp599
g75
I3
ssg76
g593
sg69
(lp600
S''
asbasbasbag62
(g78
g64
NtRp601
(dp602
g67
(dp603
sg76
g457
sg69
(lp604
g62
(g83
g64
NtRp605
(dp606
g67
(dp607
g87
g88
ssg76
g601
sg69
(lp608
g423
asbag62
(g83
g64
NtRp609
(dp610
g67
(dp611
g94
g95
ssg76
g601
sg69
(lp612
S':'
asbag62
(g83
g64
NtRp613
(dp614
g67
(dp615
sg76
g601
sg69
(lp616
g62
(g63
g64
NtRp617
(dp618
g67
(dp619
g75
I3
ssg76
g613
sg69
(lp620
S''
asbasbasbasbasbasbasbag62
(g78
g64
NtRp621
(dp622
g67
(dp623
sg76
g239
sg69
(lp624
g62
(g83
g64
NtRp625
(dp626
g67
(dp627
g87
g88
ssg76
g621
sg69
(lp628
S'session_id_cite_m1'
p629
asbag62
(g83
g64
NtRp630
(dp631
g67
(dp632
g94
g95
ssg76
g621
sg69
(lp633
S':'
asbag62
(g83
g64
NtRp634
(dp635
g67
(dp636
sg76
g621
sg69
(lp637
g62
(g63
g64
NtRp638
(dp639
g67
(dp640
g75
I4
ssg76
g634
sg69
(lp641
g62
(g71
g64
NtRp642
(dp643
g67
(dp644
g75
I3
ssg76
Nsg69
(lp645
g62
(g78
g64
NtRp646
(dp647
g67
(dp648
sg76
g642
sg69
(lp649
g62
(g83
g64
NtRp650
(dp651
g67
(dp652
g87
g88
ssg76
g646
sg69
(lp653
g276
asbag62
(g83
g64
NtRp654
(dp655
g67
(dp656
g94
g95
ssg76
g646
sg69
(lp657
S':'
asbag62
(g83
g64
NtRp658
(dp659
g67
(dp660
sg76
g646
sg69
(lp661
g62
(g63
g64
NtRp662
(dp663
g67
(dp664
g75
I3
ssg76
g658
sg69
(lp665
S''
asbasbasbag62
(g78
g64
NtRp666
(dp667
g67
(dp668
sg76
g642
sg69
(lp669
g62
(g83
g64
NtRp670
(dp671
g67
(dp672
g87
g88
ssg76
g666
sg69
(lp673
g297
asbag62
(g83
g64
NtRp674
(dp675
g67
(dp676
g94
g95
ssg76
g666
sg69
(lp677
S':'
asbag62
(g83
g64
NtRp678
(dp679
g67
(dp680
sg76
g666
sg69
(lp681
g62
(g63
g64
NtRp682
(dp683
g67
(dp684
g75
I3
ssg76
g678
sg69
(lp685
S''
asbasbasbag62
(g78
g64
NtRp686
(dp687
g67
(dp688
sg76
g642
sg69
(lp689
g62
(g83
g64
NtRp690
(dp691
g67
(dp692
g87
g88
ssg76
g686
sg69
(lp693
g318
asbag62
(g83
g64
NtRp694
(dp695
g67
(dp696
g94
g95
ssg76
g686
sg69
(lp697
S':'
asbag62
(g83
g64
NtRp698
(dp699
g67
(dp700
sg76
g686
sg69
(lp701
g62
(g63
g64
NtRp702
(dp703
g67
(dp704
g75
I3
ssg76
g698
sg69
(lp705
S''
asbasbasbag62
(g78
g64
NtRp706
(dp707
g67
(dp708
sg76
g642
sg69
(lp709
g62
(g83
g64
NtRp710
(dp711
g67
(dp712
g87
g88
ssg76
g706
sg69
(lp713
g339
asbag62
(g83
g64
NtRp714
(dp715
g67
(dp716
g94
g95
ssg76
g706
sg69
(lp717
S':'
asbag62
(g83
g64
NtRp718
(dp719
g67
(dp720
sg76
g706
sg69
(lp721
g62
(g63
g64
NtRp722
(dp723
g67
(dp724
g75
I3
ssg76
g718
sg69
(lp725
S''
asbasbasbag62
(g78
g64
NtRp726
(dp727
g67
(dp728
sg76
g642
sg69
(lp729
g62
(g83
g64
NtRp730
(dp731
g67
(dp732
g87
g88
ssg76
g726
sg69
(lp733
g360
asbag62
(g83
g64
NtRp734
(dp735
g67
(dp736
g94
g95
ssg76
g726
sg69
(lp737
S':'
asbag62
(g83
g64
NtRp738
(dp739
g67
(dp740
sg76
g726
sg69
(lp741
g62
(g63
g64
NtRp742
(dp743
g67
(dp744
g75
I3
ssg76
g738
sg69
(lp745
S''
asbasbasbag62
(g78
g64
NtRp746
(dp747
g67
(dp748
sg76
g642
sg69
(lp749
g62
(g83
g64
NtRp750
(dp751
g67
(dp752
g87
g88
ssg76
g746
sg69
(lp753
g381
asbag62
(g83
g64
NtRp754
(dp755
g67
(dp756
g94
g95
ssg76
g746
sg69
(lp757
S':'
asbag62
(g83
g64
NtRp758
(dp759
g67
(dp760
sg76
g746
sg69
(lp761
g62
(g63
g64
NtRp762
(dp763
g67
(dp764
g75
I3
ssg76
g758
sg69
(lp765
S''
asbasbasbag62
(g78
g64
NtRp766
(dp767
g67
(dp768
sg76
g642
sg69
(lp769
g62
(g83
g64
NtRp770
(dp771
g67
(dp772
g87
g88
ssg76
g766
sg69
(lp773
g402
asbag62
(g83
g64
NtRp774
(dp775
g67
(dp776
g94
g95
ssg76
g766
sg69
(lp777
S':'
asbag62
(g83
g64
NtRp778
(dp779
g67
(dp780
sg76
g766
sg69
(lp781
g62
(g63
g64
NtRp782
(dp783
g67
(dp784
g75
I3
ssg76
g778
sg69
(lp785
S''
asbasbasbag62
(g78
g64
NtRp786
(dp787
g67
(dp788
sg76
g642
sg69
(lp789
g62
(g83
g64
NtRp790
(dp791
g67
(dp792
g87
g88
ssg76
g786
sg69
(lp793
g423
asbag62
(g83
g64
NtRp794
(dp795
g67
(dp796
g94
g95
ssg76
g786
sg69
(lp797
S':'
asbag62
(g83
g64
NtRp798
(dp799
g67
(dp800
sg76
g786
sg69
(lp801
g62
(g63
g64
NtRp802
(dp803
g67
(dp804
g75
I3
ssg76
g798
sg69
(lp805
S''
asbasbasbasbasbasbasbag62
(g78
g64
NtRp806
(dp807
g67
(dp808
sg76
g239
sg69
(lp809
g62
(g83
g64
NtRp810
(dp811
g67
(dp812
g87
g88
ssg76
g806
sg69
(lp813
S'session_id_cite_m3'
p814
asbag62
(g83
g64
NtRp815
(dp816
g67
(dp817
g94
g95
ssg76
g806
sg69
(lp818
S':'
asbag62
(g83
g64
NtRp819
(dp820
g67
(dp821
sg76
g806
sg69
(lp822
g62
(g63
g64
NtRp823
(dp824
g67
(dp825
g75
I4
ssg76
g819
sg69
(lp826
g62
(g71
g64
NtRp827
(dp828
g67
(dp829
g75
I3
ssg76
Nsg69
(lp830
g62
(g78
g64
NtRp831
(dp832
g67
(dp833
sg76
g827
sg69
(lp834
g62
(g83
g64
NtRp835
(dp836
g67
(dp837
g87
g88
ssg76
g831
sg69
(lp838
g276
asbag62
(g83
g64
NtRp839
(dp840
g67
(dp841
g94
g95
ssg76
g831
sg69
(lp842
S':'
asbag62
(g83
g64
NtRp843
(dp844
g67
(dp845
sg76
g831
sg69
(lp846
g62
(g63
g64
NtRp847
(dp848
g67
(dp849
g75
I3
ssg76
g843
sg69
(lp850
S''
asbasbasbag62
(g78
g64
NtRp851
(dp852
g67
(dp853
sg76
g827
sg69
(lp854
g62
(g83
g64
NtRp855
(dp856
g67
(dp857
g87
g88
ssg76
g851
sg69
(lp858
g297
asbag62
(g83
g64
NtRp859
(dp860
g67
(dp861
g94
g95
ssg76
g851
sg69
(lp862
S':'
asbag62
(g83
g64
NtRp863
(dp864
g67
(dp865
sg76
g851
sg69
(lp866
g62
(g63
g64
NtRp867
(dp868
g67
(dp869
g75
I3
ssg76
g863
sg69
(lp870
S''
asbasbasbag62
(g78
g64
NtRp871
(dp872
g67
(dp873
sg76
g827
sg69
(lp874
g62
(g83
g64
NtRp875
(dp876
g67
(dp877
g87
g88
ssg76
g871
sg69
(lp878
g318
asbag62
(g83
g64
NtRp879
(dp880
g67
(dp881
g94
g95
ssg76
g871
sg69
(lp882
S':'
asbag62
(g83
g64
NtRp883
(dp884
g67
(dp885
sg76
g871
sg69
(lp886
g62
(g63
g64
NtRp887
(dp888
g67
(dp889
g75
I3
ssg76
g883
sg69
(lp890
S''
asbasbasbag62
(g78
g64
NtRp891
(dp892
g67
(dp893
sg76
g827
sg69
(lp894
g62
(g83
g64
NtRp895
(dp896
g67
(dp897
g87
g88
ssg76
g891
sg69
(lp898
g339
asbag62
(g83
g64
NtRp899
(dp900
g67
(dp901
g94
g95
ssg76
g891
sg69
(lp902
S':'
asbag62
(g83
g64
NtRp903
(dp904
g67
(dp905
sg76
g891
sg69
(lp906
g62
(g63
g64
NtRp907
(dp908
g67
(dp909
g75
I3
ssg76
g903
sg69
(lp910
S''
asbasbasbag62
(g78
g64
NtRp911
(dp912
g67
(dp913
sg76
g827
sg69
(lp914
g62
(g83
g64
NtRp915
(dp916
g67
(dp917
g87
g88
ssg76
g911
sg69
(lp918
g360
asbag62
(g83
g64
NtRp919
(dp920
g67
(dp921
g94
g95
ssg76
g911
sg69
(lp922
S':'
asbag62
(g83
g64
NtRp923
(dp924
g67
(dp925
sg76
g911
sg69
(lp926
g62
(g63
g64
NtRp927
(dp928
g67
(dp929
g75
I3
ssg76
g923
sg69
(lp930
S''
asbasbasbag62
(g78
g64
NtRp931
(dp932
g67
(dp933
sg76
g827
sg69
(lp934
g62
(g83
g64
NtRp935
(dp936
g67
(dp937
g87
g88
ssg76
g931
sg69
(lp938
g381
asbag62
(g83
g64
NtRp939
(dp940
g67
(dp941
g94
g95
ssg76
g931
sg69
(lp942
S':'
asbag62
(g83
g64
NtRp943
(dp944
g67
(dp945
sg76
g931
sg69
(lp946
g62
(g63
g64
NtRp947
(dp948
g67
(dp949
g75
I3
ssg76
g943
sg69
(lp950
S''
asbasbasbag62
(g78
g64
NtRp951
(dp952
g67
(dp953
sg76
g827
sg69
(lp954
g62
(g83
g64
NtRp955
(dp956
g67
(dp957
g87
g88
ssg76
g951
sg69
(lp958
g402
asbag62
(g83
g64
NtRp959
(dp960
g67
(dp961
g94
g95
ssg76
g951
sg69
(lp962
S':'
asbag62
(g83
g64
NtRp963
(dp964
g67
(dp965
sg76
g951
sg69
(lp966
g62
(g63
g64
NtRp967
(dp968
g67
(dp969
g75
I3
ssg76
g963
sg69
(lp970
S''
asbasbasbag62
(g78
g64
NtRp971
(dp972
g67
(dp973
sg76
g827
sg69
(lp974
g62
(g83
g64
NtRp975
(dp976
g67
(dp977
g87
g88
ssg76
g971
sg69
(lp978
g423
asbag62
(g83
g64
NtRp979
(dp980
g67
(dp981
g94
g95
ssg76
g971
sg69
(lp982
S':'
asbag62
(g83
g64
NtRp983
(dp984
g67
(dp985
sg76
g971
sg69
(lp986
g62
(g63
g64
NtRp987
(dp988
g67
(dp989
g75
I3
ssg76
g983
sg69
(lp990
S''
asbasbasbasbasbasbasbag62
(g78
g64
NtRp991
(dp992
g67
(dp993
sg76
g239
sg69
(lp994
g62
(g83
g64
NtRp995
(dp996
g67
(dp997
g87
g88
ssg76
g991
sg69
(lp998
S'session_id_welcome'
p999
asbag62
(g83
g64
NtRp1000
(dp1001
g67
(dp1002
g94
g95
ssg76
g991
sg69
(lp1003
S':'
asbag62
(g83
g64
NtRp1004
(dp1005
g67
(dp1006
sg76
g991
sg69
(lp1007
g62
(g63
g64
NtRp1008
(dp1009
g67
(dp1010
g75
I4
ssg76
g1004
sg69
(lp1011
g62
(g71
g64
NtRp1012
(dp1013
g67
(dp1014
g75
I3
ssg76
Nsg69
(lp1015
g62
(g78
g64
NtRp1016
(dp1017
g67
(dp1018
sg76
g1012
sg69
(lp1019
g62
(g83
g64
NtRp1020
(dp1021
g67
(dp1022
g87
g88
ssg76
g1016
sg69
(lp1023
g276
asbag62
(g83
g64
NtRp1024
(dp1025
g67
(dp1026
g94
g95
ssg76
g1016
sg69
(lp1027
S':'
asbag62
(g83
g64
NtRp1028
(dp1029
g67
(dp1030
sg76
g1016
sg69
(lp1031
g62
(g63
g64
NtRp1032
(dp1033
g67
(dp1034
g75
I3
ssg76
g1028
sg69
(lp1035
S''
asbasbasbag62
(g78
g64
NtRp1036
(dp1037
g67
(dp1038
sg76
g1012
sg69
(lp1039
g62
(g83
g64
NtRp1040
(dp1041
g67
(dp1042
g87
g88
ssg76
g1036
sg69
(lp1043
g297
asbag62
(g83
g64
NtRp1044
(dp1045
g67
(dp1046
g94
g95
ssg76
g1036
sg69
(lp1047
S':'
asbag62
(g83
g64
NtRp1048
(dp1049
g67
(dp1050
sg76
g1036
sg69
(lp1051
g62
(g63
g64
NtRp1052
(dp1053
g67
(dp1054
g75
I3
ssg76
g1048
sg69
(lp1055
S''
asbasbasbag62
(g78
g64
NtRp1056
(dp1057
g67
(dp1058
sg76
g1012
sg69
(lp1059
g62
(g83
g64
NtRp1060
(dp1061
g67
(dp1062
g87
g88
ssg76
g1056
sg69
(lp1063
g318
asbag62
(g83
g64
NtRp1064
(dp1065
g67
(dp1066
g94
g95
ssg76
g1056
sg69
(lp1067
S':'
asbag62
(g83
g64
NtRp1068
(dp1069
g67
(dp1070
sg76
g1056
sg69
(lp1071
g62
(g63
g64
NtRp1072
(dp1073
g67
(dp1074
g75
I3
ssg76
g1068
sg69
(lp1075
S''
asbasbasbag62
(g78
g64
NtRp1076
(dp1077
g67
(dp1078
sg76
g1012
sg69
(lp1079
g62
(g83
g64
NtRp1080
(dp1081
g67
(dp1082
g87
g88
ssg76
g1076
sg69
(lp1083
g339
asbag62
(g83
g64
NtRp1084
(dp1085
g67
(dp1086
g94
g95
ssg76
g1076
sg69
(lp1087
S':'
asbag62
(g83
g64
NtRp1088
(dp1089
g67
(dp1090
sg76
g1076
sg69
(lp1091
g62
(g63
g64
NtRp1092
(dp1093
g67
(dp1094
g75
I3
ssg76
g1088
sg69
(lp1095
S''
asbasbasbag62
(g78
g64
NtRp1096
(dp1097
g67
(dp1098
sg76
g1012
sg69
(lp1099
g62
(g83
g64
NtRp1100
(dp1101
g67
(dp1102
g87
g88
ssg76
g1096
sg69
(lp1103
g360
asbag62
(g83
g64
NtRp1104
(dp1105
g67
(dp1106
g94
g95
ssg76
g1096
sg69
(lp1107
S':'
asbag62
(g83
g64
NtRp1108
(dp1109
g67
(dp1110
sg76
g1096
sg69
(lp1111
g62
(g63
g64
NtRp1112
(dp1113
g67
(dp1114
g75
I3
ssg76
g1108
sg69
(lp1115
S''
asbasbasbag62
(g78
g64
NtRp1116
(dp1117
g67
(dp1118
sg76
g1012
sg69
(lp1119
g62
(g83
g64
NtRp1120
(dp1121
g67
(dp1122
g87
g88
ssg76
g1116
sg69
(lp1123
g381
asbag62
(g83
g64
NtRp1124
(dp1125
g67
(dp1126
g94
g95
ssg76
g1116
sg69
(lp1127
S':'
asbag62
(g83
g64
NtRp1128
(dp1129
g67
(dp1130
sg76
g1116
sg69
(lp1131
g62
(g63
g64
NtRp1132
(dp1133
g67
(dp1134
g75
I3
ssg76
g1128
sg69
(lp1135
S''
asbasbasbag62
(g78
g64
NtRp1136
(dp1137
g67
(dp1138
sg76
g1012
sg69
(lp1139
g62
(g83
g64
NtRp1140
(dp1141
g67
(dp1142
g87
g88
ssg76
g1136
sg69
(lp1143
g402
asbag62
(g83
g64
NtRp1144
(dp1145
g67
(dp1146
g94
g95
ssg76
g1136
sg69
(lp1147
S':'
asbag62
(g83
g64
NtRp1148
(dp1149
g67
(dp1150
sg76
g1136
sg69
(lp1151
g62
(g63
g64
NtRp1152
(dp1153
g67
(dp1154
g75
I3
ssg76
g1148
sg69
(lp1155
S''
asbasbasbag62
(g78
g64
NtRp1156
(dp1157
g67
(dp1158
sg76
g1012
sg69
(lp1159
g62
(g83
g64
NtRp1160
(dp1161
g67
(dp1162
g87
g88
ssg76
g1156
sg69
(lp1163
g423
asbag62
(g83
g64
NtRp1164
(dp1165
g67
(dp1166
g94
g95
ssg76
g1156
sg69
(lp1167
S':'
asbag62
(g83
g64
NtRp1168
(dp1169
g67
(dp1170
sg76
g1156
sg69
(lp1171
g62
(g63
g64
NtRp1172
(dp1173
g67
(dp1174
g75
I3
ssg76
g1168
sg69
(lp1175
S''
asbasbasbasbasbasbasbasbasbasbasbag62
(g78
g64
NtRp1176
(dp1177
g67
(dp1178
sg76
g72
sg69
(lp1179
g62
(g83
g64
NtRp1180
(dp1181
g67
(dp1182
g87
g88
ssg76
g1176
sg69
(lp1183
S'env'
p1184
asbag62
(g83
g64
NtRp1185
(dp1186
g67
(dp1187
g94
g95
ssg76
g1176
sg69
(lp1188
S':'
asbag62
(g83
g64
NtRp1189
(dp1190
g67
(dp1191
sg76
g1176
sg69
(lp1192
g62
(g63
g64
NtRp1193
(dp1194
g67
(dp1195
g75
I5
ssg76
g1189
sg69
(lp1196
g62
(g71
g64
NtRp1197
(dp1198
g67
(dp1199
g75
I4
ssg76
Nsg69
(lp1200
g62
(g78
g64
NtRp1201
(dp1202
g67
(dp1203
sg76
g1197
sg69
(lp1204
g62
(g83
g64
NtRp1205
(dp1206
g67
(dp1207
g87
g88
ssg76
g1201
sg69
(lp1208
S'app_folders'
p1209
asbag62
(g83
g64
NtRp1210
(dp1211
g67
(dp1212
g94
g95
ssg76
g1201
sg69
(lp1213
S':'
asbag62
(g83
g64
NtRp1214
(dp1215
g67
(dp1216
sg76
g1201
sg69
(lp1217
g62
(g63
g64
NtRp1218
(dp1219
g67
(dp1220
g75
I4
ssg76
g1214
sg69
(lp1221
S"set(['/home/maneesha/Downloads/web2py/applications/welcome/', '/home/maneesha/Downloads/web2py/applications/admin/', '/home/maneesha/Downloads/web2py/applications/cite_m/', '/home/maneesha/Downloads/web2py/applications/cite_m3/'])"
p1222
asbasbasbag62
(g78
g64
NtRp1223
(dp1224
g67
(dp1225
sg76
g1197
sg69
(lp1226
g62
(g83
g64
NtRp1227
(dp1228
g67
(dp1229
g87
g88
ssg76
g1223
sg69
(lp1230
S'applications_parent'
p1231
asbag62
(g83
g64
NtRp1232
(dp1233
g67
(dp1234
g94
g95
ssg76
g1223
sg69
(lp1235
S':'
asbag62
(g83
g64
NtRp1236
(dp1237
g67
(dp1238
sg76
g1223
sg69
(lp1239
g62
(g63
g64
NtRp1240
(dp1241
g67
(dp1242
g75
I4
ssg76
g1236
sg69
(lp1243
S'/home/maneesha/Downloads/web2py'
p1244
asbasbasbag62
(g78
g64
NtRp1245
(dp1246
g67
(dp1247
sg76
g1197
sg69
(lp1248
g62
(g83
g64
NtRp1249
(dp1250
g67
(dp1251
g87
g88
ssg76
g1245
sg69
(lp1252
S'cmd_args'
p1253
asbag62
(g83
g64
NtRp1254
(dp1255
g67
(dp1256
g94
g95
ssg76
g1245
sg69
(lp1257
S':'
asbag62
(g83
g64
NtRp1258
(dp1259
g67
(dp1260
sg76
g1245
sg69
(lp1261
g62
(g63
g64
NtRp1262
(dp1263
g67
(dp1264
g75
I4
ssg76
g1258
sg69
(lp1265
g62
(g71
g64
NtRp1266
(dp1267
g67
(dp1268
g75
I3
ssg76
Nsg69
(lp1269
sbasbasbasbag62
(g78
g64
NtRp1270
(dp1271
g67
(dp1272
sg76
g1197
sg69
(lp1273
g62
(g83
g64
NtRp1274
(dp1275
g67
(dp1276
g87
g88
ssg76
g1270
sg69
(lp1277
S'cmd_options'
p1278
asbag62
(g83
g64
NtRp1279
(dp1280
g67
(dp1281
g94
g95
ssg76
g1270
sg69
(lp1282
S':'
asbag62
(g83
g64
NtRp1283
(dp1284
g67
(dp1285
sg76
g1270
sg69
(lp1286
g62
(g63
g64
NtRp1287
(dp1288
g67
(dp1289
g75
I4
ssg76
g1283
sg69
(lp1290
S"<Values at 0x2af9b00: {'verbose': False, 'ip': '127.0.0.1', 'shutdown_timeout': 5, 'taskbar': False, 'nocron': False, 'pid_filename': 'httpserver.pid', 'maxthreads': None, 'softcron': False, 'server_name': 'maneesha-Inspiron-N5050', 'bpython': False, 'nogui': False, 'port': 8000, 'extcron': False, 'debuglevel': 30, 'test': None, 'folder': '/home/maneesha/Downloads/web2py', 'config': '', 'import_models': False, 'winservice': '', 'shell': None, 'run': '', 'log_filename': 'httpserver.log', 'args': [''], 'socket_timeout': 5, 'ssl_ca_certificate': None, 'scheduler': None, 'profiler_filename': None, 'ssl_private_key': '', 'password': '<ask>', 'request_queue_size': 5, 'ssl_certificate': '', 'cronjob': False, 'numthreads': None, 'quiet': False, 'interfaces': None, 'minthreads': None, 'timeout': 10, 'plain': False, 'nobanner': False}>"
p1291
asbasbasbag62
(g78
g64
NtRp1292
(dp1293
g67
(dp1294
sg76
g1197
sg69
(lp1295
g62
(g83
g64
NtRp1296
(dp1297
g67
(dp1298
g87
g88
ssg76
g1292
sg69
(lp1299
S'db_sessions'
p1300
asbag62
(g83
g64
NtRp1301
(dp1302
g67
(dp1303
g94
g95
ssg76
g1292
sg69
(lp1304
S':'
asbag62
(g83
g64
NtRp1305
(dp1306
g67
(dp1307
sg76
g1292
sg69
(lp1308
g62
(g63
g64
NtRp1309
(dp1310
g67
(dp1311
g75
I4
ssg76
g1305
sg69
(lp1312
S'set([])'
p1313
asbasbasbag62
(g78
g64
NtRp1314
(dp1315
g67
(dp1316
sg76
g1197
sg69
(lp1317
g62
(g83
g64
NtRp1318
(dp1319
g67
(dp1320
g87
g88
ssg76
g1314
sg69
(lp1321
S'debugging'
p1322
asbag62
(g83
g64
NtRp1323
(dp1324
g67
(dp1325
g94
g95
ssg76
g1314
sg69
(lp1326
S':'
asbag62
(g83
g64
NtRp1327
(dp1328
g67
(dp1329
sg76
g1314
sg69
(lp1330
g62
(g63
g64
NtRp1331
(dp1332
g67
(dp1333
g75
I4
ssg76
g1327
sg69
(lp1334
g105
asbasbasbag62
(g78
g64
NtRp1335
(dp1336
g67
(dp1337
sg76
g1197
sg69
(lp1338
g62
(g83
g64
NtRp1339
(dp1340
g67
(dp1341
g87
g88
ssg76
g1335
sg69
(lp1342
S'gluon_parent'
p1343
asbag62
(g83
g64
NtRp1344
(dp1345
g67
(dp1346
g94
g95
ssg76
g1335
sg69
(lp1347
S':'
asbag62
(g83
g64
NtRp1348
(dp1349
g67
(dp1350
sg76
g1335
sg69
(lp1351
g62
(g63
g64
NtRp1352
(dp1353
g67
(dp1354
g75
I4
ssg76
g1348
sg69
(lp1355
S'/home/maneesha/Downloads/web2py'
p1356
asbasbasbag62
(g78
g64
NtRp1357
(dp1358
g67
(dp1359
sg76
g1197
sg69
(lp1360
g62
(g83
g64
NtRp1361
(dp1362
g67
(dp1363
g87
g88
ssg76
g1357
sg69
(lp1364
S'http_accept'
p1365
asbag62
(g83
g64
NtRp1366
(dp1367
g67
(dp1368
g94
g95
ssg76
g1357
sg69
(lp1369
S':'
asbag62
(g83
g64
NtRp1370
(dp1371
g67
(dp1372
sg76
g1357
sg69
(lp1373
g62
(g63
g64
NtRp1374
(dp1375
g67
(dp1376
g75
I4
ssg76
g1370
sg69
(lp1377
S'text/html,application/xhtml+xml,application/xml;q=0.9,*/*;q=0.8'
p1378
asbasbasbag62
(g78
g64
NtRp1379
(dp1380
g67
(dp1381
sg76
g1197
sg69
(lp1382
g62
(g83
g64
NtRp1383
(dp1384
g67
(dp1385
g87
g88
ssg76
g1379
sg69
(lp1386
S'http_accept_encoding'
p1387
asbag62
(g83
g64
NtRp1388
(dp1389
g67
(dp1390
g94
g95
ssg76
g1379
sg69
(lp1391
S':'
asbag62
(g83
g64
NtRp1392
(dp1393
g67
(dp1394
sg76
g1379
sg69
(lp1395
g62
(g63
g64
NtRp1396
(dp1397
g67
(dp1398
g75
I4
ssg76
g1392
sg69
(lp1399
S'gzip, deflate'
p1400
asbasbasbag62
(g78
g64
NtRp1401
(dp1402
g67
(dp1403
sg76
g1197
sg69
(lp1404
g62
(g83
g64
NtRp1405
(dp1406
g67
(dp1407
g87
g88
ssg76
g1401
sg69
(lp1408
S'http_accept_language'
p1409
asbag62
(g83
g64
NtRp1410
(dp1411
g67
(dp1412
g94
g95
ssg76
g1401
sg69
(lp1413
S':'
asbag62
(g83
g64
NtRp1414
(dp1415
g67
(dp1416
sg76
g1401
sg69
(lp1417
g62
(g63
g64
NtRp1418
(dp1419
g67
(dp1420
g75
I4
ssg76
g1414
sg69
(lp1421
S'en-US,en;q=0.5'
p1422
asbasbasbag62
(g78
g64
NtRp1423
(dp1424
g67
(dp1425
sg76
g1197
sg69
(lp1426
g62
(g83
g64
NtRp1427
(dp1428
g67
(dp1429
g87
g88
ssg76
g1423
sg69
(lp1430
S'http_connection'
p1431
asbag62
(g83
g64
NtRp1432
(dp1433
g67
(dp1434
g94
g95
ssg76
g1423
sg69
(lp1435
S':'
asbag62
(g83
g64
NtRp1436
(dp1437
g67
(dp1438
sg76
g1423
sg69
(lp1439
g62
(g63
g64
NtRp1440
(dp1441
g67
(dp1442
g75
I4
ssg76
g1436
sg69
(lp1443
S'keep-alive'
p1444
asbasbasbag62
(g78
g64
NtRp1445
(dp1446
g67
(dp1447
sg76
g1197
sg69
(lp1448
g62
(g83
g64
NtRp1449
(dp1450
g67
(dp1451
g87
g88
ssg76
g1445
sg69
(lp1452
S'http_cookie'
p1453
asbag62
(g83
g64
NtRp1454
(dp1455
g67
(dp1456
g94
g95
ssg76
g1445
sg69
(lp1457
S':'
asbag62
(g83
g64
NtRp1458
(dp1459
g67
(dp1460
sg76
g1445
sg69
(lp1461
g62
(g63
g64
NtRp1462
(dp1463
g67
(dp1464
g75
I4
ssg76
g1458
sg69
(lp1465
S'session_id_welcome=127.0.0.1-b0c176f1-09ef-440c-b002-5e5d8ad7334b; session_id_cite_m1=127.0.0.1-eae66d3b-bb7f-468e-8d8a-fd7d790f6a7e; session_id_cite_m=127.0.0.1-b2dfb87e-d35c-4c23-92fb-8613e360d012; session_id_cite_m3=127.0.0.1-47ff6b5b-ae2e-4fc8-851c-9fb23404d46e; session_id_admin=127.0.0.1-4beefdd2-72e1-4fc0-be85-3a906a68618d'
p1466
asbasbasbag62
(g78
g64
NtRp1467
(dp1468
g67
(dp1469
sg76
g1197
sg69
(lp1470
g62
(g83
g64
NtRp1471
(dp1472
g67
(dp1473
g87
g88
ssg76
g1467
sg69
(lp1474
S'http_host'
p1475
asbag62
(g83
g64
NtRp1476
(dp1477
g67
(dp1478
g94
g95
ssg76
g1467
sg69
(lp1479
S':'
asbag62
(g83
g64
NtRp1480
(dp1481
g67
(dp1482
sg76
g1467
sg69
(lp1483
g62
(g63
g64
NtRp1484
(dp1485
g67
(dp1486
g75
I4
ssg76
g1480
sg69
(lp1487
S'127.0.0.1:8000'
p1488
asbasbasbag62
(g78
g64
NtRp1489
(dp1490
g67
(dp1491
sg76
g1197
sg69
(lp1492
g62
(g83
g64
NtRp1493
(dp1494
g67
(dp1495
g87
g88
ssg76
g1489
sg69
(lp1496
S'http_referer'
p1497
asbag62
(g83
g64
NtRp1498
(dp1499
g67
(dp1500
g94
g95
ssg76
g1489
sg69
(lp1501
S':'
asbag62
(g83
g64
NtRp1502
(dp1503
g67
(dp1504
sg76
g1489
sg69
(lp1505
g62
(g63
g64
NtRp1506
(dp1507
g67
(dp1508
g75
I4
ssg76
g1502
sg69
(lp1509
S'http://127.0.0.1:8000/cite_m3/default/index'
p1510
asbasbasbag62
(g78
g64
NtRp1511
(dp1512
g67
(dp1513
sg76
g1197
sg69
(lp1514
g62
(g83
g64
NtRp1515
(dp1516
g67
(dp1517
g87
g88
ssg76
g1511
sg69
(lp1518
S'http_user_agent'
p1519
asbag62
(g83
g64
NtRp1520
(dp1521
g67
(dp1522
g94
g95
ssg76
g1511
sg69
(lp1523
S':'
asbag62
(g83
g64
NtRp1524
(dp1525
g67
(dp1526
sg76
g1511
sg69
(lp1527
g62
(g63
g64
NtRp1528
(dp1529
g67
(dp1530
g75
I4
ssg76
g1524
sg69
(lp1531
S'Mozilla/5.0 (X11; Ubuntu; Linux x86_64; rv:16.0) Gecko/20100101 Firefox/16.0'
p1532
asbasbasbag62
(g78
g64
NtRp1533
(dp1534
g67
(dp1535
sg76
g1197
sg69
(lp1536
g62
(g83
g64
NtRp1537
(dp1538
g67
(dp1539
g87
g88
ssg76
g1533
sg69
(lp1540
S'is_jython'
p1541
asbag62
(g83
g64
NtRp1542
(dp1543
g67
(dp1544
g94
g95
ssg76
g1533
sg69
(lp1545
S':'
asbag62
(g83
g64
NtRp1546
(dp1547
g67
(dp1548
sg76
g1533
sg69
(lp1549
g62
(g63
g64
NtRp1550
(dp1551
g67
(dp1552
g75
I4
ssg76
g1546
sg69
(lp1553
g105
asbasbasbag62
(g78
g64
NtRp1554
(dp1555
g67
(dp1556
sg76
g1197
sg69
(lp1557
g62
(g83
g64
NtRp1558
(dp1559
g67
(dp1560
g87
g88
ssg76
g1554
sg69
(lp1561
S'is_pypy'
p1562
asbag62
(g83
g64
NtRp1563
(dp1564
g67
(dp1565
g94
g95
ssg76
g1554
sg69
(lp1566
S':'
asbag62
(g83
g64
NtRp1567
(dp1568
g67
(dp1569
sg76
g1554
sg69
(lp1570
g62
(g63
g64
NtRp1571
(dp1572
g67
(dp1573
g75
I4
ssg76
g1567
sg69
(lp1574
g105
asbasbasbag62
(g78
g64
NtRp1575
(dp1576
g67
(dp1577
sg76
g1197
sg69
(lp1578
g62
(g83
g64
NtRp1579
(dp1580
g67
(dp1581
g87
g88
ssg76
g1575
sg69
(lp1582
S'path_info'
p1583
asbag62
(g83
g64
NtRp1584
(dp1585
g67
(dp1586
g94
g95
ssg76
g1575
sg69
(lp1587
S':'
asbag62
(g83
g64
NtRp1588
(dp1589
g67
(dp1590
sg76
g1575
sg69
(lp1591
g62
(g63
g64
NtRp1592
(dp1593
g67
(dp1594
g75
I4
ssg76
g1588
sg69
(lp1595
S'/cite_m3/default/final_ans'
p1596
asbasbasbag62
(g78
g64
NtRp1597
(dp1598
g67
(dp1599
sg76
g1197
sg69
(lp1600
g62
(g83
g64
NtRp1601
(dp1602
g67
(dp1603
g87
g88
ssg76
g1597
sg69
(lp1604
S'query_string'
p1605
asbag62
(g83
g64
NtRp1606
(dp1607
g67
(dp1608
g94
g95
ssg76
g1597
sg69
(lp1609
S':'
asbag62
(g83
g64
NtRp1610
(dp1611
g67
(dp1612
sg76
g1597
sg69
(lp1613
g62
(g63
g64
NtRp1614
(dp1615
g67
(dp1616
g75
I4
ssg76
g1610
sg69
(lp1617
S''
asbasbasbag62
(g78
g64
NtRp1618
(dp1619
g67
(dp1620
sg76
g1197
sg69
(lp1621
g62
(g83
g64
NtRp1622
(dp1623
g67
(dp1624
g87
g88
ssg76
g1618
sg69
(lp1625
S'remote_addr'
p1626
asbag62
(g83
g64
NtRp1627
(dp1628
g67
(dp1629
g94
g95
ssg76
g1618
sg69
(lp1630
S':'
asbag62
(g83
g64
NtRp1631
(dp1632
g67
(dp1633
sg76
g1618
sg69
(lp1634
g62
(g63
g64
NtRp1635
(dp1636
g67
(dp1637
g75
I4
ssg76
g1631
sg69
(lp1638
g195
asbasbasbag62
(g78
g64
NtRp1639
(dp1640
g67
(dp1641
sg76
g1197
sg69
(lp1642
g62
(g83
g64
NtRp1643
(dp1644
g67
(dp1645
g87
g88
ssg76
g1639
sg69
(lp1646
S'remote_port'
p1647
asbag62
(g83
g64
NtRp1648
(dp1649
g67
(dp1650
g94
g95
ssg76
g1639
sg69
(lp1651
S':'
asbag62
(g83
g64
NtRp1652
(dp1653
g67
(dp1654
sg76
g1639
sg69
(lp1655
g62
(g63
g64
NtRp1656
(dp1657
g67
(dp1658
g75
I4
ssg76
g1652
sg69
(lp1659
S'48020'
p1660
asbasbasbag62
(g78
g64
NtRp1661
(dp1662
g67
(dp1663
sg76
g1197
sg69
(lp1664
g62
(g83
g64
NtRp1665
(dp1666
g67
(dp1667
g87
g88
ssg76
g1661
sg69
(lp1668
S'request_method'
p1669
asbag62
(g83
g64
NtRp1670
(dp1671
g67
(dp1672
g94
g95
ssg76
g1661
sg69
(lp1673
S':'
asbag62
(g83
g64
NtRp1674
(dp1675
g67
(dp1676
sg76
g1661
sg69
(lp1677
g62
(g63
g64
NtRp1678
(dp1679
g67
(dp1680
g75
I4
ssg76
g1674
sg69
(lp1681
S'GET'
p1682
asbasbasbag62
(g78
g64
NtRp1683
(dp1684
g67
(dp1685
sg76
g1197
sg69
(lp1686
g62
(g83
g64
NtRp1687
(dp1688
g67
(dp1689
g87
g88
ssg76
g1683
sg69
(lp1690
S'script_name'
p1691
asbag62
(g83
g64
NtRp1692
(dp1693
g67
(dp1694
g94
g95
ssg76
g1683
sg69
(lp1695
S':'
asbag62
(g83
g64
NtRp1696
(dp1697
g67
(dp1698
sg76
g1683
sg69
(lp1699
g62
(g63
g64
NtRp1700
(dp1701
g67
(dp1702
g75
I4
ssg76
g1696
sg69
(lp1703
S''
asbasbasbag62
(g78
g64
NtRp1704
(dp1705
g67
(dp1706
sg76
g1197
sg69
(lp1707
g62
(g83
g64
NtRp1708
(dp1709
g67
(dp1710
g87
g88
ssg76
g1704
sg69
(lp1711
S'server_name'
p1712
asbag62
(g83
g64
NtRp1713
(dp1714
g67
(dp1715
g94
g95
ssg76
g1704
sg69
(lp1716
S':'
asbag62
(g83
g64
NtRp1717
(dp1718
g67
(dp1719
sg76
g1704
sg69
(lp1720
g62
(g63
g64
NtRp1721
(dp1722
g67
(dp1723
g75
I4
ssg76
g1717
sg69
(lp1724
S'maneesha-Inspiron-N5050'
p1725
asbasbasbag62
(g78
g64
NtRp1726
(dp1727
g67
(dp1728
sg76
g1197
sg69
(lp1729
g62
(g83
g64
NtRp1730
(dp1731
g67
(dp1732
g87
g88
ssg76
g1726
sg69
(lp1733
S'server_port'
p1734
asbag62
(g83
g64
NtRp1735
(dp1736
g67
(dp1737
g94
g95
ssg76
g1726
sg69
(lp1738
S':'
asbag62
(g83
g64
NtRp1739
(dp1740
g67
(dp1741
sg76
g1726
sg69
(lp1742
g62
(g63
g64
NtRp1743
(dp1744
g67
(dp1745
g75
I4
ssg76
g1739
sg69
(lp1746
S'8000'
p1747
asbasbasbag62
(g78
g64
NtRp1748
(dp1749
g67
(dp1750
sg76
g1197
sg69
(lp1751
g62
(g83
g64
NtRp1752
(dp1753
g67
(dp1754
g87
g88
ssg76
g1748
sg69
(lp1755
S'server_protocol'
p1756
asbag62
(g83
g64
NtRp1757
(dp1758
g67
(dp1759
g94
g95
ssg76
g1748
sg69
(lp1760
S':'
asbag62
(g83
g64
NtRp1761
(dp1762
g67
(dp1763
sg76
g1748
sg69
(lp1764
g62
(g63
g64
NtRp1765
(dp1766
g67
(dp1767
g75
I4
ssg76
g1761
sg69
(lp1768
S'HTTP/1.1'
p1769
asbasbasbag62
(g78
g64
NtRp1770
(dp1771
g67
(dp1772
sg76
g1197
sg69
(lp1773
g62
(g83
g64
NtRp1774
(dp1775
g67
(dp1776
g87
g88
ssg76
g1770
sg69
(lp1777
S'server_software'
p1778
asbag62
(g83
g64
NtRp1779
(dp1780
g67
(dp1781
g94
g95
ssg76
g1770
sg69
(lp1782
S':'
asbag62
(g83
g64
NtRp1783
(dp1784
g67
(dp1785
sg76
g1770
sg69
(lp1786
g62
(g63
g64
NtRp1787
(dp1788
g67
(dp1789
g75
I4
ssg76
g1783
sg69
(lp1790
S'Rocket 1.2.4'
p1791
asbasbasbag62
(g78
g64
NtRp1792
(dp1793
g67
(dp1794
sg76
g1197
sg69
(lp1795
g62
(g83
g64
NtRp1796
(dp1797
g67
(dp1798
g87
g88
ssg76
g1792
sg69
(lp1799
S'web2py_crontype'
p1800
asbag62
(g83
g64
NtRp1801
(dp1802
g67
(dp1803
g94
g95
ssg76
g1792
sg69
(lp1804
S':'
asbag62
(g83
g64
NtRp1805
(dp1806
g67
(dp1807
sg76
g1792
sg69
(lp1808
g62
(g63
g64
NtRp1809
(dp1810
g67
(dp1811
g75
I4
ssg76
g1805
sg69
(lp1812
S'hard'
p1813
asbasbasbag62
(g78
g64
NtRp1814
(dp1815
g67
(dp1816
sg76
g1197
sg69
(lp1817
g62
(g83
g64
NtRp1818
(dp1819
g67
(dp1820
g87
g88
ssg76
g1814
sg69
(lp1821
S'web2py_path'
p1822
asbag62
(g83
g64
NtRp1823
(dp1824
g67
(dp1825
g94
g95
ssg76
g1814
sg69
(lp1826
S':'
asbag62
(g83
g64
NtRp1827
(dp1828
g67
(dp1829
sg76
g1814
sg69
(lp1830
g62
(g63
g64
NtRp1831
(dp1832
g67
(dp1833
g75
I4
ssg76
g1827
sg69
(lp1834
g1244
asbasbasbag62
(g78
g64
NtRp1835
(dp1836
g67
(dp1837
sg76
g1197
sg69
(lp1838
g62
(g83
g64
NtRp1839
(dp1840
g67
(dp1841
g87
g88
ssg76
g1835
sg69
(lp1842
S'web2py_version'
p1843
asbag62
(g83
g64
NtRp1844
(dp1845
g67
(dp1846
g94
g95
ssg76
g1835
sg69
(lp1847
S':'
asbag62
(g83
g64
NtRp1848
(dp1849
g67
(dp1850
sg76
g1835
sg69
(lp1851
g62
(g63
g64
NtRp1852
(dp1853
g67
(dp1854
g75
I4
ssg76
g1848
sg69
(lp1855
g62
(g71
g64
NtRp1856
(dp1857
g67
(dp1858
g75
I3
ssg76
Nsg69
(lp1859
g62
(g78
g64
NtRp1860
(dp1861
g67
(dp1862
sg76
g1856
sg69
(lp1863
g62
(g83
g64
NtRp1864
(dp1865
g67
(dp1866
sg76
g1860
sg69
(lp1867
g62
(g63
g64
NtRp1868
(dp1869
g67
(dp1870
g75
I3
ssg76
g1864
sg69
(lp1871
S'1'
asbasbasbag62
(g78
g64
NtRp1872
(dp1873
g67
(dp1874
sg76
g1856
sg69
(lp1875
g62
(g83
g64
NtRp1876
(dp1877
g67
(dp1878
sg76
g1872
sg69
(lp1879
g62
(g63
g64
NtRp1880
(dp1881
g67
(dp1882
g75
I3
ssg76
g1876
sg69
(lp1883
S'99'
p1884
asbasbasbag62
(g78
g64
NtRp1885
(dp1886
g67
(dp1887
sg76
g1856
sg69
(lp1888
g62
(g83
g64
NtRp1889
(dp1890
g67
(dp1891
sg76
g1885
sg69
(lp1892
g62
(g63
g64
NtRp1893
(dp1894
g67
(dp1895
g75
I3
ssg76
g1889
sg69
(lp1896
S'7'
asbasbasbag62
(g78
g64
NtRp1897
(dp1898
g67
(dp1899
sg76
g1856
sg69
(lp1900
g62
(g83
g64
NtRp1901
(dp1902
g67
(dp1903
sg76
g1897
sg69
(lp1904
g62
(g63
g64
NtRp1905
(dp1906
g67
(dp1907
g75
I3
ssg76
g1901
sg69
(lp1908
S'datetime.datetime(2012, 3, 4, 22, 12, 8)'
p1909
asbasbasbag62
(g78
g64
NtRp1910
(dp1911
g67
(dp1912
sg76
g1856
sg69
(lp1913
g62
(g83
g64
NtRp1914
(dp1915
g67
(dp1916
sg76
g1910
sg69
(lp1917
g62
(g63
g64
NtRp1918
(dp1919
g67
(dp1920
g75
I3
ssg76
g1914
sg69
(lp1921
S'stable'
p1922
asbasbasbasbasbasbasbag62
(g78
g64
NtRp1923
(dp1924
g67
(dp1925
sg76
g1197
sg69
(lp1926
g62
(g83
g64
NtRp1927
(dp1928
g67
(dp1929
g87
g88
ssg76
g1923
sg69
(lp1930
S'wsgi_errors'
p1931
asbag62
(g83
g64
NtRp1932
(dp1933
g67
(dp1934
g94
g95
ssg76
g1923
sg69
(lp1935
S':'
asbag62
(g83
g64
NtRp1936
(dp1937
g67
(dp1938
sg76
g1923
sg69
(lp1939
g62
(g63
g64
NtRp1940
(dp1941
g67
(dp1942
g75
I4
ssg76
g1936
sg69
(lp1943
S"<open file '<stderr>', mode 'w' at 0x7f45ca43c270>"
p1944
asbasbasbag62
(g78
g64
NtRp1945
(dp1946
g67
(dp1947
sg76
g1197
sg69
(lp1948
g62
(g83
g64
NtRp1949
(dp1950
g67
(dp1951
g87
g88
ssg76
g1945
sg69
(lp1952
S'wsgi_file_wrapper'
p1953
asbag62
(g83
g64
NtRp1954
(dp1955
g67
(dp1956
g94
g95
ssg76
g1945
sg69
(lp1957
S':'
asbag62
(g83
g64
NtRp1958
(dp1959
g67
(dp1960
sg76
g1945
sg69
(lp1961
g62
(g63
g64
NtRp1962
(dp1963
g67
(dp1964
g75
I4
ssg76
g1958
sg69
(lp1965
S'<class wsgiref.util.FileWrapper at 0x29c9ef0>'
p1966
asbasbasbag62
(g78
g64
NtRp1967
(dp1968
g67
(dp1969
sg76
g1197
sg69
(lp1970
g62
(g83
g64
NtRp1971
(dp1972
g67
(dp1973
g87
g88
ssg76
g1967
sg69
(lp1974
S'wsgi_input'
p1975
asbag62
(g83
g64
NtRp1976
(dp1977
g67
(dp1978
g94
g95
ssg76
g1967
sg69
(lp1979
S':'
asbag62
(g83
g64
NtRp1980
(dp1981
g67
(dp1982
sg76
g1967
sg69
(lp1983
g62
(g63
g64
NtRp1984
(dp1985
g67
(dp1986
g75
I4
ssg76
g1980
sg69
(lp1987
S'<socket._fileobject object at 0x7f45a00d45d0>'
p1988
asbasbasbag62
(g78
g64
NtRp1989
(dp1990
g67
(dp1991
sg76
g1197
sg69
(lp1992
g62
(g83
g64
NtRp1993
(dp1994
g67
(dp1995
g87
g88
ssg76
g1989
sg69
(lp1996
S'wsgi_multiprocess'
p1997
asbag62
(g83
g64
NtRp1998
(dp1999
g67
(dp2000
g94
g95
ssg76
g1989
sg69
(lp2001
S':'
asbag62
(g83
g64
NtRp2002
(dp2003
g67
(dp2004
sg76
g1989
sg69
(lp2005
g62
(g63
g64
NtRp2006
(dp2007
g67
(dp2008
g75
I4
ssg76
g2002
sg69
(lp2009
g105
asbasbasbag62
(g78
g64
NtRp2010
(dp2011
g67
(dp2012
sg76
g1197
sg69
(lp2013
g62
(g83
g64
NtRp2014
(dp2015
g67
(dp2016
g87
g88
ssg76
g2010
sg69
(lp2017
S'wsgi_multithread'
p2018
asbag62
(g83
g64
NtRp2019
(dp2020
g67
(dp2021
g94
g95
ssg76
g2010
sg69
(lp2022
S':'
asbag62
(g83
g64
NtRp2023
(dp2024
g67
(dp2025
sg76
g2010
sg69
(lp2026
g62
(g63
g64
NtRp2027
(dp2028
g67
(dp2029
g75
I4
ssg76
g2023
sg69
(lp2030
S'True'
p2031
asbasbasbag62
(g78
g64
NtRp2032
(dp2033
g67
(dp2034
sg76
g1197
sg69
(lp2035
g62
(g83
g64
NtRp2036
(dp2037
g67
(dp2038
g87
g88
ssg76
g2032
sg69
(lp2039
S'wsgi_run_once'
p2040
asbag62
(g83
g64
NtRp2041
(dp2042
g67
(dp2043
g94
g95
ssg76
g2032
sg69
(lp2044
S':'
asbag62
(g83
g64
NtRp2045
(dp2046
g67
(dp2047
sg76
g2032
sg69
(lp2048
g62
(g63
g64
NtRp2049
(dp2050
g67
(dp2051
g75
I4
ssg76
g2045
sg69
(lp2052
g105
asbasbasbag62
(g78
g64
NtRp2053
(dp2054
g67
(dp2055
sg76
g1197
sg69
(lp2056
g62
(g83
g64
NtRp2057
(dp2058
g67
(dp2059
g87
g88
ssg76
g2053
sg69
(lp2060
S'wsgi_url_scheme'
p2061
asbag62
(g83
g64
NtRp2062
(dp2063
g67
(dp2064
g94
g95
ssg76
g2053
sg69
(lp2065
S':'
asbag62
(g83
g64
NtRp2066
(dp2067
g67
(dp2068
sg76
g2053
sg69
(lp2069
g62
(g63
g64
NtRp2070
(dp2071
g67
(dp2072
g75
I4
ssg76
g2066
sg69
(lp2073
S'http'
p2074
asbasbasbag62
(g78
g64
NtRp2075
(dp2076
g67
(dp2077
sg76
g1197
sg69
(lp2078
g62
(g83
g64
NtRp2079
(dp2080
g67
(dp2081
g87
g88
ssg76
g2075
sg69
(lp2082
S'wsgi_version'
p2083
asbag62
(g83
g64
NtRp2084
(dp2085
g67
(dp2086
g94
g95
ssg76
g2075
sg69
(lp2087
S':'
asbag62
(g83
g64
NtRp2088
(dp2089
g67
(dp2090
sg76
g2075
sg69
(lp2091
g62
(g63
g64
NtRp2092
(dp2093
g67
(dp2094
g75
I4
ssg76
g2088
sg69
(lp2095
g62
(g71
g64
NtRp2096
(dp2097
g67
(dp2098
g75
I3
ssg76
Nsg69
(lp2099
g62
(g78
g64
NtRp2100
(dp2101
g67
(dp2102
sg76
g2096
sg69
(lp2103
g62
(g83
g64
NtRp2104
(dp2105
g67
(dp2106
sg76
g2100
sg69
(lp2107
g62
(g63
g64
NtRp2108
(dp2109
g67
(dp2110
g75
I3
ssg76
g2104
sg69
(lp2111
S'1'
asbasbasbag62
(g78
g64
NtRp2112
(dp2113
g67
(dp2114
sg76
g2096
sg69
(lp2115
g62
(g83
g64
NtRp2116
(dp2117
g67
(dp2118
sg76
g2112
sg69
(lp2119
g62
(g63
g64
NtRp2120
(dp2121
g67
(dp2122
g75
I3
ssg76
g2116
sg69
(lp2123
S'0'
asbasbasbasbasbasbasbasbasbasbasbag62
(g78
g64
NtRp2124
(dp2125
g67
(dp2126
sg76
g72
sg69
(lp2127
g62
(g83
g64
NtRp2128
(dp2129
g67
(dp2130
g87
g88
ssg76
g2124
sg69
(lp2131
S'extension'
p2132
asbag62
(g83
g64
NtRp2133
(dp2134
g67
(dp2135
g94
g95
ssg76
g2124
sg69
(lp2136
S':'
asbag62
(g83
g64
NtRp2137
(dp2138
g67
(dp2139
sg76
g2124
sg69
(lp2140
g62
(g63
g64
NtRp2141
(dp2142
g67
(dp2143
g75
I5
ssg76
g2137
sg69
(lp2144
S'html'
p2145
asbasbasbag62
(g78
g64
NtRp2146
(dp2147
g67
(dp2148
sg76
g72
sg69
(lp2149
g62
(g83
g64
NtRp2150
(dp2151
g67
(dp2152
g87
g88
ssg76
g2146
sg69
(lp2153
S'folder'
p2154
asbag62
(g83
g64
NtRp2155
(dp2156
g67
(dp2157
g94
g95
ssg76
g2146
sg69
(lp2158
S':'
asbag62
(g83
g64
NtRp2159
(dp2160
g67
(dp2161
sg76
g2146
sg69
(lp2162
g62
(g63
g64
NtRp2163
(dp2164
g67
(dp2165
g75
I5
ssg76
g2159
sg69
(lp2166
S'/home/maneesha/Downloads/web2py/applications/cite_m3/'
p2167
asbasbasbag62
(g78
g64
NtRp2168
(dp2169
g67
(dp2170
sg76
g72
sg69
(lp2171
g62
(g83
g64
NtRp2172
(dp2173
g67
(dp2174
g87
g88
ssg76
g2168
sg69
(lp2175
S'function'
p2176
asbag62
(g83
g64
NtRp2177
(dp2178
g67
(dp2179
g94
g95
ssg76
g2168
sg69
(lp2180
S':'
asbag62
(g83
g64
NtRp2181
(dp2182
g67
(dp2183
sg76
g2168
sg69
(lp2184
g62
(g63
g64
NtRp2185
(dp2186
g67
(dp2187
g75
I5
ssg76
g2181
sg69
(lp2188
S'final_ans'
p2189
asbasbasbag62
(g78
g64
NtRp2190
(dp2191
g67
(dp2192
sg76
g72
sg69
(lp2193
g62
(g83
g64
NtRp2194
(dp2195
g67
(dp2196
g87
g88
ssg76
g2190
sg69
(lp2197
S'get_vars'
p2198
asbag62
(g83
g64
NtRp2199
(dp2200
g67
(dp2201
g94
g95
ssg76
g2190
sg69
(lp2202
S':'
asbag62
(g83
g64
NtRp2203
(dp2204
g67
(dp2205
sg76
g2190
sg69
(lp2206
g62
(g63
g64
NtRp2207
(dp2208
g67
(dp2209
g75
I5
ssg76
g2203
sg69
(lp2210
g62
(g71
g64
NtRp2211
(dp2212
g67
(dp2213
g75
I4
ssg76
Nsg69
(lp2214
sbasbasbasbag62
(g78
g64
NtRp2215
(dp2216
g67
(dp2217
sg76
g72
sg69
(lp2218
g62
(g83
g64
NtRp2219
(dp2220
g67
(dp2221
g87
g88
ssg76
g2215
sg69
(lp2222
S'global_settings'
p2223
asbag62
(g83
g64
NtRp2224
(dp2225
g67
(dp2226
g94
g95
ssg76
g2215
sg69
(lp2227
S':'
asbag62
(g83
g64
NtRp2228
(dp2229
g67
(dp2230
sg76
g2215
sg69
(lp2231
g62
(g63
g64
NtRp2232
(dp2233
g67
(dp2234
g75
I5
ssg76
g2228
sg69
(lp2235
g62
(g71
g64
NtRp2236
(dp2237
g67
(dp2238
g75
I4
ssg76
Nsg69
(lp2239
g62
(g78
g64
NtRp2240
(dp2241
g67
(dp2242
sg76
g2236
sg69
(lp2243
g62
(g83
g64
NtRp2244
(dp2245
g67
(dp2246
g87
g88
ssg76
g2240
sg69
(lp2247
g1209
asbag62
(g83
g64
NtRp2248
(dp2249
g67
(dp2250
g94
g95
ssg76
g2240
sg69
(lp2251
S':'
asbag62
(g83
g64
NtRp2252
(dp2253
g67
(dp2254
sg76
g2240
sg69
(lp2255
g62
(g63
g64
NtRp2256
(dp2257
g67
(dp2258
g75
I4
ssg76
g2252
sg69
(lp2259
S"set(['/home/maneesha/Downloads/web2py/applications/welcome/', '/home/maneesha/Downloads/web2py/applications/admin/', '/home/maneesha/Downloads/web2py/applications/cite_m/', '/home/maneesha/Downloads/web2py/applications/cite_m3/'])"
p2260
asbasbasbag62
(g78
g64
NtRp2261
(dp2262
g67
(dp2263
sg76
g2236
sg69
(lp2264
g62
(g83
g64
NtRp2265
(dp2266
g67
(dp2267
g87
g88
ssg76
g2261
sg69
(lp2268
g1231
asbag62
(g83
g64
NtRp2269
(dp2270
g67
(dp2271
g94
g95
ssg76
g2261
sg69
(lp2272
S':'
asbag62
(g83
g64
NtRp2273
(dp2274
g67
(dp2275
sg76
g2261
sg69
(lp2276
g62
(g63
g64
NtRp2277
(dp2278
g67
(dp2279
g75
I4
ssg76
g2273
sg69
(lp2280
g1244
asbasbasbag62
(g78
g64
NtRp2281
(dp2282
g67
(dp2283
sg76
g2236
sg69
(lp2284
g62
(g83
g64
NtRp2285
(dp2286
g67
(dp2287
g87
g88
ssg76
g2281
sg69
(lp2288
g1253
asbag62
(g83
g64
NtRp2289
(dp2290
g67
(dp2291
g94
g95
ssg76
g2281
sg69
(lp2292
S':'
asbag62
(g83
g64
NtRp2293
(dp2294
g67
(dp2295
sg76
g2281
sg69
(lp2296
g62
(g63
g64
NtRp2297
(dp2298
g67
(dp2299
g75
I4
ssg76
g2293
sg69
(lp2300
g62
(g71
g64
NtRp2301
(dp2302
g67
(dp2303
g75
I3
ssg76
Nsg69
(lp2304
sbasbasbasbag62
(g78
g64
NtRp2305
(dp2306
g67
(dp2307
sg76
g2236
sg69
(lp2308
g62
(g83
g64
NtRp2309
(dp2310
g67
(dp2311
g87
g88
ssg76
g2305
sg69
(lp2312
g1278
asbag62
(g83
g64
NtRp2313
(dp2314
g67
(dp2315
g94
g95
ssg76
g2305
sg69
(lp2316
S':'
asbag62
(g83
g64
NtRp2317
(dp2318
g67
(dp2319
sg76
g2305
sg69
(lp2320
g62
(g63
g64
NtRp2321
(dp2322
g67
(dp2323
g75
I4
ssg76
g2317
sg69
(lp2324
S"<Values at 0x2af9b00: {'verbose': False, 'ip': '127.0.0.1', 'shutdown_timeout': 5, 'taskbar': False, 'nocron': False, 'pid_filename': 'httpserver.pid', 'maxthreads': None, 'softcron': False, 'server_name': 'maneesha-Inspiron-N5050', 'bpython': False, 'nogui': False, 'port': 8000, 'extcron': False, 'debuglevel': 30, 'test': None, 'folder': '/home/maneesha/Downloads/web2py', 'config': '', 'import_models': False, 'winservice': '', 'shell': None, 'run': '', 'log_filename': 'httpserver.log', 'args': [''], 'socket_timeout': 5, 'ssl_ca_certificate': None, 'scheduler': None, 'profiler_filename': None, 'ssl_private_key': '', 'password': '<ask>', 'request_queue_size': 5, 'ssl_certificate': '', 'cronjob': False, 'numthreads': None, 'quiet': False, 'interfaces': None, 'minthreads': None, 'timeout': 10, 'plain': False, 'nobanner': False}>"
p2325
asbasbasbag62
(g78
g64
NtRp2326
(dp2327
g67
(dp2328
sg76
g2236
sg69
(lp2329
g62
(g83
g64
NtRp2330
(dp2331
g67
(dp2332
g87
g88
ssg76
g2326
sg69
(lp2333
g1300
asbag62
(g83
g64
NtRp2334
(dp2335
g67
(dp2336
g94
g95
ssg76
g2326
sg69
(lp2337
S':'
asbag62
(g83
g64
NtRp2338
(dp2339
g67
(dp2340
sg76
g2326
sg69
(lp2341
g62
(g63
g64
NtRp2342
(dp2343
g67
(dp2344
g75
I4
ssg76
g2338
sg69
(lp2345
S'set([])'
p2346
asbasbasbag62
(g78
g64
NtRp2347
(dp2348
g67
(dp2349
sg76
g2236
sg69
(lp2350
g62
(g83
g64
NtRp2351
(dp2352
g67
(dp2353
g87
g88
ssg76
g2347
sg69
(lp2354
g1322
asbag62
(g83
g64
NtRp2355
(dp2356
g67
(dp2357
g94
g95
ssg76
g2347
sg69
(lp2358
S':'
asbag62
(g83
g64
NtRp2359
(dp2360
g67
(dp2361
sg76
g2347
sg69
(lp2362
g62
(g63
g64
NtRp2363
(dp2364
g67
(dp2365
g75
I4
ssg76
g2359
sg69
(lp2366
g105
asbasbasbag62
(g78
g64
NtRp2367
(dp2368
g67
(dp2369
sg76
g2236
sg69
(lp2370
g62
(g83
g64
NtRp2371
(dp2372
g67
(dp2373
g87
g88
ssg76
g2367
sg69
(lp2374
g1343
asbag62
(g83
g64
NtRp2375
(dp2376
g67
(dp2377
g94
g95
ssg76
g2367
sg69
(lp2378
S':'
asbag62
(g83
g64
NtRp2379
(dp2380
g67
(dp2381
sg76
g2367
sg69
(lp2382
g62
(g63
g64
NtRp2383
(dp2384
g67
(dp2385
g75
I4
ssg76
g2379
sg69
(lp2386
g1356
asbasbasbag62
(g78
g64
NtRp2387
(dp2388
g67
(dp2389
sg76
g2236
sg69
(lp2390
g62
(g83
g64
NtRp2391
(dp2392
g67
(dp2393
g87
g88
ssg76
g2387
sg69
(lp2394
g1541
asbag62
(g83
g64
NtRp2395
(dp2396
g67
(dp2397
g94
g95
ssg76
g2387
sg69
(lp2398
S':'
asbag62
(g83
g64
NtRp2399
(dp2400
g67
(dp2401
sg76
g2387
sg69
(lp2402
g62
(g63
g64
NtRp2403
(dp2404
g67
(dp2405
g75
I4
ssg76
g2399
sg69
(lp2406
g105
asbasbasbag62
(g78
g64
NtRp2407
(dp2408
g67
(dp2409
sg76
g2236
sg69
(lp2410
g62
(g83
g64
NtRp2411
(dp2412
g67
(dp2413
g87
g88
ssg76
g2407
sg69
(lp2414
g1562
asbag62
(g83
g64
NtRp2415
(dp2416
g67
(dp2417
g94
g95
ssg76
g2407
sg69
(lp2418
S':'
asbag62
(g83
g64
NtRp2419
(dp2420
g67
(dp2421
sg76
g2407
sg69
(lp2422
g62
(g63
g64
NtRp2423
(dp2424
g67
(dp2425
g75
I4
ssg76
g2419
sg69
(lp2426
g105
asbasbasbag62
(g78
g64
NtRp2427
(dp2428
g67
(dp2429
sg76
g2236
sg69
(lp2430
g62
(g83
g64
NtRp2431
(dp2432
g67
(dp2433
g87
g88
ssg76
g2427
sg69
(lp2434
g1800
asbag62
(g83
g64
NtRp2435
(dp2436
g67
(dp2437
g94
g95
ssg76
g2427
sg69
(lp2438
S':'
asbag62
(g83
g64
NtRp2439
(dp2440
g67
(dp2441
sg76
g2427
sg69
(lp2442
g62
(g63
g64
NtRp2443
(dp2444
g67
(dp2445
g75
I4
ssg76
g2439
sg69
(lp2446
g1813
asbasbasbag62
(g78
g64
NtRp2447
(dp2448
g67
(dp2449
sg76
g2236
sg69
(lp2450
g62
(g83
g64
NtRp2451
(dp2452
g67
(dp2453
g87
g88
ssg76
g2447
sg69
(lp2454
g1843
asbag62
(g83
g64
NtRp2455
(dp2456
g67
(dp2457
g94
g95
ssg76
g2447
sg69
(lp2458
S':'
asbag62
(g83
g64
NtRp2459
(dp2460
g67
(dp2461
sg76
g2447
sg69
(lp2462
g62
(g63
g64
NtRp2463
(dp2464
g67
(dp2465
g75
I4
ssg76
g2459
sg69
(lp2466
g62
(g71
g64
NtRp2467
(dp2468
g67
(dp2469
g75
I3
ssg76
Nsg69
(lp2470
g62
(g78
g64
NtRp2471
(dp2472
g67
(dp2473
sg76
g2467
sg69
(lp2474
g62
(g83
g64
NtRp2475
(dp2476
g67
(dp2477
sg76
g2471
sg69
(lp2478
g62
(g63
g64
NtRp2479
(dp2480
g67
(dp2481
g75
I3
ssg76
g2475
sg69
(lp2482
S'1'
asbasbasbag62
(g78
g64
NtRp2483
(dp2484
g67
(dp2485
sg76
g2467
sg69
(lp2486
g62
(g83
g64
NtRp2487
(dp2488
g67
(dp2489
sg76
g2483
sg69
(lp2490
g62
(g63
g64
NtRp2491
(dp2492
g67
(dp2493
g75
I3
ssg76
g2487
sg69
(lp2494
S'99'
p2495
asbasbasbag62
(g78
g64
NtRp2496
(dp2497
g67
(dp2498
sg76
g2467
sg69
(lp2499
g62
(g83
g64
NtRp2500
(dp2501
g67
(dp2502
sg76
g2496
sg69
(lp2503
g62
(g63
g64
NtRp2504
(dp2505
g67
(dp2506
g75
I3
ssg76
g2500
sg69
(lp2507
S'7'
asbasbasbag62
(g78
g64
NtRp2508
(dp2509
g67
(dp2510
sg76
g2467
sg69
(lp2511
g62
(g83
g64
NtRp2512
(dp2513
g67
(dp2514
sg76
g2508
sg69
(lp2515
g62
(g63
g64
NtRp2516
(dp2517
g67
(dp2518
g75
I3
ssg76
g2512
sg69
(lp2519
S'datetime.datetime(2012, 3, 4, 22, 12, 8)'
p2520
asbasbasbag62
(g78
g64
NtRp2521
(dp2522
g67
(dp2523
sg76
g2467
sg69
(lp2524
g62
(g83
g64
NtRp2525
(dp2526
g67
(dp2527
sg76
g2521
sg69
(lp2528
g62
(g63
g64
NtRp2529
(dp2530
g67
(dp2531
g75
I3
ssg76
g2525
sg69
(lp2532
g1922
asbasbasbasbasbasbasbasbasbasbasbag62
(g78
g64
NtRp2533
(dp2534
g67
(dp2535
sg76
g72
sg69
(lp2536
g62
(g83
g64
NtRp2537
(dp2538
g67
(dp2539
g87
g88
ssg76
g2533
sg69
(lp2540
S'is_https'
p2541
asbag62
(g83
g64
NtRp2542
(dp2543
g67
(dp2544
g94
g95
ssg76
g2533
sg69
(lp2545
S':'
asbag62
(g83
g64
NtRp2546
(dp2547
g67
(dp2548
sg76
g2533
sg69
(lp2549
g62
(g63
g64
NtRp2550
(dp2551
g67
(dp2552
g75
I5
ssg76
g2546
sg69
(lp2553
g105
asbasbasbag62
(g78
g64
NtRp2554
(dp2555
g67
(dp2556
sg76
g72
sg69
(lp2557
g62
(g83
g64
NtRp2558
(dp2559
g67
(dp2560
g87
g88
ssg76
g2554
sg69
(lp2561
S'is_local'
p2562
asbag62
(g83
g64
NtRp2563
(dp2564
g67
(dp2565
g94
g95
ssg76
g2554
sg69
(lp2566
S':'
asbag62
(g83
g64
NtRp2567
(dp2568
g67
(dp2569
sg76
g2554
sg69
(lp2570
g62
(g63
g64
NtRp2571
(dp2572
g67
(dp2573
g75
I5
ssg76
g2567
sg69
(lp2574
g2031
asbasbasbag62
(g78
g64
NtRp2575
(dp2576
g67
(dp2577
sg76
g72
sg69
(lp2578
g62
(g83
g64
NtRp2579
(dp2580
g67
(dp2581
g87
g88
ssg76
g2575
sg69
(lp2582
S'is_restful'
p2583
asbag62
(g83
g64
NtRp2584
(dp2585
g67
(dp2586
g94
g95
ssg76
g2575
sg69
(lp2587
S':'
asbag62
(g83
g64
NtRp2588
(dp2589
g67
(dp2590
sg76
g2575
sg69
(lp2591
g62
(g63
g64
NtRp2592
(dp2593
g67
(dp2594
g75
I5
ssg76
g2588
sg69
(lp2595
g105
asbasbasbag62
(g78
g64
NtRp2596
(dp2597
g67
(dp2598
sg76
g72
sg69
(lp2599
g62
(g83
g64
NtRp2600
(dp2601
g67
(dp2602
g87
g88
ssg76
g2596
sg69
(lp2603
S'now'
p2604
asbag62
(g83
g64
NtRp2605
(dp2606
g67
(dp2607
g94
g95
ssg76
g2596
sg69
(lp2608
S':'
asbag62
(g83
g64
NtRp2609
(dp2610
g67
(dp2611
sg76
g2596
sg69
(lp2612
g62
(g63
g64
NtRp2613
(dp2614
g67
(dp2615
g75
I5
ssg76
g2609
sg69
(lp2616
S'datetime.datetime(2012, 11, 10, 22, 51, 36, 307596)'
p2617
asbasbasbag62
(g78
g64
NtRp2618
(dp2619
g67
(dp2620
sg76
g72
sg69
(lp2621
g62
(g83
g64
NtRp2622
(dp2623
g67
(dp2624
g87
g88
ssg76
g2618
sg69
(lp2625
S'post_vars'
p2626
asbag62
(g83
g64
NtRp2627
(dp2628
g67
(dp2629
g94
g95
ssg76
g2618
sg69
(lp2630
S':'
asbag62
(g83
g64
NtRp2631
(dp2632
g67
(dp2633
sg76
g2618
sg69
(lp2634
g62
(g63
g64
NtRp2635
(dp2636
g67
(dp2637
g75
I5
ssg76
g2631
sg69
(lp2638
g62
(g71
g64
NtRp2639
(dp2640
g67
(dp2641
g75
I4
ssg76
Nsg69
(lp2642
sbasbasbasbag62
(g78
g64
NtRp2643
(dp2644
g67
(dp2645
sg76
g72
sg69
(lp2646
g62
(g83
g64
NtRp2647
(dp2648
g67
(dp2649
g87
g88
ssg76
g2643
sg69
(lp2650
S'url'
p2651
asbag62
(g83
g64
NtRp2652
(dp2653
g67
(dp2654
g94
g95
ssg76
g2643
sg69
(lp2655
S':'
asbag62
(g83
g64
NtRp2656
(dp2657
g67
(dp2658
sg76
g2643
sg69
(lp2659
g62
(g63
g64
NtRp2660
(dp2661
g67
(dp2662
g75
I5
ssg76
g2656
sg69
(lp2663
S'/cite_m3/default/final_ans'
p2664
asbasbasbag62
(g78
g64
NtRp2665
(dp2666
g67
(dp2667
sg76
g72
sg69
(lp2668
g62
(g83
g64
NtRp2669
(dp2670
g67
(dp2671
g87
g88
ssg76
g2665
sg69
(lp2672
S'utcnow'
p2673
asbag62
(g83
g64
NtRp2674
(dp2675
g67
(dp2676
g94
g95
ssg76
g2665
sg69
(lp2677
S':'
asbag62
(g83
g64
NtRp2678
(dp2679
g67
(dp2680
sg76
g2665
sg69
(lp2681
g62
(g63
g64
NtRp2682
(dp2683
g67
(dp2684
g75
I5
ssg76
g2678
sg69
(lp2685
S'datetime.datetime(2012, 11, 10, 17, 21, 36, 307618)'
p2686
asbasbasbag62
(g78
g64
NtRp2687
(dp2688
g67
(dp2689
sg76
g72
sg69
(lp2690
g62
(g83
g64
NtRp2691
(dp2692
g67
(dp2693
g87
g88
ssg76
g2687
sg69
(lp2694
S'uuid'
p2695
asbag62
(g83
g64
NtRp2696
(dp2697
g67
(dp2698
g94
g95
ssg76
g2687
sg69
(lp2699
S':'
asbag62
(g83
g64
NtRp2700
(dp2701
g67
(dp2702
sg76
g2687
sg69
(lp2703
g62
(g63
g64
NtRp2704
(dp2705
g67
(dp2706
g75
I5
ssg76
g2700
sg69
(lp2707
S'cite_m3/127.0.0.1.2012-11-10.22-51-36.e7394c94-a8ab-4984-8b04-2f7e51387178'
p2708
asbasbasbag62
(g78
g64
NtRp2709
(dp2710
g67
(dp2711
sg76
g72
sg69
(lp2712
g62
(g83
g64
NtRp2713
(dp2714
g67
(dp2715
g87
g88
ssg76
g2709
sg69
(lp2716
S'vars'
p2717
asbag62
(g83
g64
NtRp2718
(dp2719
g67
(dp2720
g94
g95
ssg76
g2709
sg69
(lp2721
S':'
asbag62
(g83
g64
NtRp2722
(dp2723
g67
(dp2724
sg76
g2709
sg69
(lp2725
g62
(g63
g64
NtRp2726
(dp2727
g67
(dp2728
g75
I5
ssg76
g2722
sg69
(lp2729
g62
(g71
g64
NtRp2730
(dp2731
g67
(dp2732
g75
I4
ssg76
Nsg69
(lp2733
sbasbasbasbag62
(g78
g64
NtRp2734
(dp2735
g67
(dp2736
sg76
g72
sg69
(lp2737
g62
(g83
g64
NtRp2738
(dp2739
g67
(dp2740
g87
g88
ssg76
g2734
sg69
(lp2741
S'wsgi'
p2742
asbag62
(g83
g64
NtRp2743
(dp2744
g67
(dp2745
g94
g95
ssg76
g2734
sg69
(lp2746
S':'
asbag62
(g83
g64
NtRp2747
(dp2748
g67
(dp2749
sg76
g2734
sg69
(lp2750
g62
(g63
g64
NtRp2751
(dp2752
g67
(dp2753
g75
I5
ssg76
g2747
sg69
(lp2754
g62
(g71
g64
NtRp2755
(dp2756
g67
(dp2757
g75
I4
ssg76
Nsg69
(lp2758
g62
(g78
g64
NtRp2759
(dp2760
g67
(dp2761
sg76
g2755
sg69
(lp2762
g62
(g83
g64
NtRp2763
(dp2764
g67
(dp2765
g87
g88
ssg76
g2759
sg69
(lp2766
S'environ'
p2767
asbag62
(g83
g64
NtRp2768
(dp2769
g67
(dp2770
g94
g95
ssg76
g2759
sg69
(lp2771
S':'
asbag62
(g83
g64
NtRp2772
(dp2773
g67
(dp2774
sg76
g2759
sg69
(lp2775
g62
(g63
g64
NtRp2776
(dp2777
g67
(dp2778
g75
I4
ssg76
g2772
sg69
(lp2779
g62
(g71
g64
NtRp2780
(dp2781
g67
(dp2782
g75
I3
ssg76
Nsg69
(lp2783
g62
(g78
g64
NtRp2784
(dp2785
g67
(dp2786
sg76
g2780
sg69
(lp2787
g62
(g83
g64
NtRp2788
(dp2789
g67
(dp2790
g87
g88
ssg76
g2784
sg69
(lp2791
S'HTTP_ACCEPT'
p2792
asbag62
(g83
g64
NtRp2793
(dp2794
g67
(dp2795
g94
g95
ssg76
g2784
sg69
(lp2796
S':'
asbag62
(g83
g64
NtRp2797
(dp2798
g67
(dp2799
sg76
g2784
sg69
(lp2800
g62
(g63
g64
NtRp2801
(dp2802
g67
(dp2803
g75
I3
ssg76
g2797
sg69
(lp2804
g1378
asbasbasbag62
(g78
g64
NtRp2805
(dp2806
g67
(dp2807
sg76
g2780
sg69
(lp2808
g62
(g83
g64
NtRp2809
(dp2810
g67
(dp2811
g87
g88
ssg76
g2805
sg69
(lp2812
S'HTTP_ACCEPT_ENCODING'
p2813
asbag62
(g83
g64
NtRp2814
(dp2815
g67
(dp2816
g94
g95
ssg76
g2805
sg69
(lp2817
S':'
asbag62
(g83
g64
NtRp2818
(dp2819
g67
(dp2820
sg76
g2805
sg69
(lp2821
g62
(g63
g64
NtRp2822
(dp2823
g67
(dp2824
g75
I3
ssg76
g2818
sg69
(lp2825
g1400
asbasbasbag62
(g78
g64
NtRp2826
(dp2827
g67
(dp2828
sg76
g2780
sg69
(lp2829
g62
(g83
g64
NtRp2830
(dp2831
g67
(dp2832
g87
g88
ssg76
g2826
sg69
(lp2833
S'HTTP_ACCEPT_LANGUAGE'
p2834
asbag62
(g83
g64
NtRp2835
(dp2836
g67
(dp2837
g94
g95
ssg76
g2826
sg69
(lp2838
S':'
asbag62
(g83
g64
NtRp2839
(dp2840
g67
(dp2841
sg76
g2826
sg69
(lp2842
g62
(g63
g64
NtRp2843
(dp2844
g67
(dp2845
g75
I3
ssg76
g2839
sg69
(lp2846
g1422
asbasbasbag62
(g78
g64
NtRp2847
(dp2848
g67
(dp2849
sg76
g2780
sg69
(lp2850
g62
(g83
g64
NtRp2851
(dp2852
g67
(dp2853
g87
g88
ssg76
g2847
sg69
(lp2854
S'HTTP_CONNECTION'
p2855
asbag62
(g83
g64
NtRp2856
(dp2857
g67
(dp2858
g94
g95
ssg76
g2847
sg69
(lp2859
S':'
asbag62
(g83
g64
NtRp2860
(dp2861
g67
(dp2862
sg76
g2847
sg69
(lp2863
g62
(g63
g64
NtRp2864
(dp2865
g67
(dp2866
g75
I3
ssg76
g2860
sg69
(lp2867
g1444
asbasbasbag62
(g78
g64
NtRp2868
(dp2869
g67
(dp2870
sg76
g2780
sg69
(lp2871
g62
(g83
g64
NtRp2872
(dp2873
g67
(dp2874
g87
g88
ssg76
g2868
sg69
(lp2875
S'HTTP_COOKIE'
p2876
asbag62
(g83
g64
NtRp2877
(dp2878
g67
(dp2879
g94
g95
ssg76
g2868
sg69
(lp2880
S':'
asbag62
(g83
g64
NtRp2881
(dp2882
g67
(dp2883
sg76
g2868
sg69
(lp2884
g62
(g63
g64
NtRp2885
(dp2886
g67
(dp2887
g75
I3
ssg76
g2881
sg69
(lp2888
g1466
asbasbasbag62
(g78
g64
NtRp2889
(dp2890
g67
(dp2891
sg76
g2780
sg69
(lp2892
g62
(g83
g64
NtRp2893
(dp2894
g67
(dp2895
g87
g88
ssg76
g2889
sg69
(lp2896
S'HTTP_HOST'
p2897
asbag62
(g83
g64
NtRp2898
(dp2899
g67
(dp2900
g94
g95
ssg76
g2889
sg69
(lp2901
S':'
asbag62
(g83
g64
NtRp2902
(dp2903
g67
(dp2904
sg76
g2889
sg69
(lp2905
g62
(g63
g64
NtRp2906
(dp2907
g67
(dp2908
g75
I3
ssg76
g2902
sg69
(lp2909
g1488
asbasbasbag62
(g78
g64
NtRp2910
(dp2911
g67
(dp2912
sg76
g2780
sg69
(lp2913
g62
(g83
g64
NtRp2914
(dp2915
g67
(dp2916
g87
g88
ssg76
g2910
sg69
(lp2917
S'HTTP_REFERER'
p2918
asbag62
(g83
g64
NtRp2919
(dp2920
g67
(dp2921
g94
g95
ssg76
g2910
sg69
(lp2922
S':'
asbag62
(g83
g64
NtRp2923
(dp2924
g67
(dp2925
sg76
g2910
sg69
(lp2926
g62
(g63
g64
NtRp2927
(dp2928
g67
(dp2929
g75
I3
ssg76
g2923
sg69
(lp2930
g1510
asbasbasbag62
(g78
g64
NtRp2931
(dp2932
g67
(dp2933
sg76
g2780
sg69
(lp2934
g62
(g83
g64
NtRp2935
(dp2936
g67
(dp2937
g87
g88
ssg76
g2931
sg69
(lp2938
S'HTTP_USER_AGENT'
p2939
asbag62
(g83
g64
NtRp2940
(dp2941
g67
(dp2942
g94
g95
ssg76
g2931
sg69
(lp2943
S':'
asbag62
(g83
g64
NtRp2944
(dp2945
g67
(dp2946
sg76
g2931
sg69
(lp2947
g62
(g63
g64
NtRp2948
(dp2949
g67
(dp2950
g75
I3
ssg76
g2944
sg69
(lp2951
g1532
asbasbasbag62
(g78
g64
NtRp2952
(dp2953
g67
(dp2954
sg76
g2780
sg69
(lp2955
g62
(g83
g64
NtRp2956
(dp2957
g67
(dp2958
g87
g88
ssg76
g2952
sg69
(lp2959
S'PATH_INFO'
p2960
asbag62
(g83
g64
NtRp2961
(dp2962
g67
(dp2963
g94
g95
ssg76
g2952
sg69
(lp2964
S':'
asbag62
(g83
g64
NtRp2965
(dp2966
g67
(dp2967
sg76
g2952
sg69
(lp2968
g62
(g63
g64
NtRp2969
(dp2970
g67
(dp2971
g75
I3
ssg76
g2965
sg69
(lp2972
g1596
asbasbasbag62
(g78
g64
NtRp2973
(dp2974
g67
(dp2975
sg76
g2780
sg69
(lp2976
g62
(g83
g64
NtRp2977
(dp2978
g67
(dp2979
g87
g88
ssg76
g2973
sg69
(lp2980
S'QUERY_STRING'
p2981
asbag62
(g83
g64
NtRp2982
(dp2983
g67
(dp2984
g94
g95
ssg76
g2973
sg69
(lp2985
S':'
asbag62
(g83
g64
NtRp2986
(dp2987
g67
(dp2988
sg76
g2973
sg69
(lp2989
g62
(g63
g64
NtRp2990
(dp2991
g67
(dp2992
g75
I3
ssg76
g2986
sg69
(lp2993
S''
asbasbasbag62
(g78
g64
NtRp2994
(dp2995
g67
(dp2996
sg76
g2780
sg69
(lp2997
g62
(g83
g64
NtRp2998
(dp2999
g67
(dp3000
g87
g88
ssg76
g2994
sg69
(lp3001
S'REMOTE_ADDR'
p3002
asbag62
(g83
g64
NtRp3003
(dp3004
g67
(dp3005
g94
g95
ssg76
g2994
sg69
(lp3006
S':'
asbag62
(g83
g64
NtRp3007
(dp3008
g67
(dp3009
sg76
g2994
sg69
(lp3010
g62
(g63
g64
NtRp3011
(dp3012
g67
(dp3013
g75
I3
ssg76
g3007
sg69
(lp3014
g195
asbasbasbag62
(g78
g64
NtRp3015
(dp3016
g67
(dp3017
sg76
g2780
sg69
(lp3018
g62
(g83
g64
NtRp3019
(dp3020
g67
(dp3021
g87
g88
ssg76
g3015
sg69
(lp3022
S'REMOTE_PORT'
p3023
asbag62
(g83
g64
NtRp3024
(dp3025
g67
(dp3026
g94
g95
ssg76
g3015
sg69
(lp3027
S':'
asbag62
(g83
g64
NtRp3028
(dp3029
g67
(dp3030
sg76
g3015
sg69
(lp3031
g62
(g63
g64
NtRp3032
(dp3033
g67
(dp3034
g75
I3
ssg76
g3028
sg69
(lp3035
g1660
asbasbasbag62
(g78
g64
NtRp3036
(dp3037
g67
(dp3038
sg76
g2780
sg69
(lp3039
g62
(g83
g64
NtRp3040
(dp3041
g67
(dp3042
g87
g88
ssg76
g3036
sg69
(lp3043
S'REQUEST_METHOD'
p3044
asbag62
(g83
g64
NtRp3045
(dp3046
g67
(dp3047
g94
g95
ssg76
g3036
sg69
(lp3048
S':'
asbag62
(g83
g64
NtRp3049
(dp3050
g67
(dp3051
sg76
g3036
sg69
(lp3052
g62
(g63
g64
NtRp3053
(dp3054
g67
(dp3055
g75
I3
ssg76
g3049
sg69
(lp3056
g1682
asbasbasbag62
(g78
g64
NtRp3057
(dp3058
g67
(dp3059
sg76
g2780
sg69
(lp3060
g62
(g83
g64
NtRp3061
(dp3062
g67
(dp3063
g87
g88
ssg76
g3057
sg69
(lp3064
S'SCRIPT_NAME'
p3065
asbag62
(g83
g64
NtRp3066
(dp3067
g67
(dp3068
g94
g95
ssg76
g3057
sg69
(lp3069
S':'
asbag62
(g83
g64
NtRp3070
(dp3071
g67
(dp3072
sg76
g3057
sg69
(lp3073
g62
(g63
g64
NtRp3074
(dp3075
g67
(dp3076
g75
I3
ssg76
g3070
sg69
(lp3077
S''
asbasbasbag62
(g78
g64
NtRp3078
(dp3079
g67
(dp3080
sg76
g2780
sg69
(lp3081
g62
(g83
g64
NtRp3082
(dp3083
g67
(dp3084
g87
g88
ssg76
g3078
sg69
(lp3085
S'SERVER_NAME'
p3086
asbag62
(g83
g64
NtRp3087
(dp3088
g67
(dp3089
g94
g95
ssg76
g3078
sg69
(lp3090
S':'
asbag62
(g83
g64
NtRp3091
(dp3092
g67
(dp3093
sg76
g3078
sg69
(lp3094
g62
(g63
g64
NtRp3095
(dp3096
g67
(dp3097
g75
I3
ssg76
g3091
sg69
(lp3098
g1725
asbasbasbag62
(g78
g64
NtRp3099
(dp3100
g67
(dp3101
sg76
g2780
sg69
(lp3102
g62
(g83
g64
NtRp3103
(dp3104
g67
(dp3105
g87
g88
ssg76
g3099
sg69
(lp3106
S'SERVER_PORT'
p3107
asbag62
(g83
g64
NtRp3108
(dp3109
g67
(dp3110
g94
g95
ssg76
g3099
sg69
(lp3111
S':'
asbag62
(g83
g64
NtRp3112
(dp3113
g67
(dp3114
sg76
g3099
sg69
(lp3115
g62
(g63
g64
NtRp3116
(dp3117
g67
(dp3118
g75
I3
ssg76
g3112
sg69
(lp3119
g1747
asbasbasbag62
(g78
g64
NtRp3120
(dp3121
g67
(dp3122
sg76
g2780
sg69
(lp3123
g62
(g83
g64
NtRp3124
(dp3125
g67
(dp3126
g87
g88
ssg76
g3120
sg69
(lp3127
S'SERVER_PROTOCOL'
p3128
asbag62
(g83
g64
NtRp3129
(dp3130
g67
(dp3131
g94
g95
ssg76
g3120
sg69
(lp3132
S':'
asbag62
(g83
g64
NtRp3133
(dp3134
g67
(dp3135
sg76
g3120
sg69
(lp3136
g62
(g63
g64
NtRp3137
(dp3138
g67
(dp3139
g75
I3
ssg76
g3133
sg69
(lp3140
g1769
asbasbasbag62
(g78
g64
NtRp3141
(dp3142
g67
(dp3143
sg76
g2780
sg69
(lp3144
g62
(g83
g64
NtRp3145
(dp3146
g67
(dp3147
g87
g88
ssg76
g3141
sg69
(lp3148
S'SERVER_SOFTWARE'
p3149
asbag62
(g83
g64
NtRp3150
(dp3151
g67
(dp3152
g94
g95
ssg76
g3141
sg69
(lp3153
S':'
asbag62
(g83
g64
NtRp3154
(dp3155
g67
(dp3156
sg76
g3141
sg69
(lp3157
g62
(g63
g64
NtRp3158
(dp3159
g67
(dp3160
g75
I3
ssg76
g3154
sg69
(lp3161
g1791
asbasbasbag62
(g78
g64
NtRp3162
(dp3163
g67
(dp3164
sg76
g2780
sg69
(lp3165
g62
(g83
g64
NtRp3166
(dp3167
g67
(dp3168
g87
g88
ssg76
g3162
sg69
(lp3169
S'wsgi.errors'
p3170
asbag62
(g83
g64
NtRp3171
(dp3172
g67
(dp3173
g94
g95
ssg76
g3162
sg69
(lp3174
S':'
asbag62
(g83
g64
NtRp3175
(dp3176
g67
(dp3177
sg76
g3162
sg69
(lp3178
g62
(g63
g64
NtRp3179
(dp3180
g67
(dp3181
g75
I3
ssg76
g3175
sg69
(lp3182
S"<open file '<stderr>', mode 'w' at 0x7f45ca43c270>"
p3183
asbasbasbag62
(g78
g64
NtRp3184
(dp3185
g67
(dp3186
sg76
g2780
sg69
(lp3187
g62
(g83
g64
NtRp3188
(dp3189
g67
(dp3190
g87
g88
ssg76
g3184
sg69
(lp3191
S'wsgi.file_wrapper'
p3192
asbag62
(g83
g64
NtRp3193
(dp3194
g67
(dp3195
g94
g95
ssg76
g3184
sg69
(lp3196
S':'
asbag62
(g83
g64
NtRp3197
(dp3198
g67
(dp3199
sg76
g3184
sg69
(lp3200
g62
(g63
g64
NtRp3201
(dp3202
g67
(dp3203
g75
I3
ssg76
g3197
sg69
(lp3204
S'<class wsgiref.util.FileWrapper at 0x29c9ef0>'
p3205
asbasbasbag62
(g78
g64
NtRp3206
(dp3207
g67
(dp3208
sg76
g2780
sg69
(lp3209
g62
(g83
g64
NtRp3210
(dp3211
g67
(dp3212
g87
g88
ssg76
g3206
sg69
(lp3213
S'wsgi.input'
p3214
asbag62
(g83
g64
NtRp3215
(dp3216
g67
(dp3217
g94
g95
ssg76
g3206
sg69
(lp3218
S':'
asbag62
(g83
g64
NtRp3219
(dp3220
g67
(dp3221
sg76
g3206
sg69
(lp3222
g62
(g63
g64
NtRp3223
(dp3224
g67
(dp3225
g75
I3
ssg76
g3219
sg69
(lp3226
S'<cStringIO.StringO object at 0x7f45a08408f0>'
p3227
asbasbasbag62
(g78
g64
NtRp3228
(dp3229
g67
(dp3230
sg76
g2780
sg69
(lp3231
g62
(g83
g64
NtRp3232
(dp3233
g67
(dp3234
g87
g88
ssg76
g3228
sg69
(lp3235
S'wsgi.multiprocess'
p3236
asbag62
(g83
g64
NtRp3237
(dp3238
g67
(dp3239
g94
g95
ssg76
g3228
sg69
(lp3240
S':'
asbag62
(g83
g64
NtRp3241
(dp3242
g67
(dp3243
sg76
g3228
sg69
(lp3244
g62
(g63
g64
NtRp3245
(dp3246
g67
(dp3247
g75
I3
ssg76
g3241
sg69
(lp3248
g105
asbasbasbag62
(g78
g64
NtRp3249
(dp3250
g67
(dp3251
sg76
g2780
sg69
(lp3252
g62
(g83
g64
NtRp3253
(dp3254
g67
(dp3255
g87
g88
ssg76
g3249
sg69
(lp3256
S'wsgi.multithread'
p3257
asbag62
(g83
g64
NtRp3258
(dp3259
g67
(dp3260
g94
g95
ssg76
g3249
sg69
(lp3261
S':'
asbag62
(g83
g64
NtRp3262
(dp3263
g67
(dp3264
sg76
g3249
sg69
(lp3265
g62
(g63
g64
NtRp3266
(dp3267
g67
(dp3268
g75
I3
ssg76
g3262
sg69
(lp3269
g2031
asbasbasbag62
(g78
g64
NtRp3270
(dp3271
g67
(dp3272
sg76
g2780
sg69
(lp3273
g62
(g83
g64
NtRp3274
(dp3275
g67
(dp3276
g87
g88
ssg76
g3270
sg69
(lp3277
S'wsgi.run_once'
p3278
asbag62
(g83
g64
NtRp3279
(dp3280
g67
(dp3281
g94
g95
ssg76
g3270
sg69
(lp3282
S':'
asbag62
(g83
g64
NtRp3283
(dp3284
g67
(dp3285
sg76
g3270
sg69
(lp3286
g62
(g63
g64
NtRp3287
(dp3288
g67
(dp3289
g75
I3
ssg76
g3283
sg69
(lp3290
g105
asbasbasbag62
(g78
g64
NtRp3291
(dp3292
g67
(dp3293
sg76
g2780
sg69
(lp3294
g62
(g83
g64
NtRp3295
(dp3296
g67
(dp3297
g87
g88
ssg76
g3291
sg69
(lp3298
S'wsgi.url_scheme'
p3299
asbag62
(g83
g64
NtRp3300
(dp3301
g67
(dp3302
g94
g95
ssg76
g3291
sg69
(lp3303
S':'
asbag62
(g83
g64
NtRp3304
(dp3305
g67
(dp3306
sg76
g3291
sg69
(lp3307
g62
(g63
g64
NtRp3308
(dp3309
g67
(dp3310
g75
I3
ssg76
g3304
sg69
(lp3311
g2074
asbasbasbag62
(g78
g64
NtRp3312
(dp3313
g67
(dp3314
sg76
g2780
sg69
(lp3315
g62
(g83
g64
NtRp3316
(dp3317
g67
(dp3318
g87
g88
ssg76
g3312
sg69
(lp3319
S'wsgi.version'
p3320
asbag62
(g83
g64
NtRp3321
(dp3322
g67
(dp3323
g94
g95
ssg76
g3312
sg69
(lp3324
S':'
asbag62
(g83
g64
NtRp3325
(dp3326
g67
(dp3327
sg76
g3312
sg69
(lp3328
g62
(g63
g64
NtRp3329
(dp3330
g67
(dp3331
g75
I3
ssg76
g3325
sg69
(lp3332
S'1'
asbasbasbasbasbasbasbasbasbasbasbasbasbsS'frames'
p3333
(lp3334
(dp3335
S'file'
p3336
S'/home/maneesha/Downloads/web2py/gluon/restricted.py'
p3337
sS'dump'
p3338
(dp3339
S'environment'
p3340
S"{'A': <class 'gluon.html.A'>, 'A4': (595.275590551181, 841.8897637795275), 'Auth': <class 'gluon.tools.Auth'>, 'B': <class 'gluon.html.B'>, 'BEAUTIFY': <class 'gluon.html.BEAUTIFY'>, 'BODY': <class 'gluon.html.BODY'>, 'BR': <class 'gluon.html.BR'>, 'BUTTON': <class 'gluon.html.BUTTON'>, 'CAT': <class 'gluon.html.CAT'>, 'CENTER': <class 'gluon.html.CENTER'>, ...}"
p3341
sS'ccode'
p3342
S'<code object <module> at 0x7f45ac17d130, file "/...ns/cite_m3/views/default/final_ans.html", line 1>'
p3343
ssS'lnum'
p3344
I205
sS'lines'
p3345
(dp3346
I200
S'    try:'
p3347
sI201
S'        if type(code) == types.CodeType:'
p3348
sI202
S'            ccode = code'
p3349
sI203
S'        else:'
p3350
sI204
S'            ccode = compile2(code,layer)'
p3351
sI205
S'        exec ccode in environment'
p3352
sI206
S'    except HTTP:'
p3353
sI207
S'        raise'
p3354
sI208
S'    except RestrictedError:'
p3355
sI209
S'        # do not encapsulate (obfuscate) the original RestrictedError'
p3356
ssS'call'
p3357
S'(code=\'response.write(\\\'<html xmlns="http://www.w3.org/1...p>\\\\n  </div>\\\\n </body>\\\\n</html>\\\\n\\\', escape=False)\', environment={\'A\': <class \'gluon.html.A\'>, \'A4\': (595.275590551181, 841.8897637795275), \'Auth\': <class \'gluon.tools.Auth\'>, \'B\': <class \'gluon.html.B\'>, \'BEAUTIFY\': <class \'gluon.html.BEAUTIFY\'>, \'BODY\': <class \'gluon.html.BODY\'>, \'BR\': <class \'gluon.html.BR\'>, \'BUTTON\': <class \'gluon.html.BUTTON\'>, \'CAT\': <class \'gluon.html.CAT\'>, \'CENTER\': <class \'gluon.html.CENTER\'>, ...}, layer=\'/home/maneesha/Downloads/web2py/applications/cite_m3/views/default/final_ans.html\')'
p3358
sS'func'
p3359
S'restricted'
p3360
sa(dp3361
g3336
S'/home/maneesha/Downloads/web2py/applications/cite_m3/views/default/final_ans.html'
p3362
sg3338
(dp3363
sg3344
I171
sg3345
(dp3364
I162
S'doc = platypus.SimpleDocTemplate("rough.pdf",  \\'
p3365
sI163
S'rightMargin=40, leftMargin=40, \\'
p3366
sI164
S'topMargin=40, bottomMargin=25, \\'
p3367
sI165
S'pageSize=A4)'
p3368
sI166
S"response.write('\\n', escape=False)"
p3369
sI167
S'pass'
p3370
sI168
S"response.write('\\n', escape=False)"
p3371
sI169
S'elements = []'
p3372
sI170
S"response.write('\\n', escape=False)"
p3373
sI171
S'infile   = file(model_report).read()'
p3374
sI172
S"response.write('\\n', escape=False)"
p3375
sI173
S'report_paragraphs = infile.split("\\n")'
p3376
sI174
S"response.write('\\n', escape=False)"
p3377
sI175
S'for para in report_paragraphs:'
p3378
sI176
S"    response.write('\\n    ', escape=False)"
p3379
sI177
S'    para1 = \'<font face="Courier" >%s</font>\' % para'
p3380
sI178
S"    response.write('\\n    ', escape=False)"
p3381
sI179
S'    elements.append(platypus.Paragraph(para1, style=mystyle))'
p3382
sI180
S"    response.write('\\n', escape=False)"
p3383
sI181
S'    pass'
p3384
ssg3357
S'()'
p3385
sg3359
S'<module>'
p3386
sasS'pyver'
p3387
S'Python 2.7.3: /usr/bin/python'
p3388
sS'session'
p3389
g62
(g63
g64
NtRp3390
(dp3391
g67
(dp3392
sg69
(lp3393
g62
(g71
g64
NtRp3394
(dp3395
g67
(dp3396
g75
I5
ssg76
Nsg69
(lp3397
g62
(g78
g64
NtRp3398
(dp3399
g67
(dp3400
sg76
g3394
sg69
(lp3401
g62
(g83
g64
NtRp3402
(dp3403
g67
(dp3404
g87
g88
ssg76
g3398
sg69
(lp3405
S'auth'
p3406
asbag62
(g83
g64
NtRp3407
(dp3408
g67
(dp3409
g94
g95
ssg76
g3398
sg69
(lp3410
S':'
asbag62
(g83
g64
NtRp3411
(dp3412
g67
(dp3413
sg76
g3398
sg69
(lp3414
g62
(g63
g64
NtRp3415
(dp3416
g67
(dp3417
g75
I5
ssg76
g3411
sg69
(lp3418
g62
(g71
g64
NtRp3419
(dp3420
g67
(dp3421
g75
I4
ssg76
Nsg69
(lp3422
g62
(g78
g64
NtRp3423
(dp3424
g67
(dp3425
sg76
g3419
sg69
(lp3426
g62
(g83
g64
NtRp3427
(dp3428
g67
(dp3429
g87
g88
ssg76
g3423
sg69
(lp3430
S'expiration'
p3431
asbag62
(g83
g64
NtRp3432
(dp3433
g67
(dp3434
g94
g95
ssg76
g3423
sg69
(lp3435
S':'
asbag62
(g83
g64
NtRp3436
(dp3437
g67
(dp3438
sg76
g3423
sg69
(lp3439
g62
(g63
g64
NtRp3440
(dp3441
g67
(dp3442
g75
I4
ssg76
g3436
sg69
(lp3443
S'3600'
p3444
asbasbasbag62
(g78
g64
NtRp3445
(dp3446
g67
(dp3447
sg76
g3419
sg69
(lp3448
g62
(g83
g64
NtRp3449
(dp3450
g67
(dp3451
g87
g88
ssg76
g3445
sg69
(lp3452
S'hmac_key'
p3453
asbag62
(g83
g64
NtRp3454
(dp3455
g67
(dp3456
g94
g95
ssg76
g3445
sg69
(lp3457
S':'
asbag62
(g83
g64
NtRp3458
(dp3459
g67
(dp3460
sg76
g3445
sg69
(lp3461
g62
(g63
g64
NtRp3462
(dp3463
g67
(dp3464
g75
I4
ssg76
g3458
sg69
(lp3465
S'0e2c6a97-b8b1-4e5e-ad6b-721f56503250'
p3466
asbasbasbag62
(g78
g64
NtRp3467
(dp3468
g67
(dp3469
sg76
g3419
sg69
(lp3470
g62
(g83
g64
NtRp3471
(dp3472
g67
(dp3473
g87
g88
ssg76
g3467
sg69
(lp3474
S'last_visit'
p3475
asbag62
(g83
g64
NtRp3476
(dp3477
g67
(dp3478
g94
g95
ssg76
g3467
sg69
(lp3479
S':'
asbag62
(g83
g64
NtRp3480
(dp3481
g67
(dp3482
sg76
g3467
sg69
(lp3483
g62
(g63
g64
NtRp3484
(dp3485
g67
(dp3486
g75
I4
ssg76
g3480
sg69
(lp3487
S'datetime.datetime(2012, 11, 10, 22, 51, 27, 516043)'
p3488
asbasbasbag62
(g78
g64
NtRp3489
(dp3490
g67
(dp3491
sg76
g3419
sg69
(lp3492
g62
(g83
g64
NtRp3493
(dp3494
g67
(dp3495
g87
g88
ssg76
g3489
sg69
(lp3496
S'remember'
p3497
asbag62
(g83
g64
NtRp3498
(dp3499
g67
(dp3500
g94
g95
ssg76
g3489
sg69
(lp3501
S':'
asbag62
(g83
g64
NtRp3502
(dp3503
g67
(dp3504
sg76
g3489
sg69
(lp3505
g62
(g63
g64
NtRp3506
(dp3507
g67
(dp3508
g75
I4
ssg76
g3502
sg69
(lp3509
g105
asbasbasbag62
(g78
g64
NtRp3510
(dp3511
g67
(dp3512
sg76
g3419
sg69
(lp3513
g62
(g83
g64
NtRp3514
(dp3515
g67
(dp3516
g87
g88
ssg76
g3510
sg69
(lp3517
S'user'
p3518
asbag62
(g83
g64
NtRp3519
(dp3520
g67
(dp3521
g94
g95
ssg76
g3510
sg69
(lp3522
S':'
asbag62
(g83
g64
NtRp3523
(dp3524
g67
(dp3525
sg76
g3510
sg69
(lp3526
g62
(g63
g64
NtRp3527
(dp3528
g67
(dp3529
g75
I4
ssg76
g3523
sg69
(lp3530
g62
(g71
g64
NtRp3531
(dp3532
g67
(dp3533
g75
I3
ssg76
Nsg69
(lp3534
g62
(g78
g64
NtRp3535
(dp3536
g67
(dp3537
sg76
g3531
sg69
(lp3538
g62
(g83
g64
NtRp3539
(dp3540
g67
(dp3541
g87
g88
ssg76
g3535
sg69
(lp3542
S'created_on'
p3543
asbag62
(g83
g64
NtRp3544
(dp3545
g67
(dp3546
g94
g95
ssg76
g3535
sg69
(lp3547
S':'
asbag62
(g83
g64
NtRp3548
(dp3549
g67
(dp3550
sg76
g3535
sg69
(lp3551
g62
(g63
g64
NtRp3552
(dp3553
g67
(dp3554
g75
I3
ssg76
g3548
sg69
(lp3555
S'datetime.datetime(2012, 10, 23, 2, 28, 41)'
p3556
asbasbasbag62
(g78
g64
NtRp3557
(dp3558
g67
(dp3559
sg76
g3531
sg69
(lp3560
g62
(g83
g64
NtRp3561
(dp3562
g67
(dp3563
g87
g88
ssg76
g3557
sg69
(lp3564
S'email'
p3565
asbag62
(g83
g64
NtRp3566
(dp3567
g67
(dp3568
g94
g95
ssg76
g3557
sg69
(lp3569
S':'
asbag62
(g83
g64
NtRp3570
(dp3571
g67
(dp3572
sg76
g3557
sg69
(lp3573
g62
(g63
g64
NtRp3574
(dp3575
g67
(dp3576
g75
I3
ssg76
g3570
sg69
(lp3577
S'manu@gmail.com'
p3578
asbasbasbag62
(g78
g64
NtRp3579
(dp3580
g67
(dp3581
sg76
g3531
sg69
(lp3582
g62
(g83
g64
NtRp3583
(dp3584
g67
(dp3585
g87
g88
ssg76
g3579
sg69
(lp3586
S'first_name'
p3587
asbag62
(g83
g64
NtRp3588
(dp3589
g67
(dp3590
g94
g95
ssg76
g3579
sg69
(lp3591
S':'
asbag62
(g83
g64
NtRp3592
(dp3593
g67
(dp3594
sg76
g3579
sg69
(lp3595
g62
(g63
g64
NtRp3596
(dp3597
g67
(dp3598
g75
I3
ssg76
g3592
sg69
(lp3599
S'manu'
p3600
asbasbasbag62
(g78
g64
NtRp3601
(dp3602
g67
(dp3603
sg76
g3531
sg69
(lp3604
g62
(g83
g64
NtRp3605
(dp3606
g67
(dp3607
g87
g88
ssg76
g3601
sg69
(lp3608
S'id'
p3609
asbag62
(g83
g64
NtRp3610
(dp3611
g67
(dp3612
g94
g95
ssg76
g3601
sg69
(lp3613
S':'
asbag62
(g83
g64
NtRp3614
(dp3615
g67
(dp3616
sg76
g3601
sg69
(lp3617
g62
(g63
g64
NtRp3618
(dp3619
g67
(dp3620
g75
I3
ssg76
g3614
sg69
(lp3621
S'11'
p3622
asbasbasbag62
(g78
g64
NtRp3623
(dp3624
g67
(dp3625
sg76
g3531
sg69
(lp3626
g62
(g83
g64
NtRp3627
(dp3628
g67
(dp3629
g87
g88
ssg76
g3623
sg69
(lp3630
S'last_name'
p3631
asbag62
(g83
g64
NtRp3632
(dp3633
g67
(dp3634
g94
g95
ssg76
g3623
sg69
(lp3635
S':'
asbag62
(g83
g64
NtRp3636
(dp3637
g67
(dp3638
sg76
g3623
sg69
(lp3639
g62
(g63
g64
NtRp3640
(dp3641
g67
(dp3642
g75
I3
ssg76
g3636
sg69
(lp3643
S'p'
asbasbasbag62
(g78
g64
NtRp3644
(dp3645
g67
(dp3646
sg76
g3531
sg69
(lp3647
g62
(g83
g64
NtRp3648
(dp3649
g67
(dp3650
g87
g88
ssg76
g3644
sg69
(lp3651
S'modified_on'
p3652
asbag62
(g83
g64
NtRp3653
(dp3654
g67
(dp3655
g94
g95
ssg76
g3644
sg69
(lp3656
S':'
asbag62
(g83
g64
NtRp3657
(dp3658
g67
(dp3659
sg76
g3644
sg69
(lp3660
g62
(g63
g64
NtRp3661
(dp3662
g67
(dp3663
g75
I3
ssg76
g3657
sg69
(lp3664
S'datetime.datetime(2012, 10, 23, 2, 28, 41)'
p3665
asbasbasbag62
(g78
g64
NtRp3666
(dp3667
g67
(dp3668
sg76
g3531
sg69
(lp3669
g62
(g83
g64
NtRp3670
(dp3671
g67
(dp3672
g87
g88
ssg76
g3666
sg69
(lp3673
S'password'
p3674
asbag62
(g83
g64
NtRp3675
(dp3676
g67
(dp3677
g94
g95
ssg76
g3666
sg69
(lp3678
S':'
asbag62
(g83
g64
NtRp3679
(dp3680
g67
(dp3681
sg76
g3666
sg69
(lp3682
g62
(g63
g64
NtRp3683
(dp3684
g67
(dp3685
g75
I3
ssg76
g3679
sg69
(lp3686
S'32371e3190f8e63e16755b2e6bf663a2'
p3687
asbasbasbag62
(g78
g64
NtRp3688
(dp3689
g67
(dp3690
sg76
g3531
sg69
(lp3691
g62
(g83
g64
NtRp3692
(dp3693
g67
(dp3694
g87
g88
ssg76
g3688
sg69
(lp3695
S'registration_id'
p3696
asbag62
(g83
g64
NtRp3697
(dp3698
g67
(dp3699
g94
g95
ssg76
g3688
sg69
(lp3700
S':'
asbag62
(g83
g64
NtRp3701
(dp3702
g67
(dp3703
sg76
g3688
sg69
(lp3704
g62
(g63
g64
NtRp3705
(dp3706
g67
(dp3707
g75
I3
ssg76
g3701
sg69
(lp3708
S''
asbasbasbag62
(g78
g64
NtRp3709
(dp3710
g67
(dp3711
sg76
g3531
sg69
(lp3712
g62
(g83
g64
NtRp3713
(dp3714
g67
(dp3715
g87
g88
ssg76
g3709
sg69
(lp3716
S'registration_key'
p3717
asbag62
(g83
g64
NtRp3718
(dp3719
g67
(dp3720
g94
g95
ssg76
g3709
sg69
(lp3721
S':'
asbag62
(g83
g64
NtRp3722
(dp3723
g67
(dp3724
sg76
g3709
sg69
(lp3725
g62
(g63
g64
NtRp3726
(dp3727
g67
(dp3728
g75
I3
ssg76
g3722
sg69
(lp3729
S''
asbasbasbag62
(g78
g64
NtRp3730
(dp3731
g67
(dp3732
sg76
g3531
sg69
(lp3733
g62
(g83
g64
NtRp3734
(dp3735
g67
(dp3736
g87
g88
ssg76
g3730
sg69
(lp3737
S'reset_password_key'
p3738
asbag62
(g83
g64
NtRp3739
(dp3740
g67
(dp3741
g94
g95
ssg76
g3730
sg69
(lp3742
S':'
asbag62
(g83
g64
NtRp3743
(dp3744
g67
(dp3745
sg76
g3730
sg69
(lp3746
g62
(g63
g64
NtRp3747
(dp3748
g67
(dp3749
g75
I3
ssg76
g3743
sg69
(lp3750
S''
asbasbasbag62
(g78
g64
NtRp3751
(dp3752
g67
(dp3753
sg76
g3531
sg69
(lp3754
g62
(g83
g64
NtRp3755
(dp3756
g67
(dp3757
g87
g88
ssg76
g3751
sg69
(lp3758
S'username'
p3759
asbag62
(g83
g64
NtRp3760
(dp3761
g67
(dp3762
g94
g95
ssg76
g3751
sg69
(lp3763
S':'
asbag62
(g83
g64
NtRp3764
(dp3765
g67
(dp3766
sg76
g3751
sg69
(lp3767
g62
(g63
g64
NtRp3768
(dp3769
g67
(dp3770
g75
I3
ssg76
g3764
sg69
(lp3771
S'manu1'
p3772
asbasbasbasbasbasbasbag62
(g78
g64
NtRp3773
(dp3774
g67
(dp3775
sg76
g3419
sg69
(lp3776
g62
(g83
g64
NtRp3777
(dp3778
g67
(dp3779
g87
g88
ssg76
g3773
sg69
(lp3780
S'user_groups'
p3781
asbag62
(g83
g64
NtRp3782
(dp3783
g67
(dp3784
g94
g95
ssg76
g3773
sg69
(lp3785
S':'
asbag62
(g83
g64
NtRp3786
(dp3787
g67
(dp3788
sg76
g3773
sg69
(lp3789
g62
(g63
g64
NtRp3790
(dp3791
g67
(dp3792
g75
I4
ssg76
g3786
sg69
(lp3793
g62
(g71
g64
NtRp3794
(dp3795
g67
(dp3796
g75
I3
ssg76
Nsg69
(lp3797
g62
(g78
g64
NtRp3798
(dp3799
g67
(dp3800
sg76
g3794
sg69
(lp3801
g62
(g83
g64
NtRp3802
(dp3803
g67
(dp3804
g87
g88
ssg76
g3798
sg69
(lp3805
S'1'
asbag62
(g83
g64
NtRp3806
(dp3807
g67
(dp3808
g94
g95
ssg76
g3798
sg69
(lp3809
S':'
asbag62
(g83
g64
NtRp3810
(dp3811
g67
(dp3812
sg76
g3798
sg69
(lp3813
g62
(g63
g64
NtRp3814
(dp3815
g67
(dp3816
g75
I3
ssg76
g3810
sg69
(lp3817
S'user_11'
p3818
asbasbasbasbasbasbasbasbasbasbasbasbasbsS'etype'
p3819
S"<type 'exceptions.IOError'>"
p3820
sS'date'
p3821
S'Sat Nov 10 22:51:52 2012'
p3822
sS'response'
p3823
g62
(g63
g64
NtRp3824
(dp3825
g67
(dp3826
sg69
(lp3827
g62
(g71
g64
NtRp3828
(dp3829
g67
(dp3830
g75
I5
ssg76
Nsg69
(lp3831
g62
(g78
g64
NtRp3832
(dp3833
g67
(dp3834
sg76
g3828
sg69
(lp3835
g62
(g83
g64
NtRp3836
(dp3837
g67
(dp3838
g87
g88
ssg76
g3832
sg69
(lp3839
g160
asbag62
(g83
g64
NtRp3840
(dp3841
g67
(dp3842
g94
g95
ssg76
g3832
sg69
(lp3843
S':'
asbag62
(g83
g64
NtRp3844
(dp3845
g67
(dp3846
sg76
g3832
sg69
(lp3847
g62
(g63
g64
NtRp3848
(dp3849
g67
(dp3850
g75
I5
ssg76
g3844
sg69
(lp3851
S'<cStringIO.StringO object at 0x7f45a0840730>'
p3852
asbasbasbag62
(g78
g64
NtRp3853
(dp3854
g67
(dp3855
sg76
g3828
sg69
(lp3856
g62
(g83
g64
NtRp3857
(dp3858
g67
(dp3859
g87
g88
ssg76
g3853
sg69
(lp3860
g226
asbag62
(g83
g64
NtRp3861
(dp3862
g67
(dp3863
g94
g95
ssg76
g3853
sg69
(lp3864
S':'
asbag62
(g83
g64
NtRp3865
(dp3866
g67
(dp3867
sg76
g3853
sg69
(lp3868
g62
(g63
g64
NtRp3869
(dp3870
g67
(dp3871
g75
I5
ssg76
g3865
sg69
(lp3872
g62
(g71
g64
NtRp3873
(dp3874
g67
(dp3875
g75
I4
ssg76
Nsg69
(lp3876
g62
(g78
g64
NtRp3877
(dp3878
g67
(dp3879
sg76
g3873
sg69
(lp3880
g62
(g83
g64
NtRp3881
(dp3882
g67
(dp3883
g87
g88
ssg76
g3877
sg69
(lp3884
S'session_id_cite_m3'
p3885
asbag62
(g83
g64
NtRp3886
(dp3887
g67
(dp3888
g94
g95
ssg76
g3877
sg69
(lp3889
S':'
asbag62
(g83
g64
NtRp3890
(dp3891
g67
(dp3892
sg76
g3877
sg69
(lp3893
g62
(g63
g64
NtRp3894
(dp3895
g67
(dp3896
g75
I4
ssg76
g3890
sg69
(lp3897
g62
(g71
g64
NtRp3898
(dp3899
g67
(dp3900
g75
I3
ssg76
Nsg69
(lp3901
g62
(g78
g64
NtRp3902
(dp3903
g67
(dp3904
sg76
g3898
sg69
(lp3905
g62
(g83
g64
NtRp3906
(dp3907
g67
(dp3908
g87
g88
ssg76
g3902
sg69
(lp3909
g276
asbag62
(g83
g64
NtRp3910
(dp3911
g67
(dp3912
g94
g95
ssg76
g3902
sg69
(lp3913
S':'
asbag62
(g83
g64
NtRp3914
(dp3915
g67
(dp3916
sg76
g3902
sg69
(lp3917
g62
(g63
g64
NtRp3918
(dp3919
g67
(dp3920
g75
I3
ssg76
g3914
sg69
(lp3921
S''
asbasbasbag62
(g78
g64
NtRp3922
(dp3923
g67
(dp3924
sg76
g3898
sg69
(lp3925
g62
(g83
g64
NtRp3926
(dp3927
g67
(dp3928
g87
g88
ssg76
g3922
sg69
(lp3929
g297
asbag62
(g83
g64
NtRp3930
(dp3931
g67
(dp3932
g94
g95
ssg76
g3922
sg69
(lp3933
S':'
asbag62
(g83
g64
NtRp3934
(dp3935
g67
(dp3936
sg76
g3922
sg69
(lp3937
g62
(g63
g64
NtRp3938
(dp3939
g67
(dp3940
g75
I3
ssg76
g3934
sg69
(lp3941
S''
asbasbasbag62
(g78
g64
NtRp3942
(dp3943
g67
(dp3944
sg76
g3898
sg69
(lp3945
g62
(g83
g64
NtRp3946
(dp3947
g67
(dp3948
g87
g88
ssg76
g3942
sg69
(lp3949
g318
asbag62
(g83
g64
NtRp3950
(dp3951
g67
(dp3952
g94
g95
ssg76
g3942
sg69
(lp3953
S':'
asbag62
(g83
g64
NtRp3954
(dp3955
g67
(dp3956
sg76
g3942
sg69
(lp3957
g62
(g63
g64
NtRp3958
(dp3959
g67
(dp3960
g75
I3
ssg76
g3954
sg69
(lp3961
S''
asbasbasbag62
(g78
g64
NtRp3962
(dp3963
g67
(dp3964
sg76
g3898
sg69
(lp3965
g62
(g83
g64
NtRp3966
(dp3967
g67
(dp3968
g87
g88
ssg76
g3962
sg69
(lp3969
g339
asbag62
(g83
g64
NtRp3970
(dp3971
g67
(dp3972
g94
g95
ssg76
g3962
sg69
(lp3973
S':'
asbag62
(g83
g64
NtRp3974
(dp3975
g67
(dp3976
sg76
g3962
sg69
(lp3977
g62
(g63
g64
NtRp3978
(dp3979
g67
(dp3980
g75
I3
ssg76
g3974
sg69
(lp3981
S''
asbasbasbag62
(g78
g64
NtRp3982
(dp3983
g67
(dp3984
sg76
g3898
sg69
(lp3985
g62
(g83
g64
NtRp3986
(dp3987
g67
(dp3988
g87
g88
ssg76
g3982
sg69
(lp3989
g360
asbag62
(g83
g64
NtRp3990
(dp3991
g67
(dp3992
g94
g95
ssg76
g3982
sg69
(lp3993
S':'
asbag62
(g83
g64
NtRp3994
(dp3995
g67
(dp3996
sg76
g3982
sg69
(lp3997
g62
(g63
g64
NtRp3998
(dp3999
g67
(dp4000
g75
I3
ssg76
g3994
sg69
(lp4001
S''
asbasbasbag62
(g78
g64
NtRp4002
(dp4003
g67
(dp4004
sg76
g3898
sg69
(lp4005
g62
(g83
g64
NtRp4006
(dp4007
g67
(dp4008
g87
g88
ssg76
g4002
sg69
(lp4009
g381
asbag62
(g83
g64
NtRp4010
(dp4011
g67
(dp4012
g94
g95
ssg76
g4002
sg69
(lp4013
S':'
asbag62
(g83
g64
NtRp4014
(dp4015
g67
(dp4016
sg76
g4002
sg69
(lp4017
g62
(g63
g64
NtRp4018
(dp4019
g67
(dp4020
g75
I3
ssg76
g4014
sg69
(lp4021
S'/'
asbasbasbag62
(g78
g64
NtRp4022
(dp4023
g67
(dp4024
sg76
g3898
sg69
(lp4025
g62
(g83
g64
NtRp4026
(dp4027
g67
(dp4028
g87
g88
ssg76
g4022
sg69
(lp4029
g402
asbag62
(g83
g64
NtRp4030
(dp4031
g67
(dp4032
g94
g95
ssg76
g4022
sg69
(lp4033
S':'
asbag62
(g83
g64
NtRp4034
(dp4035
g67
(dp4036
sg76
g4022
sg69
(lp4037
g62
(g63
g64
NtRp4038
(dp4039
g67
(dp4040
g75
I3
ssg76
g4034
sg69
(lp4041
S''
asbasbasbag62
(g78
g64
NtRp4042
(dp4043
g67
(dp4044
sg76
g3898
sg69
(lp4045
g62
(g83
g64
NtRp4046
(dp4047
g67
(dp4048
g87
g88
ssg76
g4042
sg69
(lp4049
g423
asbag62
(g83
g64
NtRp4050
(dp4051
g67
(dp4052
g94
g95
ssg76
g4042
sg69
(lp4053
S':'
asbag62
(g83
g64
NtRp4054
(dp4055
g67
(dp4056
sg76
g4042
sg69
(lp4057
g62
(g63
g64
NtRp4058
(dp4059
g67
(dp4060
g75
I3
ssg76
g4054
sg69
(lp4061
S''
asbasbasbasbasbasbasbasbasbasbasbag62
(g78
g64
NtRp4062
(dp4063
g67
(dp4064
sg76
g3828
sg69
(lp4065
g62
(g83
g64
NtRp4066
(dp4067
g67
(dp4068
g87
g88
ssg76
g4062
sg69
(lp4069
S'delimiters'
p4070
asbag62
(g83
g64
NtRp4071
(dp4072
g67
(dp4073
g94
g95
ssg76
g4062
sg69
(lp4074
S':'
asbag62
(g83
g64
NtRp4075
(dp4076
g67
(dp4077
sg76
g4062
sg69
(lp4078
g62
(g63
g64
NtRp4079
(dp4080
g67
(dp4081
g75
I5
ssg76
g4075
sg69
(lp4082
g62
(g71
g64
NtRp4083
(dp4084
g67
(dp4085
g75
I4
ssg76
Nsg69
(lp4086
g62
(g78
g64
NtRp4087
(dp4088
g67
(dp4089
sg76
g4083
sg69
(lp4090
g62
(g83
g64
NtRp4091
(dp4092
g67
(dp4093
sg76
g4087
sg69
(lp4094
g62
(g63
g64
NtRp4095
(dp4096
g67
(dp4097
g75
I4
ssg76
g4091
sg69
(lp4098
S'{{'
p4099
asbasbasbag62
(g78
g64
NtRp4100
(dp4101
g67
(dp4102
sg76
g4083
sg69
(lp4103
g62
(g83
g64
NtRp4104
(dp4105
g67
(dp4106
sg76
g4100
sg69
(lp4107
g62
(g63
g64
NtRp4108
(dp4109
g67
(dp4110
g75
I4
ssg76
g4104
sg69
(lp4111
S'}}'
p4112
asbasbasbasbasbasbasbag62
(g78
g64
NtRp4113
(dp4114
g67
(dp4115
sg76
g3828
sg69
(lp4116
g62
(g83
g64
NtRp4117
(dp4118
g67
(dp4119
g87
g88
ssg76
g4113
sg69
(lp4120
S'files'
p4121
asbag62
(g83
g64
NtRp4122
(dp4123
g67
(dp4124
g94
g95
ssg76
g4113
sg69
(lp4125
S':'
asbag62
(g83
g64
NtRp4126
(dp4127
g67
(dp4128
sg76
g4113
sg69
(lp4129
g62
(g63
g64
NtRp4130
(dp4131
g67
(dp4132
g75
I5
ssg76
g4126
sg69
(lp4133
g62
(g71
g64
NtRp4134
(dp4135
g67
(dp4136
g75
I4
ssg76
Nsg69
(lp4137
g62
(g78
g64
NtRp4138
(dp4139
g67
(dp4140
sg76
g4134
sg69
(lp4141
g62
(g83
g64
NtRp4142
(dp4143
g67
(dp4144
sg76
g4138
sg69
(lp4145
g62
(g63
g64
NtRp4146
(dp4147
g67
(dp4148
g75
I4
ssg76
g4142
sg69
(lp4149
S'/cite_m3/static/js/jquery.js'
p4150
asbasbasbag62
(g78
g64
NtRp4151
(dp4152
g67
(dp4153
sg76
g4134
sg69
(lp4154
g62
(g83
g64
NtRp4155
(dp4156
g67
(dp4157
sg76
g4151
sg69
(lp4158
g62
(g63
g64
NtRp4159
(dp4160
g67
(dp4161
g75
I4
ssg76
g4155
sg69
(lp4162
S'/cite_m3/static/css/calendar.css'
p4163
asbasbasbag62
(g78
g64
NtRp4164
(dp4165
g67
(dp4166
sg76
g4134
sg69
(lp4167
g62
(g83
g64
NtRp4168
(dp4169
g67
(dp4170
sg76
g4164
sg69
(lp4171
g62
(g63
g64
NtRp4172
(dp4173
g67
(dp4174
g75
I4
ssg76
g4168
sg69
(lp4175
S'/cite_m3/static/js/calendar.js'
p4176
asbasbasbag62
(g78
g64
NtRp4177
(dp4178
g67
(dp4179
sg76
g4134
sg69
(lp4180
g62
(g83
g64
NtRp4181
(dp4182
g67
(dp4183
sg76
g4177
sg69
(lp4184
g62
(g63
g64
NtRp4185
(dp4186
g67
(dp4187
g75
I4
ssg76
g4181
sg69
(lp4188
S'/cite_m3/static/js/web2py.js'
p4189
asbasbasbag62
(g78
g64
NtRp4190
(dp4191
g67
(dp4192
sg76
g4134
sg69
(lp4193
g62
(g83
g64
NtRp4194
(dp4195
g67
(dp4196
sg76
g4190
sg69
(lp4197
g62
(g63
g64
NtRp4198
(dp4199
g67
(dp4200
g75
I4
ssg76
g4194
sg69
(lp4201
S'/cite_m3/static/plugin_layouts/layouts/Blend/default.css'
p4202
asbasbasbag62
(g78
g64
NtRp4203
(dp4204
g67
(dp4205
sg76
g4134
sg69
(lp4206
g62
(g83
g64
NtRp4207
(dp4208
g67
(dp4209
sg76
g4203
sg69
(lp4210
g62
(g63
g64
NtRp4211
(dp4212
g67
(dp4213
g75
I4
ssg76
g4207
sg69
(lp4214
S'/cite_m3/static/plugin_layouts/superfish.js'
p4215
asbasbasbasbasbasbasbag62
(g78
g64
NtRp4216
(dp4217
g67
(dp4218
sg76
g3828
sg69
(lp4219
g62
(g83
g64
NtRp4220
(dp4221
g67
(dp4222
g87
g88
ssg76
g4216
sg69
(lp4223
S'flash'
p4224
asbag62
(g83
g64
NtRp4225
(dp4226
g67
(dp4227
g94
g95
ssg76
g4216
sg69
(lp4228
S':'
asbag62
(g83
g64
NtRp4229
(dp4230
g67
(dp4231
sg76
g4216
sg69
(lp4232
g62
(g63
g64
NtRp4233
(dp4234
g67
(dp4235
g75
I5
ssg76
g4229
sg69
(lp4236
S''
asbasbasbag62
(g78
g64
NtRp4237
(dp4238
g67
(dp4239
sg76
g3828
sg69
(lp4240
g62
(g83
g64
NtRp4241
(dp4242
g67
(dp4243
g87
g88
ssg76
g4237
sg69
(lp4244
S'generic_patterns'
p4245
asbag62
(g83
g64
NtRp4246
(dp4247
g67
(dp4248
g94
g95
ssg76
g4237
sg69
(lp4249
S':'
asbag62
(g83
g64
NtRp4250
(dp4251
g67
(dp4252
sg76
g4237
sg69
(lp4253
g62
(g63
g64
NtRp4254
(dp4255
g67
(dp4256
g75
I5
ssg76
g4250
sg69
(lp4257
g62
(g71
g64
NtRp4258
(dp4259
g67
(dp4260
g75
I4
ssg76
Nsg69
(lp4261
g62
(g78
g64
NtRp4262
(dp4263
g67
(dp4264
sg76
g4258
sg69
(lp4265
g62
(g83
g64
NtRp4266
(dp4267
g67
(dp4268
sg76
g4262
sg69
(lp4269
g62
(g63
g64
NtRp4270
(dp4271
g67
(dp4272
g75
I4
ssg76
g4266
sg69
(lp4273
S'*'
asbasbasbasbasbasbasbag62
(g78
g64
NtRp4274
(dp4275
g67
(dp4276
sg76
g3828
sg69
(lp4277
g62
(g83
g64
NtRp4278
(dp4279
g67
(dp4280
g87
g88
ssg76
g4274
sg69
(lp4281
S'headers'
p4282
asbag62
(g83
g64
NtRp4283
(dp4284
g67
(dp4285
g94
g95
ssg76
g4274
sg69
(lp4286
S':'
asbag62
(g83
g64
NtRp4287
(dp4288
g67
(dp4289
sg76
g4274
sg69
(lp4290
g62
(g63
g64
NtRp4291
(dp4292
g67
(dp4293
g75
I5
ssg76
g4287
sg69
(lp4294
g62
(g71
g64
NtRp4295
(dp4296
g67
(dp4297
g75
I4
ssg76
Nsg69
(lp4298
g62
(g78
g64
NtRp4299
(dp4300
g67
(dp4301
sg76
g4295
sg69
(lp4302
g62
(g83
g64
NtRp4303
(dp4304
g67
(dp4305
g87
g88
ssg76
g4299
sg69
(lp4306
S'Cache-Control'
p4307
asbag62
(g83
g64
NtRp4308
(dp4309
g67
(dp4310
g94
g95
ssg76
g4299
sg69
(lp4311
S':'
asbag62
(g83
g64
NtRp4312
(dp4313
g67
(dp4314
sg76
g4299
sg69
(lp4315
g62
(g63
g64
NtRp4316
(dp4317
g67
(dp4318
g75
I4
ssg76
g4312
sg69
(lp4319
S'no-store, no-cache, must-revalidate, post-check=0, pre-check=0'
p4320
asbasbasbag62
(g78
g64
NtRp4321
(dp4322
g67
(dp4323
sg76
g4295
sg69
(lp4324
g62
(g83
g64
NtRp4325
(dp4326
g67
(dp4327
g87
g88
ssg76
g4321
sg69
(lp4328
S'Content-Type'
p4329
asbag62
(g83
g64
NtRp4330
(dp4331
g67
(dp4332
g94
g95
ssg76
g4321
sg69
(lp4333
S':'
asbag62
(g83
g64
NtRp4334
(dp4335
g67
(dp4336
sg76
g4321
sg69
(lp4337
g62
(g63
g64
NtRp4338
(dp4339
g67
(dp4340
g75
I4
ssg76
g4334
sg69
(lp4341
S'text/html; charset=utf-8'
p4342
asbasbasbag62
(g78
g64
NtRp4343
(dp4344
g67
(dp4345
sg76
g4295
sg69
(lp4346
g62
(g83
g64
NtRp4347
(dp4348
g67
(dp4349
g87
g88
ssg76
g4343
sg69
(lp4350
S'Expires'
p4351
asbag62
(g83
g64
NtRp4352
(dp4353
g67
(dp4354
g94
g95
ssg76
g4343
sg69
(lp4355
S':'
asbag62
(g83
g64
NtRp4356
(dp4357
g67
(dp4358
sg76
g4343
sg69
(lp4359
g62
(g63
g64
NtRp4360
(dp4361
g67
(dp4362
g75
I4
ssg76
g4356
sg69
(lp4363
S'Sat, 10 Nov 2012 17:21:36 GMT'
p4364
asbasbasbag62
(g78
g64
NtRp4365
(dp4366
g67
(dp4367
sg76
g4295
sg69
(lp4368
g62
(g83
g64
NtRp4369
(dp4370
g67
(dp4371
g87
g88
ssg76
g4365
sg69
(lp4372
S'Pragma'
p4373
asbag62
(g83
g64
NtRp4374
(dp4375
g67
(dp4376
g94
g95
ssg76
g4365
sg69
(lp4377
S':'
asbag62
(g83
g64
NtRp4378
(dp4379
g67
(dp4380
sg76
g4365
sg69
(lp4381
g62
(g63
g64
NtRp4382
(dp4383
g67
(dp4384
g75
I4
ssg76
g4378
sg69
(lp4385
S'no-cache'
p4386
asbasbasbag62
(g78
g64
NtRp4387
(dp4388
g67
(dp4389
sg76
g4295
sg69
(lp4390
g62
(g83
g64
NtRp4391
(dp4392
g67
(dp4393
g87
g88
ssg76
g4387
sg69
(lp4394
S'X-Powered-By'
p4395
asbag62
(g83
g64
NtRp4396
(dp4397
g67
(dp4398
g94
g95
ssg76
g4387
sg69
(lp4399
S':'
asbag62
(g83
g64
NtRp4400
(dp4401
g67
(dp4402
sg76
g4387
sg69
(lp4403
g62
(g63
g64
NtRp4404
(dp4405
g67
(dp4406
g75
I4
ssg76
g4400
sg69
(lp4407
S'web2py'
p4408
asbasbasbasbasbasbasbag62
(g78
g64
NtRp4409
(dp4410
g67
(dp4411
sg76
g3828
sg69
(lp4412
g62
(g83
g64
NtRp4413
(dp4414
g67
(dp4415
g87
g88
ssg76
g4409
sg69
(lp4416
S'menu'
p4417
asbag62
(g83
g64
NtRp4418
(dp4419
g67
(dp4420
g94
g95
ssg76
g4409
sg69
(lp4421
S':'
asbag62
(g83
g64
NtRp4422
(dp4423
g67
(dp4424
sg76
g4409
sg69
(lp4425
g62
(g63
g64
NtRp4426
(dp4427
g67
(dp4428
g75
I5
ssg76
g4422
sg69
(lp4429
g62
(g71
g64
NtRp4430
(dp4431
g67
(dp4432
g75
I4
ssg76
Nsg69
(lp4433
g62
(g78
g64
NtRp4434
(dp4435
g67
(dp4436
sg76
g4430
sg69
(lp4437
g62
(g83
g64
NtRp4438
(dp4439
g67
(dp4440
sg76
g4434
sg69
(lp4441
g62
(g63
g64
NtRp4442
(dp4443
g67
(dp4444
g75
I4
ssg76
g4438
sg69
(lp4445
g62
(g71
g64
NtRp4446
(dp4447
g67
(dp4448
g75
I3
ssg76
Nsg69
(lp4449
g62
(g78
g64
NtRp4450
(dp4451
g67
(dp4452
sg76
g4446
sg69
(lp4453
g62
(g83
g64
NtRp4454
(dp4455
g67
(dp4456
sg76
g4450
sg69
(lp4457
g62
(g63
g64
NtRp4458
(dp4459
g67
(dp4460
g75
I3
ssg76
g4454
sg69
(lp4461
cgluon.languages
lazyT_unpickle
p4462
(S't\x05\x00\x00\x00Index'
tRp4463
asbasbasbag62
(g78
g64
NtRp4464
(dp4465
g67
(dp4466
sg76
g4446
sg69
(lp4467
g62
(g83
g64
NtRp4468
(dp4469
g67
(dp4470
sg76
g4464
sg69
(lp4471
g62
(g63
g64
NtRp4472
(dp4473
g67
(dp4474
g75
I3
ssg76
g4468
sg69
(lp4475
g105
asbasbasbag62
(g78
g64
NtRp4476
(dp4477
g67
(dp4478
sg76
g4446
sg69
(lp4479
g62
(g83
g64
NtRp4480
(dp4481
g67
(dp4482
sg76
g4476
sg69
(lp4483
g62
(g63
g64
NtRp4484
(dp4485
g67
(dp4486
g75
I3
ssg76
g4480
sg69
(lp4487
S'/cite_m3/default/index'
p4488
asbasbasbag62
(g78
g64
NtRp4489
(dp4490
g67
(dp4491
sg76
g4446
sg69
(lp4492
g62
(g83
g64
NtRp4493
(dp4494
g67
(dp4495
sg76
g4489
sg69
(lp4496
g62
(g63
g64
NtRp4497
(dp4498
g67
(dp4499
g75
I3
ssg76
g4493
sg69
(lp4500
g62
(g71
g64
NtRp4501
(dp4502
g67
(dp4503
g75
I2
ssg76
Nsg69
(lp4504
sbasbasbasbasbasbasbasbasbasbasbasbag62
(g78
g64
NtRp4505
(dp4506
g67
(dp4507
sg76
g3828
sg69
(lp4508
g62
(g83
g64
NtRp4509
(dp4510
g67
(dp4511
g87
g88
ssg76
g4505
sg69
(lp4512
S'meta'
p4513
asbag62
(g83
g64
NtRp4514
(dp4515
g67
(dp4516
g94
g95
ssg76
g4505
sg69
(lp4517
S':'
asbag62
(g83
g64
NtRp4518
(dp4519
g67
(dp4520
sg76
g4505
sg69
(lp4521
g62
(g63
g64
NtRp4522
(dp4523
g67
(dp4524
g75
I5
ssg76
g4518
sg69
(lp4525
g62
(g71
g64
NtRp4526
(dp4527
g67
(dp4528
g75
I4
ssg76
Nsg69
(lp4529
g62
(g78
g64
NtRp4530
(dp4531
g67
(dp4532
sg76
g4526
sg69
(lp4533
g62
(g83
g64
NtRp4534
(dp4535
g67
(dp4536
g87
g88
ssg76
g4530
sg69
(lp4537
S'author'
p4538
asbag62
(g83
g64
NtRp4539
(dp4540
g67
(dp4541
g94
g95
ssg76
g4530
sg69
(lp4542
S':'
asbag62
(g83
g64
NtRp4543
(dp4544
g67
(dp4545
sg76
g4530
sg69
(lp4546
g62
(g63
g64
NtRp4547
(dp4548
g67
(dp4549
g75
I4
ssg76
g4543
sg69
(lp4550
S'you <you@example.com>'
p4551
asbasbasbag62
(g78
g64
NtRp4552
(dp4553
g67
(dp4554
sg76
g4526
sg69
(lp4555
g62
(g83
g64
NtRp4556
(dp4557
g67
(dp4558
g87
g88
ssg76
g4552
sg69
(lp4559
S'description'
p4560
asbag62
(g83
g64
NtRp4561
(dp4562
g67
(dp4563
g94
g95
ssg76
g4552
sg69
(lp4564
S':'
asbag62
(g83
g64
NtRp4565
(dp4566
g67
(dp4567
sg76
g4552
sg69
(lp4568
g62
(g63
g64
NtRp4569
(dp4570
g67
(dp4571
g75
I4
ssg76
g4565
sg69
(lp4572
S''
asbasbasbag62
(g78
g64
NtRp4573
(dp4574
g67
(dp4575
sg76
g4526
sg69
(lp4576
g62
(g83
g64
NtRp4577
(dp4578
g67
(dp4579
g87
g88
ssg76
g4573
sg69
(lp4580
S'keywords'
p4581
asbag62
(g83
g64
NtRp4582
(dp4583
g67
(dp4584
g94
g95
ssg76
g4573
sg69
(lp4585
S':'
asbag62
(g83
g64
NtRp4586
(dp4587
g67
(dp4588
sg76
g4573
sg69
(lp4589
g62
(g63
g64
NtRp4590
(dp4591
g67
(dp4592
g75
I4
ssg76
g4586
sg69
(lp4593
S''
asbasbasbasbasbasbasbag62
(g78
g64
NtRp4594
(dp4595
g67
(dp4596
sg76
g3828
sg69
(lp4597
g62
(g83
g64
NtRp4598
(dp4599
g67
(dp4600
g87
g88
ssg76
g4594
sg69
(lp4601
S'postprocessing'
p4602
asbag62
(g83
g64
NtRp4603
(dp4604
g67
(dp4605
g94
g95
ssg76
g4594
sg69
(lp4606
S':'
asbag62
(g83
g64
NtRp4607
(dp4608
g67
(dp4609
sg76
g4594
sg69
(lp4610
g62
(g63
g64
NtRp4611
(dp4612
g67
(dp4613
g75
I5
ssg76
g4607
sg69
(lp4614
g62
(g71
g64
NtRp4615
(dp4616
g67
(dp4617
g75
I4
ssg76
Nsg69
(lp4618
sbasbasbasbag62
(g78
g64
NtRp4619
(dp4620
g67
(dp4621
sg76
g3828
sg69
(lp4622
g62
(g83
g64
NtRp4623
(dp4624
g67
(dp4625
g87
g88
ssg76
g4619
sg69
(lp4626
S'session_file'
p4627
asbag62
(g83
g64
NtRp4628
(dp4629
g67
(dp4630
g94
g95
ssg76
g4619
sg69
(lp4631
S':'
asbag62
(g83
g64
NtRp4632
(dp4633
g67
(dp4634
sg76
g4619
sg69
(lp4635
g62
(g63
g64
NtRp4636
(dp4637
g67
(dp4638
g75
I5
ssg76
g4632
sg69
(lp4639
S"<open file '/home/maneesha/Downloads/web2py/applications/cite_m3/sessions/127.0.0.1-47ff6b5b-ae2e-4fc8-851c-9fb23404d46e', mode 'rb+' at 0x7f45902a09c0>"
p4640
asbasbasbag62
(g78
g64
NtRp4641
(dp4642
g67
(dp4643
sg76
g3828
sg69
(lp4644
g62
(g83
g64
NtRp4645
(dp4646
g67
(dp4647
g87
g88
ssg76
g4641
sg69
(lp4648
S'session_filename'
p4649
asbag62
(g83
g64
NtRp4650
(dp4651
g67
(dp4652
g94
g95
ssg76
g4641
sg69
(lp4653
S':'
asbag62
(g83
g64
NtRp4654
(dp4655
g67
(dp4656
sg76
g4641
sg69
(lp4657
g62
(g63
g64
NtRp4658
(dp4659
g67
(dp4660
g75
I5
ssg76
g4654
sg69
(lp4661
S'/home/maneesha/Downloads/web2py/applications/cite_m3/sessions/127.0.0.1-47ff6b5b-ae2e-4fc8-851c-9fb23404d46e'
p4662
asbasbasbag62
(g78
g64
NtRp4663
(dp4664
g67
(dp4665
sg76
g3828
sg69
(lp4666
g62
(g83
g64
NtRp4667
(dp4668
g67
(dp4669
g87
g88
ssg76
g4663
sg69
(lp4670
S'session_id'
p4671
asbag62
(g83
g64
NtRp4672
(dp4673
g67
(dp4674
g94
g95
ssg76
g4663
sg69
(lp4675
S':'
asbag62
(g83
g64
NtRp4676
(dp4677
g67
(dp4678
sg76
g4663
sg69
(lp4679
g62
(g63
g64
NtRp4680
(dp4681
g67
(dp4682
g75
I5
ssg76
g4676
sg69
(lp4683
S'127.0.0.1-47ff6b5b-ae2e-4fc8-851c-9fb23404d46e'
p4684
asbasbasbag62
(g78
g64
NtRp4685
(dp4686
g67
(dp4687
sg76
g3828
sg69
(lp4688
g62
(g83
g64
NtRp4689
(dp4690
g67
(dp4691
g87
g88
ssg76
g4685
sg69
(lp4692
S'session_id_name'
p4693
asbag62
(g83
g64
NtRp4694
(dp4695
g67
(dp4696
g94
g95
ssg76
g4685
sg69
(lp4697
S':'
asbag62
(g83
g64
NtRp4698
(dp4699
g67
(dp4700
sg76
g4685
sg69
(lp4701
g62
(g63
g64
NtRp4702
(dp4703
g67
(dp4704
g75
I5
ssg76
g4698
sg69
(lp4705
g3885
asbasbasbag62
(g78
g64
NtRp4706
(dp4707
g67
(dp4708
sg76
g3828
sg69
(lp4709
g62
(g83
g64
NtRp4710
(dp4711
g67
(dp4712
g87
g88
ssg76
g4706
sg69
(lp4713
S'session_locked'
p4714
asbag62
(g83
g64
NtRp4715
(dp4716
g67
(dp4717
g94
g95
ssg76
g4706
sg69
(lp4718
S':'
asbag62
(g83
g64
NtRp4719
(dp4720
g67
(dp4721
sg76
g4706
sg69
(lp4722
g62
(g63
g64
NtRp4723
(dp4724
g67
(dp4725
g75
I5
ssg76
g4719
sg69
(lp4726
g2031
asbasbasbag62
(g78
g64
NtRp4727
(dp4728
g67
(dp4729
sg76
g3828
sg69
(lp4730
g62
(g83
g64
NtRp4731
(dp4732
g67
(dp4733
g87
g88
ssg76
g4727
sg69
(lp4734
S'session_new'
p4735
asbag62
(g83
g64
NtRp4736
(dp4737
g67
(dp4738
g94
g95
ssg76
g4727
sg69
(lp4739
S':'
asbag62
(g83
g64
NtRp4740
(dp4741
g67
(dp4742
sg76
g4727
sg69
(lp4743
g62
(g63
g64
NtRp4744
(dp4745
g67
(dp4746
g75
I5
ssg76
g4740
sg69
(lp4747
g105
asbasbasbag62
(g78
g64
NtRp4748
(dp4749
g67
(dp4750
sg76
g3828
sg69
(lp4751
g62
(g83
g64
NtRp4752
(dp4753
g67
(dp4754
g87
g88
ssg76
g4748
sg69
(lp4755
S'status'
p4756
asbag62
(g83
g64
NtRp4757
(dp4758
g67
(dp4759
g94
g95
ssg76
g4748
sg69
(lp4760
S':'
asbag62
(g83
g64
NtRp4761
(dp4762
g67
(dp4763
sg76
g4748
sg69
(lp4764
g62
(g63
g64
NtRp4765
(dp4766
g67
(dp4767
g75
I5
ssg76
g4761
sg69
(lp4768
S'200'
p4769
asbasbasbag62
(g78
g64
NtRp4770
(dp4771
g67
(dp4772
sg76
g3828
sg69
(lp4773
g62
(g83
g64
NtRp4774
(dp4775
g67
(dp4776
g87
g88
ssg76
g4770
sg69
(lp4777
S'subtitle'
p4778
asbag62
(g83
g64
NtRp4779
(dp4780
g67
(dp4781
g94
g95
ssg76
g4770
sg69
(lp4782
S':'
asbag62
(g83
g64
NtRp4783
(dp4784
g67
(dp4785
sg76
g4770
sg69
(lp4786
g62
(g63
g64
NtRp4787
(dp4788
g67
(dp4789
g75
I5
ssg76
g4783
sg69
(lp4790
S'powered by web2py'
p4791
asbasbasbag62
(g78
g64
NtRp4792
(dp4793
g67
(dp4794
sg76
g3828
sg69
(lp4795
g62
(g83
g64
NtRp4796
(dp4797
g67
(dp4798
g87
g88
ssg76
g4792
sg69
(lp4799
S'title'
p4800
asbag62
(g83
g64
NtRp4801
(dp4802
g67
(dp4803
g94
g95
ssg76
g4792
sg69
(lp4804
S':'
asbag62
(g83
g64
NtRp4805
(dp4806
g67
(dp4807
sg76
g4792
sg69
(lp4808
g62
(g63
g64
NtRp4809
(dp4810
g67
(dp4811
g75
I5
ssg76
g4805
sg69
(lp4812
S'My New App'
p4813
asbasbasbag62
(g78
g64
NtRp4814
(dp4815
g67
(dp4816
sg76
g3828
sg69
(lp4817
g62
(g83
g64
NtRp4818
(dp4819
g67
(dp4820
g87
g88
ssg76
g4814
sg69
(lp4821
g2695
asbag62
(g83
g64
NtRp4822
(dp4823
g67
(dp4824
g94
g95
ssg76
g4814
sg69
(lp4825
S':'
asbag62
(g83
g64
NtRp4826
(dp4827
g67
(dp4828
sg76
g4814
sg69
(lp4829
g62
(g63
g64
NtRp4830
(dp4831
g67
(dp4832
g75
I5
ssg76
g4826
sg69
(lp4833
g2708
asbasbasbag62
(g78
g64
NtRp4834
(dp4835
g67
(dp4836
sg76
g3828
sg69
(lp4837
g62
(g83
g64
NtRp4838
(dp4839
g67
(dp4840
g87
g88
ssg76
g4834
sg69
(lp4841
S'view'
p4842
asbag62
(g83
g64
NtRp4843
(dp4844
g67
(dp4845
g94
g95
ssg76
g4834
sg69
(lp4846
S':'
asbag62
(g83
g64
NtRp4847
(dp4848
g67
(dp4849
sg76
g4834
sg69
(lp4850
g62
(g63
g64
NtRp4851
(dp4852
g67
(dp4853
g75
I5
ssg76
g4847
sg69
(lp4854
S'default/final_ans.html'
p4855
asbasbasbasbasbsS'locals'
p4856
(dp4857
S'Service'
p4858
S"<class 'gluon.tools.Service'>"
p4859
sS'OBJECT'
p4860
S"<class 'gluon.html.OBJECT'>"
p4861
sS'SQLDB'
p4862
S"<class 'gluon.dal.DAL'>"
p4863
sg3389
S"<Storage {'_formkey[input/create]': 'b94d5b93-f7...\\xdd\\xd7U4\\x8d\\x08\\xa8\\x10\\x9fh7\\xb8\\xf4\\\\\\xae'}>"
p4864
sS'LINK'
p4865
S"<class 'gluon.html.LINK'>"
p4866
sS'BR'
p4867
S"<class 'gluon.html.BR'>"
p4868
sS'local_import'
p4869
S'<function <lambda>>'
p4870
sS'OPTGROUP'
p4871
S"<class 'gluon.html.OPTGROUP'>"
p4872
sS'__package__'
p4873
S'None'
p4874
sS'PRE'
p4875
S"<class 'gluon.html.PRE'>"
p4876
sS'IS_INT_IN_RANGE'
p4877
S"<class 'gluon.validators.IS_INT_IN_RANGE'>"
p4878
sS'IS_LOWER'
p4879
S"<class 'gluon.validators.IS_LOWER'>"
p4880
sS'IS_STRONG'
p4881
S"<class 'gluon.validators.IS_STRONG'>"
p4882
sS'cache'
p4883
S'<gluon.cache.Cache object>'
p4884
sS'IS_IN_DB'
p4885
S"<class 'gluon.validators.IS_IN_DB'>"
p4886
sS'TAG'
p4887
S'<gluon.html.__TAG__ object>'
p4888
sS'SQLField'
p4889
S"<class 'gluon.dal.Field'>"
p4890
sS'mail'
p4891
S'<gluon.tools.Mail object>'
p4892
sS'BODY'
p4893
S"<class 'gluon.html.BODY'>"
p4894
sS'IS_DATE_IN_RANGE'
p4895
S"<class 'gluon.validators.IS_DATE_IN_RANGE'>"
p4896
sS'TH'
p4897
S"<class 'gluon.html.TH'>"
p4898
sS'URL'
p4899
S'<function URL>'
p4900
sS'__file__'
p4901
S"'/home/maneesha/Downloads/web2py/applications/cite_m3/views/default/final_ans.html'"
p4902
sS'db'
p4903
S"<DAL {'auth_event': <Table {'origin': <gluon.dal...': <gluon.dal.Field object at 0x7f45a00f4790>}>}>"
p4904
sS'auth'
p4905
S'<gluon.tools.Auth object>'
p4906
sS'P'
S"<class 'gluon.html.P'>"
p4907
sS'TFOOT'
p4908
S"<class 'gluon.html.TFOOT'>"
p4909
sS'XHTML'
p4910
S"<class 'gluon.html.XHTML'>"
p4911
sS'ON'
p4912
g2031
sS'OL'
p4913
S"<class 'gluon.html.OL'>"
p4914
sS'TEXTAREA'
p4915
S"<class 'gluon.html.TEXTAREA'>"
p4916
sS'settings'
p4917
S"<Storage {'layout_theme': 'Default', 'subtitle':...l_server': 'localhost', 'login_method': 'local'}>"
p4918
sS'MENU'
p4919
S"<class 'gluon.html.MENU'>"
p4920
sg75
S'2'
sS'IS_IMAGE'
p4921
S"<class 'gluon.validators.IS_IMAGE'>"
p4922
sS'getSampleStyleSheet'
p4923
S'<function getSampleStyleSheet>'
p4924
sS'LOAD'
p4925
S'<function LOAD>'
p4926
sS'CODE'
p4927
S"<class 'gluon.html.CODE'>"
p4928
sS'HTTP'
p4929
S"<class 'gluon.http.HTTP'>"
p4930
sS'HR'
p4931
S"<class 'gluon.html.HR'>"
p4932
sS'IS_DATETIME'
p4933
S"<class 'gluon.validators.IS_DATETIME'>"
p4934
sS'Storage'
p4935
S"<class 'gluon.storage.Storage'>"
p4936
sS'HEAD'
p4937
S"<class 'gluon.html.HEAD'>"
p4938
sS'LABEL'
p4939
S"<class 'gluon.html.LABEL'>"
p4940
sS'META'
p4941
S"<class 'gluon.html.META'>"
p4942
sS'A'
S"<class 'gluon.html.A'>"
p4943
sS'plugins'
p4944
S'<gluon.tools.PluginManager object>'
p4945
sS'SELECT'
p4946
S"<class 'gluon.html.SELECT'>"
p4947
sS'use_janrain'
p4948
S'<function use_janrain>'
p4949
sS'CENTER'
p4950
S"<class 'gluon.html.CENTER'>"
p4951
sS'prettydate'
p4952
S'<function prettydate>'
p4953
sS'Crud'
p4954
S"<class 'gluon.tools.Crud'>"
p4955
sS'Auth'
p4956
S"<class 'gluon.tools.Auth'>"
p4957
sS'__builtins__'
p4958
S"{'ArithmeticError': <type 'exceptions.ArithmeticError'>, 'AssertionError': <type 'exceptions.AssertionError'>, 'AttributeError': <type 'exceptions.AttributeError'>, 'BaseException': <type 'exceptions.BaseException'>, 'BufferError': <type 'exceptions.BufferError'>, 'BytesWarning': <type 'exceptions.BytesWarning'>, 'DeprecationWarning': <type 'exceptions.DeprecationWarning'>, 'EOFError': <type 'exceptions.EOFError'>, 'Ellipsis': Ellipsis, 'EnvironmentError': <type 'exceptions.EnvironmentError'>, ...}"
p4959
sS'HTML'
p4960
S"<class 'gluon.html.HTML'>"
p4961
sS'SQLFORM'
p4962
S"<class 'gluon.sqlhtml.SQLFORM'>"
p4963
sS'EM'
p4964
S"<class 'gluon.html.EM'>"
p4965
sS'redirect'
p4966
S'<function redirect>'
p4967
sS'FIELDSET'
p4968
S"<class 'gluon.html.FIELDSET'>"
p4969
sS'IS_EQUAL_TO'
p4970
S"<class 'gluon.validators.IS_EQUAL_TO'>"
p4971
sS'embed64'
p4972
S'<function embed64>'
p4973
sS'IS_LIST_OF'
p4974
S"<class 'gluon.validators.IS_LIST_OF'>"
p4975
sS'INPUT'
p4976
S"<class 'gluon.html.INPUT'>"
p4977
sS'EMBED'
p4978
S"<class 'gluon.html.EMBED'>"
p4979
sS'FORM'
p4980
S"<class 'gluon.html.FORM'>"
p4981
sS'H2'
p4982
S"<class 'gluon.html.H2'>"
p4983
sS'H3'
p4984
S"<class 'gluon.html.H3'>"
p4985
sS'BUTTON'
p4986
S"<class 'gluon.html.BUTTON'>"
p4987
sS'H1'
p4988
S"<class 'gluon.html.H1'>"
p4989
sS'H6'
p4990
S"<class 'gluon.html.H6'>"
p4991
sS'H4'
p4992
S"<class 'gluon.html.H4'>"
p4993
sS'H5'
p4994
S"<class 'gluon.html.H5'>"
p4995
sS'UL'
p4996
S"<class 'gluon.html.UL'>"
p4997
sS'IS_UPPER'
p4998
S"<class 'gluon.validators.IS_UPPER'>"
p4999
sS'xmlescape'
p5000
S'<function xmlescape>'
p5001
sS'IS_TIME'
p5002
S"<class 'gluon.validators.IS_TIME'>"
p5003
sS'OPTION'
p5004
S"<class 'gluon.html.OPTION'>"
p5005
sS'cm'
p5006
S'28.346456692913385'
p5007
sS'TITLE'
p5008
S"<class 'gluon.html.TITLE'>"
p5009
sS'CRYPT'
p5010
S"<class 'gluon.validators.CRYPT'>"
p5011
sS'IS_EMPTY_OR'
p5012
S"<class 'gluon.validators.IS_EMPTY_OR'>"
p5013
sS'MARKMIN'
p5014
S"<class 'gluon.html.MARKMIN'>"
p5015
sg381
S"<module 'posixpath' from '/usr/lib/python2.7/posixpath.pyc'>"
p5016
sS'COL'
p5017
S"<class 'gluon.html.COL'>"
p5018
sS'service'
p5019
S'<gluon.tools.Service object>'
p5020
sS'SCRIPT'
p5021
S"<class 'gluon.html.SCRIPT'>"
p5022
sg95
S'2'
sS'mystyle'
p5023
S"<ParagraphStyle 'normal'>"
p5024
sS'TABLE'
p5025
S"<class 'gluon.html.TABLE'>"
p5026
sS'IS_IPV4'
p5027
S"<class 'gluon.validators.IS_IPV4'>"
p5028
sS'IS_LENGTH'
p5029
S"<class 'gluon.validators.IS_LENGTH'>"
p5030
sS'ParagraphStyle'
p5031
S'<class reportlab.lib.styles.ParagraphStyle>'
p5032
sS'XML'
p5033
S"<class 'gluon.html.XML'>"
p5034
sS'B'
S"<class 'gluon.html.B'>"
p5035
sS'IMG'
p5036
S"<class 'gluon.html.IMG'>"
p5037
sS'SQLTABLE'
p5038
S"<class 'gluon.sqlhtml.SQLTABLE'>"
p5039
sS'IS_MATCH'
p5040
S"<class 'gluon.validators.IS_MATCH'>"
p5041
sS'IS_ALPHANUMERIC'
p5042
S"<class 'gluon.validators.IS_ALPHANUMERIC'>"
p5043
sS'styleSheet'
p5044
S'<reportlab.lib.styles.StyleSheet1 instance>'
p5045
sS'count'
p5046
S'-1'
p5047
sS'SPAN'
p5048
S"<class 'gluon.html.SPAN'>"
p5049
sS'f'
S"<closed file 'Rough', mode 'w'>"
p5050
sS'IS_SLUG'
p5051
S"<class 'gluon.validators.IS_SLUG'>"
p5052
sS'ret1'
p5053
S"['0', '1']"
p5054
sS'CLEANUP'
p5055
S"<class 'gluon.validators.CLEANUP'>"
p5056
sS'TA_JUSTIFY'
p5057
S'4'
sS'print1'
p5058
S'<function print1>'
p5059
sS'IS_DATE'
p5060
S"<class 'gluon.validators.IS_DATE'>"
p5061
sS'IS_EMAIL'
p5062
S"<class 'gluon.validators.IS_EMAIL'>"
p5063
sS'IS_NOT_EMPTY'
p5064
S"<class 'gluon.validators.IS_NOT_EMPTY'>"
p5065
sS'IS_FLOAT_IN_RANGE'
p5066
S"<class 'gluon.validators.IS_FLOAT_IN_RANGE'>"
p5067
sS'BEAUTIFY'
p5068
S"<class 'gluon.html.BEAUTIFY'>"
p5069
sS'bigans'
p5070
S"[['Database design with common sense business reasoning and learning', 'http://dl.acm.org/citation.cfm?id=278245.278246&...M&CFID=139705116&CFTOKEN=35720825&preflayout=flat', 'http://dl.acm.org/ft_gateway.cfm?id=278246&type=pdf&CFID=139705116&CFTOKEN=35720825', 'Storey, Veda C.; Chiang, Roger H. L.; Dey, Debabrata; Goldstein, Robert C.; Sudaresan, Shankar', '12/01/1997', '<par>Automated database design systems embody kn... to subsequent design problems (reasoning).</par>', '20', ['http://dl.acm.org/citation.cfm?id=728209&CFID=139705116&CFTOKEN=35720825&preflayout=flat', 'http://dl.acm.org/citation.cfm?id=665971&CFID=139705116&CFTOKEN=35720825&preflayout=flat'], ['Reuse of Database Design Decisions', 'http://dl.acm.org/citation.cfm?id=728209&CFID=139705116&CFTOKEN=35720825&preflayout=flat', 'http://dl.acm.org/citation.cfm?id=728209&CFID=139705116&CFTOKEN=35720825&preflayout=flat', 'Klettke, Meike', '11/15/1999', 'Reuse of available databases can support databas... libraries are suggested for use in this process.', 0, []], ['Understanding and Representing Relationship Semantics in Database Design', 'http://dl.acm.org/citation.cfm?id=665971&CFID=139705116&CFTOKEN=35720825&preflayout=flat', 'http://dl.acm.org/citation.cfm?id=665971&CFID=139705116&CFTOKEN=35720825&preflayout=flat', 'Storey, Veda C.', '06/28/2000', 'Much of the research that deals with understandi... on a number of cases illustrates its usefulness.', '2', ['http://dl.acm.org/citation.cfm?id=2135330&CFID=139705116&CFTOKEN=35720825&preflayout=flat', 'http://dl.acm.org/citation.cfm?id=2111163&CFID=139705116&CFTOKEN=35720825&preflayout=flat']]], ['Database design for incomplete relations', 'http://dl.acm.org/citation.cfm?id=310701.310712&...M&CFID=139705116&CFTOKEN=35720825&preflayout=flat', 'http://dl.acm.org/ft_gateway.cfm?id=310712&type=pdf&CFID=139705116&CFTOKEN=35720825', 'Levene, Mark; Loizou, George', '03/01/1999', '<par>Although there has been a vast amount of re...tained in polynomial time in the size of F.</par>', '11', ['http://dl.acm.org/citation.cfm?id=1777209&CFID=139705116&CFTOKEN=35720825&preflayout=flat', 'http://dl.acm.org/citation.cfm?id=656418&CFID=139705116&CFTOKEN=35720825&preflayout=flat'], ['Mining correct properties in incomplete databases', 'http://dl.acm.org/citation.cfm?id=1777209&CFID=139705116&CFTOKEN=35720825&preflayout=flat', 'http://dl.acm.org/citation.cfm?id=1777209&CFID=139705116&CFTOKEN=35720825&preflayout=flat', 'Rioult, Fran&#231;ois; Cr&#233;milleux, Bruno', '09/18/2006', 'Missing values issue in databases is an importan...</i>-free patterns in presence of missing values.', 1, ['http://dl.acm.org/citation.cfm?id=1617587&CFID=139705116&CFTOKEN=35720825&preflayout=flat', '']], ['FUN: An Efficient Algorithm for Mining Functional and Embedded Dependencies', 'http://dl.acm.org/citation.cfm?id=656418&CFID=139705116&CFTOKEN=35720825&preflayout=flat', 'http://dl.acm.org/citation.cfm?id=656418&CFID=139705116&CFTOKEN=35720825&preflayout=flat', 'Novelli, Noel; Cicchetti, Rosine', '01/04/2001', 'Discovering functional dependencies from existin...used in particular for managing data warehouses).', '7', ['http://dl.acm.org/citation.cfm?id=2026737&CFID=139705116&CFTOKEN=35720825&preflayout=flat', 'http://dl.acm.org/citation.cfm?id=2041339&CFID=139705116&CFTOKEN=35720825&preflayout=flat']]]]"
p5071
sS'TBODY'
p5072
S"<class 'gluon.html.TBODY'>"
p5073
sS'CAT'
p5074
S"<class 'gluon.html.CAT'>"
p5075
sS'Field'
p5076
S"<class 'gluon.dal.Field'>"
p5077
sg61
S"<Storage {'body': <cStringIO.StringO object at 0..._vars': <Storage {}>, 'post_vars': <Storage {}>}>"
p5078
sS'DIV'
p5079
S"<class 'gluon.html.DIV'>"
p5080
sS'LEGEND'
p5081
S"<class 'gluon.html.LEGEND'>"
p5082
sS'COLGROUP'
p5083
S"<class 'gluon.html.COLGROUP'>"
p5084
sS'DAL'
p5085
S"<class 'gluon.dal.DAL'>"
p5086
sS'TT'
p5087
S"<class 'gluon.html.TT'>"
p5088
sS'TR'
p5089
S"<class 'gluon.html.TR'>"
p5090
sS'LI'
p5091
S"<class 'gluon.html.LI'>"
p5092
sS'A4'
p5093
S'(595.275590551181, 841.8897637795275)'
p5094
sS'IFRAME'
p5095
S"<class 'gluon.html.IFRAME'>"
p5096
sS'inch'
p5097
S'72.0'
p5098
sS'TD'
p5099
S"<class 'gluon.html.TD'>"
p5100
sS'PluginManager'
p5101
S"<class 'gluon.tools.PluginManager'>"
p5102
sS'IS_URL'
p5103
S"<class 'gluon.validators.IS_URL'>"
p5104
sS'model_report'
p5105
S"'/home/maneesha/Downloads/Rough'"
p5106
sS'STYLE'
p5107
S"<class 'gluon.html.STYLE'>"
p5108
sS'elements'
p5109
S'[]'
p5110
sS'IS_DATETIME_IN_RANGE'
p5111
S"<class 'gluon.validators.IS_DATETIME_IN_RANGE'>"
p5112
sS'populate'
p5113
S'<function populate>'
p5114
sS'I'
S"<class 'gluon.html.I'>"
p5115
sS'crud'
p5116
S'<gluon.tools.Crud object>'
p5117
sS'reportlab'
p5118
S"<module 'reportlab' from '/usr/local/lib/python2.7/dist-packages/reportlab/__init__.py'>"
p5119
sS'IS_NOT_IN_DB'
p5120
S"<class 'gluon.validators.IS_NOT_IN_DB'>"
p5121
sS'letter'
p5122
S'(612.0, 792.0)'
p5123
sg3823
S"<Storage {'body': <cStringIO.StringO object at 0...7f45a0164f50>, 'view': 'default/final_ans.html'}>"
p5124
sS'THEAD'
p5125
S"<class 'gluon.html.THEAD'>"
p5126
sS'IS_NULL_OR'
p5127
S"<class 'gluon.validators.IS_EMPTY_OR'>"
p5128
sS'doc'
p5129
S'<reportlab.platypus.doctemplate.SimpleDocTemplate instance>'
p5130
sS'__name__'
p5131
S"'__restricted__'"
p5132
sS'platypus'
p5133
S"<module 'reportlab.platypus' from '/usr/local/li....7/dist-packages/reportlab/platypus/__init__.py'>"
p5134
sS'IS_EXPR'
p5135
S"<class 'gluon.validators.IS_EXPR'>"
p5136
sS'T'
S'<gluon.languages.translator object>'
p5137
sS'IS_IN_SET'
p5138
S"<class 'gluon.validators.IS_IN_SET'>"
p5139
sS'IS_UPLOAD_FILENAME'
p5140
S"<class 'gluon.validators.IS_UPLOAD_FILENAME'>"
p5141
sS'IS_DECIMAL_IN_RANGE'
p5142
S"<class 'gluon.validators.IS_DECIMAL_IN_RANGE'>"
p5143
sssS'traceback'
p5144
S'Traceback (most recent call last):\n  File "/home/maneesha/Downloads/web2py/gluon/restricted.py", line 205, in restricted\n    exec ccode in environment\n  File "/home/maneesha/Downloads/web2py/applications/cite_m3/views/default/final_ans.html", line 171, in <module>\nIOError: [Errno 2] No such file or directory: \'/home/maneesha/Downloads/Rough\'\n'
p5145
s.