(dp1
S'output'
p2
S"<type 'exceptions.IOError'> [Errno 2] No such file or directory: '/home/maneesha/Downloads/web2py/.Rough'"
p3
sS'layer'
p4
S'/home/chitra/courses/SSAD/web2py/applications/cite_m5/views/default/final_ans.html'
p5
sS'code'
p6
S'response.write(\'<html xmlns="http://www.w3.org/1999/xhtml">\\n <head>\\n  <title>\\n   CITE MASTER\\n  </title>\\n  \', escape=False)\nresponse.files.append(URL(request.application,\'static\',\'plugin_layouts/layouts/Blend/default.css\'))\nresponse.write(\'\\n  \', escape=False)\nresponse.files.append(URL(\'static\',\'plugin_layouts/superfish.js\'))\nresponse.write(\'\\n  \', escape=False)\nresponse.write(\'<script type="text/javascript"><!--\\n    // These variables are used by the web2py_ajax_init function in web2py_ajax.js (which is loaded below).\\n    var w2p_ajax_confirm_message = "\', escape=False)\nresponse.write(T(\'Are you sure you want to delete this object?\'))\nresponse.write(\'";\\n    var w2p_ajax_date_format = "\', escape=False)\nresponse.write(T(\'%Y-%m-%d\'))\nresponse.write(\'";\\n    var w2p_ajax_datetime_format = "\', escape=False)\nresponse.write(T(\'%Y-%m-%d %H:%M:%S\'))\nresponse.write(\'";\\n    //--></script>\\n\', escape=False)\nresponse.files.insert(0,URL(\'static\',\'js/jquery.js\'))\nresponse.files.insert(1,URL(\'static\',\'css/calendar.css\'))\nresponse.files.insert(2,URL(\'static\',\'js/calendar.js\'))\nresponse.files.insert(3,URL(\'static\',\'js/web2py.js\'))\nresponse.include_meta()\nresponse.include_files()\nresponse.write(\'\\n\', escape=False)\nresponse.write(\'\\n  <style>\\nul.web2py-menu-vertical { width: 100px; position: relative; top:1em; left:1em;  z-index:30; border:0; margin:0; padding: 0; list-style: none; text-decoration: none;}\\nul.web2py-menu-vertical li { margin:0; padding:0; border:0; width: 150px; background: black; text-align:left;}\\nul.web2py-menu-vertical li a { margin:0; padding: 1px 3px 1px 3px; border:0; width: 194px; color: white; font-size:12px;}\\ndiv.flash { position: fixed; float: right; padding: 10px; top: 10px; right: 10px; opacity: 0.75; margin: 10px 10px 10px 10px; text-align: center; clear: both; color: #fff; font-size: 11pt; text-align: center; vertical-align: middle; cursor: pointer; background: black; border: 2px solid #fff; -moz-border-radius: 5px; -webkit-border-radius: 5px; z-index: 2; }\\ndiv.error { background-color: red; color: white; padding: 3px; }\\n.auth_navbar { text-align:right; z-index:20; position: absolute; top: 2px; right:30px; border:0; padding:0 }\\n  </style>\\n </head>\\n <body>\\n  <!-- start header -->\\n  \', escape=False)\ntry:\n    response.write(auth.navbar(action=URL(\'default\',\'user\')))\nexcept:pass\nresponse.write(\'\\n\\n  <!-- start header -->\\n  <div id="header">\\n   <div id="logo">\\n    <h1>\\n    <span style="text-transform: uppercase">CITE MASTER</span>\\n    </h1>\\n    \\n   </div>\\n   <div id="menu">\\n    \', escape=False)\nresponse.write(MENU(response.menu,_class=\'web2py-menu\'))\nresponse.write(\'\\n    <script>\\n      jQuery(document).ready(function(){jQuery(\\\'ul.web2py-menu\\\').superfish({delay:400});});\\n    </script>\\n   </div>\\n  </div>\\n  <!-- end header -->\\n  <div id="wrapper">\\n   <!-- start page -->\\n   <div id="page">\\n    <!-- start content -->\\n    <div>\\n     <div id="flash">\', escape=False)\nresponse.write(response.flash or \'\')\nresponse.write(\'</div>\\n     \', escape=False)\nresponse.write(\'\\n<ul type="none">\\n\', escape=False)\nabss=\'\'\nresponse.write(\'\\n\', escape=False)\nauth=[]\nresponse.write(\'\\n\', escape=False)\ncount=0\nresponse.write(\'\\n\', escape=False)\nimport re\nresponse.write(\'\\n\', escape=False)\nf=open(\'.Rough\',\'w\')\nresponse.write(\'\\n\', escape=False)\ndef noun(string1):\n    response.write(\'\\n    \', escape=False)\n    string2=\'\'\n    response.write(\'\\n    \', escape=False)\n    import nltk\n    response.write(\'\\n    \', escape=False)\n    text = nltk.word_tokenize(string1)\n    response.write(\'\\n    \', escape=False)\n    l=nltk.pos_tag(text)\n    response.write(\'\\n    \', escape=False)\n    for t in l:\n        response.write(\'\\n        \', escape=False)\n        if t[1]==\'NN\':\n            response.write(\'\\n            \', escape=False)\n            string2=string2+t[0]+\' \'\n            response.write(\'\\n        \', escape=False)\n            pass\n        response.write(\'\\n    \', escape=False)\n        pass\n    response.write(\'\\n    \', escape=False)\n    return string2\nresponse.write(\'\\n\', escape=False)\ndef print1(bigans):\n    response.write(\'\\n    \', escape=False)\n    global count\n    response.write(\'\\n    \', escape=False)\n    for x in range(0,len(bigans)):\n        response.write(\'\\n        \', escape=False)\n        if type(bigans[x]) is list:\n            response.write(\'\\n            \', escape=False)\n            if count==0:\n                response.write(\'\\n                \', escape=False)\n                count=count+1\n                response.write(\'\\n                \', escape=False)\n                print1(bigans[x])\n                response.write(\'\\n            \', escape=False)\n            elif count!=0 and x!=7:\n                response.write(\'\\n                \', escape=False)\n                count=count+1\n                response.write(\'\\n                \', escape=False)\n                print1(bigans[x])\n                response.write(\'\\n            \', escape=False)\n                pass\n            response.write(\'\\n         \', escape=False)\n        else:\n            response.write(\'\\n             \', escape=False)\n            if x==2:\n                response.write(\'\\n             \', escape=False)\n                response.write(A(\'---------------\'*(count-1)+bigans[0], _href=bigans[2]))\n                response.write(\'\\n             \', escape=False)\n                f.write(\'---------------\'*(count-1)+bigans[0]+\'\\n\')\n                response.write(\'\\n             \', escape=False)\n            elif x==3 and bigans[x]!=-1:\n                response.write(\'\\n                 \', escape=False)\n                global auth\n                response.write(\'\\n                 \', escape=False)\n                response.write(LI(\'---------------\'*(count-1)+\'Authors-\'))\n                response.write(\'\\n                 \', escape=False)\n                f.write(\'---------------\'*(count-1)+\'Authors-\'+\'\\n\')\n                response.write(\'\\n                 \', escape=False)\n                l=bigans[x].split(\';\')\n                response.write(\'\\n                 \', escape=False)\n                for p in l:\n                    response.write(\'\\n                     \', escape=False)\n                    if \',\' in p:\n                        response.write(\'\\n                         \', escape=False)\n                        k=p.split(\',\')[1]+\' \'+p.split(\',\')[0]\n                        response.write(\'\\n                     \', escape=False)\n                    else:\n                        response.write(\'\\n                         \', escape=False)\n                        k=p\n                        response.write(\'\\n                     \', escape=False)\n                        pass\n                    response.write(\'\\n                     \', escape=False)\n                    response.write(LI(\'---------------\'*(count-1)+k))\n                    response.write(\'\\n                     \', escape=False)\n                    f.write(\'---------------\'*(count-1)+k+\'\\n\')\n                    response.write(\'\\n                     \', escape=False)\n                    auth.append(k)\n                    response.write(\'\\n                 \', escape=False)\n                    pass\n                response.write(\'\\n             \', escape=False)\n            elif x==6 and bigans[x]!=-1:\n                response.write(\'\\n                \', escape=False)\n                response.write(LI(\'---------------\'*(count-1)+\'Cited by:\'+str(bigans[x])))\n                response.write(\'\\n                \', escape=False)\n                f.write(\'---------------\'*(count-1)+\'Cited by:\'+str(bigans[x])+\'\\n\')\n                response.write(\'\\n             \', escape=False)\n            elif x==4 and bigans[x]!=-1:\n                response.write(\'\\n                \', escape=False)\n                response.write(LI(\'---------------\'*(count-1)+\'Date:\'+bigans[x]))\n                response.write(\'\\n                \', escape=False)\n                f.write(\'---------------\'*(count-1)+\'Date:\'+bigans[x]+\'\\n\')\n                response.write(\'\\n             \', escape=False)\n            elif x==5 and bigans[x]!=-1:\n                response.write(\'\\n               \', escape=False)\n                abs1=re.sub(r\'([^\\s\\.\\w]|_)+\', \'\', bigans[x])\n                response.write(\'\\n                \', escape=False)\n                response.write(LI(A(\'---------------\'*(count-1)+\'Abstract:\',_href=URL("abstract1", args=[abs1]))))\n                response.write(\'\\n                \', escape=False)\n                f.write(\'---------------\'*(count-1)+\'Abstract:\'+bigans[x]+\'\\n\')\n                response.write(\'\\n                \', escape=False)\n                global abss\n                response.write(\'\\n                \', escape=False)\n                abss1=noun(bigans[x])\n                response.write(\'\\n                \', escape=False)\n                abss=abss+abss1\n                response.write(\'\\n             \', escape=False)\n                pass\n            response.write(\'\\n         \', escape=False)\n            pass\n        response.write(\'\\n     \', escape=False)\n        pass\n    response.write(\'\\n     \', escape=False)\n    count=count-1\n    response.write(\'\\n     \', escape=False)\n    return\nresponse.write(\'\\n<div style="text-align:right">\\n\', escape=False)\nresponse.write(LI(\'Sort by: \'))\nresponse.write(\'\\n\', escape=False)\nresponse.write(LI(A(\'Relevence \',_href=URL("sorting", args=ret1[0]))))\nresponse.write(\'\\n\', escape=False)\nresponse.write(LI(A(\'Publication date \',_href=URL("sorting", args=ret1[1]))))\nresponse.write(\'\\n</div>\\n\', escape=False)\npass\nresponse.write(\'\\n\', escape=False)\nprint1(bigans)\nresponse.write(\'\\n\', escape=False)\nfrom collections import Counter\nresponse.write(\'\\n\', escape=False)\nword=abss.split(\' \')\nresponse.write(\'\\n\', escape=False)\nc = Counter(word)\nresponse.write(\' \\n\', escape=False)\nmost=c.most_common(10)\nresponse.write(\'\\n\', escape=False)\nfor ele in most:\n    response.write(\'\\n    \', escape=False)\n    response.write(LI(ele[0]))\n    response.write(\'\\n\', escape=False)\n    pass\nresponse.write(\'\\n\', escape=False)\nword=auth\nresponse.write(\'\\n\', escape=False)\nc = Counter(word)\nresponse.write(\' \\n\', escape=False)\nmost=c.most_common(5)\nresponse.write(\'\\n\', escape=False)\nfor ele in most:\n    response.write(\'\\n    \', escape=False)\n    response.write(LI(ele[0]))\n    response.write(\'\\n\', escape=False)\n    pass\nresponse.write(\'\\n\', escape=False)\nf.close()\nresponse.write(\'\\n\', escape=False)\nfrom reportlab.lib.enums import TA_JUSTIFY\nresponse.write(\'\\n\', escape=False)\nfrom reportlab.lib.pagesizes import letter\nresponse.write(\'\\n\', escape=False)\nfrom reportlab.platypus import SimpleDocTemplate, Paragraph, Spacer, Image\nresponse.write(\'\\n\', escape=False)\nfrom reportlab.lib.units import inch\nresponse.write(\'\\n\', escape=False)\nfrom os import path\nresponse.write(\'\\n\', escape=False)\nimport reportlab\nresponse.write(\'\\n\\n\\n\', escape=False)\nimport os\nresponse.write(\'\\n\', escape=False)\nfrom reportlab.lib.units import inch, cm\nresponse.write(\'\\n\', escape=False)\nfrom reportlab.lib.pagesizes import A4\nresponse.write(\'\\n\', escape=False)\nfrom reportlab.lib.styles import ParagraphStyle\nresponse.write(\'\\n\', escape=False)\nfrom reportlab.lib.styles import getSampleStyleSheet\nresponse.write(\'\\n\', escape=False)\nstyleSheet = getSampleStyleSheet()\nresponse.write(\'\\n\', escape=False)\nmystyle = ParagraphStyle(name=\'normal\',fontName=\'Courier\',\nfontSize=10,\nalignment=TA_JUSTIFY,\nleading=1.2*12,\nparent=styleSheet[\'Normal\'])\nresponse.write(\'      \\n      \\n\', escape=False)\nmodel_report = \'/home/maneesha/Downloads/web2py/.Rough\'\nresponse.write(\'\\n\\n\', escape=False)\ndoc = SimpleDocTemplate("my2.pdf",  \\\nrightMargin=40, leftMargin=40, \\\ntopMargin=40, bottomMargin=25, \\\npageSize=A4)\nresponse.write(\'\\n\\n\\n\', escape=False)\nelements = []\nresponse.write(\'  \\n\\n\', escape=False)\ninfile   = file(model_report).read()\nresponse.write(\'\\n\', escape=False)\nreport_paragraphs = infile.split("\\n")\nresponse.write(\'\\n\', escape=False)\nfor para in report_paragraphs:\n    response.write(\'\\n    \', escape=False)\n    para1 = \'<font face="Courier" >%s</font>\' % para\n    response.write(\'\\n    \', escape=False)\n    elements.append(Paragraph(para1, style=mystyle))\n    response.write(\'\\n\', escape=False)\n    pass\nresponse.write(\'\\n\', escape=False)\ndoc.build(elements)\nresponse.write(\'\\n\', escape=False)\nfrom gluon.tools import Mail\nmail = Mail()\nmail.settings.server = \'smtp.gmail.com:587\'\nmail.settings.sender = \'papireddygarimaneesha88@gmail.com\'\nmail.settings.login = \'papireddygarimaneesha88:peddamallu\'\nresponse.write(\'\\n\', escape=False)\nmail.send(to=[\'chitra.khatwani19@gmail.com\'],\nsubject=\'hi\',\nmessage=\'hi manu\',\nattachments = [Mail.Attachment(\'my2.pdf\')])\nresponse.write(\'\\n</ul>\\n\', escape=False)\nresponse.write(\'\\n    </div>\\n    <!-- end content -->\\n    <div style="clear: both;">\\n     &nbsp;\\n    </div>\\n   </div>\\n   <!-- end page -->\\n  </div>\\n  <div id="footer">\\n   <p>\\n    &copy;2012 All Rights Reserved. &nbsp;&bull;&nbsp; Design by P.Maneesha,Chitra Khatwani,Rajat Bharadwaj\\n   </p>\\n  </div>\\n </body>\\n</html>\\n\', escape=False)'
p7
sS'snapshot'
p8
(dp9
S'exception'
p10
(dp11
S'__getslice__'
p12
S"<method-wrapper '__getslice__' of exceptions.IOError object>"
p13
sS'__str__'
p14
S"<method-wrapper '__str__' of exceptions.IOError object>"
p15
sS'__reduce__'
p16
S'<built-in method __reduce__ of exceptions.IOError object>'
p17
sS'__dict__'
p18
S'{}'
p19
sS'__sizeof__'
p20
S'<built-in method __sizeof__ of exceptions.IOError object>'
p21
sS'__init__'
p22
S"<method-wrapper '__init__' of exceptions.IOError object>"
p23
sS'__setattr__'
p24
S"<method-wrapper '__setattr__' of exceptions.IOError object>"
p25
sS'__reduce_ex__'
p26
S'<built-in method __reduce_ex__ of exceptions.IOError object>'
p27
sS'__new__'
p28
S'<built-in method __new__ of type object>'
p29
sS'errno'
p30
S'2'
sS'__format__'
p31
S'<built-in method __format__ of exceptions.IOError object>'
p32
sS'__class__'
p33
S"<type 'exceptions.IOError'>"
p34
sS'filename'
p35
S"'/home/maneesha/Downloads/web2py/.Rough'"
p36
sS'__doc__'
p37
S"'I/O operation failed.'"
p38
sS'__getitem__'
p39
S"<method-wrapper '__getitem__' of exceptions.IOError object>"
p40
sS'__setstate__'
p41
S'<built-in method __setstate__ of exceptions.IOError object>'
p42
sS'__getattribute__'
p43
S"<method-wrapper '__getattribute__' of exceptions.IOError object>"
p44
sS'args'
p45
S"(2, 'No such file or directory')"
p46
sS'__subclasshook__'
p47
S'<built-in method __subclasshook__ of type object>'
p48
sS'__unicode__'
p49
S'<built-in method __unicode__ of exceptions.IOError object>'
p50
sS'strerror'
p51
S"'No such file or directory'"
p52
sS'__delattr__'
p53
S"<method-wrapper '__delattr__' of exceptions.IOError object>"
p54
sS'__repr__'
p55
S"<method-wrapper '__repr__' of exceptions.IOError object>"
p56
sS'__hash__'
p57
S"<method-wrapper '__hash__' of exceptions.IOError object>"
p58
ssS'evalue'
p59
S"[Errno 2] No such file or directory: '/home/maneesha/Downloads/web2py/.Rough'"
p60
sS'request'
p61
ccopy_reg
_reconstructor
p62
(cgluon.html
BEAUTIFY
p63
c__builtin__
object
p64
NtRp65
(dp66
S'attributes'
p67
(dp68
sS'components'
p69
(lp70
g62
(cgluon.html
TABLE
p71
g64
NtRp72
(dp73
g67
(dp74
S'level'
p75
I5
ssS'parent'
p76
Nsg69
(lp77
g62
(cgluon.html
TR
p78
g64
NtRp79
(dp80
g67
(dp81
sg76
g72
sg69
(lp82
g62
(cgluon.html
TD
p83
g64
NtRp84
(dp85
g67
(dp86
S'_style'
p87
S'font-weight:bold;vertical-align:top'
p88
ssg76
g79
sg69
(lp89
S'ajax'
p90
asbag62
(g83
g64
NtRp91
(dp92
g67
(dp93
S'_valign'
p94
S'top'
p95
ssg76
g79
sg69
(lp96
S':'
asbag62
(g83
g64
NtRp97
(dp98
g67
(dp99
sg76
g79
sg69
(lp100
g62
(g63
g64
NtRp101
(dp102
g67
(dp103
g75
I5
ssg76
g97
sg69
(lp104
S'False'
p105
asbasbasbag62
(g78
g64
NtRp106
(dp107
g67
(dp108
sg76
g72
sg69
(lp109
g62
(g83
g64
NtRp110
(dp111
g67
(dp112
g87
g88
ssg76
g106
sg69
(lp113
S'application'
p114
asbag62
(g83
g64
NtRp115
(dp116
g67
(dp117
g94
g95
ssg76
g106
sg69
(lp118
S':'
asbag62
(g83
g64
NtRp119
(dp120
g67
(dp121
sg76
g106
sg69
(lp122
g62
(g63
g64
NtRp123
(dp124
g67
(dp125
g75
I5
ssg76
g119
sg69
(lp126
S'cite_m5'
p127
asbasbasbag62
(g78
g64
NtRp128
(dp129
g67
(dp130
sg76
g72
sg69
(lp131
g62
(g83
g64
NtRp132
(dp133
g67
(dp134
g87
g88
ssg76
g128
sg69
(lp135
g45
asbag62
(g83
g64
NtRp136
(dp137
g67
(dp138
g94
g95
ssg76
g128
sg69
(lp139
S':'
asbag62
(g83
g64
NtRp140
(dp141
g67
(dp142
sg76
g128
sg69
(lp143
g62
(g63
g64
NtRp144
(dp145
g67
(dp146
g75
I5
ssg76
g140
sg69
(lp147
g62
(g71
g64
NtRp148
(dp149
g67
(dp150
g75
I4
ssg76
Nsg69
(lp151
sbasbasbasbag62
(g78
g64
NtRp152
(dp153
g67
(dp154
sg76
g72
sg69
(lp155
g62
(g83
g64
NtRp156
(dp157
g67
(dp158
g87
g88
ssg76
g152
sg69
(lp159
S'body'
p160
asbag62
(g83
g64
NtRp161
(dp162
g67
(dp163
g94
g95
ssg76
g152
sg69
(lp164
S':'
asbag62
(g83
g64
NtRp165
(dp166
g67
(dp167
sg76
g152
sg69
(lp168
g62
(g63
g64
NtRp169
(dp170
g67
(dp171
g75
I5
ssg76
g165
sg69
(lp172
S'<cStringIO.StringO object at 0x7fbd80080570>'
p173
asbasbasbag62
(g78
g64
NtRp174
(dp175
g67
(dp176
sg76
g72
sg69
(lp177
g62
(g83
g64
NtRp178
(dp179
g67
(dp180
g87
g88
ssg76
g174
sg69
(lp181
S'client'
p182
asbag62
(g83
g64
NtRp183
(dp184
g67
(dp185
g94
g95
ssg76
g174
sg69
(lp186
S':'
asbag62
(g83
g64
NtRp187
(dp188
g67
(dp189
sg76
g174
sg69
(lp190
g62
(g63
g64
NtRp191
(dp192
g67
(dp193
g75
I5
ssg76
g187
sg69
(lp194
S'127.0.0.1'
p195
asbasbasbag62
(g78
g64
NtRp196
(dp197
g67
(dp198
sg76
g72
sg69
(lp199
g62
(g83
g64
NtRp200
(dp201
g67
(dp202
g87
g88
ssg76
g196
sg69
(lp203
S'controller'
p204
asbag62
(g83
g64
NtRp205
(dp206
g67
(dp207
g94
g95
ssg76
g196
sg69
(lp208
S':'
asbag62
(g83
g64
NtRp209
(dp210
g67
(dp211
sg76
g196
sg69
(lp212
g62
(g63
g64
NtRp213
(dp214
g67
(dp215
g75
I5
ssg76
g209
sg69
(lp216
S'default'
p217
asbasbasbag62
(g78
g64
NtRp218
(dp219
g67
(dp220
sg76
g72
sg69
(lp221
g62
(g83
g64
NtRp222
(dp223
g67
(dp224
g87
g88
ssg76
g218
sg69
(lp225
S'cookies'
p226
asbag62
(g83
g64
NtRp227
(dp228
g67
(dp229
g94
g95
ssg76
g218
sg69
(lp230
S':'
asbag62
(g83
g64
NtRp231
(dp232
g67
(dp233
sg76
g218
sg69
(lp234
g62
(g63
g64
NtRp235
(dp236
g67
(dp237
g75
I5
ssg76
g231
sg69
(lp238
g62
(g71
g64
NtRp239
(dp240
g67
(dp241
g75
I4
ssg76
Nsg69
(lp242
g62
(g78
g64
NtRp243
(dp244
g67
(dp245
sg76
g239
sg69
(lp246
g62
(g83
g64
NtRp247
(dp248
g67
(dp249
g87
g88
ssg76
g243
sg69
(lp250
S'session_id_admin'
p251
asbag62
(g83
g64
NtRp252
(dp253
g67
(dp254
g94
g95
ssg76
g243
sg69
(lp255
S':'
asbag62
(g83
g64
NtRp256
(dp257
g67
(dp258
sg76
g243
sg69
(lp259
g62
(g63
g64
NtRp260
(dp261
g67
(dp262
g75
I4
ssg76
g256
sg69
(lp263
g62
(g71
g64
NtRp264
(dp265
g67
(dp266
g75
I3
ssg76
Nsg69
(lp267
g62
(g78
g64
NtRp268
(dp269
g67
(dp270
sg76
g264
sg69
(lp271
g62
(g83
g64
NtRp272
(dp273
g67
(dp274
g87
g88
ssg76
g268
sg69
(lp275
S'comment'
p276
asbag62
(g83
g64
NtRp277
(dp278
g67
(dp279
g94
g95
ssg76
g268
sg69
(lp280
S':'
asbag62
(g83
g64
NtRp281
(dp282
g67
(dp283
sg76
g268
sg69
(lp284
g62
(g63
g64
NtRp285
(dp286
g67
(dp287
g75
I3
ssg76
g281
sg69
(lp288
S''
asbasbasbag62
(g78
g64
NtRp289
(dp290
g67
(dp291
sg76
g264
sg69
(lp292
g62
(g83
g64
NtRp293
(dp294
g67
(dp295
g87
g88
ssg76
g289
sg69
(lp296
S'domain'
p297
asbag62
(g83
g64
NtRp298
(dp299
g67
(dp300
g94
g95
ssg76
g289
sg69
(lp301
S':'
asbag62
(g83
g64
NtRp302
(dp303
g67
(dp304
sg76
g289
sg69
(lp305
g62
(g63
g64
NtRp306
(dp307
g67
(dp308
g75
I3
ssg76
g302
sg69
(lp309
S''
asbasbasbag62
(g78
g64
NtRp310
(dp311
g67
(dp312
sg76
g264
sg69
(lp313
g62
(g83
g64
NtRp314
(dp315
g67
(dp316
g87
g88
ssg76
g310
sg69
(lp317
S'expires'
p318
asbag62
(g83
g64
NtRp319
(dp320
g67
(dp321
g94
g95
ssg76
g310
sg69
(lp322
S':'
asbag62
(g83
g64
NtRp323
(dp324
g67
(dp325
sg76
g310
sg69
(lp326
g62
(g63
g64
NtRp327
(dp328
g67
(dp329
g75
I3
ssg76
g323
sg69
(lp330
S''
asbasbasbag62
(g78
g64
NtRp331
(dp332
g67
(dp333
sg76
g264
sg69
(lp334
g62
(g83
g64
NtRp335
(dp336
g67
(dp337
g87
g88
ssg76
g331
sg69
(lp338
S'httponly'
p339
asbag62
(g83
g64
NtRp340
(dp341
g67
(dp342
g94
g95
ssg76
g331
sg69
(lp343
S':'
asbag62
(g83
g64
NtRp344
(dp345
g67
(dp346
sg76
g331
sg69
(lp347
g62
(g63
g64
NtRp348
(dp349
g67
(dp350
g75
I3
ssg76
g344
sg69
(lp351
S''
asbasbasbag62
(g78
g64
NtRp352
(dp353
g67
(dp354
sg76
g264
sg69
(lp355
g62
(g83
g64
NtRp356
(dp357
g67
(dp358
g87
g88
ssg76
g352
sg69
(lp359
S'max-age'
p360
asbag62
(g83
g64
NtRp361
(dp362
g67
(dp363
g94
g95
ssg76
g352
sg69
(lp364
S':'
asbag62
(g83
g64
NtRp365
(dp366
g67
(dp367
sg76
g352
sg69
(lp368
g62
(g63
g64
NtRp369
(dp370
g67
(dp371
g75
I3
ssg76
g365
sg69
(lp372
S''
asbasbasbag62
(g78
g64
NtRp373
(dp374
g67
(dp375
sg76
g264
sg69
(lp376
g62
(g83
g64
NtRp377
(dp378
g67
(dp379
g87
g88
ssg76
g373
sg69
(lp380
S'path'
p381
asbag62
(g83
g64
NtRp382
(dp383
g67
(dp384
g94
g95
ssg76
g373
sg69
(lp385
S':'
asbag62
(g83
g64
NtRp386
(dp387
g67
(dp388
sg76
g373
sg69
(lp389
g62
(g63
g64
NtRp390
(dp391
g67
(dp392
g75
I3
ssg76
g386
sg69
(lp393
S''
asbasbasbag62
(g78
g64
NtRp394
(dp395
g67
(dp396
sg76
g264
sg69
(lp397
g62
(g83
g64
NtRp398
(dp399
g67
(dp400
g87
g88
ssg76
g394
sg69
(lp401
S'secure'
p402
asbag62
(g83
g64
NtRp403
(dp404
g67
(dp405
g94
g95
ssg76
g394
sg69
(lp406
S':'
asbag62
(g83
g64
NtRp407
(dp408
g67
(dp409
sg76
g394
sg69
(lp410
g62
(g63
g64
NtRp411
(dp412
g67
(dp413
g75
I3
ssg76
g407
sg69
(lp414
S''
asbasbasbag62
(g78
g64
NtRp415
(dp416
g67
(dp417
sg76
g264
sg69
(lp418
g62
(g83
g64
NtRp419
(dp420
g67
(dp421
g87
g88
ssg76
g415
sg69
(lp422
S'version'
p423
asbag62
(g83
g64
NtRp424
(dp425
g67
(dp426
g94
g95
ssg76
g415
sg69
(lp427
S':'
asbag62
(g83
g64
NtRp428
(dp429
g67
(dp430
sg76
g415
sg69
(lp431
g62
(g63
g64
NtRp432
(dp433
g67
(dp434
g75
I3
ssg76
g428
sg69
(lp435
S''
asbasbasbasbasbasbasbag62
(g78
g64
NtRp436
(dp437
g67
(dp438
sg76
g239
sg69
(lp439
g62
(g83
g64
NtRp440
(dp441
g67
(dp442
g87
g88
ssg76
g436
sg69
(lp443
S'session_id_cite_m22'
p444
asbag62
(g83
g64
NtRp445
(dp446
g67
(dp447
g94
g95
ssg76
g436
sg69
(lp448
S':'
asbag62
(g83
g64
NtRp449
(dp450
g67
(dp451
sg76
g436
sg69
(lp452
g62
(g63
g64
NtRp453
(dp454
g67
(dp455
g75
I4
ssg76
g449
sg69
(lp456
g62
(g71
g64
NtRp457
(dp458
g67
(dp459
g75
I3
ssg76
Nsg69
(lp460
g62
(g78
g64
NtRp461
(dp462
g67
(dp463
sg76
g457
sg69
(lp464
g62
(g83
g64
NtRp465
(dp466
g67
(dp467
g87
g88
ssg76
g461
sg69
(lp468
g276
asbag62
(g83
g64
NtRp469
(dp470
g67
(dp471
g94
g95
ssg76
g461
sg69
(lp472
S':'
asbag62
(g83
g64
NtRp473
(dp474
g67
(dp475
sg76
g461
sg69
(lp476
g62
(g63
g64
NtRp477
(dp478
g67
(dp479
g75
I3
ssg76
g473
sg69
(lp480
S''
asbasbasbag62
(g78
g64
NtRp481
(dp482
g67
(dp483
sg76
g457
sg69
(lp484
g62
(g83
g64
NtRp485
(dp486
g67
(dp487
g87
g88
ssg76
g481
sg69
(lp488
g297
asbag62
(g83
g64
NtRp489
(dp490
g67
(dp491
g94
g95
ssg76
g481
sg69
(lp492
S':'
asbag62
(g83
g64
NtRp493
(dp494
g67
(dp495
sg76
g481
sg69
(lp496
g62
(g63
g64
NtRp497
(dp498
g67
(dp499
g75
I3
ssg76
g493
sg69
(lp500
S''
asbasbasbag62
(g78
g64
NtRp501
(dp502
g67
(dp503
sg76
g457
sg69
(lp504
g62
(g83
g64
NtRp505
(dp506
g67
(dp507
g87
g88
ssg76
g501
sg69
(lp508
g318
asbag62
(g83
g64
NtRp509
(dp510
g67
(dp511
g94
g95
ssg76
g501
sg69
(lp512
S':'
asbag62
(g83
g64
NtRp513
(dp514
g67
(dp515
sg76
g501
sg69
(lp516
g62
(g63
g64
NtRp517
(dp518
g67
(dp519
g75
I3
ssg76
g513
sg69
(lp520
S''
asbasbasbag62
(g78
g64
NtRp521
(dp522
g67
(dp523
sg76
g457
sg69
(lp524
g62
(g83
g64
NtRp525
(dp526
g67
(dp527
g87
g88
ssg76
g521
sg69
(lp528
g339
asbag62
(g83
g64
NtRp529
(dp530
g67
(dp531
g94
g95
ssg76
g521
sg69
(lp532
S':'
asbag62
(g83
g64
NtRp533
(dp534
g67
(dp535
sg76
g521
sg69
(lp536
g62
(g63
g64
NtRp537
(dp538
g67
(dp539
g75
I3
ssg76
g533
sg69
(lp540
S''
asbasbasbag62
(g78
g64
NtRp541
(dp542
g67
(dp543
sg76
g457
sg69
(lp544
g62
(g83
g64
NtRp545
(dp546
g67
(dp547
g87
g88
ssg76
g541
sg69
(lp548
g360
asbag62
(g83
g64
NtRp549
(dp550
g67
(dp551
g94
g95
ssg76
g541
sg69
(lp552
S':'
asbag62
(g83
g64
NtRp553
(dp554
g67
(dp555
sg76
g541
sg69
(lp556
g62
(g63
g64
NtRp557
(dp558
g67
(dp559
g75
I3
ssg76
g553
sg69
(lp560
S''
asbasbasbag62
(g78
g64
NtRp561
(dp562
g67
(dp563
sg76
g457
sg69
(lp564
g62
(g83
g64
NtRp565
(dp566
g67
(dp567
g87
g88
ssg76
g561
sg69
(lp568
g381
asbag62
(g83
g64
NtRp569
(dp570
g67
(dp571
g94
g95
ssg76
g561
sg69
(lp572
S':'
asbag62
(g83
g64
NtRp573
(dp574
g67
(dp575
sg76
g561
sg69
(lp576
g62
(g63
g64
NtRp577
(dp578
g67
(dp579
g75
I3
ssg76
g573
sg69
(lp580
S''
asbasbasbag62
(g78
g64
NtRp581
(dp582
g67
(dp583
sg76
g457
sg69
(lp584
g62
(g83
g64
NtRp585
(dp586
g67
(dp587
g87
g88
ssg76
g581
sg69
(lp588
g402
asbag62
(g83
g64
NtRp589
(dp590
g67
(dp591
g94
g95
ssg76
g581
sg69
(lp592
S':'
asbag62
(g83
g64
NtRp593
(dp594
g67
(dp595
sg76
g581
sg69
(lp596
g62
(g63
g64
NtRp597
(dp598
g67
(dp599
g75
I3
ssg76
g593
sg69
(lp600
S''
asbasbasbag62
(g78
g64
NtRp601
(dp602
g67
(dp603
sg76
g457
sg69
(lp604
g62
(g83
g64
NtRp605
(dp606
g67
(dp607
g87
g88
ssg76
g601
sg69
(lp608
g423
asbag62
(g83
g64
NtRp609
(dp610
g67
(dp611
g94
g95
ssg76
g601
sg69
(lp612
S':'
asbag62
(g83
g64
NtRp613
(dp614
g67
(dp615
sg76
g601
sg69
(lp616
g62
(g63
g64
NtRp617
(dp618
g67
(dp619
g75
I3
ssg76
g613
sg69
(lp620
S''
asbasbasbasbasbasbasbag62
(g78
g64
NtRp621
(dp622
g67
(dp623
sg76
g239
sg69
(lp624
g62
(g83
g64
NtRp625
(dp626
g67
(dp627
g87
g88
ssg76
g621
sg69
(lp628
S'session_id_cite_m5'
p629
asbag62
(g83
g64
NtRp630
(dp631
g67
(dp632
g94
g95
ssg76
g621
sg69
(lp633
S':'
asbag62
(g83
g64
NtRp634
(dp635
g67
(dp636
sg76
g621
sg69
(lp637
g62
(g63
g64
NtRp638
(dp639
g67
(dp640
g75
I4
ssg76
g634
sg69
(lp641
g62
(g71
g64
NtRp642
(dp643
g67
(dp644
g75
I3
ssg76
Nsg69
(lp645
g62
(g78
g64
NtRp646
(dp647
g67
(dp648
sg76
g642
sg69
(lp649
g62
(g83
g64
NtRp650
(dp651
g67
(dp652
g87
g88
ssg76
g646
sg69
(lp653
g276
asbag62
(g83
g64
NtRp654
(dp655
g67
(dp656
g94
g95
ssg76
g646
sg69
(lp657
S':'
asbag62
(g83
g64
NtRp658
(dp659
g67
(dp660
sg76
g646
sg69
(lp661
g62
(g63
g64
NtRp662
(dp663
g67
(dp664
g75
I3
ssg76
g658
sg69
(lp665
S''
asbasbasbag62
(g78
g64
NtRp666
(dp667
g67
(dp668
sg76
g642
sg69
(lp669
g62
(g83
g64
NtRp670
(dp671
g67
(dp672
g87
g88
ssg76
g666
sg69
(lp673
g297
asbag62
(g83
g64
NtRp674
(dp675
g67
(dp676
g94
g95
ssg76
g666
sg69
(lp677
S':'
asbag62
(g83
g64
NtRp678
(dp679
g67
(dp680
sg76
g666
sg69
(lp681
g62
(g63
g64
NtRp682
(dp683
g67
(dp684
g75
I3
ssg76
g678
sg69
(lp685
S''
asbasbasbag62
(g78
g64
NtRp686
(dp687
g67
(dp688
sg76
g642
sg69
(lp689
g62
(g83
g64
NtRp690
(dp691
g67
(dp692
g87
g88
ssg76
g686
sg69
(lp693
g318
asbag62
(g83
g64
NtRp694
(dp695
g67
(dp696
g94
g95
ssg76
g686
sg69
(lp697
S':'
asbag62
(g83
g64
NtRp698
(dp699
g67
(dp700
sg76
g686
sg69
(lp701
g62
(g63
g64
NtRp702
(dp703
g67
(dp704
g75
I3
ssg76
g698
sg69
(lp705
S''
asbasbasbag62
(g78
g64
NtRp706
(dp707
g67
(dp708
sg76
g642
sg69
(lp709
g62
(g83
g64
NtRp710
(dp711
g67
(dp712
g87
g88
ssg76
g706
sg69
(lp713
g339
asbag62
(g83
g64
NtRp714
(dp715
g67
(dp716
g94
g95
ssg76
g706
sg69
(lp717
S':'
asbag62
(g83
g64
NtRp718
(dp719
g67
(dp720
sg76
g706
sg69
(lp721
g62
(g63
g64
NtRp722
(dp723
g67
(dp724
g75
I3
ssg76
g718
sg69
(lp725
S''
asbasbasbag62
(g78
g64
NtRp726
(dp727
g67
(dp728
sg76
g642
sg69
(lp729
g62
(g83
g64
NtRp730
(dp731
g67
(dp732
g87
g88
ssg76
g726
sg69
(lp733
g360
asbag62
(g83
g64
NtRp734
(dp735
g67
(dp736
g94
g95
ssg76
g726
sg69
(lp737
S':'
asbag62
(g83
g64
NtRp738
(dp739
g67
(dp740
sg76
g726
sg69
(lp741
g62
(g63
g64
NtRp742
(dp743
g67
(dp744
g75
I3
ssg76
g738
sg69
(lp745
S''
asbasbasbag62
(g78
g64
NtRp746
(dp747
g67
(dp748
sg76
g642
sg69
(lp749
g62
(g83
g64
NtRp750
(dp751
g67
(dp752
g87
g88
ssg76
g746
sg69
(lp753
g381
asbag62
(g83
g64
NtRp754
(dp755
g67
(dp756
g94
g95
ssg76
g746
sg69
(lp757
S':'
asbag62
(g83
g64
NtRp758
(dp759
g67
(dp760
sg76
g746
sg69
(lp761
g62
(g63
g64
NtRp762
(dp763
g67
(dp764
g75
I3
ssg76
g758
sg69
(lp765
S''
asbasbasbag62
(g78
g64
NtRp766
(dp767
g67
(dp768
sg76
g642
sg69
(lp769
g62
(g83
g64
NtRp770
(dp771
g67
(dp772
g87
g88
ssg76
g766
sg69
(lp773
g402
asbag62
(g83
g64
NtRp774
(dp775
g67
(dp776
g94
g95
ssg76
g766
sg69
(lp777
S':'
asbag62
(g83
g64
NtRp778
(dp779
g67
(dp780
sg76
g766
sg69
(lp781
g62
(g63
g64
NtRp782
(dp783
g67
(dp784
g75
I3
ssg76
g778
sg69
(lp785
S''
asbasbasbag62
(g78
g64
NtRp786
(dp787
g67
(dp788
sg76
g642
sg69
(lp789
g62
(g83
g64
NtRp790
(dp791
g67
(dp792
g87
g88
ssg76
g786
sg69
(lp793
g423
asbag62
(g83
g64
NtRp794
(dp795
g67
(dp796
g94
g95
ssg76
g786
sg69
(lp797
S':'
asbag62
(g83
g64
NtRp798
(dp799
g67
(dp800
sg76
g786
sg69
(lp801
g62
(g63
g64
NtRp802
(dp803
g67
(dp804
g75
I3
ssg76
g798
sg69
(lp805
S''
asbasbasbasbasbasbasbag62
(g78
g64
NtRp806
(dp807
g67
(dp808
sg76
g239
sg69
(lp809
g62
(g83
g64
NtRp810
(dp811
g67
(dp812
g87
g88
ssg76
g806
sg69
(lp813
S'session_id_welcome'
p814
asbag62
(g83
g64
NtRp815
(dp816
g67
(dp817
g94
g95
ssg76
g806
sg69
(lp818
S':'
asbag62
(g83
g64
NtRp819
(dp820
g67
(dp821
sg76
g806
sg69
(lp822
g62
(g63
g64
NtRp823
(dp824
g67
(dp825
g75
I4
ssg76
g819
sg69
(lp826
g62
(g71
g64
NtRp827
(dp828
g67
(dp829
g75
I3
ssg76
Nsg69
(lp830
g62
(g78
g64
NtRp831
(dp832
g67
(dp833
sg76
g827
sg69
(lp834
g62
(g83
g64
NtRp835
(dp836
g67
(dp837
g87
g88
ssg76
g831
sg69
(lp838
g276
asbag62
(g83
g64
NtRp839
(dp840
g67
(dp841
g94
g95
ssg76
g831
sg69
(lp842
S':'
asbag62
(g83
g64
NtRp843
(dp844
g67
(dp845
sg76
g831
sg69
(lp846
g62
(g63
g64
NtRp847
(dp848
g67
(dp849
g75
I3
ssg76
g843
sg69
(lp850
S''
asbasbasbag62
(g78
g64
NtRp851
(dp852
g67
(dp853
sg76
g827
sg69
(lp854
g62
(g83
g64
NtRp855
(dp856
g67
(dp857
g87
g88
ssg76
g851
sg69
(lp858
g297
asbag62
(g83
g64
NtRp859
(dp860
g67
(dp861
g94
g95
ssg76
g851
sg69
(lp862
S':'
asbag62
(g83
g64
NtRp863
(dp864
g67
(dp865
sg76
g851
sg69
(lp866
g62
(g63
g64
NtRp867
(dp868
g67
(dp869
g75
I3
ssg76
g863
sg69
(lp870
S''
asbasbasbag62
(g78
g64
NtRp871
(dp872
g67
(dp873
sg76
g827
sg69
(lp874
g62
(g83
g64
NtRp875
(dp876
g67
(dp877
g87
g88
ssg76
g871
sg69
(lp878
g318
asbag62
(g83
g64
NtRp879
(dp880
g67
(dp881
g94
g95
ssg76
g871
sg69
(lp882
S':'
asbag62
(g83
g64
NtRp883
(dp884
g67
(dp885
sg76
g871
sg69
(lp886
g62
(g63
g64
NtRp887
(dp888
g67
(dp889
g75
I3
ssg76
g883
sg69
(lp890
S''
asbasbasbag62
(g78
g64
NtRp891
(dp892
g67
(dp893
sg76
g827
sg69
(lp894
g62
(g83
g64
NtRp895
(dp896
g67
(dp897
g87
g88
ssg76
g891
sg69
(lp898
g339
asbag62
(g83
g64
NtRp899
(dp900
g67
(dp901
g94
g95
ssg76
g891
sg69
(lp902
S':'
asbag62
(g83
g64
NtRp903
(dp904
g67
(dp905
sg76
g891
sg69
(lp906
g62
(g63
g64
NtRp907
(dp908
g67
(dp909
g75
I3
ssg76
g903
sg69
(lp910
S''
asbasbasbag62
(g78
g64
NtRp911
(dp912
g67
(dp913
sg76
g827
sg69
(lp914
g62
(g83
g64
NtRp915
(dp916
g67
(dp917
g87
g88
ssg76
g911
sg69
(lp918
g360
asbag62
(g83
g64
NtRp919
(dp920
g67
(dp921
g94
g95
ssg76
g911
sg69
(lp922
S':'
asbag62
(g83
g64
NtRp923
(dp924
g67
(dp925
sg76
g911
sg69
(lp926
g62
(g63
g64
NtRp927
(dp928
g67
(dp929
g75
I3
ssg76
g923
sg69
(lp930
S''
asbasbasbag62
(g78
g64
NtRp931
(dp932
g67
(dp933
sg76
g827
sg69
(lp934
g62
(g83
g64
NtRp935
(dp936
g67
(dp937
g87
g88
ssg76
g931
sg69
(lp938
g381
asbag62
(g83
g64
NtRp939
(dp940
g67
(dp941
g94
g95
ssg76
g931
sg69
(lp942
S':'
asbag62
(g83
g64
NtRp943
(dp944
g67
(dp945
sg76
g931
sg69
(lp946
g62
(g63
g64
NtRp947
(dp948
g67
(dp949
g75
I3
ssg76
g943
sg69
(lp950
S''
asbasbasbag62
(g78
g64
NtRp951
(dp952
g67
(dp953
sg76
g827
sg69
(lp954
g62
(g83
g64
NtRp955
(dp956
g67
(dp957
g87
g88
ssg76
g951
sg69
(lp958
g402
asbag62
(g83
g64
NtRp959
(dp960
g67
(dp961
g94
g95
ssg76
g951
sg69
(lp962
S':'
asbag62
(g83
g64
NtRp963
(dp964
g67
(dp965
sg76
g951
sg69
(lp966
g62
(g63
g64
NtRp967
(dp968
g67
(dp969
g75
I3
ssg76
g963
sg69
(lp970
S''
asbasbasbag62
(g78
g64
NtRp971
(dp972
g67
(dp973
sg76
g827
sg69
(lp974
g62
(g83
g64
NtRp975
(dp976
g67
(dp977
g87
g88
ssg76
g971
sg69
(lp978
g423
asbag62
(g83
g64
NtRp979
(dp980
g67
(dp981
g94
g95
ssg76
g971
sg69
(lp982
S':'
asbag62
(g83
g64
NtRp983
(dp984
g67
(dp985
sg76
g971
sg69
(lp986
g62
(g63
g64
NtRp987
(dp988
g67
(dp989
g75
I3
ssg76
g983
sg69
(lp990
S''
asbasbasbasbasbasbasbasbasbasbasbag62
(g78
g64
NtRp991
(dp992
g67
(dp993
sg76
g72
sg69
(lp994
g62
(g83
g64
NtRp995
(dp996
g67
(dp997
g87
g88
ssg76
g991
sg69
(lp998
S'env'
p999
asbag62
(g83
g64
NtRp1000
(dp1001
g67
(dp1002
g94
g95
ssg76
g991
sg69
(lp1003
S':'
asbag62
(g83
g64
NtRp1004
(dp1005
g67
(dp1006
sg76
g991
sg69
(lp1007
g62
(g63
g64
NtRp1008
(dp1009
g67
(dp1010
g75
I5
ssg76
g1004
sg69
(lp1011
g62
(g71
g64
NtRp1012
(dp1013
g67
(dp1014
g75
I4
ssg76
Nsg69
(lp1015
g62
(g78
g64
NtRp1016
(dp1017
g67
(dp1018
sg76
g1012
sg69
(lp1019
g62
(g83
g64
NtRp1020
(dp1021
g67
(dp1022
g87
g88
ssg76
g1016
sg69
(lp1023
S'app_folders'
p1024
asbag62
(g83
g64
NtRp1025
(dp1026
g67
(dp1027
g94
g95
ssg76
g1016
sg69
(lp1028
S':'
asbag62
(g83
g64
NtRp1029
(dp1030
g67
(dp1031
sg76
g1016
sg69
(lp1032
g62
(g63
g64
NtRp1033
(dp1034
g67
(dp1035
g75
I4
ssg76
g1029
sg69
(lp1036
S"set(['/home/chitra/courses/SSAD/web2py/applications/cite_m22/', '/home/chitra/courses/SSAD/web2py/applications/welcome/', '/home/chitra/courses/SSAD/web2py/applications/cite_m5/', '/home/chitra/courses/SSAD/web2py/applications/admin/'])"
p1037
asbasbasbag62
(g78
g64
NtRp1038
(dp1039
g67
(dp1040
sg76
g1012
sg69
(lp1041
g62
(g83
g64
NtRp1042
(dp1043
g67
(dp1044
g87
g88
ssg76
g1038
sg69
(lp1045
S'applications_parent'
p1046
asbag62
(g83
g64
NtRp1047
(dp1048
g67
(dp1049
g94
g95
ssg76
g1038
sg69
(lp1050
S':'
asbag62
(g83
g64
NtRp1051
(dp1052
g67
(dp1053
sg76
g1038
sg69
(lp1054
g62
(g63
g64
NtRp1055
(dp1056
g67
(dp1057
g75
I4
ssg76
g1051
sg69
(lp1058
S'/home/chitra/courses/SSAD/web2py'
p1059
asbasbasbag62
(g78
g64
NtRp1060
(dp1061
g67
(dp1062
sg76
g1012
sg69
(lp1063
g62
(g83
g64
NtRp1064
(dp1065
g67
(dp1066
g87
g88
ssg76
g1060
sg69
(lp1067
S'cmd_args'
p1068
asbag62
(g83
g64
NtRp1069
(dp1070
g67
(dp1071
g94
g95
ssg76
g1060
sg69
(lp1072
S':'
asbag62
(g83
g64
NtRp1073
(dp1074
g67
(dp1075
sg76
g1060
sg69
(lp1076
g62
(g63
g64
NtRp1077
(dp1078
g67
(dp1079
g75
I4
ssg76
g1073
sg69
(lp1080
g62
(g71
g64
NtRp1081
(dp1082
g67
(dp1083
g75
I3
ssg76
Nsg69
(lp1084
sbasbasbasbag62
(g78
g64
NtRp1085
(dp1086
g67
(dp1087
sg76
g1012
sg69
(lp1088
g62
(g83
g64
NtRp1089
(dp1090
g67
(dp1091
g87
g88
ssg76
g1085
sg69
(lp1092
S'cmd_options'
p1093
asbag62
(g83
g64
NtRp1094
(dp1095
g67
(dp1096
g94
g95
ssg76
g1085
sg69
(lp1097
S':'
asbag62
(g83
g64
NtRp1098
(dp1099
g67
(dp1100
sg76
g1085
sg69
(lp1101
g62
(g63
g64
NtRp1102
(dp1103
g67
(dp1104
g75
I4
ssg76
g1098
sg69
(lp1105
S"<Values at 0x2bd8b48: {'verbose': False, 'ip': '127.0.0.1', 'shutdown_timeout': 5, 'taskbar': False, 'nocron': False, 'pid_filename': 'httpserver.pid', 'maxthreads': None, 'softcron': False, 'server_name': 'chitra-HP-Pavilion-dv6-Notebook-PC', 'bpython': False, 'nogui': False, 'port': 8000, 'extcron': False, 'debuglevel': 30, 'test': None, 'folder': '/home/chitra/courses/SSAD/web2py', 'config': '', 'import_models': False, 'winservice': '', 'shell': None, 'run': '', 'log_filename': 'httpserver.log', 'args': [''], 'socket_timeout': 5, 'ssl_ca_certificate': None, 'scheduler': None, 'profiler_filename': None, 'ssl_private_key': '', 'password': '<ask>', 'request_queue_size': 5, 'ssl_certificate': '', 'cronjob': False, 'numthreads': None, 'quiet': False, 'interfaces': None, 'minthreads': None, 'timeout': 10, 'plain': False, 'nobanner': False}>"
p1106
asbasbasbag62
(g78
g64
NtRp1107
(dp1108
g67
(dp1109
sg76
g1012
sg69
(lp1110
g62
(g83
g64
NtRp1111
(dp1112
g67
(dp1113
g87
g88
ssg76
g1107
sg69
(lp1114
S'db_sessions'
p1115
asbag62
(g83
g64
NtRp1116
(dp1117
g67
(dp1118
g94
g95
ssg76
g1107
sg69
(lp1119
S':'
asbag62
(g83
g64
NtRp1120
(dp1121
g67
(dp1122
sg76
g1107
sg69
(lp1123
g62
(g63
g64
NtRp1124
(dp1125
g67
(dp1126
g75
I4
ssg76
g1120
sg69
(lp1127
S'set([])'
p1128
asbasbasbag62
(g78
g64
NtRp1129
(dp1130
g67
(dp1131
sg76
g1012
sg69
(lp1132
g62
(g83
g64
NtRp1133
(dp1134
g67
(dp1135
g87
g88
ssg76
g1129
sg69
(lp1136
S'debugging'
p1137
asbag62
(g83
g64
NtRp1138
(dp1139
g67
(dp1140
g94
g95
ssg76
g1129
sg69
(lp1141
S':'
asbag62
(g83
g64
NtRp1142
(dp1143
g67
(dp1144
sg76
g1129
sg69
(lp1145
g62
(g63
g64
NtRp1146
(dp1147
g67
(dp1148
g75
I4
ssg76
g1142
sg69
(lp1149
g105
asbasbasbag62
(g78
g64
NtRp1150
(dp1151
g67
(dp1152
sg76
g1012
sg69
(lp1153
g62
(g83
g64
NtRp1154
(dp1155
g67
(dp1156
g87
g88
ssg76
g1150
sg69
(lp1157
S'gluon_parent'
p1158
asbag62
(g83
g64
NtRp1159
(dp1160
g67
(dp1161
g94
g95
ssg76
g1150
sg69
(lp1162
S':'
asbag62
(g83
g64
NtRp1163
(dp1164
g67
(dp1165
sg76
g1150
sg69
(lp1166
g62
(g63
g64
NtRp1167
(dp1168
g67
(dp1169
g75
I4
ssg76
g1163
sg69
(lp1170
S'/home/chitra/courses/SSAD/web2py'
p1171
asbasbasbag62
(g78
g64
NtRp1172
(dp1173
g67
(dp1174
sg76
g1012
sg69
(lp1175
g62
(g83
g64
NtRp1176
(dp1177
g67
(dp1178
g87
g88
ssg76
g1172
sg69
(lp1179
S'http_accept'
p1180
asbag62
(g83
g64
NtRp1181
(dp1182
g67
(dp1183
g94
g95
ssg76
g1172
sg69
(lp1184
S':'
asbag62
(g83
g64
NtRp1185
(dp1186
g67
(dp1187
sg76
g1172
sg69
(lp1188
g62
(g63
g64
NtRp1189
(dp1190
g67
(dp1191
g75
I4
ssg76
g1185
sg69
(lp1192
S'text/html,application/xhtml+xml,application/xml;q=0.9,*/*;q=0.8'
p1193
asbasbasbag62
(g78
g64
NtRp1194
(dp1195
g67
(dp1196
sg76
g1012
sg69
(lp1197
g62
(g83
g64
NtRp1198
(dp1199
g67
(dp1200
g87
g88
ssg76
g1194
sg69
(lp1201
S'http_accept_encoding'
p1202
asbag62
(g83
g64
NtRp1203
(dp1204
g67
(dp1205
g94
g95
ssg76
g1194
sg69
(lp1206
S':'
asbag62
(g83
g64
NtRp1207
(dp1208
g67
(dp1209
sg76
g1194
sg69
(lp1210
g62
(g63
g64
NtRp1211
(dp1212
g67
(dp1213
g75
I4
ssg76
g1207
sg69
(lp1214
S'gzip, deflate'
p1215
asbasbasbag62
(g78
g64
NtRp1216
(dp1217
g67
(dp1218
sg76
g1012
sg69
(lp1219
g62
(g83
g64
NtRp1220
(dp1221
g67
(dp1222
g87
g88
ssg76
g1216
sg69
(lp1223
S'http_accept_language'
p1224
asbag62
(g83
g64
NtRp1225
(dp1226
g67
(dp1227
g94
g95
ssg76
g1216
sg69
(lp1228
S':'
asbag62
(g83
g64
NtRp1229
(dp1230
g67
(dp1231
sg76
g1216
sg69
(lp1232
g62
(g63
g64
NtRp1233
(dp1234
g67
(dp1235
g75
I4
ssg76
g1229
sg69
(lp1236
S'en-us,en;q=0.5'
p1237
asbasbasbag62
(g78
g64
NtRp1238
(dp1239
g67
(dp1240
sg76
g1012
sg69
(lp1241
g62
(g83
g64
NtRp1242
(dp1243
g67
(dp1244
g87
g88
ssg76
g1238
sg69
(lp1245
S'http_connection'
p1246
asbag62
(g83
g64
NtRp1247
(dp1248
g67
(dp1249
g94
g95
ssg76
g1238
sg69
(lp1250
S':'
asbag62
(g83
g64
NtRp1251
(dp1252
g67
(dp1253
sg76
g1238
sg69
(lp1254
g62
(g63
g64
NtRp1255
(dp1256
g67
(dp1257
g75
I4
ssg76
g1251
sg69
(lp1258
S'keep-alive'
p1259
asbasbasbag62
(g78
g64
NtRp1260
(dp1261
g67
(dp1262
sg76
g1012
sg69
(lp1263
g62
(g83
g64
NtRp1264
(dp1265
g67
(dp1266
g87
g88
ssg76
g1260
sg69
(lp1267
S'http_cookie'
p1268
asbag62
(g83
g64
NtRp1269
(dp1270
g67
(dp1271
g94
g95
ssg76
g1260
sg69
(lp1272
S':'
asbag62
(g83
g64
NtRp1273
(dp1274
g67
(dp1275
sg76
g1260
sg69
(lp1276
g62
(g63
g64
NtRp1277
(dp1278
g67
(dp1279
g75
I4
ssg76
g1273
sg69
(lp1280
S'session_id_welcome=127.0.0.1-a6c88c71-9608-4012-94c8-79cd2d75eafa; session_id_admin=127.0.0.1-70cad1ca-c74c-4e34-a495-678fca9189ef; session_id_cite_m22=127.0.0.1-e3dcd446-1fd1-4868-b5d1-7f33d9a6d234; session_id_cite_m5=127.0.0.1-6b5fef13-ab11-4a8b-a8a1-45e33faa95ff'
p1281
asbasbasbag62
(g78
g64
NtRp1282
(dp1283
g67
(dp1284
sg76
g1012
sg69
(lp1285
g62
(g83
g64
NtRp1286
(dp1287
g67
(dp1288
g87
g88
ssg76
g1282
sg69
(lp1289
S'http_host'
p1290
asbag62
(g83
g64
NtRp1291
(dp1292
g67
(dp1293
g94
g95
ssg76
g1282
sg69
(lp1294
S':'
asbag62
(g83
g64
NtRp1295
(dp1296
g67
(dp1297
sg76
g1282
sg69
(lp1298
g62
(g63
g64
NtRp1299
(dp1300
g67
(dp1301
g75
I4
ssg76
g1295
sg69
(lp1302
S'127.0.0.1:8000'
p1303
asbasbasbag62
(g78
g64
NtRp1304
(dp1305
g67
(dp1306
sg76
g1012
sg69
(lp1307
g62
(g83
g64
NtRp1308
(dp1309
g67
(dp1310
g87
g88
ssg76
g1304
sg69
(lp1311
S'http_user_agent'
p1312
asbag62
(g83
g64
NtRp1313
(dp1314
g67
(dp1315
g94
g95
ssg76
g1304
sg69
(lp1316
S':'
asbag62
(g83
g64
NtRp1317
(dp1318
g67
(dp1319
sg76
g1304
sg69
(lp1320
g62
(g63
g64
NtRp1321
(dp1322
g67
(dp1323
g75
I4
ssg76
g1317
sg69
(lp1324
S'Mozilla/5.0 (X11; Ubuntu; Linux x86_64; rv:13.0) Gecko/20100101 Firefox/13.0.1'
p1325
asbasbasbag62
(g78
g64
NtRp1326
(dp1327
g67
(dp1328
sg76
g1012
sg69
(lp1329
g62
(g83
g64
NtRp1330
(dp1331
g67
(dp1332
g87
g88
ssg76
g1326
sg69
(lp1333
S'is_jython'
p1334
asbag62
(g83
g64
NtRp1335
(dp1336
g67
(dp1337
g94
g95
ssg76
g1326
sg69
(lp1338
S':'
asbag62
(g83
g64
NtRp1339
(dp1340
g67
(dp1341
sg76
g1326
sg69
(lp1342
g62
(g63
g64
NtRp1343
(dp1344
g67
(dp1345
g75
I4
ssg76
g1339
sg69
(lp1346
g105
asbasbasbag62
(g78
g64
NtRp1347
(dp1348
g67
(dp1349
sg76
g1012
sg69
(lp1350
g62
(g83
g64
NtRp1351
(dp1352
g67
(dp1353
g87
g88
ssg76
g1347
sg69
(lp1354
S'is_pypy'
p1355
asbag62
(g83
g64
NtRp1356
(dp1357
g67
(dp1358
g94
g95
ssg76
g1347
sg69
(lp1359
S':'
asbag62
(g83
g64
NtRp1360
(dp1361
g67
(dp1362
sg76
g1347
sg69
(lp1363
g62
(g63
g64
NtRp1364
(dp1365
g67
(dp1366
g75
I4
ssg76
g1360
sg69
(lp1367
g105
asbasbasbag62
(g78
g64
NtRp1368
(dp1369
g67
(dp1370
sg76
g1012
sg69
(lp1371
g62
(g83
g64
NtRp1372
(dp1373
g67
(dp1374
g87
g88
ssg76
g1368
sg69
(lp1375
S'path_info'
p1376
asbag62
(g83
g64
NtRp1377
(dp1378
g67
(dp1379
g94
g95
ssg76
g1368
sg69
(lp1380
S':'
asbag62
(g83
g64
NtRp1381
(dp1382
g67
(dp1383
sg76
g1368
sg69
(lp1384
g62
(g63
g64
NtRp1385
(dp1386
g67
(dp1387
g75
I4
ssg76
g1381
sg69
(lp1388
S'/cite_m5/default/final_ans'
p1389
asbasbasbag62
(g78
g64
NtRp1390
(dp1391
g67
(dp1392
sg76
g1012
sg69
(lp1393
g62
(g83
g64
NtRp1394
(dp1395
g67
(dp1396
g87
g88
ssg76
g1390
sg69
(lp1397
S'query_string'
p1398
asbag62
(g83
g64
NtRp1399
(dp1400
g67
(dp1401
g94
g95
ssg76
g1390
sg69
(lp1402
S':'
asbag62
(g83
g64
NtRp1403
(dp1404
g67
(dp1405
sg76
g1390
sg69
(lp1406
g62
(g63
g64
NtRp1407
(dp1408
g67
(dp1409
g75
I4
ssg76
g1403
sg69
(lp1410
S''
asbasbasbag62
(g78
g64
NtRp1411
(dp1412
g67
(dp1413
sg76
g1012
sg69
(lp1414
g62
(g83
g64
NtRp1415
(dp1416
g67
(dp1417
g87
g88
ssg76
g1411
sg69
(lp1418
S'remote_addr'
p1419
asbag62
(g83
g64
NtRp1420
(dp1421
g67
(dp1422
g94
g95
ssg76
g1411
sg69
(lp1423
S':'
asbag62
(g83
g64
NtRp1424
(dp1425
g67
(dp1426
sg76
g1411
sg69
(lp1427
g62
(g63
g64
NtRp1428
(dp1429
g67
(dp1430
g75
I4
ssg76
g1424
sg69
(lp1431
g195
asbasbasbag62
(g78
g64
NtRp1432
(dp1433
g67
(dp1434
sg76
g1012
sg69
(lp1435
g62
(g83
g64
NtRp1436
(dp1437
g67
(dp1438
g87
g88
ssg76
g1432
sg69
(lp1439
S'remote_port'
p1440
asbag62
(g83
g64
NtRp1441
(dp1442
g67
(dp1443
g94
g95
ssg76
g1432
sg69
(lp1444
S':'
asbag62
(g83
g64
NtRp1445
(dp1446
g67
(dp1447
sg76
g1432
sg69
(lp1448
g62
(g63
g64
NtRp1449
(dp1450
g67
(dp1451
g75
I4
ssg76
g1445
sg69
(lp1452
S'42772'
p1453
asbasbasbag62
(g78
g64
NtRp1454
(dp1455
g67
(dp1456
sg76
g1012
sg69
(lp1457
g62
(g83
g64
NtRp1458
(dp1459
g67
(dp1460
g87
g88
ssg76
g1454
sg69
(lp1461
S'request_method'
p1462
asbag62
(g83
g64
NtRp1463
(dp1464
g67
(dp1465
g94
g95
ssg76
g1454
sg69
(lp1466
S':'
asbag62
(g83
g64
NtRp1467
(dp1468
g67
(dp1469
sg76
g1454
sg69
(lp1470
g62
(g63
g64
NtRp1471
(dp1472
g67
(dp1473
g75
I4
ssg76
g1467
sg69
(lp1474
S'GET'
p1475
asbasbasbag62
(g78
g64
NtRp1476
(dp1477
g67
(dp1478
sg76
g1012
sg69
(lp1479
g62
(g83
g64
NtRp1480
(dp1481
g67
(dp1482
g87
g88
ssg76
g1476
sg69
(lp1483
S'script_name'
p1484
asbag62
(g83
g64
NtRp1485
(dp1486
g67
(dp1487
g94
g95
ssg76
g1476
sg69
(lp1488
S':'
asbag62
(g83
g64
NtRp1489
(dp1490
g67
(dp1491
sg76
g1476
sg69
(lp1492
g62
(g63
g64
NtRp1493
(dp1494
g67
(dp1495
g75
I4
ssg76
g1489
sg69
(lp1496
S''
asbasbasbag62
(g78
g64
NtRp1497
(dp1498
g67
(dp1499
sg76
g1012
sg69
(lp1500
g62
(g83
g64
NtRp1501
(dp1502
g67
(dp1503
g87
g88
ssg76
g1497
sg69
(lp1504
S'server_name'
p1505
asbag62
(g83
g64
NtRp1506
(dp1507
g67
(dp1508
g94
g95
ssg76
g1497
sg69
(lp1509
S':'
asbag62
(g83
g64
NtRp1510
(dp1511
g67
(dp1512
sg76
g1497
sg69
(lp1513
g62
(g63
g64
NtRp1514
(dp1515
g67
(dp1516
g75
I4
ssg76
g1510
sg69
(lp1517
S'chitra-HP-Pavilion-dv6-Notebook-PC'
p1518
asbasbasbag62
(g78
g64
NtRp1519
(dp1520
g67
(dp1521
sg76
g1012
sg69
(lp1522
g62
(g83
g64
NtRp1523
(dp1524
g67
(dp1525
g87
g88
ssg76
g1519
sg69
(lp1526
S'server_port'
p1527
asbag62
(g83
g64
NtRp1528
(dp1529
g67
(dp1530
g94
g95
ssg76
g1519
sg69
(lp1531
S':'
asbag62
(g83
g64
NtRp1532
(dp1533
g67
(dp1534
sg76
g1519
sg69
(lp1535
g62
(g63
g64
NtRp1536
(dp1537
g67
(dp1538
g75
I4
ssg76
g1532
sg69
(lp1539
S'8000'
p1540
asbasbasbag62
(g78
g64
NtRp1541
(dp1542
g67
(dp1543
sg76
g1012
sg69
(lp1544
g62
(g83
g64
NtRp1545
(dp1546
g67
(dp1547
g87
g88
ssg76
g1541
sg69
(lp1548
S'server_protocol'
p1549
asbag62
(g83
g64
NtRp1550
(dp1551
g67
(dp1552
g94
g95
ssg76
g1541
sg69
(lp1553
S':'
asbag62
(g83
g64
NtRp1554
(dp1555
g67
(dp1556
sg76
g1541
sg69
(lp1557
g62
(g63
g64
NtRp1558
(dp1559
g67
(dp1560
g75
I4
ssg76
g1554
sg69
(lp1561
S'HTTP/1.1'
p1562
asbasbasbag62
(g78
g64
NtRp1563
(dp1564
g67
(dp1565
sg76
g1012
sg69
(lp1566
g62
(g83
g64
NtRp1567
(dp1568
g67
(dp1569
g87
g88
ssg76
g1563
sg69
(lp1570
S'server_software'
p1571
asbag62
(g83
g64
NtRp1572
(dp1573
g67
(dp1574
g94
g95
ssg76
g1563
sg69
(lp1575
S':'
asbag62
(g83
g64
NtRp1576
(dp1577
g67
(dp1578
sg76
g1563
sg69
(lp1579
g62
(g63
g64
NtRp1580
(dp1581
g67
(dp1582
g75
I4
ssg76
g1576
sg69
(lp1583
S'Rocket 1.2.4'
p1584
asbasbasbag62
(g78
g64
NtRp1585
(dp1586
g67
(dp1587
sg76
g1012
sg69
(lp1588
g62
(g83
g64
NtRp1589
(dp1590
g67
(dp1591
g87
g88
ssg76
g1585
sg69
(lp1592
S'web2py_crontype'
p1593
asbag62
(g83
g64
NtRp1594
(dp1595
g67
(dp1596
g94
g95
ssg76
g1585
sg69
(lp1597
S':'
asbag62
(g83
g64
NtRp1598
(dp1599
g67
(dp1600
sg76
g1585
sg69
(lp1601
g62
(g63
g64
NtRp1602
(dp1603
g67
(dp1604
g75
I4
ssg76
g1598
sg69
(lp1605
S'hard'
p1606
asbasbasbag62
(g78
g64
NtRp1607
(dp1608
g67
(dp1609
sg76
g1012
sg69
(lp1610
g62
(g83
g64
NtRp1611
(dp1612
g67
(dp1613
g87
g88
ssg76
g1607
sg69
(lp1614
S'web2py_path'
p1615
asbag62
(g83
g64
NtRp1616
(dp1617
g67
(dp1618
g94
g95
ssg76
g1607
sg69
(lp1619
S':'
asbag62
(g83
g64
NtRp1620
(dp1621
g67
(dp1622
sg76
g1607
sg69
(lp1623
g62
(g63
g64
NtRp1624
(dp1625
g67
(dp1626
g75
I4
ssg76
g1620
sg69
(lp1627
g1059
asbasbasbag62
(g78
g64
NtRp1628
(dp1629
g67
(dp1630
sg76
g1012
sg69
(lp1631
g62
(g83
g64
NtRp1632
(dp1633
g67
(dp1634
g87
g88
ssg76
g1628
sg69
(lp1635
S'web2py_version'
p1636
asbag62
(g83
g64
NtRp1637
(dp1638
g67
(dp1639
g94
g95
ssg76
g1628
sg69
(lp1640
S':'
asbag62
(g83
g64
NtRp1641
(dp1642
g67
(dp1643
sg76
g1628
sg69
(lp1644
g62
(g63
g64
NtRp1645
(dp1646
g67
(dp1647
g75
I4
ssg76
g1641
sg69
(lp1648
g62
(g71
g64
NtRp1649
(dp1650
g67
(dp1651
g75
I3
ssg76
Nsg69
(lp1652
g62
(g78
g64
NtRp1653
(dp1654
g67
(dp1655
sg76
g1649
sg69
(lp1656
g62
(g83
g64
NtRp1657
(dp1658
g67
(dp1659
sg76
g1653
sg69
(lp1660
g62
(g63
g64
NtRp1661
(dp1662
g67
(dp1663
g75
I3
ssg76
g1657
sg69
(lp1664
S'1'
asbasbasbag62
(g78
g64
NtRp1665
(dp1666
g67
(dp1667
sg76
g1649
sg69
(lp1668
g62
(g83
g64
NtRp1669
(dp1670
g67
(dp1671
sg76
g1665
sg69
(lp1672
g62
(g63
g64
NtRp1673
(dp1674
g67
(dp1675
g75
I3
ssg76
g1669
sg69
(lp1676
S'99'
p1677
asbasbasbag62
(g78
g64
NtRp1678
(dp1679
g67
(dp1680
sg76
g1649
sg69
(lp1681
g62
(g83
g64
NtRp1682
(dp1683
g67
(dp1684
sg76
g1678
sg69
(lp1685
g62
(g63
g64
NtRp1686
(dp1687
g67
(dp1688
g75
I3
ssg76
g1682
sg69
(lp1689
S'7'
asbasbasbag62
(g78
g64
NtRp1690
(dp1691
g67
(dp1692
sg76
g1649
sg69
(lp1693
g62
(g83
g64
NtRp1694
(dp1695
g67
(dp1696
sg76
g1690
sg69
(lp1697
g62
(g63
g64
NtRp1698
(dp1699
g67
(dp1700
g75
I3
ssg76
g1694
sg69
(lp1701
S'datetime.datetime(2012, 3, 4, 22, 12, 8)'
p1702
asbasbasbag62
(g78
g64
NtRp1703
(dp1704
g67
(dp1705
sg76
g1649
sg69
(lp1706
g62
(g83
g64
NtRp1707
(dp1708
g67
(dp1709
sg76
g1703
sg69
(lp1710
g62
(g63
g64
NtRp1711
(dp1712
g67
(dp1713
g75
I3
ssg76
g1707
sg69
(lp1714
S'stable'
p1715
asbasbasbasbasbasbasbag62
(g78
g64
NtRp1716
(dp1717
g67
(dp1718
sg76
g1012
sg69
(lp1719
g62
(g83
g64
NtRp1720
(dp1721
g67
(dp1722
g87
g88
ssg76
g1716
sg69
(lp1723
S'wsgi_errors'
p1724
asbag62
(g83
g64
NtRp1725
(dp1726
g67
(dp1727
g94
g95
ssg76
g1716
sg69
(lp1728
S':'
asbag62
(g83
g64
NtRp1729
(dp1730
g67
(dp1731
sg76
g1716
sg69
(lp1732
g62
(g63
g64
NtRp1733
(dp1734
g67
(dp1735
g75
I4
ssg76
g1729
sg69
(lp1736
S"<open file '<stderr>', mode 'w' at 0x7fbdb8040270>"
p1737
asbasbasbag62
(g78
g64
NtRp1738
(dp1739
g67
(dp1740
sg76
g1012
sg69
(lp1741
g62
(g83
g64
NtRp1742
(dp1743
g67
(dp1744
g87
g88
ssg76
g1738
sg69
(lp1745
S'wsgi_file_wrapper'
p1746
asbag62
(g83
g64
NtRp1747
(dp1748
g67
(dp1749
g94
g95
ssg76
g1738
sg69
(lp1750
S':'
asbag62
(g83
g64
NtRp1751
(dp1752
g67
(dp1753
sg76
g1738
sg69
(lp1754
g62
(g63
g64
NtRp1755
(dp1756
g67
(dp1757
g75
I4
ssg76
g1751
sg69
(lp1758
S'<class wsgiref.util.FileWrapper at 0x2ac6120>'
p1759
asbasbasbag62
(g78
g64
NtRp1760
(dp1761
g67
(dp1762
sg76
g1012
sg69
(lp1763
g62
(g83
g64
NtRp1764
(dp1765
g67
(dp1766
g87
g88
ssg76
g1760
sg69
(lp1767
S'wsgi_input'
p1768
asbag62
(g83
g64
NtRp1769
(dp1770
g67
(dp1771
g94
g95
ssg76
g1760
sg69
(lp1772
S':'
asbag62
(g83
g64
NtRp1773
(dp1774
g67
(dp1775
sg76
g1760
sg69
(lp1776
g62
(g63
g64
NtRp1777
(dp1778
g67
(dp1779
g75
I4
ssg76
g1773
sg69
(lp1780
S'<socket._fileobject object at 0x7fbd9c2055d0>'
p1781
asbasbasbag62
(g78
g64
NtRp1782
(dp1783
g67
(dp1784
sg76
g1012
sg69
(lp1785
g62
(g83
g64
NtRp1786
(dp1787
g67
(dp1788
g87
g88
ssg76
g1782
sg69
(lp1789
S'wsgi_multiprocess'
p1790
asbag62
(g83
g64
NtRp1791
(dp1792
g67
(dp1793
g94
g95
ssg76
g1782
sg69
(lp1794
S':'
asbag62
(g83
g64
NtRp1795
(dp1796
g67
(dp1797
sg76
g1782
sg69
(lp1798
g62
(g63
g64
NtRp1799
(dp1800
g67
(dp1801
g75
I4
ssg76
g1795
sg69
(lp1802
g105
asbasbasbag62
(g78
g64
NtRp1803
(dp1804
g67
(dp1805
sg76
g1012
sg69
(lp1806
g62
(g83
g64
NtRp1807
(dp1808
g67
(dp1809
g87
g88
ssg76
g1803
sg69
(lp1810
S'wsgi_multithread'
p1811
asbag62
(g83
g64
NtRp1812
(dp1813
g67
(dp1814
g94
g95
ssg76
g1803
sg69
(lp1815
S':'
asbag62
(g83
g64
NtRp1816
(dp1817
g67
(dp1818
sg76
g1803
sg69
(lp1819
g62
(g63
g64
NtRp1820
(dp1821
g67
(dp1822
g75
I4
ssg76
g1816
sg69
(lp1823
S'True'
p1824
asbasbasbag62
(g78
g64
NtRp1825
(dp1826
g67
(dp1827
sg76
g1012
sg69
(lp1828
g62
(g83
g64
NtRp1829
(dp1830
g67
(dp1831
g87
g88
ssg76
g1825
sg69
(lp1832
S'wsgi_run_once'
p1833
asbag62
(g83
g64
NtRp1834
(dp1835
g67
(dp1836
g94
g95
ssg76
g1825
sg69
(lp1837
S':'
asbag62
(g83
g64
NtRp1838
(dp1839
g67
(dp1840
sg76
g1825
sg69
(lp1841
g62
(g63
g64
NtRp1842
(dp1843
g67
(dp1844
g75
I4
ssg76
g1838
sg69
(lp1845
g105
asbasbasbag62
(g78
g64
NtRp1846
(dp1847
g67
(dp1848
sg76
g1012
sg69
(lp1849
g62
(g83
g64
NtRp1850
(dp1851
g67
(dp1852
g87
g88
ssg76
g1846
sg69
(lp1853
S'wsgi_url_scheme'
p1854
asbag62
(g83
g64
NtRp1855
(dp1856
g67
(dp1857
g94
g95
ssg76
g1846
sg69
(lp1858
S':'
asbag62
(g83
g64
NtRp1859
(dp1860
g67
(dp1861
sg76
g1846
sg69
(lp1862
g62
(g63
g64
NtRp1863
(dp1864
g67
(dp1865
g75
I4
ssg76
g1859
sg69
(lp1866
S'http'
p1867
asbasbasbag62
(g78
g64
NtRp1868
(dp1869
g67
(dp1870
sg76
g1012
sg69
(lp1871
g62
(g83
g64
NtRp1872
(dp1873
g67
(dp1874
g87
g88
ssg76
g1868
sg69
(lp1875
S'wsgi_version'
p1876
asbag62
(g83
g64
NtRp1877
(dp1878
g67
(dp1879
g94
g95
ssg76
g1868
sg69
(lp1880
S':'
asbag62
(g83
g64
NtRp1881
(dp1882
g67
(dp1883
sg76
g1868
sg69
(lp1884
g62
(g63
g64
NtRp1885
(dp1886
g67
(dp1887
g75
I4
ssg76
g1881
sg69
(lp1888
g62
(g71
g64
NtRp1889
(dp1890
g67
(dp1891
g75
I3
ssg76
Nsg69
(lp1892
g62
(g78
g64
NtRp1893
(dp1894
g67
(dp1895
sg76
g1889
sg69
(lp1896
g62
(g83
g64
NtRp1897
(dp1898
g67
(dp1899
sg76
g1893
sg69
(lp1900
g62
(g63
g64
NtRp1901
(dp1902
g67
(dp1903
g75
I3
ssg76
g1897
sg69
(lp1904
S'1'
asbasbasbag62
(g78
g64
NtRp1905
(dp1906
g67
(dp1907
sg76
g1889
sg69
(lp1908
g62
(g83
g64
NtRp1909
(dp1910
g67
(dp1911
sg76
g1905
sg69
(lp1912
g62
(g63
g64
NtRp1913
(dp1914
g67
(dp1915
g75
I3
ssg76
g1909
sg69
(lp1916
S'0'
asbasbasbasbasbasbasbasbasbasbasbag62
(g78
g64
NtRp1917
(dp1918
g67
(dp1919
sg76
g72
sg69
(lp1920
g62
(g83
g64
NtRp1921
(dp1922
g67
(dp1923
g87
g88
ssg76
g1917
sg69
(lp1924
S'extension'
p1925
asbag62
(g83
g64
NtRp1926
(dp1927
g67
(dp1928
g94
g95
ssg76
g1917
sg69
(lp1929
S':'
asbag62
(g83
g64
NtRp1930
(dp1931
g67
(dp1932
sg76
g1917
sg69
(lp1933
g62
(g63
g64
NtRp1934
(dp1935
g67
(dp1936
g75
I5
ssg76
g1930
sg69
(lp1937
S'html'
p1938
asbasbasbag62
(g78
g64
NtRp1939
(dp1940
g67
(dp1941
sg76
g72
sg69
(lp1942
g62
(g83
g64
NtRp1943
(dp1944
g67
(dp1945
g87
g88
ssg76
g1939
sg69
(lp1946
S'folder'
p1947
asbag62
(g83
g64
NtRp1948
(dp1949
g67
(dp1950
g94
g95
ssg76
g1939
sg69
(lp1951
S':'
asbag62
(g83
g64
NtRp1952
(dp1953
g67
(dp1954
sg76
g1939
sg69
(lp1955
g62
(g63
g64
NtRp1956
(dp1957
g67
(dp1958
g75
I5
ssg76
g1952
sg69
(lp1959
S'/home/chitra/courses/SSAD/web2py/applications/cite_m5/'
p1960
asbasbasbag62
(g78
g64
NtRp1961
(dp1962
g67
(dp1963
sg76
g72
sg69
(lp1964
g62
(g83
g64
NtRp1965
(dp1966
g67
(dp1967
g87
g88
ssg76
g1961
sg69
(lp1968
S'function'
p1969
asbag62
(g83
g64
NtRp1970
(dp1971
g67
(dp1972
g94
g95
ssg76
g1961
sg69
(lp1973
S':'
asbag62
(g83
g64
NtRp1974
(dp1975
g67
(dp1976
sg76
g1961
sg69
(lp1977
g62
(g63
g64
NtRp1978
(dp1979
g67
(dp1980
g75
I5
ssg76
g1974
sg69
(lp1981
S'final_ans'
p1982
asbasbasbag62
(g78
g64
NtRp1983
(dp1984
g67
(dp1985
sg76
g72
sg69
(lp1986
g62
(g83
g64
NtRp1987
(dp1988
g67
(dp1989
g87
g88
ssg76
g1983
sg69
(lp1990
S'get_vars'
p1991
asbag62
(g83
g64
NtRp1992
(dp1993
g67
(dp1994
g94
g95
ssg76
g1983
sg69
(lp1995
S':'
asbag62
(g83
g64
NtRp1996
(dp1997
g67
(dp1998
sg76
g1983
sg69
(lp1999
g62
(g63
g64
NtRp2000
(dp2001
g67
(dp2002
g75
I5
ssg76
g1996
sg69
(lp2003
g62
(g71
g64
NtRp2004
(dp2005
g67
(dp2006
g75
I4
ssg76
Nsg69
(lp2007
sbasbasbasbag62
(g78
g64
NtRp2008
(dp2009
g67
(dp2010
sg76
g72
sg69
(lp2011
g62
(g83
g64
NtRp2012
(dp2013
g67
(dp2014
g87
g88
ssg76
g2008
sg69
(lp2015
S'global_settings'
p2016
asbag62
(g83
g64
NtRp2017
(dp2018
g67
(dp2019
g94
g95
ssg76
g2008
sg69
(lp2020
S':'
asbag62
(g83
g64
NtRp2021
(dp2022
g67
(dp2023
sg76
g2008
sg69
(lp2024
g62
(g63
g64
NtRp2025
(dp2026
g67
(dp2027
g75
I5
ssg76
g2021
sg69
(lp2028
g62
(g71
g64
NtRp2029
(dp2030
g67
(dp2031
g75
I4
ssg76
Nsg69
(lp2032
g62
(g78
g64
NtRp2033
(dp2034
g67
(dp2035
sg76
g2029
sg69
(lp2036
g62
(g83
g64
NtRp2037
(dp2038
g67
(dp2039
g87
g88
ssg76
g2033
sg69
(lp2040
g1024
asbag62
(g83
g64
NtRp2041
(dp2042
g67
(dp2043
g94
g95
ssg76
g2033
sg69
(lp2044
S':'
asbag62
(g83
g64
NtRp2045
(dp2046
g67
(dp2047
sg76
g2033
sg69
(lp2048
g62
(g63
g64
NtRp2049
(dp2050
g67
(dp2051
g75
I4
ssg76
g2045
sg69
(lp2052
S"set(['/home/chitra/courses/SSAD/web2py/applications/cite_m22/', '/home/chitra/courses/SSAD/web2py/applications/welcome/', '/home/chitra/courses/SSAD/web2py/applications/cite_m5/', '/home/chitra/courses/SSAD/web2py/applications/admin/'])"
p2053
asbasbasbag62
(g78
g64
NtRp2054
(dp2055
g67
(dp2056
sg76
g2029
sg69
(lp2057
g62
(g83
g64
NtRp2058
(dp2059
g67
(dp2060
g87
g88
ssg76
g2054
sg69
(lp2061
g1046
asbag62
(g83
g64
NtRp2062
(dp2063
g67
(dp2064
g94
g95
ssg76
g2054
sg69
(lp2065
S':'
asbag62
(g83
g64
NtRp2066
(dp2067
g67
(dp2068
sg76
g2054
sg69
(lp2069
g62
(g63
g64
NtRp2070
(dp2071
g67
(dp2072
g75
I4
ssg76
g2066
sg69
(lp2073
g1059
asbasbasbag62
(g78
g64
NtRp2074
(dp2075
g67
(dp2076
sg76
g2029
sg69
(lp2077
g62
(g83
g64
NtRp2078
(dp2079
g67
(dp2080
g87
g88
ssg76
g2074
sg69
(lp2081
g1068
asbag62
(g83
g64
NtRp2082
(dp2083
g67
(dp2084
g94
g95
ssg76
g2074
sg69
(lp2085
S':'
asbag62
(g83
g64
NtRp2086
(dp2087
g67
(dp2088
sg76
g2074
sg69
(lp2089
g62
(g63
g64
NtRp2090
(dp2091
g67
(dp2092
g75
I4
ssg76
g2086
sg69
(lp2093
g62
(g71
g64
NtRp2094
(dp2095
g67
(dp2096
g75
I3
ssg76
Nsg69
(lp2097
sbasbasbasbag62
(g78
g64
NtRp2098
(dp2099
g67
(dp2100
sg76
g2029
sg69
(lp2101
g62
(g83
g64
NtRp2102
(dp2103
g67
(dp2104
g87
g88
ssg76
g2098
sg69
(lp2105
g1093
asbag62
(g83
g64
NtRp2106
(dp2107
g67
(dp2108
g94
g95
ssg76
g2098
sg69
(lp2109
S':'
asbag62
(g83
g64
NtRp2110
(dp2111
g67
(dp2112
sg76
g2098
sg69
(lp2113
g62
(g63
g64
NtRp2114
(dp2115
g67
(dp2116
g75
I4
ssg76
g2110
sg69
(lp2117
S"<Values at 0x2bd8b48: {'verbose': False, 'ip': '127.0.0.1', 'shutdown_timeout': 5, 'taskbar': False, 'nocron': False, 'pid_filename': 'httpserver.pid', 'maxthreads': None, 'softcron': False, 'server_name': 'chitra-HP-Pavilion-dv6-Notebook-PC', 'bpython': False, 'nogui': False, 'port': 8000, 'extcron': False, 'debuglevel': 30, 'test': None, 'folder': '/home/chitra/courses/SSAD/web2py', 'config': '', 'import_models': False, 'winservice': '', 'shell': None, 'run': '', 'log_filename': 'httpserver.log', 'args': [''], 'socket_timeout': 5, 'ssl_ca_certificate': None, 'scheduler': None, 'profiler_filename': None, 'ssl_private_key': '', 'password': '<ask>', 'request_queue_size': 5, 'ssl_certificate': '', 'cronjob': False, 'numthreads': None, 'quiet': False, 'interfaces': None, 'minthreads': None, 'timeout': 10, 'plain': False, 'nobanner': False}>"
p2118
asbasbasbag62
(g78
g64
NtRp2119
(dp2120
g67
(dp2121
sg76
g2029
sg69
(lp2122
g62
(g83
g64
NtRp2123
(dp2124
g67
(dp2125
g87
g88
ssg76
g2119
sg69
(lp2126
g1115
asbag62
(g83
g64
NtRp2127
(dp2128
g67
(dp2129
g94
g95
ssg76
g2119
sg69
(lp2130
S':'
asbag62
(g83
g64
NtRp2131
(dp2132
g67
(dp2133
sg76
g2119
sg69
(lp2134
g62
(g63
g64
NtRp2135
(dp2136
g67
(dp2137
g75
I4
ssg76
g2131
sg69
(lp2138
S'set([])'
p2139
asbasbasbag62
(g78
g64
NtRp2140
(dp2141
g67
(dp2142
sg76
g2029
sg69
(lp2143
g62
(g83
g64
NtRp2144
(dp2145
g67
(dp2146
g87
g88
ssg76
g2140
sg69
(lp2147
g1137
asbag62
(g83
g64
NtRp2148
(dp2149
g67
(dp2150
g94
g95
ssg76
g2140
sg69
(lp2151
S':'
asbag62
(g83
g64
NtRp2152
(dp2153
g67
(dp2154
sg76
g2140
sg69
(lp2155
g62
(g63
g64
NtRp2156
(dp2157
g67
(dp2158
g75
I4
ssg76
g2152
sg69
(lp2159
g105
asbasbasbag62
(g78
g64
NtRp2160
(dp2161
g67
(dp2162
sg76
g2029
sg69
(lp2163
g62
(g83
g64
NtRp2164
(dp2165
g67
(dp2166
g87
g88
ssg76
g2160
sg69
(lp2167
g1158
asbag62
(g83
g64
NtRp2168
(dp2169
g67
(dp2170
g94
g95
ssg76
g2160
sg69
(lp2171
S':'
asbag62
(g83
g64
NtRp2172
(dp2173
g67
(dp2174
sg76
g2160
sg69
(lp2175
g62
(g63
g64
NtRp2176
(dp2177
g67
(dp2178
g75
I4
ssg76
g2172
sg69
(lp2179
g1171
asbasbasbag62
(g78
g64
NtRp2180
(dp2181
g67
(dp2182
sg76
g2029
sg69
(lp2183
g62
(g83
g64
NtRp2184
(dp2185
g67
(dp2186
g87
g88
ssg76
g2180
sg69
(lp2187
g1334
asbag62
(g83
g64
NtRp2188
(dp2189
g67
(dp2190
g94
g95
ssg76
g2180
sg69
(lp2191
S':'
asbag62
(g83
g64
NtRp2192
(dp2193
g67
(dp2194
sg76
g2180
sg69
(lp2195
g62
(g63
g64
NtRp2196
(dp2197
g67
(dp2198
g75
I4
ssg76
g2192
sg69
(lp2199
g105
asbasbasbag62
(g78
g64
NtRp2200
(dp2201
g67
(dp2202
sg76
g2029
sg69
(lp2203
g62
(g83
g64
NtRp2204
(dp2205
g67
(dp2206
g87
g88
ssg76
g2200
sg69
(lp2207
g1355
asbag62
(g83
g64
NtRp2208
(dp2209
g67
(dp2210
g94
g95
ssg76
g2200
sg69
(lp2211
S':'
asbag62
(g83
g64
NtRp2212
(dp2213
g67
(dp2214
sg76
g2200
sg69
(lp2215
g62
(g63
g64
NtRp2216
(dp2217
g67
(dp2218
g75
I4
ssg76
g2212
sg69
(lp2219
g105
asbasbasbag62
(g78
g64
NtRp2220
(dp2221
g67
(dp2222
sg76
g2029
sg69
(lp2223
g62
(g83
g64
NtRp2224
(dp2225
g67
(dp2226
g87
g88
ssg76
g2220
sg69
(lp2227
g1593
asbag62
(g83
g64
NtRp2228
(dp2229
g67
(dp2230
g94
g95
ssg76
g2220
sg69
(lp2231
S':'
asbag62
(g83
g64
NtRp2232
(dp2233
g67
(dp2234
sg76
g2220
sg69
(lp2235
g62
(g63
g64
NtRp2236
(dp2237
g67
(dp2238
g75
I4
ssg76
g2232
sg69
(lp2239
g1606
asbasbasbag62
(g78
g64
NtRp2240
(dp2241
g67
(dp2242
sg76
g2029
sg69
(lp2243
g62
(g83
g64
NtRp2244
(dp2245
g67
(dp2246
g87
g88
ssg76
g2240
sg69
(lp2247
g1636
asbag62
(g83
g64
NtRp2248
(dp2249
g67
(dp2250
g94
g95
ssg76
g2240
sg69
(lp2251
S':'
asbag62
(g83
g64
NtRp2252
(dp2253
g67
(dp2254
sg76
g2240
sg69
(lp2255
g62
(g63
g64
NtRp2256
(dp2257
g67
(dp2258
g75
I4
ssg76
g2252
sg69
(lp2259
g62
(g71
g64
NtRp2260
(dp2261
g67
(dp2262
g75
I3
ssg76
Nsg69
(lp2263
g62
(g78
g64
NtRp2264
(dp2265
g67
(dp2266
sg76
g2260
sg69
(lp2267
g62
(g83
g64
NtRp2268
(dp2269
g67
(dp2270
sg76
g2264
sg69
(lp2271
g62
(g63
g64
NtRp2272
(dp2273
g67
(dp2274
g75
I3
ssg76
g2268
sg69
(lp2275
S'1'
asbasbasbag62
(g78
g64
NtRp2276
(dp2277
g67
(dp2278
sg76
g2260
sg69
(lp2279
g62
(g83
g64
NtRp2280
(dp2281
g67
(dp2282
sg76
g2276
sg69
(lp2283
g62
(g63
g64
NtRp2284
(dp2285
g67
(dp2286
g75
I3
ssg76
g2280
sg69
(lp2287
S'99'
p2288
asbasbasbag62
(g78
g64
NtRp2289
(dp2290
g67
(dp2291
sg76
g2260
sg69
(lp2292
g62
(g83
g64
NtRp2293
(dp2294
g67
(dp2295
sg76
g2289
sg69
(lp2296
g62
(g63
g64
NtRp2297
(dp2298
g67
(dp2299
g75
I3
ssg76
g2293
sg69
(lp2300
S'7'
asbasbasbag62
(g78
g64
NtRp2301
(dp2302
g67
(dp2303
sg76
g2260
sg69
(lp2304
g62
(g83
g64
NtRp2305
(dp2306
g67
(dp2307
sg76
g2301
sg69
(lp2308
g62
(g63
g64
NtRp2309
(dp2310
g67
(dp2311
g75
I3
ssg76
g2305
sg69
(lp2312
S'datetime.datetime(2012, 3, 4, 22, 12, 8)'
p2313
asbasbasbag62
(g78
g64
NtRp2314
(dp2315
g67
(dp2316
sg76
g2260
sg69
(lp2317
g62
(g83
g64
NtRp2318
(dp2319
g67
(dp2320
sg76
g2314
sg69
(lp2321
g62
(g63
g64
NtRp2322
(dp2323
g67
(dp2324
g75
I3
ssg76
g2318
sg69
(lp2325
g1715
asbasbasbasbasbasbasbasbasbasbasbag62
(g78
g64
NtRp2326
(dp2327
g67
(dp2328
sg76
g72
sg69
(lp2329
g62
(g83
g64
NtRp2330
(dp2331
g67
(dp2332
g87
g88
ssg76
g2326
sg69
(lp2333
S'is_https'
p2334
asbag62
(g83
g64
NtRp2335
(dp2336
g67
(dp2337
g94
g95
ssg76
g2326
sg69
(lp2338
S':'
asbag62
(g83
g64
NtRp2339
(dp2340
g67
(dp2341
sg76
g2326
sg69
(lp2342
g62
(g63
g64
NtRp2343
(dp2344
g67
(dp2345
g75
I5
ssg76
g2339
sg69
(lp2346
g105
asbasbasbag62
(g78
g64
NtRp2347
(dp2348
g67
(dp2349
sg76
g72
sg69
(lp2350
g62
(g83
g64
NtRp2351
(dp2352
g67
(dp2353
g87
g88
ssg76
g2347
sg69
(lp2354
S'is_local'
p2355
asbag62
(g83
g64
NtRp2356
(dp2357
g67
(dp2358
g94
g95
ssg76
g2347
sg69
(lp2359
S':'
asbag62
(g83
g64
NtRp2360
(dp2361
g67
(dp2362
sg76
g2347
sg69
(lp2363
g62
(g63
g64
NtRp2364
(dp2365
g67
(dp2366
g75
I5
ssg76
g2360
sg69
(lp2367
g1824
asbasbasbag62
(g78
g64
NtRp2368
(dp2369
g67
(dp2370
sg76
g72
sg69
(lp2371
g62
(g83
g64
NtRp2372
(dp2373
g67
(dp2374
g87
g88
ssg76
g2368
sg69
(lp2375
S'is_restful'
p2376
asbag62
(g83
g64
NtRp2377
(dp2378
g67
(dp2379
g94
g95
ssg76
g2368
sg69
(lp2380
S':'
asbag62
(g83
g64
NtRp2381
(dp2382
g67
(dp2383
sg76
g2368
sg69
(lp2384
g62
(g63
g64
NtRp2385
(dp2386
g67
(dp2387
g75
I5
ssg76
g2381
sg69
(lp2388
g105
asbasbasbag62
(g78
g64
NtRp2389
(dp2390
g67
(dp2391
sg76
g72
sg69
(lp2392
g62
(g83
g64
NtRp2393
(dp2394
g67
(dp2395
g87
g88
ssg76
g2389
sg69
(lp2396
S'now'
p2397
asbag62
(g83
g64
NtRp2398
(dp2399
g67
(dp2400
g94
g95
ssg76
g2389
sg69
(lp2401
S':'
asbag62
(g83
g64
NtRp2402
(dp2403
g67
(dp2404
sg76
g2389
sg69
(lp2405
g62
(g63
g64
NtRp2406
(dp2407
g67
(dp2408
g75
I5
ssg76
g2402
sg69
(lp2409
S'datetime.datetime(2012, 11, 12, 1, 47, 27, 730585)'
p2410
asbasbasbag62
(g78
g64
NtRp2411
(dp2412
g67
(dp2413
sg76
g72
sg69
(lp2414
g62
(g83
g64
NtRp2415
(dp2416
g67
(dp2417
g87
g88
ssg76
g2411
sg69
(lp2418
S'post_vars'
p2419
asbag62
(g83
g64
NtRp2420
(dp2421
g67
(dp2422
g94
g95
ssg76
g2411
sg69
(lp2423
S':'
asbag62
(g83
g64
NtRp2424
(dp2425
g67
(dp2426
sg76
g2411
sg69
(lp2427
g62
(g63
g64
NtRp2428
(dp2429
g67
(dp2430
g75
I5
ssg76
g2424
sg69
(lp2431
g62
(g71
g64
NtRp2432
(dp2433
g67
(dp2434
g75
I4
ssg76
Nsg69
(lp2435
sbasbasbasbag62
(g78
g64
NtRp2436
(dp2437
g67
(dp2438
sg76
g72
sg69
(lp2439
g62
(g83
g64
NtRp2440
(dp2441
g67
(dp2442
g87
g88
ssg76
g2436
sg69
(lp2443
S'url'
p2444
asbag62
(g83
g64
NtRp2445
(dp2446
g67
(dp2447
g94
g95
ssg76
g2436
sg69
(lp2448
S':'
asbag62
(g83
g64
NtRp2449
(dp2450
g67
(dp2451
sg76
g2436
sg69
(lp2452
g62
(g63
g64
NtRp2453
(dp2454
g67
(dp2455
g75
I5
ssg76
g2449
sg69
(lp2456
S'/cite_m5/default/final_ans'
p2457
asbasbasbag62
(g78
g64
NtRp2458
(dp2459
g67
(dp2460
sg76
g72
sg69
(lp2461
g62
(g83
g64
NtRp2462
(dp2463
g67
(dp2464
g87
g88
ssg76
g2458
sg69
(lp2465
S'utcnow'
p2466
asbag62
(g83
g64
NtRp2467
(dp2468
g67
(dp2469
g94
g95
ssg76
g2458
sg69
(lp2470
S':'
asbag62
(g83
g64
NtRp2471
(dp2472
g67
(dp2473
sg76
g2458
sg69
(lp2474
g62
(g63
g64
NtRp2475
(dp2476
g67
(dp2477
g75
I5
ssg76
g2471
sg69
(lp2478
S'datetime.datetime(2012, 11, 11, 20, 17, 27, 730623)'
p2479
asbasbasbag62
(g78
g64
NtRp2480
(dp2481
g67
(dp2482
sg76
g72
sg69
(lp2483
g62
(g83
g64
NtRp2484
(dp2485
g67
(dp2486
g87
g88
ssg76
g2480
sg69
(lp2487
S'uuid'
p2488
asbag62
(g83
g64
NtRp2489
(dp2490
g67
(dp2491
g94
g95
ssg76
g2480
sg69
(lp2492
S':'
asbag62
(g83
g64
NtRp2493
(dp2494
g67
(dp2495
sg76
g2480
sg69
(lp2496
g62
(g63
g64
NtRp2497
(dp2498
g67
(dp2499
g75
I5
ssg76
g2493
sg69
(lp2500
S'cite_m5/127.0.0.1.2012-11-12.01-47-27.6c72f449-c147-4b33-a094-35f961bdbc58'
p2501
asbasbasbag62
(g78
g64
NtRp2502
(dp2503
g67
(dp2504
sg76
g72
sg69
(lp2505
g62
(g83
g64
NtRp2506
(dp2507
g67
(dp2508
g87
g88
ssg76
g2502
sg69
(lp2509
S'vars'
p2510
asbag62
(g83
g64
NtRp2511
(dp2512
g67
(dp2513
g94
g95
ssg76
g2502
sg69
(lp2514
S':'
asbag62
(g83
g64
NtRp2515
(dp2516
g67
(dp2517
sg76
g2502
sg69
(lp2518
g62
(g63
g64
NtRp2519
(dp2520
g67
(dp2521
g75
I5
ssg76
g2515
sg69
(lp2522
g62
(g71
g64
NtRp2523
(dp2524
g67
(dp2525
g75
I4
ssg76
Nsg69
(lp2526
sbasbasbasbag62
(g78
g64
NtRp2527
(dp2528
g67
(dp2529
sg76
g72
sg69
(lp2530
g62
(g83
g64
NtRp2531
(dp2532
g67
(dp2533
g87
g88
ssg76
g2527
sg69
(lp2534
S'wsgi'
p2535
asbag62
(g83
g64
NtRp2536
(dp2537
g67
(dp2538
g94
g95
ssg76
g2527
sg69
(lp2539
S':'
asbag62
(g83
g64
NtRp2540
(dp2541
g67
(dp2542
sg76
g2527
sg69
(lp2543
g62
(g63
g64
NtRp2544
(dp2545
g67
(dp2546
g75
I5
ssg76
g2540
sg69
(lp2547
g62
(g71
g64
NtRp2548
(dp2549
g67
(dp2550
g75
I4
ssg76
Nsg69
(lp2551
g62
(g78
g64
NtRp2552
(dp2553
g67
(dp2554
sg76
g2548
sg69
(lp2555
g62
(g83
g64
NtRp2556
(dp2557
g67
(dp2558
g87
g88
ssg76
g2552
sg69
(lp2559
S'environ'
p2560
asbag62
(g83
g64
NtRp2561
(dp2562
g67
(dp2563
g94
g95
ssg76
g2552
sg69
(lp2564
S':'
asbag62
(g83
g64
NtRp2565
(dp2566
g67
(dp2567
sg76
g2552
sg69
(lp2568
g62
(g63
g64
NtRp2569
(dp2570
g67
(dp2571
g75
I4
ssg76
g2565
sg69
(lp2572
g62
(g71
g64
NtRp2573
(dp2574
g67
(dp2575
g75
I3
ssg76
Nsg69
(lp2576
g62
(g78
g64
NtRp2577
(dp2578
g67
(dp2579
sg76
g2573
sg69
(lp2580
g62
(g83
g64
NtRp2581
(dp2582
g67
(dp2583
g87
g88
ssg76
g2577
sg69
(lp2584
S'HTTP_ACCEPT'
p2585
asbag62
(g83
g64
NtRp2586
(dp2587
g67
(dp2588
g94
g95
ssg76
g2577
sg69
(lp2589
S':'
asbag62
(g83
g64
NtRp2590
(dp2591
g67
(dp2592
sg76
g2577
sg69
(lp2593
g62
(g63
g64
NtRp2594
(dp2595
g67
(dp2596
g75
I3
ssg76
g2590
sg69
(lp2597
g1193
asbasbasbag62
(g78
g64
NtRp2598
(dp2599
g67
(dp2600
sg76
g2573
sg69
(lp2601
g62
(g83
g64
NtRp2602
(dp2603
g67
(dp2604
g87
g88
ssg76
g2598
sg69
(lp2605
S'HTTP_ACCEPT_ENCODING'
p2606
asbag62
(g83
g64
NtRp2607
(dp2608
g67
(dp2609
g94
g95
ssg76
g2598
sg69
(lp2610
S':'
asbag62
(g83
g64
NtRp2611
(dp2612
g67
(dp2613
sg76
g2598
sg69
(lp2614
g62
(g63
g64
NtRp2615
(dp2616
g67
(dp2617
g75
I3
ssg76
g2611
sg69
(lp2618
g1215
asbasbasbag62
(g78
g64
NtRp2619
(dp2620
g67
(dp2621
sg76
g2573
sg69
(lp2622
g62
(g83
g64
NtRp2623
(dp2624
g67
(dp2625
g87
g88
ssg76
g2619
sg69
(lp2626
S'HTTP_ACCEPT_LANGUAGE'
p2627
asbag62
(g83
g64
NtRp2628
(dp2629
g67
(dp2630
g94
g95
ssg76
g2619
sg69
(lp2631
S':'
asbag62
(g83
g64
NtRp2632
(dp2633
g67
(dp2634
sg76
g2619
sg69
(lp2635
g62
(g63
g64
NtRp2636
(dp2637
g67
(dp2638
g75
I3
ssg76
g2632
sg69
(lp2639
g1237
asbasbasbag62
(g78
g64
NtRp2640
(dp2641
g67
(dp2642
sg76
g2573
sg69
(lp2643
g62
(g83
g64
NtRp2644
(dp2645
g67
(dp2646
g87
g88
ssg76
g2640
sg69
(lp2647
S'HTTP_CONNECTION'
p2648
asbag62
(g83
g64
NtRp2649
(dp2650
g67
(dp2651
g94
g95
ssg76
g2640
sg69
(lp2652
S':'
asbag62
(g83
g64
NtRp2653
(dp2654
g67
(dp2655
sg76
g2640
sg69
(lp2656
g62
(g63
g64
NtRp2657
(dp2658
g67
(dp2659
g75
I3
ssg76
g2653
sg69
(lp2660
g1259
asbasbasbag62
(g78
g64
NtRp2661
(dp2662
g67
(dp2663
sg76
g2573
sg69
(lp2664
g62
(g83
g64
NtRp2665
(dp2666
g67
(dp2667
g87
g88
ssg76
g2661
sg69
(lp2668
S'HTTP_COOKIE'
p2669
asbag62
(g83
g64
NtRp2670
(dp2671
g67
(dp2672
g94
g95
ssg76
g2661
sg69
(lp2673
S':'
asbag62
(g83
g64
NtRp2674
(dp2675
g67
(dp2676
sg76
g2661
sg69
(lp2677
g62
(g63
g64
NtRp2678
(dp2679
g67
(dp2680
g75
I3
ssg76
g2674
sg69
(lp2681
g1281
asbasbasbag62
(g78
g64
NtRp2682
(dp2683
g67
(dp2684
sg76
g2573
sg69
(lp2685
g62
(g83
g64
NtRp2686
(dp2687
g67
(dp2688
g87
g88
ssg76
g2682
sg69
(lp2689
S'HTTP_HOST'
p2690
asbag62
(g83
g64
NtRp2691
(dp2692
g67
(dp2693
g94
g95
ssg76
g2682
sg69
(lp2694
S':'
asbag62
(g83
g64
NtRp2695
(dp2696
g67
(dp2697
sg76
g2682
sg69
(lp2698
g62
(g63
g64
NtRp2699
(dp2700
g67
(dp2701
g75
I3
ssg76
g2695
sg69
(lp2702
g1303
asbasbasbag62
(g78
g64
NtRp2703
(dp2704
g67
(dp2705
sg76
g2573
sg69
(lp2706
g62
(g83
g64
NtRp2707
(dp2708
g67
(dp2709
g87
g88
ssg76
g2703
sg69
(lp2710
S'HTTP_USER_AGENT'
p2711
asbag62
(g83
g64
NtRp2712
(dp2713
g67
(dp2714
g94
g95
ssg76
g2703
sg69
(lp2715
S':'
asbag62
(g83
g64
NtRp2716
(dp2717
g67
(dp2718
sg76
g2703
sg69
(lp2719
g62
(g63
g64
NtRp2720
(dp2721
g67
(dp2722
g75
I3
ssg76
g2716
sg69
(lp2723
g1325
asbasbasbag62
(g78
g64
NtRp2724
(dp2725
g67
(dp2726
sg76
g2573
sg69
(lp2727
g62
(g83
g64
NtRp2728
(dp2729
g67
(dp2730
g87
g88
ssg76
g2724
sg69
(lp2731
S'PATH_INFO'
p2732
asbag62
(g83
g64
NtRp2733
(dp2734
g67
(dp2735
g94
g95
ssg76
g2724
sg69
(lp2736
S':'
asbag62
(g83
g64
NtRp2737
(dp2738
g67
(dp2739
sg76
g2724
sg69
(lp2740
g62
(g63
g64
NtRp2741
(dp2742
g67
(dp2743
g75
I3
ssg76
g2737
sg69
(lp2744
g1389
asbasbasbag62
(g78
g64
NtRp2745
(dp2746
g67
(dp2747
sg76
g2573
sg69
(lp2748
g62
(g83
g64
NtRp2749
(dp2750
g67
(dp2751
g87
g88
ssg76
g2745
sg69
(lp2752
S'QUERY_STRING'
p2753
asbag62
(g83
g64
NtRp2754
(dp2755
g67
(dp2756
g94
g95
ssg76
g2745
sg69
(lp2757
S':'
asbag62
(g83
g64
NtRp2758
(dp2759
g67
(dp2760
sg76
g2745
sg69
(lp2761
g62
(g63
g64
NtRp2762
(dp2763
g67
(dp2764
g75
I3
ssg76
g2758
sg69
(lp2765
S''
asbasbasbag62
(g78
g64
NtRp2766
(dp2767
g67
(dp2768
sg76
g2573
sg69
(lp2769
g62
(g83
g64
NtRp2770
(dp2771
g67
(dp2772
g87
g88
ssg76
g2766
sg69
(lp2773
S'REMOTE_ADDR'
p2774
asbag62
(g83
g64
NtRp2775
(dp2776
g67
(dp2777
g94
g95
ssg76
g2766
sg69
(lp2778
S':'
asbag62
(g83
g64
NtRp2779
(dp2780
g67
(dp2781
sg76
g2766
sg69
(lp2782
g62
(g63
g64
NtRp2783
(dp2784
g67
(dp2785
g75
I3
ssg76
g2779
sg69
(lp2786
g195
asbasbasbag62
(g78
g64
NtRp2787
(dp2788
g67
(dp2789
sg76
g2573
sg69
(lp2790
g62
(g83
g64
NtRp2791
(dp2792
g67
(dp2793
g87
g88
ssg76
g2787
sg69
(lp2794
S'REMOTE_PORT'
p2795
asbag62
(g83
g64
NtRp2796
(dp2797
g67
(dp2798
g94
g95
ssg76
g2787
sg69
(lp2799
S':'
asbag62
(g83
g64
NtRp2800
(dp2801
g67
(dp2802
sg76
g2787
sg69
(lp2803
g62
(g63
g64
NtRp2804
(dp2805
g67
(dp2806
g75
I3
ssg76
g2800
sg69
(lp2807
g1453
asbasbasbag62
(g78
g64
NtRp2808
(dp2809
g67
(dp2810
sg76
g2573
sg69
(lp2811
g62
(g83
g64
NtRp2812
(dp2813
g67
(dp2814
g87
g88
ssg76
g2808
sg69
(lp2815
S'REQUEST_METHOD'
p2816
asbag62
(g83
g64
NtRp2817
(dp2818
g67
(dp2819
g94
g95
ssg76
g2808
sg69
(lp2820
S':'
asbag62
(g83
g64
NtRp2821
(dp2822
g67
(dp2823
sg76
g2808
sg69
(lp2824
g62
(g63
g64
NtRp2825
(dp2826
g67
(dp2827
g75
I3
ssg76
g2821
sg69
(lp2828
g1475
asbasbasbag62
(g78
g64
NtRp2829
(dp2830
g67
(dp2831
sg76
g2573
sg69
(lp2832
g62
(g83
g64
NtRp2833
(dp2834
g67
(dp2835
g87
g88
ssg76
g2829
sg69
(lp2836
S'SCRIPT_NAME'
p2837
asbag62
(g83
g64
NtRp2838
(dp2839
g67
(dp2840
g94
g95
ssg76
g2829
sg69
(lp2841
S':'
asbag62
(g83
g64
NtRp2842
(dp2843
g67
(dp2844
sg76
g2829
sg69
(lp2845
g62
(g63
g64
NtRp2846
(dp2847
g67
(dp2848
g75
I3
ssg76
g2842
sg69
(lp2849
S''
asbasbasbag62
(g78
g64
NtRp2850
(dp2851
g67
(dp2852
sg76
g2573
sg69
(lp2853
g62
(g83
g64
NtRp2854
(dp2855
g67
(dp2856
g87
g88
ssg76
g2850
sg69
(lp2857
S'SERVER_NAME'
p2858
asbag62
(g83
g64
NtRp2859
(dp2860
g67
(dp2861
g94
g95
ssg76
g2850
sg69
(lp2862
S':'
asbag62
(g83
g64
NtRp2863
(dp2864
g67
(dp2865
sg76
g2850
sg69
(lp2866
g62
(g63
g64
NtRp2867
(dp2868
g67
(dp2869
g75
I3
ssg76
g2863
sg69
(lp2870
g1518
asbasbasbag62
(g78
g64
NtRp2871
(dp2872
g67
(dp2873
sg76
g2573
sg69
(lp2874
g62
(g83
g64
NtRp2875
(dp2876
g67
(dp2877
g87
g88
ssg76
g2871
sg69
(lp2878
S'SERVER_PORT'
p2879
asbag62
(g83
g64
NtRp2880
(dp2881
g67
(dp2882
g94
g95
ssg76
g2871
sg69
(lp2883
S':'
asbag62
(g83
g64
NtRp2884
(dp2885
g67
(dp2886
sg76
g2871
sg69
(lp2887
g62
(g63
g64
NtRp2888
(dp2889
g67
(dp2890
g75
I3
ssg76
g2884
sg69
(lp2891
g1540
asbasbasbag62
(g78
g64
NtRp2892
(dp2893
g67
(dp2894
sg76
g2573
sg69
(lp2895
g62
(g83
g64
NtRp2896
(dp2897
g67
(dp2898
g87
g88
ssg76
g2892
sg69
(lp2899
S'SERVER_PROTOCOL'
p2900
asbag62
(g83
g64
NtRp2901
(dp2902
g67
(dp2903
g94
g95
ssg76
g2892
sg69
(lp2904
S':'
asbag62
(g83
g64
NtRp2905
(dp2906
g67
(dp2907
sg76
g2892
sg69
(lp2908
g62
(g63
g64
NtRp2909
(dp2910
g67
(dp2911
g75
I3
ssg76
g2905
sg69
(lp2912
g1562
asbasbasbag62
(g78
g64
NtRp2913
(dp2914
g67
(dp2915
sg76
g2573
sg69
(lp2916
g62
(g83
g64
NtRp2917
(dp2918
g67
(dp2919
g87
g88
ssg76
g2913
sg69
(lp2920
S'SERVER_SOFTWARE'
p2921
asbag62
(g83
g64
NtRp2922
(dp2923
g67
(dp2924
g94
g95
ssg76
g2913
sg69
(lp2925
S':'
asbag62
(g83
g64
NtRp2926
(dp2927
g67
(dp2928
sg76
g2913
sg69
(lp2929
g62
(g63
g64
NtRp2930
(dp2931
g67
(dp2932
g75
I3
ssg76
g2926
sg69
(lp2933
g1584
asbasbasbag62
(g78
g64
NtRp2934
(dp2935
g67
(dp2936
sg76
g2573
sg69
(lp2937
g62
(g83
g64
NtRp2938
(dp2939
g67
(dp2940
g87
g88
ssg76
g2934
sg69
(lp2941
S'wsgi.errors'
p2942
asbag62
(g83
g64
NtRp2943
(dp2944
g67
(dp2945
g94
g95
ssg76
g2934
sg69
(lp2946
S':'
asbag62
(g83
g64
NtRp2947
(dp2948
g67
(dp2949
sg76
g2934
sg69
(lp2950
g62
(g63
g64
NtRp2951
(dp2952
g67
(dp2953
g75
I3
ssg76
g2947
sg69
(lp2954
S"<open file '<stderr>', mode 'w' at 0x7fbdb8040270>"
p2955
asbasbasbag62
(g78
g64
NtRp2956
(dp2957
g67
(dp2958
sg76
g2573
sg69
(lp2959
g62
(g83
g64
NtRp2960
(dp2961
g67
(dp2962
g87
g88
ssg76
g2956
sg69
(lp2963
S'wsgi.file_wrapper'
p2964
asbag62
(g83
g64
NtRp2965
(dp2966
g67
(dp2967
g94
g95
ssg76
g2956
sg69
(lp2968
S':'
asbag62
(g83
g64
NtRp2969
(dp2970
g67
(dp2971
sg76
g2956
sg69
(lp2972
g62
(g63
g64
NtRp2973
(dp2974
g67
(dp2975
g75
I3
ssg76
g2969
sg69
(lp2976
S'<class wsgiref.util.FileWrapper at 0x2ac6120>'
p2977
asbasbasbag62
(g78
g64
NtRp2978
(dp2979
g67
(dp2980
sg76
g2573
sg69
(lp2981
g62
(g83
g64
NtRp2982
(dp2983
g67
(dp2984
g87
g88
ssg76
g2978
sg69
(lp2985
S'wsgi.input'
p2986
asbag62
(g83
g64
NtRp2987
(dp2988
g67
(dp2989
g94
g95
ssg76
g2978
sg69
(lp2990
S':'
asbag62
(g83
g64
NtRp2991
(dp2992
g67
(dp2993
sg76
g2978
sg69
(lp2994
g62
(g63
g64
NtRp2995
(dp2996
g67
(dp2997
g75
I3
ssg76
g2991
sg69
(lp2998
S'<cStringIO.StringO object at 0x7fbd80080570>'
p2999
asbasbasbag62
(g78
g64
NtRp3000
(dp3001
g67
(dp3002
sg76
g2573
sg69
(lp3003
g62
(g83
g64
NtRp3004
(dp3005
g67
(dp3006
g87
g88
ssg76
g3000
sg69
(lp3007
S'wsgi.multiprocess'
p3008
asbag62
(g83
g64
NtRp3009
(dp3010
g67
(dp3011
g94
g95
ssg76
g3000
sg69
(lp3012
S':'
asbag62
(g83
g64
NtRp3013
(dp3014
g67
(dp3015
sg76
g3000
sg69
(lp3016
g62
(g63
g64
NtRp3017
(dp3018
g67
(dp3019
g75
I3
ssg76
g3013
sg69
(lp3020
g105
asbasbasbag62
(g78
g64
NtRp3021
(dp3022
g67
(dp3023
sg76
g2573
sg69
(lp3024
g62
(g83
g64
NtRp3025
(dp3026
g67
(dp3027
g87
g88
ssg76
g3021
sg69
(lp3028
S'wsgi.multithread'
p3029
asbag62
(g83
g64
NtRp3030
(dp3031
g67
(dp3032
g94
g95
ssg76
g3021
sg69
(lp3033
S':'
asbag62
(g83
g64
NtRp3034
(dp3035
g67
(dp3036
sg76
g3021
sg69
(lp3037
g62
(g63
g64
NtRp3038
(dp3039
g67
(dp3040
g75
I3
ssg76
g3034
sg69
(lp3041
g1824
asbasbasbag62
(g78
g64
NtRp3042
(dp3043
g67
(dp3044
sg76
g2573
sg69
(lp3045
g62
(g83
g64
NtRp3046
(dp3047
g67
(dp3048
g87
g88
ssg76
g3042
sg69
(lp3049
S'wsgi.run_once'
p3050
asbag62
(g83
g64
NtRp3051
(dp3052
g67
(dp3053
g94
g95
ssg76
g3042
sg69
(lp3054
S':'
asbag62
(g83
g64
NtRp3055
(dp3056
g67
(dp3057
sg76
g3042
sg69
(lp3058
g62
(g63
g64
NtRp3059
(dp3060
g67
(dp3061
g75
I3
ssg76
g3055
sg69
(lp3062
g105
asbasbasbag62
(g78
g64
NtRp3063
(dp3064
g67
(dp3065
sg76
g2573
sg69
(lp3066
g62
(g83
g64
NtRp3067
(dp3068
g67
(dp3069
g87
g88
ssg76
g3063
sg69
(lp3070
S'wsgi.url_scheme'
p3071
asbag62
(g83
g64
NtRp3072
(dp3073
g67
(dp3074
g94
g95
ssg76
g3063
sg69
(lp3075
S':'
asbag62
(g83
g64
NtRp3076
(dp3077
g67
(dp3078
sg76
g3063
sg69
(lp3079
g62
(g63
g64
NtRp3080
(dp3081
g67
(dp3082
g75
I3
ssg76
g3076
sg69
(lp3083
g1867
asbasbasbag62
(g78
g64
NtRp3084
(dp3085
g67
(dp3086
sg76
g2573
sg69
(lp3087
g62
(g83
g64
NtRp3088
(dp3089
g67
(dp3090
g87
g88
ssg76
g3084
sg69
(lp3091
S'wsgi.version'
p3092
asbag62
(g83
g64
NtRp3093
(dp3094
g67
(dp3095
g94
g95
ssg76
g3084
sg69
(lp3096
S':'
asbag62
(g83
g64
NtRp3097
(dp3098
g67
(dp3099
sg76
g3084
sg69
(lp3100
g62
(g63
g64
NtRp3101
(dp3102
g67
(dp3103
g75
I3
ssg76
g3097
sg69
(lp3104
S'1'
asbasbasbasbasbasbasbasbasbasbasbasbasbsS'frames'
p3105
(lp3106
(dp3107
S'file'
p3108
S'/home/chitra/courses/SSAD/web2py/gluon/restricted.py'
p3109
sS'dump'
p3110
(dp3111
S'environment'
p3112
S"{'A': <class 'gluon.html.A'>, 'A4': (595.275590551181, 841.8897637795275), 'Auth': <class 'gluon.tools.Auth'>, 'B': <class 'gluon.html.B'>, 'BEAUTIFY': <class 'gluon.html.BEAUTIFY'>, 'BODY': <class 'gluon.html.BODY'>, 'BR': <class 'gluon.html.BR'>, 'BUTTON': <class 'gluon.html.BUTTON'>, 'CAT': <class 'gluon.html.CAT'>, 'CENTER': <class 'gluon.html.CENTER'>, ...}"
p3113
sS'ccode'
p3114
S'<code object <module> at 0x7fbd90270130, file "/...ns/cite_m5/views/default/final_ans.html", line 1>'
p3115
ssS'lnum'
p3116
I205
sS'lines'
p3117
(dp3118
I200
S'    try:'
p3119
sI201
S'        if type(code) == types.CodeType:'
p3120
sI202
S'            ccode = code'
p3121
sI203
S'        else:'
p3122
sI204
S'            ccode = compile2(code,layer)'
p3123
sI205
S'        exec ccode in environment'
p3124
sI206
S'    except HTTP:'
p3125
sI207
S'        raise'
p3126
sI208
S'    except RestrictedError:'
p3127
sI209
S'        # do not encapsulate (obfuscate) the original RestrictedError'
p3128
ssS'call'
p3129
S'(code=\'response.write(\\\'<html xmlns="http://www.w3.org/1...p>\\\\n  </div>\\\\n </body>\\\\n</html>\\\\n\\\', escape=False)\', environment={\'A\': <class \'gluon.html.A\'>, \'A4\': (595.275590551181, 841.8897637795275), \'Auth\': <class \'gluon.tools.Auth\'>, \'B\': <class \'gluon.html.B\'>, \'BEAUTIFY\': <class \'gluon.html.BEAUTIFY\'>, \'BODY\': <class \'gluon.html.BODY\'>, \'BR\': <class \'gluon.html.BR\'>, \'BUTTON\': <class \'gluon.html.BUTTON\'>, \'CAT\': <class \'gluon.html.CAT\'>, \'CENTER\': <class \'gluon.html.CENTER\'>, ...}, layer=\'/home/chitra/courses/SSAD/web2py/applications/cite_m5/views/default/final_ans.html\')'
p3130
sS'func'
p3131
S'restricted'
p3132
sa(dp3133
g3108
S'/home/chitra/courses/SSAD/web2py/applications/cite_m5/views/default/final_ans.html'
p3134
sg3110
(dp3135
sg3116
I235
sg3117
(dp3136
I226
S"model_report = '/home/maneesha/Downloads/web2py/.Rough'"
p3137
sI227
S"response.write('\\n\\n', escape=False)"
p3138
sI228
S'doc = SimpleDocTemplate("my2.pdf",  \\'
p3139
sI229
S'rightMargin=40, leftMargin=40, \\'
p3140
sI230
S'topMargin=40, bottomMargin=25, \\'
p3141
sI231
S'pageSize=A4)'
p3142
sI232
S"response.write('\\n\\n\\n', escape=False)"
p3143
sI233
S'elements = []'
p3144
sI234
S"response.write('  \\n\\n', escape=False)"
p3145
sI235
S'infile   = file(model_report).read()'
p3146
sI236
S"response.write('\\n', escape=False)"
p3147
sI237
S'report_paragraphs = infile.split("\\n")'
p3148
sI238
S"response.write('\\n', escape=False)"
p3149
sI239
S'for para in report_paragraphs:'
p3150
sI240
S"    response.write('\\n    ', escape=False)"
p3151
sI241
S'    para1 = \'<font face="Courier" >%s</font>\' % para'
p3152
sI242
S"    response.write('\\n    ', escape=False)"
p3153
sI243
S'    elements.append(Paragraph(para1, style=mystyle))'
p3154
sI244
S"    response.write('\\n', escape=False)"
p3155
sI245
S'    pass'
p3156
ssg3129
S'()'
p3157
sg3131
S'<module>'
p3158
sasS'pyver'
p3159
S'Python 2.7.3: /usr/bin/python'
p3160
sS'session'
p3161
g62
(g63
g64
NtRp3162
(dp3163
g67
(dp3164
sg69
(lp3165
g62
(g71
g64
NtRp3166
(dp3167
g67
(dp3168
g75
I5
ssg76
Nsg69
(lp3169
g62
(g78
g64
NtRp3170
(dp3171
g67
(dp3172
sg76
g3166
sg69
(lp3173
g62
(g83
g64
NtRp3174
(dp3175
g67
(dp3176
g87
g88
ssg76
g3170
sg69
(lp3177
S'auth'
p3178
asbag62
(g83
g64
NtRp3179
(dp3180
g67
(dp3181
g94
g95
ssg76
g3170
sg69
(lp3182
S':'
asbag62
(g83
g64
NtRp3183
(dp3184
g67
(dp3185
sg76
g3170
sg69
(lp3186
g62
(g63
g64
NtRp3187
(dp3188
g67
(dp3189
g75
I5
ssg76
g3183
sg69
(lp3190
g62
(g71
g64
NtRp3191
(dp3192
g67
(dp3193
g75
I4
ssg76
Nsg69
(lp3194
g62
(g78
g64
NtRp3195
(dp3196
g67
(dp3197
sg76
g3191
sg69
(lp3198
g62
(g83
g64
NtRp3199
(dp3200
g67
(dp3201
g87
g88
ssg76
g3195
sg69
(lp3202
S'expiration'
p3203
asbag62
(g83
g64
NtRp3204
(dp3205
g67
(dp3206
g94
g95
ssg76
g3195
sg69
(lp3207
S':'
asbag62
(g83
g64
NtRp3208
(dp3209
g67
(dp3210
sg76
g3195
sg69
(lp3211
g62
(g63
g64
NtRp3212
(dp3213
g67
(dp3214
g75
I4
ssg76
g3208
sg69
(lp3215
S'3600'
p3216
asbasbasbag62
(g78
g64
NtRp3217
(dp3218
g67
(dp3219
sg76
g3191
sg69
(lp3220
g62
(g83
g64
NtRp3221
(dp3222
g67
(dp3223
g87
g88
ssg76
g3217
sg69
(lp3224
S'hmac_key'
p3225
asbag62
(g83
g64
NtRp3226
(dp3227
g67
(dp3228
g94
g95
ssg76
g3217
sg69
(lp3229
S':'
asbag62
(g83
g64
NtRp3230
(dp3231
g67
(dp3232
sg76
g3217
sg69
(lp3233
g62
(g63
g64
NtRp3234
(dp3235
g67
(dp3236
g75
I4
ssg76
g3230
sg69
(lp3237
S'da465c81-3a10-45d5-810f-76f191bf566c'
p3238
asbasbasbag62
(g78
g64
NtRp3239
(dp3240
g67
(dp3241
sg76
g3191
sg69
(lp3242
g62
(g83
g64
NtRp3243
(dp3244
g67
(dp3245
g87
g88
ssg76
g3239
sg69
(lp3246
S'last_visit'
p3247
asbag62
(g83
g64
NtRp3248
(dp3249
g67
(dp3250
g94
g95
ssg76
g3239
sg69
(lp3251
S':'
asbag62
(g83
g64
NtRp3252
(dp3253
g67
(dp3254
sg76
g3239
sg69
(lp3255
g62
(g63
g64
NtRp3256
(dp3257
g67
(dp3258
g75
I4
ssg76
g3252
sg69
(lp3259
S'datetime.datetime(2012, 11, 12, 1, 45, 35, 931039)'
p3260
asbasbasbag62
(g78
g64
NtRp3261
(dp3262
g67
(dp3263
sg76
g3191
sg69
(lp3264
g62
(g83
g64
NtRp3265
(dp3266
g67
(dp3267
g87
g88
ssg76
g3261
sg69
(lp3268
S'remember'
p3269
asbag62
(g83
g64
NtRp3270
(dp3271
g67
(dp3272
g94
g95
ssg76
g3261
sg69
(lp3273
S':'
asbag62
(g83
g64
NtRp3274
(dp3275
g67
(dp3276
sg76
g3261
sg69
(lp3277
g62
(g63
g64
NtRp3278
(dp3279
g67
(dp3280
g75
I4
ssg76
g3274
sg69
(lp3281
g105
asbasbasbag62
(g78
g64
NtRp3282
(dp3283
g67
(dp3284
sg76
g3191
sg69
(lp3285
g62
(g83
g64
NtRp3286
(dp3287
g67
(dp3288
g87
g88
ssg76
g3282
sg69
(lp3289
S'user'
p3290
asbag62
(g83
g64
NtRp3291
(dp3292
g67
(dp3293
g94
g95
ssg76
g3282
sg69
(lp3294
S':'
asbag62
(g83
g64
NtRp3295
(dp3296
g67
(dp3297
sg76
g3282
sg69
(lp3298
g62
(g63
g64
NtRp3299
(dp3300
g67
(dp3301
g75
I4
ssg76
g3295
sg69
(lp3302
g62
(g71
g64
NtRp3303
(dp3304
g67
(dp3305
g75
I3
ssg76
Nsg69
(lp3306
g62
(g78
g64
NtRp3307
(dp3308
g67
(dp3309
sg76
g3303
sg69
(lp3310
g62
(g83
g64
NtRp3311
(dp3312
g67
(dp3313
g87
g88
ssg76
g3307
sg69
(lp3314
S'created_on'
p3315
asbag62
(g83
g64
NtRp3316
(dp3317
g67
(dp3318
g94
g95
ssg76
g3307
sg69
(lp3319
S':'
asbag62
(g83
g64
NtRp3320
(dp3321
g67
(dp3322
sg76
g3307
sg69
(lp3323
g62
(g63
g64
NtRp3324
(dp3325
g67
(dp3326
g75
I3
ssg76
g3320
sg69
(lp3327
S'datetime.datetime(2012, 10, 23, 2, 28, 41)'
p3328
asbasbasbag62
(g78
g64
NtRp3329
(dp3330
g67
(dp3331
sg76
g3303
sg69
(lp3332
g62
(g83
g64
NtRp3333
(dp3334
g67
(dp3335
g87
g88
ssg76
g3329
sg69
(lp3336
S'email'
p3337
asbag62
(g83
g64
NtRp3338
(dp3339
g67
(dp3340
g94
g95
ssg76
g3329
sg69
(lp3341
S':'
asbag62
(g83
g64
NtRp3342
(dp3343
g67
(dp3344
sg76
g3329
sg69
(lp3345
g62
(g63
g64
NtRp3346
(dp3347
g67
(dp3348
g75
I3
ssg76
g3342
sg69
(lp3349
S'manu@gmail.com'
p3350
asbasbasbag62
(g78
g64
NtRp3351
(dp3352
g67
(dp3353
sg76
g3303
sg69
(lp3354
g62
(g83
g64
NtRp3355
(dp3356
g67
(dp3357
g87
g88
ssg76
g3351
sg69
(lp3358
S'first_name'
p3359
asbag62
(g83
g64
NtRp3360
(dp3361
g67
(dp3362
g94
g95
ssg76
g3351
sg69
(lp3363
S':'
asbag62
(g83
g64
NtRp3364
(dp3365
g67
(dp3366
sg76
g3351
sg69
(lp3367
g62
(g63
g64
NtRp3368
(dp3369
g67
(dp3370
g75
I3
ssg76
g3364
sg69
(lp3371
S'manu'
p3372
asbasbasbag62
(g78
g64
NtRp3373
(dp3374
g67
(dp3375
sg76
g3303
sg69
(lp3376
g62
(g83
g64
NtRp3377
(dp3378
g67
(dp3379
g87
g88
ssg76
g3373
sg69
(lp3380
S'id'
p3381
asbag62
(g83
g64
NtRp3382
(dp3383
g67
(dp3384
g94
g95
ssg76
g3373
sg69
(lp3385
S':'
asbag62
(g83
g64
NtRp3386
(dp3387
g67
(dp3388
sg76
g3373
sg69
(lp3389
g62
(g63
g64
NtRp3390
(dp3391
g67
(dp3392
g75
I3
ssg76
g3386
sg69
(lp3393
S'11'
p3394
asbasbasbag62
(g78
g64
NtRp3395
(dp3396
g67
(dp3397
sg76
g3303
sg69
(lp3398
g62
(g83
g64
NtRp3399
(dp3400
g67
(dp3401
g87
g88
ssg76
g3395
sg69
(lp3402
S'last_name'
p3403
asbag62
(g83
g64
NtRp3404
(dp3405
g67
(dp3406
g94
g95
ssg76
g3395
sg69
(lp3407
S':'
asbag62
(g83
g64
NtRp3408
(dp3409
g67
(dp3410
sg76
g3395
sg69
(lp3411
g62
(g63
g64
NtRp3412
(dp3413
g67
(dp3414
g75
I3
ssg76
g3408
sg69
(lp3415
S'p'
asbasbasbag62
(g78
g64
NtRp3416
(dp3417
g67
(dp3418
sg76
g3303
sg69
(lp3419
g62
(g83
g64
NtRp3420
(dp3421
g67
(dp3422
g87
g88
ssg76
g3416
sg69
(lp3423
S'modified_on'
p3424
asbag62
(g83
g64
NtRp3425
(dp3426
g67
(dp3427
g94
g95
ssg76
g3416
sg69
(lp3428
S':'
asbag62
(g83
g64
NtRp3429
(dp3430
g67
(dp3431
sg76
g3416
sg69
(lp3432
g62
(g63
g64
NtRp3433
(dp3434
g67
(dp3435
g75
I3
ssg76
g3429
sg69
(lp3436
S'datetime.datetime(2012, 10, 23, 2, 28, 41)'
p3437
asbasbasbag62
(g78
g64
NtRp3438
(dp3439
g67
(dp3440
sg76
g3303
sg69
(lp3441
g62
(g83
g64
NtRp3442
(dp3443
g67
(dp3444
g87
g88
ssg76
g3438
sg69
(lp3445
S'password'
p3446
asbag62
(g83
g64
NtRp3447
(dp3448
g67
(dp3449
g94
g95
ssg76
g3438
sg69
(lp3450
S':'
asbag62
(g83
g64
NtRp3451
(dp3452
g67
(dp3453
sg76
g3438
sg69
(lp3454
g62
(g63
g64
NtRp3455
(dp3456
g67
(dp3457
g75
I3
ssg76
g3451
sg69
(lp3458
S'32371e3190f8e63e16755b2e6bf663a2'
p3459
asbasbasbag62
(g78
g64
NtRp3460
(dp3461
g67
(dp3462
sg76
g3303
sg69
(lp3463
g62
(g83
g64
NtRp3464
(dp3465
g67
(dp3466
g87
g88
ssg76
g3460
sg69
(lp3467
S'registration_id'
p3468
asbag62
(g83
g64
NtRp3469
(dp3470
g67
(dp3471
g94
g95
ssg76
g3460
sg69
(lp3472
S':'
asbag62
(g83
g64
NtRp3473
(dp3474
g67
(dp3475
sg76
g3460
sg69
(lp3476
g62
(g63
g64
NtRp3477
(dp3478
g67
(dp3479
g75
I3
ssg76
g3473
sg69
(lp3480
S''
asbasbasbag62
(g78
g64
NtRp3481
(dp3482
g67
(dp3483
sg76
g3303
sg69
(lp3484
g62
(g83
g64
NtRp3485
(dp3486
g67
(dp3487
g87
g88
ssg76
g3481
sg69
(lp3488
S'registration_key'
p3489
asbag62
(g83
g64
NtRp3490
(dp3491
g67
(dp3492
g94
g95
ssg76
g3481
sg69
(lp3493
S':'
asbag62
(g83
g64
NtRp3494
(dp3495
g67
(dp3496
sg76
g3481
sg69
(lp3497
g62
(g63
g64
NtRp3498
(dp3499
g67
(dp3500
g75
I3
ssg76
g3494
sg69
(lp3501
S''
asbasbasbag62
(g78
g64
NtRp3502
(dp3503
g67
(dp3504
sg76
g3303
sg69
(lp3505
g62
(g83
g64
NtRp3506
(dp3507
g67
(dp3508
g87
g88
ssg76
g3502
sg69
(lp3509
S'reset_password_key'
p3510
asbag62
(g83
g64
NtRp3511
(dp3512
g67
(dp3513
g94
g95
ssg76
g3502
sg69
(lp3514
S':'
asbag62
(g83
g64
NtRp3515
(dp3516
g67
(dp3517
sg76
g3502
sg69
(lp3518
g62
(g63
g64
NtRp3519
(dp3520
g67
(dp3521
g75
I3
ssg76
g3515
sg69
(lp3522
S''
asbasbasbag62
(g78
g64
NtRp3523
(dp3524
g67
(dp3525
sg76
g3303
sg69
(lp3526
g62
(g83
g64
NtRp3527
(dp3528
g67
(dp3529
g87
g88
ssg76
g3523
sg69
(lp3530
S'username'
p3531
asbag62
(g83
g64
NtRp3532
(dp3533
g67
(dp3534
g94
g95
ssg76
g3523
sg69
(lp3535
S':'
asbag62
(g83
g64
NtRp3536
(dp3537
g67
(dp3538
sg76
g3523
sg69
(lp3539
g62
(g63
g64
NtRp3540
(dp3541
g67
(dp3542
g75
I3
ssg76
g3536
sg69
(lp3543
S'manu1'
p3544
asbasbasbasbasbasbasbag62
(g78
g64
NtRp3545
(dp3546
g67
(dp3547
sg76
g3191
sg69
(lp3548
g62
(g83
g64
NtRp3549
(dp3550
g67
(dp3551
g87
g88
ssg76
g3545
sg69
(lp3552
S'user_groups'
p3553
asbag62
(g83
g64
NtRp3554
(dp3555
g67
(dp3556
g94
g95
ssg76
g3545
sg69
(lp3557
S':'
asbag62
(g83
g64
NtRp3558
(dp3559
g67
(dp3560
sg76
g3545
sg69
(lp3561
g62
(g63
g64
NtRp3562
(dp3563
g67
(dp3564
g75
I4
ssg76
g3558
sg69
(lp3565
g62
(g71
g64
NtRp3566
(dp3567
g67
(dp3568
g75
I3
ssg76
Nsg69
(lp3569
g62
(g78
g64
NtRp3570
(dp3571
g67
(dp3572
sg76
g3566
sg69
(lp3573
g62
(g83
g64
NtRp3574
(dp3575
g67
(dp3576
g87
g88
ssg76
g3570
sg69
(lp3577
S'1'
asbag62
(g83
g64
NtRp3578
(dp3579
g67
(dp3580
g94
g95
ssg76
g3570
sg69
(lp3581
S':'
asbag62
(g83
g64
NtRp3582
(dp3583
g67
(dp3584
sg76
g3570
sg69
(lp3585
g62
(g63
g64
NtRp3586
(dp3587
g67
(dp3588
g75
I3
ssg76
g3582
sg69
(lp3589
S'user_11'
p3590
asbasbasbasbasbasbasbasbasbasbasbasbasbsS'etype'
p3591
S"<type 'exceptions.IOError'>"
p3592
sS'date'
p3593
S'Mon Nov 12 01:48:36 2012'
p3594
sS'response'
p3595
g62
(g63
g64
NtRp3596
(dp3597
g67
(dp3598
sg69
(lp3599
g62
(g71
g64
NtRp3600
(dp3601
g67
(dp3602
g75
I5
ssg76
Nsg69
(lp3603
g62
(g78
g64
NtRp3604
(dp3605
g67
(dp3606
sg76
g3600
sg69
(lp3607
g62
(g83
g64
NtRp3608
(dp3609
g67
(dp3610
g87
g88
ssg76
g3604
sg69
(lp3611
g160
asbag62
(g83
g64
NtRp3612
(dp3613
g67
(dp3614
g94
g95
ssg76
g3604
sg69
(lp3615
S':'
asbag62
(g83
g64
NtRp3616
(dp3617
g67
(dp3618
sg76
g3604
sg69
(lp3619
g62
(g63
g64
NtRp3620
(dp3621
g67
(dp3622
g75
I5
ssg76
g3616
sg69
(lp3623
S'<cStringIO.StringO object at 0x7fbd98276a40>'
p3624
asbasbasbag62
(g78
g64
NtRp3625
(dp3626
g67
(dp3627
sg76
g3600
sg69
(lp3628
g62
(g83
g64
NtRp3629
(dp3630
g67
(dp3631
g87
g88
ssg76
g3625
sg69
(lp3632
g226
asbag62
(g83
g64
NtRp3633
(dp3634
g67
(dp3635
g94
g95
ssg76
g3625
sg69
(lp3636
S':'
asbag62
(g83
g64
NtRp3637
(dp3638
g67
(dp3639
sg76
g3625
sg69
(lp3640
g62
(g63
g64
NtRp3641
(dp3642
g67
(dp3643
g75
I5
ssg76
g3637
sg69
(lp3644
g62
(g71
g64
NtRp3645
(dp3646
g67
(dp3647
g75
I4
ssg76
Nsg69
(lp3648
g62
(g78
g64
NtRp3649
(dp3650
g67
(dp3651
sg76
g3645
sg69
(lp3652
g62
(g83
g64
NtRp3653
(dp3654
g67
(dp3655
g87
g88
ssg76
g3649
sg69
(lp3656
S'session_id_cite_m5'
p3657
asbag62
(g83
g64
NtRp3658
(dp3659
g67
(dp3660
g94
g95
ssg76
g3649
sg69
(lp3661
S':'
asbag62
(g83
g64
NtRp3662
(dp3663
g67
(dp3664
sg76
g3649
sg69
(lp3665
g62
(g63
g64
NtRp3666
(dp3667
g67
(dp3668
g75
I4
ssg76
g3662
sg69
(lp3669
g62
(g71
g64
NtRp3670
(dp3671
g67
(dp3672
g75
I3
ssg76
Nsg69
(lp3673
g62
(g78
g64
NtRp3674
(dp3675
g67
(dp3676
sg76
g3670
sg69
(lp3677
g62
(g83
g64
NtRp3678
(dp3679
g67
(dp3680
g87
g88
ssg76
g3674
sg69
(lp3681
g276
asbag62
(g83
g64
NtRp3682
(dp3683
g67
(dp3684
g94
g95
ssg76
g3674
sg69
(lp3685
S':'
asbag62
(g83
g64
NtRp3686
(dp3687
g67
(dp3688
sg76
g3674
sg69
(lp3689
g62
(g63
g64
NtRp3690
(dp3691
g67
(dp3692
g75
I3
ssg76
g3686
sg69
(lp3693
S''
asbasbasbag62
(g78
g64
NtRp3694
(dp3695
g67
(dp3696
sg76
g3670
sg69
(lp3697
g62
(g83
g64
NtRp3698
(dp3699
g67
(dp3700
g87
g88
ssg76
g3694
sg69
(lp3701
g297
asbag62
(g83
g64
NtRp3702
(dp3703
g67
(dp3704
g94
g95
ssg76
g3694
sg69
(lp3705
S':'
asbag62
(g83
g64
NtRp3706
(dp3707
g67
(dp3708
sg76
g3694
sg69
(lp3709
g62
(g63
g64
NtRp3710
(dp3711
g67
(dp3712
g75
I3
ssg76
g3706
sg69
(lp3713
S''
asbasbasbag62
(g78
g64
NtRp3714
(dp3715
g67
(dp3716
sg76
g3670
sg69
(lp3717
g62
(g83
g64
NtRp3718
(dp3719
g67
(dp3720
g87
g88
ssg76
g3714
sg69
(lp3721
g318
asbag62
(g83
g64
NtRp3722
(dp3723
g67
(dp3724
g94
g95
ssg76
g3714
sg69
(lp3725
S':'
asbag62
(g83
g64
NtRp3726
(dp3727
g67
(dp3728
sg76
g3714
sg69
(lp3729
g62
(g63
g64
NtRp3730
(dp3731
g67
(dp3732
g75
I3
ssg76
g3726
sg69
(lp3733
S''
asbasbasbag62
(g78
g64
NtRp3734
(dp3735
g67
(dp3736
sg76
g3670
sg69
(lp3737
g62
(g83
g64
NtRp3738
(dp3739
g67
(dp3740
g87
g88
ssg76
g3734
sg69
(lp3741
g339
asbag62
(g83
g64
NtRp3742
(dp3743
g67
(dp3744
g94
g95
ssg76
g3734
sg69
(lp3745
S':'
asbag62
(g83
g64
NtRp3746
(dp3747
g67
(dp3748
sg76
g3734
sg69
(lp3749
g62
(g63
g64
NtRp3750
(dp3751
g67
(dp3752
g75
I3
ssg76
g3746
sg69
(lp3753
S''
asbasbasbag62
(g78
g64
NtRp3754
(dp3755
g67
(dp3756
sg76
g3670
sg69
(lp3757
g62
(g83
g64
NtRp3758
(dp3759
g67
(dp3760
g87
g88
ssg76
g3754
sg69
(lp3761
g360
asbag62
(g83
g64
NtRp3762
(dp3763
g67
(dp3764
g94
g95
ssg76
g3754
sg69
(lp3765
S':'
asbag62
(g83
g64
NtRp3766
(dp3767
g67
(dp3768
sg76
g3754
sg69
(lp3769
g62
(g63
g64
NtRp3770
(dp3771
g67
(dp3772
g75
I3
ssg76
g3766
sg69
(lp3773
S''
asbasbasbag62
(g78
g64
NtRp3774
(dp3775
g67
(dp3776
sg76
g3670
sg69
(lp3777
g62
(g83
g64
NtRp3778
(dp3779
g67
(dp3780
g87
g88
ssg76
g3774
sg69
(lp3781
g381
asbag62
(g83
g64
NtRp3782
(dp3783
g67
(dp3784
g94
g95
ssg76
g3774
sg69
(lp3785
S':'
asbag62
(g83
g64
NtRp3786
(dp3787
g67
(dp3788
sg76
g3774
sg69
(lp3789
g62
(g63
g64
NtRp3790
(dp3791
g67
(dp3792
g75
I3
ssg76
g3786
sg69
(lp3793
S'/'
asbasbasbag62
(g78
g64
NtRp3794
(dp3795
g67
(dp3796
sg76
g3670
sg69
(lp3797
g62
(g83
g64
NtRp3798
(dp3799
g67
(dp3800
g87
g88
ssg76
g3794
sg69
(lp3801
g402
asbag62
(g83
g64
NtRp3802
(dp3803
g67
(dp3804
g94
g95
ssg76
g3794
sg69
(lp3805
S':'
asbag62
(g83
g64
NtRp3806
(dp3807
g67
(dp3808
sg76
g3794
sg69
(lp3809
g62
(g63
g64
NtRp3810
(dp3811
g67
(dp3812
g75
I3
ssg76
g3806
sg69
(lp3813
S''
asbasbasbag62
(g78
g64
NtRp3814
(dp3815
g67
(dp3816
sg76
g3670
sg69
(lp3817
g62
(g83
g64
NtRp3818
(dp3819
g67
(dp3820
g87
g88
ssg76
g3814
sg69
(lp3821
g423
asbag62
(g83
g64
NtRp3822
(dp3823
g67
(dp3824
g94
g95
ssg76
g3814
sg69
(lp3825
S':'
asbag62
(g83
g64
NtRp3826
(dp3827
g67
(dp3828
sg76
g3814
sg69
(lp3829
g62
(g63
g64
NtRp3830
(dp3831
g67
(dp3832
g75
I3
ssg76
g3826
sg69
(lp3833
S''
asbasbasbasbasbasbasbasbasbasbasbag62
(g78
g64
NtRp3834
(dp3835
g67
(dp3836
sg76
g3600
sg69
(lp3837
g62
(g83
g64
NtRp3838
(dp3839
g67
(dp3840
g87
g88
ssg76
g3834
sg69
(lp3841
S'delimiters'
p3842
asbag62
(g83
g64
NtRp3843
(dp3844
g67
(dp3845
g94
g95
ssg76
g3834
sg69
(lp3846
S':'
asbag62
(g83
g64
NtRp3847
(dp3848
g67
(dp3849
sg76
g3834
sg69
(lp3850
g62
(g63
g64
NtRp3851
(dp3852
g67
(dp3853
g75
I5
ssg76
g3847
sg69
(lp3854
g62
(g71
g64
NtRp3855
(dp3856
g67
(dp3857
g75
I4
ssg76
Nsg69
(lp3858
g62
(g78
g64
NtRp3859
(dp3860
g67
(dp3861
sg76
g3855
sg69
(lp3862
g62
(g83
g64
NtRp3863
(dp3864
g67
(dp3865
sg76
g3859
sg69
(lp3866
g62
(g63
g64
NtRp3867
(dp3868
g67
(dp3869
g75
I4
ssg76
g3863
sg69
(lp3870
S'{{'
p3871
asbasbasbag62
(g78
g64
NtRp3872
(dp3873
g67
(dp3874
sg76
g3855
sg69
(lp3875
g62
(g83
g64
NtRp3876
(dp3877
g67
(dp3878
sg76
g3872
sg69
(lp3879
g62
(g63
g64
NtRp3880
(dp3881
g67
(dp3882
g75
I4
ssg76
g3876
sg69
(lp3883
S'}}'
p3884
asbasbasbasbasbasbasbag62
(g78
g64
NtRp3885
(dp3886
g67
(dp3887
sg76
g3600
sg69
(lp3888
g62
(g83
g64
NtRp3889
(dp3890
g67
(dp3891
g87
g88
ssg76
g3885
sg69
(lp3892
S'files'
p3893
asbag62
(g83
g64
NtRp3894
(dp3895
g67
(dp3896
g94
g95
ssg76
g3885
sg69
(lp3897
S':'
asbag62
(g83
g64
NtRp3898
(dp3899
g67
(dp3900
sg76
g3885
sg69
(lp3901
g62
(g63
g64
NtRp3902
(dp3903
g67
(dp3904
g75
I5
ssg76
g3898
sg69
(lp3905
g62
(g71
g64
NtRp3906
(dp3907
g67
(dp3908
g75
I4
ssg76
Nsg69
(lp3909
g62
(g78
g64
NtRp3910
(dp3911
g67
(dp3912
sg76
g3906
sg69
(lp3913
g62
(g83
g64
NtRp3914
(dp3915
g67
(dp3916
sg76
g3910
sg69
(lp3917
g62
(g63
g64
NtRp3918
(dp3919
g67
(dp3920
g75
I4
ssg76
g3914
sg69
(lp3921
S'/cite_m5/static/js/jquery.js'
p3922
asbasbasbag62
(g78
g64
NtRp3923
(dp3924
g67
(dp3925
sg76
g3906
sg69
(lp3926
g62
(g83
g64
NtRp3927
(dp3928
g67
(dp3929
sg76
g3923
sg69
(lp3930
g62
(g63
g64
NtRp3931
(dp3932
g67
(dp3933
g75
I4
ssg76
g3927
sg69
(lp3934
S'/cite_m5/static/css/calendar.css'
p3935
asbasbasbag62
(g78
g64
NtRp3936
(dp3937
g67
(dp3938
sg76
g3906
sg69
(lp3939
g62
(g83
g64
NtRp3940
(dp3941
g67
(dp3942
sg76
g3936
sg69
(lp3943
g62
(g63
g64
NtRp3944
(dp3945
g67
(dp3946
g75
I4
ssg76
g3940
sg69
(lp3947
S'/cite_m5/static/js/calendar.js'
p3948
asbasbasbag62
(g78
g64
NtRp3949
(dp3950
g67
(dp3951
sg76
g3906
sg69
(lp3952
g62
(g83
g64
NtRp3953
(dp3954
g67
(dp3955
sg76
g3949
sg69
(lp3956
g62
(g63
g64
NtRp3957
(dp3958
g67
(dp3959
g75
I4
ssg76
g3953
sg69
(lp3960
S'/cite_m5/static/js/web2py.js'
p3961
asbasbasbag62
(g78
g64
NtRp3962
(dp3963
g67
(dp3964
sg76
g3906
sg69
(lp3965
g62
(g83
g64
NtRp3966
(dp3967
g67
(dp3968
sg76
g3962
sg69
(lp3969
g62
(g63
g64
NtRp3970
(dp3971
g67
(dp3972
g75
I4
ssg76
g3966
sg69
(lp3973
S'/cite_m5/static/plugin_layouts/layouts/Blend/default.css'
p3974
asbasbasbag62
(g78
g64
NtRp3975
(dp3976
g67
(dp3977
sg76
g3906
sg69
(lp3978
g62
(g83
g64
NtRp3979
(dp3980
g67
(dp3981
sg76
g3975
sg69
(lp3982
g62
(g63
g64
NtRp3983
(dp3984
g67
(dp3985
g75
I4
ssg76
g3979
sg69
(lp3986
S'/cite_m5/static/plugin_layouts/superfish.js'
p3987
asbasbasbasbasbasbasbag62
(g78
g64
NtRp3988
(dp3989
g67
(dp3990
sg76
g3600
sg69
(lp3991
g62
(g83
g64
NtRp3992
(dp3993
g67
(dp3994
g87
g88
ssg76
g3988
sg69
(lp3995
S'flash'
p3996
asbag62
(g83
g64
NtRp3997
(dp3998
g67
(dp3999
g94
g95
ssg76
g3988
sg69
(lp4000
S':'
asbag62
(g83
g64
NtRp4001
(dp4002
g67
(dp4003
sg76
g3988
sg69
(lp4004
g62
(g63
g64
NtRp4005
(dp4006
g67
(dp4007
g75
I5
ssg76
g4001
sg69
(lp4008
S''
asbasbasbag62
(g78
g64
NtRp4009
(dp4010
g67
(dp4011
sg76
g3600
sg69
(lp4012
g62
(g83
g64
NtRp4013
(dp4014
g67
(dp4015
g87
g88
ssg76
g4009
sg69
(lp4016
S'generic_patterns'
p4017
asbag62
(g83
g64
NtRp4018
(dp4019
g67
(dp4020
g94
g95
ssg76
g4009
sg69
(lp4021
S':'
asbag62
(g83
g64
NtRp4022
(dp4023
g67
(dp4024
sg76
g4009
sg69
(lp4025
g62
(g63
g64
NtRp4026
(dp4027
g67
(dp4028
g75
I5
ssg76
g4022
sg69
(lp4029
g62
(g71
g64
NtRp4030
(dp4031
g67
(dp4032
g75
I4
ssg76
Nsg69
(lp4033
g62
(g78
g64
NtRp4034
(dp4035
g67
(dp4036
sg76
g4030
sg69
(lp4037
g62
(g83
g64
NtRp4038
(dp4039
g67
(dp4040
sg76
g4034
sg69
(lp4041
g62
(g63
g64
NtRp4042
(dp4043
g67
(dp4044
g75
I4
ssg76
g4038
sg69
(lp4045
S'*'
asbasbasbasbasbasbasbag62
(g78
g64
NtRp4046
(dp4047
g67
(dp4048
sg76
g3600
sg69
(lp4049
g62
(g83
g64
NtRp4050
(dp4051
g67
(dp4052
g87
g88
ssg76
g4046
sg69
(lp4053
S'headers'
p4054
asbag62
(g83
g64
NtRp4055
(dp4056
g67
(dp4057
g94
g95
ssg76
g4046
sg69
(lp4058
S':'
asbag62
(g83
g64
NtRp4059
(dp4060
g67
(dp4061
sg76
g4046
sg69
(lp4062
g62
(g63
g64
NtRp4063
(dp4064
g67
(dp4065
g75
I5
ssg76
g4059
sg69
(lp4066
g62
(g71
g64
NtRp4067
(dp4068
g67
(dp4069
g75
I4
ssg76
Nsg69
(lp4070
g62
(g78
g64
NtRp4071
(dp4072
g67
(dp4073
sg76
g4067
sg69
(lp4074
g62
(g83
g64
NtRp4075
(dp4076
g67
(dp4077
g87
g88
ssg76
g4071
sg69
(lp4078
S'Cache-Control'
p4079
asbag62
(g83
g64
NtRp4080
(dp4081
g67
(dp4082
g94
g95
ssg76
g4071
sg69
(lp4083
S':'
asbag62
(g83
g64
NtRp4084
(dp4085
g67
(dp4086
sg76
g4071
sg69
(lp4087
g62
(g63
g64
NtRp4088
(dp4089
g67
(dp4090
g75
I4
ssg76
g4084
sg69
(lp4091
S'no-store, no-cache, must-revalidate, post-check=0, pre-check=0'
p4092
asbasbasbag62
(g78
g64
NtRp4093
(dp4094
g67
(dp4095
sg76
g4067
sg69
(lp4096
g62
(g83
g64
NtRp4097
(dp4098
g67
(dp4099
g87
g88
ssg76
g4093
sg69
(lp4100
S'Content-Type'
p4101
asbag62
(g83
g64
NtRp4102
(dp4103
g67
(dp4104
g94
g95
ssg76
g4093
sg69
(lp4105
S':'
asbag62
(g83
g64
NtRp4106
(dp4107
g67
(dp4108
sg76
g4093
sg69
(lp4109
g62
(g63
g64
NtRp4110
(dp4111
g67
(dp4112
g75
I4
ssg76
g4106
sg69
(lp4113
S'text/html; charset=utf-8'
p4114
asbasbasbag62
(g78
g64
NtRp4115
(dp4116
g67
(dp4117
sg76
g4067
sg69
(lp4118
g62
(g83
g64
NtRp4119
(dp4120
g67
(dp4121
g87
g88
ssg76
g4115
sg69
(lp4122
S'Expires'
p4123
asbag62
(g83
g64
NtRp4124
(dp4125
g67
(dp4126
g94
g95
ssg76
g4115
sg69
(lp4127
S':'
asbag62
(g83
g64
NtRp4128
(dp4129
g67
(dp4130
sg76
g4115
sg69
(lp4131
g62
(g63
g64
NtRp4132
(dp4133
g67
(dp4134
g75
I4
ssg76
g4128
sg69
(lp4135
S'Sun, 11 Nov 2012 20:17:27 GMT'
p4136
asbasbasbag62
(g78
g64
NtRp4137
(dp4138
g67
(dp4139
sg76
g4067
sg69
(lp4140
g62
(g83
g64
NtRp4141
(dp4142
g67
(dp4143
g87
g88
ssg76
g4137
sg69
(lp4144
S'Pragma'
p4145
asbag62
(g83
g64
NtRp4146
(dp4147
g67
(dp4148
g94
g95
ssg76
g4137
sg69
(lp4149
S':'
asbag62
(g83
g64
NtRp4150
(dp4151
g67
(dp4152
sg76
g4137
sg69
(lp4153
g62
(g63
g64
NtRp4154
(dp4155
g67
(dp4156
g75
I4
ssg76
g4150
sg69
(lp4157
S'no-cache'
p4158
asbasbasbag62
(g78
g64
NtRp4159
(dp4160
g67
(dp4161
sg76
g4067
sg69
(lp4162
g62
(g83
g64
NtRp4163
(dp4164
g67
(dp4165
g87
g88
ssg76
g4159
sg69
(lp4166
S'X-Powered-By'
p4167
asbag62
(g83
g64
NtRp4168
(dp4169
g67
(dp4170
g94
g95
ssg76
g4159
sg69
(lp4171
S':'
asbag62
(g83
g64
NtRp4172
(dp4173
g67
(dp4174
sg76
g4159
sg69
(lp4175
g62
(g63
g64
NtRp4176
(dp4177
g67
(dp4178
g75
I4
ssg76
g4172
sg69
(lp4179
S'web2py'
p4180
asbasbasbasbasbasbasbag62
(g78
g64
NtRp4181
(dp4182
g67
(dp4183
sg76
g3600
sg69
(lp4184
g62
(g83
g64
NtRp4185
(dp4186
g67
(dp4187
g87
g88
ssg76
g4181
sg69
(lp4188
S'menu'
p4189
asbag62
(g83
g64
NtRp4190
(dp4191
g67
(dp4192
g94
g95
ssg76
g4181
sg69
(lp4193
S':'
asbag62
(g83
g64
NtRp4194
(dp4195
g67
(dp4196
sg76
g4181
sg69
(lp4197
g62
(g63
g64
NtRp4198
(dp4199
g67
(dp4200
g75
I5
ssg76
g4194
sg69
(lp4201
g62
(g71
g64
NtRp4202
(dp4203
g67
(dp4204
g75
I4
ssg76
Nsg69
(lp4205
g62
(g78
g64
NtRp4206
(dp4207
g67
(dp4208
sg76
g4202
sg69
(lp4209
g62
(g83
g64
NtRp4210
(dp4211
g67
(dp4212
sg76
g4206
sg69
(lp4213
g62
(g63
g64
NtRp4214
(dp4215
g67
(dp4216
g75
I4
ssg76
g4210
sg69
(lp4217
g62
(g71
g64
NtRp4218
(dp4219
g67
(dp4220
g75
I3
ssg76
Nsg69
(lp4221
g62
(g78
g64
NtRp4222
(dp4223
g67
(dp4224
sg76
g4218
sg69
(lp4225
g62
(g83
g64
NtRp4226
(dp4227
g67
(dp4228
sg76
g4222
sg69
(lp4229
g62
(g63
g64
NtRp4230
(dp4231
g67
(dp4232
g75
I3
ssg76
g4226
sg69
(lp4233
cgluon.languages
lazyT_unpickle
p4234
(S't\x05\x00\x00\x00Index'
tRp4235
asbasbasbag62
(g78
g64
NtRp4236
(dp4237
g67
(dp4238
sg76
g4218
sg69
(lp4239
g62
(g83
g64
NtRp4240
(dp4241
g67
(dp4242
sg76
g4236
sg69
(lp4243
g62
(g63
g64
NtRp4244
(dp4245
g67
(dp4246
g75
I3
ssg76
g4240
sg69
(lp4247
g105
asbasbasbag62
(g78
g64
NtRp4248
(dp4249
g67
(dp4250
sg76
g4218
sg69
(lp4251
g62
(g83
g64
NtRp4252
(dp4253
g67
(dp4254
sg76
g4248
sg69
(lp4255
g62
(g63
g64
NtRp4256
(dp4257
g67
(dp4258
g75
I3
ssg76
g4252
sg69
(lp4259
S'/cite_m5/default/index'
p4260
asbasbasbag62
(g78
g64
NtRp4261
(dp4262
g67
(dp4263
sg76
g4218
sg69
(lp4264
g62
(g83
g64
NtRp4265
(dp4266
g67
(dp4267
sg76
g4261
sg69
(lp4268
g62
(g63
g64
NtRp4269
(dp4270
g67
(dp4271
g75
I3
ssg76
g4265
sg69
(lp4272
g62
(g71
g64
NtRp4273
(dp4274
g67
(dp4275
g75
I2
ssg76
Nsg69
(lp4276
sbasbasbasbasbasbasbasbasbasbasbasbag62
(g78
g64
NtRp4277
(dp4278
g67
(dp4279
sg76
g3600
sg69
(lp4280
g62
(g83
g64
NtRp4281
(dp4282
g67
(dp4283
g87
g88
ssg76
g4277
sg69
(lp4284
S'meta'
p4285
asbag62
(g83
g64
NtRp4286
(dp4287
g67
(dp4288
g94
g95
ssg76
g4277
sg69
(lp4289
S':'
asbag62
(g83
g64
NtRp4290
(dp4291
g67
(dp4292
sg76
g4277
sg69
(lp4293
g62
(g63
g64
NtRp4294
(dp4295
g67
(dp4296
g75
I5
ssg76
g4290
sg69
(lp4297
g62
(g71
g64
NtRp4298
(dp4299
g67
(dp4300
g75
I4
ssg76
Nsg69
(lp4301
g62
(g78
g64
NtRp4302
(dp4303
g67
(dp4304
sg76
g4298
sg69
(lp4305
g62
(g83
g64
NtRp4306
(dp4307
g67
(dp4308
g87
g88
ssg76
g4302
sg69
(lp4309
S'author'
p4310
asbag62
(g83
g64
NtRp4311
(dp4312
g67
(dp4313
g94
g95
ssg76
g4302
sg69
(lp4314
S':'
asbag62
(g83
g64
NtRp4315
(dp4316
g67
(dp4317
sg76
g4302
sg69
(lp4318
g62
(g63
g64
NtRp4319
(dp4320
g67
(dp4321
g75
I4
ssg76
g4315
sg69
(lp4322
S'you <you@example.com>'
p4323
asbasbasbag62
(g78
g64
NtRp4324
(dp4325
g67
(dp4326
sg76
g4298
sg69
(lp4327
g62
(g83
g64
NtRp4328
(dp4329
g67
(dp4330
g87
g88
ssg76
g4324
sg69
(lp4331
S'description'
p4332
asbag62
(g83
g64
NtRp4333
(dp4334
g67
(dp4335
g94
g95
ssg76
g4324
sg69
(lp4336
S':'
asbag62
(g83
g64
NtRp4337
(dp4338
g67
(dp4339
sg76
g4324
sg69
(lp4340
g62
(g63
g64
NtRp4341
(dp4342
g67
(dp4343
g75
I4
ssg76
g4337
sg69
(lp4344
S''
asbasbasbag62
(g78
g64
NtRp4345
(dp4346
g67
(dp4347
sg76
g4298
sg69
(lp4348
g62
(g83
g64
NtRp4349
(dp4350
g67
(dp4351
g87
g88
ssg76
g4345
sg69
(lp4352
S'keywords'
p4353
asbag62
(g83
g64
NtRp4354
(dp4355
g67
(dp4356
g94
g95
ssg76
g4345
sg69
(lp4357
S':'
asbag62
(g83
g64
NtRp4358
(dp4359
g67
(dp4360
sg76
g4345
sg69
(lp4361
g62
(g63
g64
NtRp4362
(dp4363
g67
(dp4364
g75
I4
ssg76
g4358
sg69
(lp4365
S''
asbasbasbasbasbasbasbag62
(g78
g64
NtRp4366
(dp4367
g67
(dp4368
sg76
g3600
sg69
(lp4369
g62
(g83
g64
NtRp4370
(dp4371
g67
(dp4372
g87
g88
ssg76
g4366
sg69
(lp4373
S'postprocessing'
p4374
asbag62
(g83
g64
NtRp4375
(dp4376
g67
(dp4377
g94
g95
ssg76
g4366
sg69
(lp4378
S':'
asbag62
(g83
g64
NtRp4379
(dp4380
g67
(dp4381
sg76
g4366
sg69
(lp4382
g62
(g63
g64
NtRp4383
(dp4384
g67
(dp4385
g75
I5
ssg76
g4379
sg69
(lp4386
g62
(g71
g64
NtRp4387
(dp4388
g67
(dp4389
g75
I4
ssg76
Nsg69
(lp4390
sbasbasbasbag62
(g78
g64
NtRp4391
(dp4392
g67
(dp4393
sg76
g3600
sg69
(lp4394
g62
(g83
g64
NtRp4395
(dp4396
g67
(dp4397
g87
g88
ssg76
g4391
sg69
(lp4398
S'session_file'
p4399
asbag62
(g83
g64
NtRp4400
(dp4401
g67
(dp4402
g94
g95
ssg76
g4391
sg69
(lp4403
S':'
asbag62
(g83
g64
NtRp4404
(dp4405
g67
(dp4406
sg76
g4391
sg69
(lp4407
g62
(g63
g64
NtRp4408
(dp4409
g67
(dp4410
g75
I5
ssg76
g4404
sg69
(lp4411
S"<open file '/home/chitra/courses/SSAD/web2py/applications/cite_m5/sessions/127.0.0.1-6b5fef13-ab11-4a8b-a8a1-45e33faa95ff', mode 'rb+' at 0x7fbd880db8a0>"
p4412
asbasbasbag62
(g78
g64
NtRp4413
(dp4414
g67
(dp4415
sg76
g3600
sg69
(lp4416
g62
(g83
g64
NtRp4417
(dp4418
g67
(dp4419
g87
g88
ssg76
g4413
sg69
(lp4420
S'session_filename'
p4421
asbag62
(g83
g64
NtRp4422
(dp4423
g67
(dp4424
g94
g95
ssg76
g4413
sg69
(lp4425
S':'
asbag62
(g83
g64
NtRp4426
(dp4427
g67
(dp4428
sg76
g4413
sg69
(lp4429
g62
(g63
g64
NtRp4430
(dp4431
g67
(dp4432
g75
I5
ssg76
g4426
sg69
(lp4433
S'/home/chitra/courses/SSAD/web2py/applications/cite_m5/sessions/127.0.0.1-6b5fef13-ab11-4a8b-a8a1-45e33faa95ff'
p4434
asbasbasbag62
(g78
g64
NtRp4435
(dp4436
g67
(dp4437
sg76
g3600
sg69
(lp4438
g62
(g83
g64
NtRp4439
(dp4440
g67
(dp4441
g87
g88
ssg76
g4435
sg69
(lp4442
S'session_id'
p4443
asbag62
(g83
g64
NtRp4444
(dp4445
g67
(dp4446
g94
g95
ssg76
g4435
sg69
(lp4447
S':'
asbag62
(g83
g64
NtRp4448
(dp4449
g67
(dp4450
sg76
g4435
sg69
(lp4451
g62
(g63
g64
NtRp4452
(dp4453
g67
(dp4454
g75
I5
ssg76
g4448
sg69
(lp4455
S'127.0.0.1-6b5fef13-ab11-4a8b-a8a1-45e33faa95ff'
p4456
asbasbasbag62
(g78
g64
NtRp4457
(dp4458
g67
(dp4459
sg76
g3600
sg69
(lp4460
g62
(g83
g64
NtRp4461
(dp4462
g67
(dp4463
g87
g88
ssg76
g4457
sg69
(lp4464
S'session_id_name'
p4465
asbag62
(g83
g64
NtRp4466
(dp4467
g67
(dp4468
g94
g95
ssg76
g4457
sg69
(lp4469
S':'
asbag62
(g83
g64
NtRp4470
(dp4471
g67
(dp4472
sg76
g4457
sg69
(lp4473
g62
(g63
g64
NtRp4474
(dp4475
g67
(dp4476
g75
I5
ssg76
g4470
sg69
(lp4477
g3657
asbasbasbag62
(g78
g64
NtRp4478
(dp4479
g67
(dp4480
sg76
g3600
sg69
(lp4481
g62
(g83
g64
NtRp4482
(dp4483
g67
(dp4484
g87
g88
ssg76
g4478
sg69
(lp4485
S'session_locked'
p4486
asbag62
(g83
g64
NtRp4487
(dp4488
g67
(dp4489
g94
g95
ssg76
g4478
sg69
(lp4490
S':'
asbag62
(g83
g64
NtRp4491
(dp4492
g67
(dp4493
sg76
g4478
sg69
(lp4494
g62
(g63
g64
NtRp4495
(dp4496
g67
(dp4497
g75
I5
ssg76
g4491
sg69
(lp4498
g1824
asbasbasbag62
(g78
g64
NtRp4499
(dp4500
g67
(dp4501
sg76
g3600
sg69
(lp4502
g62
(g83
g64
NtRp4503
(dp4504
g67
(dp4505
g87
g88
ssg76
g4499
sg69
(lp4506
S'session_new'
p4507
asbag62
(g83
g64
NtRp4508
(dp4509
g67
(dp4510
g94
g95
ssg76
g4499
sg69
(lp4511
S':'
asbag62
(g83
g64
NtRp4512
(dp4513
g67
(dp4514
sg76
g4499
sg69
(lp4515
g62
(g63
g64
NtRp4516
(dp4517
g67
(dp4518
g75
I5
ssg76
g4512
sg69
(lp4519
g105
asbasbasbag62
(g78
g64
NtRp4520
(dp4521
g67
(dp4522
sg76
g3600
sg69
(lp4523
g62
(g83
g64
NtRp4524
(dp4525
g67
(dp4526
g87
g88
ssg76
g4520
sg69
(lp4527
S'status'
p4528
asbag62
(g83
g64
NtRp4529
(dp4530
g67
(dp4531
g94
g95
ssg76
g4520
sg69
(lp4532
S':'
asbag62
(g83
g64
NtRp4533
(dp4534
g67
(dp4535
sg76
g4520
sg69
(lp4536
g62
(g63
g64
NtRp4537
(dp4538
g67
(dp4539
g75
I5
ssg76
g4533
sg69
(lp4540
S'200'
p4541
asbasbasbag62
(g78
g64
NtRp4542
(dp4543
g67
(dp4544
sg76
g3600
sg69
(lp4545
g62
(g83
g64
NtRp4546
(dp4547
g67
(dp4548
g87
g88
ssg76
g4542
sg69
(lp4549
S'subtitle'
p4550
asbag62
(g83
g64
NtRp4551
(dp4552
g67
(dp4553
g94
g95
ssg76
g4542
sg69
(lp4554
S':'
asbag62
(g83
g64
NtRp4555
(dp4556
g67
(dp4557
sg76
g4542
sg69
(lp4558
g62
(g63
g64
NtRp4559
(dp4560
g67
(dp4561
g75
I5
ssg76
g4555
sg69
(lp4562
S'powered by web2py'
p4563
asbasbasbag62
(g78
g64
NtRp4564
(dp4565
g67
(dp4566
sg76
g3600
sg69
(lp4567
g62
(g83
g64
NtRp4568
(dp4569
g67
(dp4570
g87
g88
ssg76
g4564
sg69
(lp4571
S'title'
p4572
asbag62
(g83
g64
NtRp4573
(dp4574
g67
(dp4575
g94
g95
ssg76
g4564
sg69
(lp4576
S':'
asbag62
(g83
g64
NtRp4577
(dp4578
g67
(dp4579
sg76
g4564
sg69
(lp4580
g62
(g63
g64
NtRp4581
(dp4582
g67
(dp4583
g75
I5
ssg76
g4577
sg69
(lp4584
S'My New App'
p4585
asbasbasbag62
(g78
g64
NtRp4586
(dp4587
g67
(dp4588
sg76
g3600
sg69
(lp4589
g62
(g83
g64
NtRp4590
(dp4591
g67
(dp4592
g87
g88
ssg76
g4586
sg69
(lp4593
g2488
asbag62
(g83
g64
NtRp4594
(dp4595
g67
(dp4596
g94
g95
ssg76
g4586
sg69
(lp4597
S':'
asbag62
(g83
g64
NtRp4598
(dp4599
g67
(dp4600
sg76
g4586
sg69
(lp4601
g62
(g63
g64
NtRp4602
(dp4603
g67
(dp4604
g75
I5
ssg76
g4598
sg69
(lp4605
g2501
asbasbasbag62
(g78
g64
NtRp4606
(dp4607
g67
(dp4608
sg76
g3600
sg69
(lp4609
g62
(g83
g64
NtRp4610
(dp4611
g67
(dp4612
g87
g88
ssg76
g4606
sg69
(lp4613
S'view'
p4614
asbag62
(g83
g64
NtRp4615
(dp4616
g67
(dp4617
g94
g95
ssg76
g4606
sg69
(lp4618
S':'
asbag62
(g83
g64
NtRp4619
(dp4620
g67
(dp4621
sg76
g4606
sg69
(lp4622
g62
(g63
g64
NtRp4623
(dp4624
g67
(dp4625
g75
I5
ssg76
g4619
sg69
(lp4626
S'default/final_ans.html'
p4627
asbasbasbasbasbsS'locals'
p4628
(dp4629
S'Service'
p4630
S"<class 'gluon.tools.Service'>"
p4631
sS'OBJECT'
p4632
S"<class 'gluon.html.OBJECT'>"
p4633
sS'SQLDB'
p4634
S"<class 'gluon.dal.DAL'>"
p4635
sg3161
S"<Storage {'_formkey[input/create]': 'c8473c18-66...6j\\x8a1\\x81\\xe0\\x9c\\x10u\\xf4\\xe6\\x94+\\xef\\x04 '}>"
p4636
sS'LINK'
p4637
S"<class 'gluon.html.LINK'>"
p4638
sS'BR'
p4639
S"<class 'gluon.html.BR'>"
p4640
sS'local_import'
p4641
S'<function <lambda>>'
p4642
sS'OPTGROUP'
p4643
S"<class 'gluon.html.OPTGROUP'>"
p4644
sS'SimpleDocTemplate'
p4645
S'<class reportlab.platypus.doctemplate.SimpleDocTemplate>'
p4646
sS'PRE'
p4647
S"<class 'gluon.html.PRE'>"
p4648
sS'IS_INT_IN_RANGE'
p4649
S"<class 'gluon.validators.IS_INT_IN_RANGE'>"
p4650
sS'IS_LOWER'
p4651
S"<class 'gluon.validators.IS_LOWER'>"
p4652
sS'IS_STRONG'
p4653
S"<class 'gluon.validators.IS_STRONG'>"
p4654
sS'cache'
p4655
S'<gluon.cache.Cache object>'
p4656
sS'IS_IN_DB'
p4657
S"<class 'gluon.validators.IS_IN_DB'>"
p4658
sS'TAG'
p4659
S'<gluon.html.__TAG__ object>'
p4660
sS'SQLField'
p4661
S"<class 'gluon.dal.Field'>"
p4662
sS'mail'
p4663
S'<gluon.tools.Mail object>'
p4664
sS'BODY'
p4665
S"<class 'gluon.html.BODY'>"
p4666
sS'IS_DATE_IN_RANGE'
p4667
S"<class 'gluon.validators.IS_DATE_IN_RANGE'>"
p4668
sS'TH'
p4669
S"<class 'gluon.html.TH'>"
p4670
sS'URL'
p4671
S'<function URL>'
p4672
sS'__file__'
p4673
S"'/home/chitra/courses/SSAD/web2py/applications/cite_m5/views/default/final_ans.html'"
p4674
sS'db'
p4675
S"<DAL {'auth_event': <Table {'origin': <gluon.dal...': <gluon.dal.Field object at 0x7fbd880e7110>}>}>"
p4676
sS'auth'
p4677
S"[' Orit Hazzan', ' Judith  Gal-Ezer', ' Lenore  Blum', ' Lawrence Snyder', ' Arno Pasternak', ' Jan  Vahrenhold', ' Judith Gal-Ezer', ' Orit  Hazzan', ' Noa  Ragonis', ' Lawrence Snyder', ' Noa Ragonis', ' Anat  Oster-Levinz', ' Michal Armoni', ' Lori Carter', ' George H. L. Fletcher', ' James J.  Lu', ' Alexander Repenning', ' David  Webb', ' Andri  Ioannidou', ' Thomas A. Augustine', ...]"
p4678
sS'P'
S"<class 'gluon.html.P'>"
p4679
sS'Paragraph'
p4680
S'<class reportlab.platypus.paragraph.Paragraph>'
p4681
sS'TFOOT'
p4682
S"<class 'gluon.html.TFOOT'>"
p4683
sS'SPAN'
p4684
S"<class 'gluon.html.SPAN'>"
p4685
sS'XHTML'
p4686
S"<class 'gluon.html.XHTML'>"
p4687
sS'ON'
p4688
g1824
sS'OL'
p4689
S"<class 'gluon.html.OL'>"
p4690
sS'TEXTAREA'
p4691
S"<class 'gluon.html.TEXTAREA'>"
p4692
sS'settings'
p4693
S"<Storage {'layout_theme': 'Default', 'subtitle':...l_server': 'localhost', 'login_method': 'local'}>"
p4694
sS'MENU'
p4695
S"<class 'gluon.html.MENU'>"
p4696
sg75
S'3'
sS'__package__'
p4697
S'None'
p4698
sS'IS_IMAGE'
p4699
S"<class 'gluon.validators.IS_IMAGE'>"
p4700
sS'getSampleStyleSheet'
p4701
S'<function getSampleStyleSheet>'
p4702
sS'LOAD'
p4703
S'<function LOAD>'
p4704
sS'CODE'
p4705
S"<class 'gluon.html.CODE'>"
p4706
sS'HTTP'
p4707
S"<class 'gluon.http.HTTP'>"
p4708
sS'HR'
p4709
S"<class 'gluon.html.HR'>"
p4710
sS'IS_DATETIME'
p4711
S"<class 'gluon.validators.IS_DATETIME'>"
p4712
sS'Storage'
p4713
S"<class 'gluon.storage.Storage'>"
p4714
sS'HEAD'
p4715
S"<class 'gluon.html.HEAD'>"
p4716
sS'LABEL'
p4717
S"<class 'gluon.html.LABEL'>"
p4718
sS'META'
p4719
S"<class 'gluon.html.META'>"
p4720
sS'A'
S"<class 'gluon.html.A'>"
p4721
sS'plugins'
p4722
S'<gluon.tools.PluginManager object>'
p4723
sS'SELECT'
p4724
S"<class 'gluon.html.SELECT'>"
p4725
sS'use_janrain'
p4726
S'<function use_janrain>'
p4727
sS'CENTER'
p4728
S"<class 'gluon.html.CENTER'>"
p4729
sS'prettydate'
p4730
S'<function prettydate>'
p4731
sS'Crud'
p4732
S"<class 'gluon.tools.Crud'>"
p4733
sS'ret1'
p4734
S"['0', '1']"
p4735
sS'Auth'
p4736
S"<class 'gluon.tools.Auth'>"
p4737
sS'__builtins__'
p4738
S"{'ArithmeticError': <type 'exceptions.ArithmeticError'>, 'AssertionError': <type 'exceptions.AssertionError'>, 'AttributeError': <type 'exceptions.AttributeError'>, 'BaseException': <type 'exceptions.BaseException'>, 'BufferError': <type 'exceptions.BufferError'>, 'BytesWarning': <type 'exceptions.BytesWarning'>, 'DeprecationWarning': <type 'exceptions.DeprecationWarning'>, 'EOFError': <type 'exceptions.EOFError'>, 'Ellipsis': Ellipsis, 'EnvironmentError': <type 'exceptions.EnvironmentError'>, ...}"
p4739
sS'HTML'
p4740
S"<class 'gluon.html.HTML'>"
p4741
sS'SQLFORM'
p4742
S"<class 'gluon.sqlhtml.SQLFORM'>"
p4743
sS'EM'
p4744
S"<class 'gluon.html.EM'>"
p4745
sS'redirect'
p4746
S'<function redirect>'
p4747
sS'FIELDSET'
p4748
S"<class 'gluon.html.FIELDSET'>"
p4749
sS'IS_EQUAL_TO'
p4750
S"<class 'gluon.validators.IS_EQUAL_TO'>"
p4751
sS'Counter'
p4752
S"<class 'collections.Counter'>"
p4753
sS'embed64'
p4754
S'<function embed64>'
p4755
sS'IS_LIST_OF'
p4756
S"<class 'gluon.validators.IS_LIST_OF'>"
p4757
sS'INPUT'
p4758
S"<class 'gluon.html.INPUT'>"
p4759
sS'EMBED'
p4760
S"<class 'gluon.html.EMBED'>"
p4761
sS'FORM'
p4762
S"<class 'gluon.html.FORM'>"
p4763
sS'c'
S"Counter({' Arno Pasternak': 3, ' Jan  Vahrenhold...Brown': 1, ' David  Webb': 1, ' Lori Carter': 1})"
p4764
sS'IS_NOT_IN_DB'
p4765
S"<class 'gluon.validators.IS_NOT_IN_DB'>"
p4766
sS'H2'
p4767
S"<class 'gluon.html.H2'>"
p4768
sS'H3'
p4769
S"<class 'gluon.html.H3'>"
p4770
sS'BUTTON'
p4771
S"<class 'gluon.html.BUTTON'>"
p4772
sS'H1'
p4773
S"<class 'gluon.html.H1'>"
p4774
sS'H6'
p4775
S"<class 'gluon.html.H6'>"
p4776
sS'H4'
p4777
S"<class 'gluon.html.H4'>"
p4778
sS'H5'
p4779
S"<class 'gluon.html.H5'>"
p4780
sS'UL'
p4781
S"<class 'gluon.html.UL'>"
p4782
sS'IS_UPPER'
p4783
S"<class 'gluon.validators.IS_UPPER'>"
p4784
sS'xmlescape'
p4785
S'<function xmlescape>'
p4786
sS'IS_TIME'
p4787
S"<class 'gluon.validators.IS_TIME'>"
p4788
sS'os'
p4789
S"<module 'os' from '/usr/lib/python2.7/os.pyc'>"
p4790
sS'OPTION'
p4791
S"<class 'gluon.html.OPTION'>"
p4792
sS'cm'
p4793
S'28.346456692913385'
p4794
sS'TITLE'
p4795
S"<class 'gluon.html.TITLE'>"
p4796
sS'CRYPT'
p4797
S"<class 'gluon.validators.CRYPT'>"
p4798
sS'IS_EMPTY_OR'
p4799
S"<class 'gluon.validators.IS_EMPTY_OR'>"
p4800
sS'MARKMIN'
p4801
S"<class 'gluon.html.MARKMIN'>"
p4802
sg381
S"<module 'posixpath' from '/usr/lib/python2.7/posixpath.pyc'>"
p4803
sS'ele'
p4804
S"(' Deidre  Evans', 1)"
p4805
sS'COL'
p4806
S"<class 'gluon.html.COL'>"
p4807
sS'service'
p4808
S'<gluon.tools.Service object>'
p4809
sS'SCRIPT'
p4810
S"<class 'gluon.html.SCRIPT'>"
p4811
sg95
S'3'
sS'mystyle'
p4812
S"<ParagraphStyle 'normal'>"
p4813
sS'TABLE'
p4814
S"<class 'gluon.html.TABLE'>"
p4815
sS'IS_IPV4'
p4816
S"<class 'gluon.validators.IS_IPV4'>"
p4817
sS'IS_LENGTH'
p4818
S"<class 'gluon.validators.IS_LENGTH'>"
p4819
sS'ParagraphStyle'
p4820
S'<class reportlab.lib.styles.ParagraphStyle>'
p4821
sS'XML'
p4822
S"<class 'gluon.html.XML'>"
p4823
sS'B'
S"<class 'gluon.html.B'>"
p4824
sS'IMG'
p4825
S"<class 'gluon.html.IMG'>"
p4826
sS'SQLTABLE'
p4827
S"<class 'gluon.sqlhtml.SQLTABLE'>"
p4828
sS'IS_MATCH'
p4829
S"<class 'gluon.validators.IS_MATCH'>"
p4830
sS'IS_ALPHANUMERIC'
p4831
S"<class 'gluon.validators.IS_ALPHANUMERIC'>"
p4832
sS'styleSheet'
p4833
S'<reportlab.lib.styles.StyleSheet1 instance>'
p4834
sS'count'
p4835
S'-1'
p4836
sS'word'
p4837
S"[' Orit Hazzan', ' Judith  Gal-Ezer', ' Lenore  Blum', ' Lawrence Snyder', ' Arno Pasternak', ' Jan  Vahrenhold', ' Judith Gal-Ezer', ' Orit  Hazzan', ' Noa  Ragonis', ' Lawrence Snyder', ' Noa Ragonis', ' Anat  Oster-Levinz', ' Michal Armoni', ' Lori Carter', ' George H. L. Fletcher', ' James J.  Lu', ' Alexander Repenning', ' David  Webb', ' Andri  Ioannidou', ' Thomas A. Augustine', ...]"
p4838
sS'f'
S"<closed file '.Rough', mode 'w'>"
p4839
sS'IS_SLUG'
p4840
S"<class 'gluon.validators.IS_SLUG'>"
p4841
sS'Spacer'
p4842
S'<class reportlab.platypus.flowables.Spacer>'
p4843
sS'CLEANUP'
p4844
S"<class 'gluon.validators.CLEANUP'>"
p4845
sS'abss'
p4846
S"'number number field incorrect perception disinte...mpelling area plan math computer science variety '"
p4847
sS'Image'
p4848
S'<class reportlab.platypus.flowables.Image>'
p4849
sS'print1'
p4850
S'<function print1>'
p4851
sS'IS_DATE'
p4852
S"<class 'gluon.validators.IS_DATE'>"
p4853
sS'IS_EMAIL'
p4854
S"<class 'gluon.validators.IS_EMAIL'>"
p4855
sS'IS_NOT_EMPTY'
p4856
S"<class 'gluon.validators.IS_NOT_EMPTY'>"
p4857
sg61
S"<Storage {'body': <cStringIO.StringO object at 0..._vars': <Storage {}>, 'post_vars': <Storage {}>}>"
p4858
sS'BEAUTIFY'
p4859
S"<class 'gluon.html.BEAUTIFY'>"
p4860
sS'bigans'
p4861
S'[[\'A model for high school computer science education: the four key elements that make it!\', \'http://dl.acm.org/citation.cfm?id=1352135.135223...M&CFID=140244537&CFTOKEN=89135963&preflayout=flat\', \'http://dl.acm.org/ft_gateway.cfm?id=1352233&ftid=502628&dwn=1&CFID=140244537&CFTOKEN=89135963\', \'Hazzan, Orit; Gal-Ezer, Judith; Blum, Lenore\', \'03/12/2008\', \'\\r\\n\\t\\t\\t\\t\\t\', \'11\', [\'http://dl.acm.org/citation.cfm?id=2189861&CFID=140244537&CFTOKEN=89135963&preflayout=flat\', \'http://dl.acm.org/citation.cfm?id=2157154&CFID=140244537&CFTOKEN=89135963&preflayout=flat\', \'http://dl.acm.org/citation.cfm?id=1508965&CFID=140244537&CFTOKEN=89135963&preflayout=flat\'], [\'Status update: high school CS internationally\', \'http://dl.acm.org/citation.cfm?id=2189861&CFID=140244537&CFTOKEN=89135963&preflayout=flat\', \'http://dl.acm.org/ft_gateway.cfm?id=2189861&ftid=1226249&dwn=1&CFID=140244537&CFTOKEN=89135963\', \'Snyder, Lawrence\', \'06/01/2012\', \'\\r\\n\\t\\t\\t\\t\\t\', 0, []], [\'Design and evaluation of a braided teaching course in sixth grade computer science education\', \'http://dl.acm.org/citation.cfm?id=2157154&CFID=140244537&CFTOKEN=89135963&preflayout=flat\', \'http://dl.acm.org/ft_gateway.cfm?id=2157154&ftid=1161236&dwn=1&CFID=140244537&CFTOKEN=89135963\', \'Pasternak, Arno; Vahrenhold, Jan\', \'02/29/2012\', \'\\r\\n\\t\\t\\t\\t\\t\', 0, []], [\'Preparation of high school computer science teachers: the Israeli perspective\', \'http://dl.acm.org/citation.cfm?id=1508965&CFID=140244537&CFTOKEN=89135963&preflayout=flat\', \'http://dl.acm.org/ft_gateway.cfm?id=1508965&ftid=600411&dwn=1&CFID=140244537&CFTOKEN=89135963\', \'Gal-Ezer, Judith; Hazzan, Orit; Ragonis, Noa\', \'03/04/2009\', \'\\r\\n\\t\\t\\t\\t\\t\', \'3\', [\'http://dl.acm.org/citation.cfm?id=2189861&CFID=140244537&CFTOKEN=89135963&preflayout=flat\', \'http://dl.acm.org/citation.cfm?id=2176506&CFID=140244537&CFTOKEN=89135963&preflayout=flat\', \'http://dl.acm.org/citation.cfm?id=2048934&CFID=140244537&CFTOKEN=89135963&preflayout=flat\'], [\'Status update: high school CS internationally\', \'http://dl.acm.org/citation.cfm?id=2189861&CFID=140244537&CFTOKEN=89135963&preflayout=flat\', \'http://dl.acm.org/ft_gateway.cfm?id=2189861&ftid=1226249&dwn=1&CFID=140244537&CFTOKEN=89135963\', \'Snyder, Lawrence\', \'06/01/2012\', \'\\r\\n\\t\\t\\t\\t\\t\', 0, []], [\'Pre-service computer science teacher training wi... development school (PDS) collaboration framework\', \'http://dl.acm.org/citation.cfm?id=2176506&CFID=140244537&CFTOKEN=89135963&preflayout=flat\', \'http://dl.acm.org/ft_gateway.cfm?id=2176494&ftid=1188126&dwn=1&CFID=140244537&CFTOKEN=89135963\', \'Ragonis, Noa; Oster-Levinz, Anat\', \'10/26/2011\', \'\\r\\n\\t\\t\\t\\t\\t\', 0, []], [\'Looking at Secondary Teacher Preparation Through the Lens of Computer Science\', \'http://dl.acm.org/citation.cfm?id=2048934&CFID=140244537&CFTOKEN=89135963&preflayout=flat\', \'http://dl.acm.org/ft_gateway.cfm?id=2048934&ftid=1059428&dwn=1&CFID=140244537&CFTOKEN=89135963\', \'Armoni, Michal\', \'11/01/2011\', \'\\r\\n\\t\\t\\t\\t\\t\', 0, []]]], ["Why students with an apparent aptitude for compu...science don\'t choose to major in computer science", \'http://dl.acm.org/citation.cfm?id=1121341.112135...M&CFID=140244537&CFTOKEN=89135963&preflayout=flat\', \'http://dl.acm.org/ft_gateway.cfm?id=1121352&ftid=350539&dwn=1&CFID=140244537&CFTOKEN=89135963\', \'Carter, Lori\', \'03/03/2006\', \'\\r\\n\\t\\t\\t\\t\\tThe statistics show that the number of Co... but the reasons for choosing the major differed.\', \'67\', [\'http://dl.acm.org/citation.cfm?id=1461938&CFID=140244537&CFTOKEN=89135963&preflayout=flat\', \'http://dl.acm.org/citation.cfm?id=1858586&CFID=140244537&CFTOKEN=89135963&preflayout=flat\', \'http://dl.acm.org/citation.cfm?id=1352387&CFID=140244537&CFTOKEN=89135963&preflayout=flat\'], [\'Education Human computing skills: rethinking the K-12 experience\', \'http://dl.acm.org/citation.cfm?id=1461938&CFID=140244537&CFTOKEN=89135963&preflayout=flat\', \'http://dl.acm.org/ft_gateway.cfm?id=1461938&ftid=606662&dwn=1&CFID=140244537&CFTOKEN=89135963\', \'Fletcher, George H. L.; Lu, James J.\', \'02/01/2009\', \'\\r\\n\\t\\t\\t\\t\\t\', 1, [\'http://dl.acm.org/citation.cfm?id=1734357&CFID=140244537&CFTOKEN=89135963&preflayout=flat\', \'\', \'\'], [\'Scalable game design and the development of a ch...etting computational thinking into public schools\', \'http://dl.acm.org/citation.cfm?id=1734357&CFID=140244537&CFTOKEN=89135963&preflayout=flat\', \'http://dl.acm.org/ft_gateway.cfm?id=1734357&ftid=752737&dwn=1&CFID=140244537&CFTOKEN=89135963\', \'Repenning, Alexander; Webb, David; Ioannidou, Andri\', \'03/10/2010\', \'\\r\\n\\t\\t\\t\\t\\t\', \'8\', [\'http://dl.acm.org/citation.cfm?id=2157191&CFID=140244537&CFTOKEN=89135963&preflayout=flat\', \'http://dl.acm.org/citation.cfm?id=1822154&CFID=140244537&CFTOKEN=89135963&preflayout=flat\', \'http://dl.acm.org/citation.cfm?id=1953241&CFID=140244537&CFTOKEN=89135963&preflayout=flat\']]], [\'Cyber competitions as a computer science recruiting tool\', \'http://dl.acm.org/citation.cfm?id=1858586&CFID=140244537&CFTOKEN=89135963&preflayout=flat\', \'http://dl.acm.org/ft_gateway.cfm?id=1858586&type=pdf&CFID=140244537&CFTOKEN=89135963\', \'Augustine, Thomas A.; DeLooze, Lori L.; Monroe, Justin C.; Wheeler, Christopher G.\', \'12/01/2010\', \'\\r\\n\\t\\t\\t\\t\\t\', 0, []], [\'Using the DC3 forensic challenge as a basis for ...igital forensics upper level undergraduate course\', \'http://dl.acm.org/citation.cfm?id=1352387&CFID=140244537&CFTOKEN=89135963&preflayout=flat\', \'http://dl.acm.org/ft_gateway.cfm?id=1352387&type=pdf&CFID=140244537&CFTOKEN=89135963\', \'Collins, David; McGuire, Timothy\', \'06/01/2008\', \'\\r\\n\\t\\t\\t\\t\\t\', 1, [\'http://dl.acm.org/citation.cfm?id=1940956&CFID=140244537&CFTOKEN=89135963&preflayout=flat\', \'\', \'\'], [\'Designing a computer forensics concentration for cross-disciplinary undergraduate students\', \'http://dl.acm.org/citation.cfm?id=1940956&CFID=140244537&CFTOKEN=89135963&preflayout=flat\', \'http://dl.acm.org/ft_gateway.cfm?id=1940956&ftid=910258&dwn=1&CFID=140244537&CFTOKEN=89135963\', \'Chi, Hongmei; Dix-Richardson, Felecia; Evans, Deidre\', \'10/01/2010\', \'\\r\\n\\t\\t\\t\\t\\t\', 0, []]]], [\'Social networks generate interest in computer science\', \'http://dl.acm.org/citation.cfm?id=1121341.112147...M&CFID=140244537&CFTOKEN=89135963&preflayout=flat\', \'http://dl.acm.org/ft_gateway.cfm?id=1121477&ftid=350959&dwn=1&CFID=140244537&CFTOKEN=89135963\', \'Alt, Casey; Astrachan, Owen; Forbes, Jeffrey; Lucic, Richard; Rodger, Susan\', \'03/31/2006\', \'\\r\\n\\t\\t\\t\\t\\tFor forty years programming has been the ...ience at a wide variety of schools at all levels.\', \'15\', [\'http://dl.acm.org/citation.cfm?id=2003634&CFID=140244537&CFTOKEN=89135963&preflayout=flat\', \'http://dl.acm.org/citation.cfm?id=2184598&CFID=140244537&CFTOKEN=89135963&preflayout=flat\', \'http://dl.acm.org/citation.cfm?id=1734336&CFID=140244537&CFTOKEN=89135963&preflayout=flat\'], [\'Web information retrieval and filtering course to undergraduates using open source programming\', \'http://dl.acm.org/citation.cfm?id=2003634&CFID=140244537&CFTOKEN=89135963&preflayout=flat\', \'http://dl.acm.org/ft_gateway.cfm?id=2003634&ftid=1017625&dwn=1&CFID=140244537&CFTOKEN=89135963\', \'Jung, Seikyung; Lawrance, Joseph\', \'08/31/2011\', \'\\r\\n\\t\\t\\t\\t\\t\', 0, []], [\'Social network programming with JavaScript and Spotter\', \'http://dl.acm.org/citation.cfm?id=2184598&CFID=140244537&CFTOKEN=89135963&preflayout=flat\', \'http://dl.acm.org/ft_gateway.cfm?id=2184598&ftid=1202468&dwn=1&CFID=140244537&CFTOKEN=89135963\', \'Purewal Jr., Tarsem S.; Brown, David\', \'03/29/2012\', \'\\r\\n\\t\\t\\t\\t\\t\', 0, []], [\'Braided teaching in secondary CS education: contexts, continuity, and the role of programming\', \'http://dl.acm.org/citation.cfm?id=1734336&CFID=140244537&CFTOKEN=89135963&preflayout=flat\', \'http://dl.acm.org/ft_gateway.cfm?id=1734336&ftid=752723&dwn=1&CFID=140244537&CFTOKEN=89135963\', \'Pasternak, Arno; Vahrenhold, Jan\', \'03/10/2010\', \'\\r\\n\\t\\t\\t\\t\\t\', \'2\', [\'http://dl.acm.org/citation.cfm?id=2157154&CFID=140244537&CFTOKEN=89135963&preflayout=flat\', \'http://dl.acm.org/citation.cfm?id=2157272&CFID=140244537&CFTOKEN=89135963&preflayout=flat\', \'\'], [\'Design and evaluation of a braided teaching course in sixth grade computer science education\', \'http://dl.acm.org/citation.cfm?id=2157154&CFID=140244537&CFTOKEN=89135963&preflayout=flat\', \'http://dl.acm.org/ft_gateway.cfm?id=2157154&ftid=1161236&dwn=1&CFID=140244537&CFTOKEN=89135963\', \'Pasternak, Arno; Vahrenhold, Jan\', \'02/29/2012\', \'\\r\\n\\t\\t\\t\\t\\t\', 0, []], [\'Beyond competency: a context-driven CSO course\', \'http://dl.acm.org/citation.cfm?id=2157272&CFID=140244537&CFTOKEN=89135963&preflayout=flat\', \'http://dl.acm.org/ft_gateway.cfm?id=2157272&ftid=1161321&dwn=1&CFID=140244537&CFTOKEN=89135963\', \'Cramer, Jeff; Toll, Bill\', \'02/29/2012\', \'\\r\\n\\t\\t\\t\\t\\t\', 0, []]]]]'
p4862
sS'TBODY'
p4863
S"<class 'gluon.html.TBODY'>"
p4864
sS'CAT'
p4865
S"<class 'gluon.html.CAT'>"
p4866
sS'Field'
p4867
S"<class 'gluon.dal.Field'>"
p4868
sS'DIV'
p4869
S"<class 'gluon.html.DIV'>"
p4870
sS'LEGEND'
p4871
S"<class 'gluon.html.LEGEND'>"
p4872
sS'COLGROUP'
p4873
S"<class 'gluon.html.COLGROUP'>"
p4874
sS'DAL'
p4875
S"<class 'gluon.dal.DAL'>"
p4876
sS'TT'
p4877
S"<class 'gluon.html.TT'>"
p4878
sS'TR'
p4879
S"<class 'gluon.html.TR'>"
p4880
sS'LI'
p4881
S"<class 'gluon.html.LI'>"
p4882
sS'A4'
p4883
S'(595.275590551181, 841.8897637795275)'
p4884
sS'IFRAME'
p4885
S"<class 'gluon.html.IFRAME'>"
p4886
sS'inch'
p4887
S'72.0'
p4888
sS'TD'
p4889
S"<class 'gluon.html.TD'>"
p4890
sS'PluginManager'
p4891
S"<class 'gluon.tools.PluginManager'>"
p4892
sS'IS_URL'
p4893
S"<class 'gluon.validators.IS_URL'>"
p4894
sS'TA_JUSTIFY'
p4895
S'4'
sS'model_report'
p4896
S"'/home/maneesha/Downloads/web2py/.Rough'"
p4897
sS'STYLE'
p4898
S"<class 'gluon.html.STYLE'>"
p4899
sS'elements'
p4900
S'[]'
p4901
sS'IS_DATETIME_IN_RANGE'
p4902
S"<class 'gluon.validators.IS_DATETIME_IN_RANGE'>"
p4903
sS'populate'
p4904
S'<function populate>'
p4905
sS'I'
S"<class 'gluon.html.I'>"
p4906
sS'crud'
p4907
S'<gluon.tools.Crud object>'
p4908
sS'reportlab'
p4909
S"<module 'reportlab' from '/usr/lib/python2.7/dist-packages/reportlab/__init__.pyc'>"
p4910
sS'most'
p4911
S"[(' Arno Pasternak', 3), (' Jan  Vahrenhold', 3), (' Lawrence Snyder', 2), (' Richard  Lucic', 1), (' Deidre  Evans', 1)]"
p4912
sS'letter'
p4913
S'(612.0, 792.0)'
p4914
sg3595
S"<Storage {'body': <cStringIO.StringO object at 0...7fbd8c175aa0>, 'view': 'default/final_ans.html'}>"
p4915
sS'THEAD'
p4916
S"<class 'gluon.html.THEAD'>"
p4917
sS'IS_NULL_OR'
p4918
S"<class 'gluon.validators.IS_EMPTY_OR'>"
p4919
sS'noun'
p4920
S'<function noun>'
p4921
sS'doc'
p4922
S'<reportlab.platypus.doctemplate.SimpleDocTemplate instance>'
p4923
sS'__name__'
p4924
S"'__restricted__'"
p4925
sS'IS_FLOAT_IN_RANGE'
p4926
S"<class 'gluon.validators.IS_FLOAT_IN_RANGE'>"
p4927
sS'IS_EXPR'
p4928
S"<class 'gluon.validators.IS_EXPR'>"
p4929
sS'T'
S'<gluon.languages.translator object>'
p4930
sS'IS_IN_SET'
p4931
S"<class 'gluon.validators.IS_IN_SET'>"
p4932
sS'IS_UPLOAD_FILENAME'
p4933
S"<class 'gluon.validators.IS_UPLOAD_FILENAME'>"
p4934
sS're'
p4935
S"<module 're' from '/usr/lib/python2.7/re.pyc'>"
p4936
sS'IS_DECIMAL_IN_RANGE'
p4937
S"<class 'gluon.validators.IS_DECIMAL_IN_RANGE'>"
p4938
sssS'traceback'
p4939
S'Traceback (most recent call last):\n  File "/home/chitra/courses/SSAD/web2py/gluon/restricted.py", line 205, in restricted\n    exec ccode in environment\n  File "/home/chitra/courses/SSAD/web2py/applications/cite_m5/views/default/final_ans.html", line 235, in <module>\nIOError: [Errno 2] No such file or directory: \'/home/maneesha/Downloads/web2py/.Rough\'\n'
p4940
s.