(dp1
S'output'
p2
S"<class 'urllib2.HTTPError'> HTTP Error 504: Gateway Time-out"
p3
sS'layer'
p4
S'/home/maneesha/Downloads/web2py/applications/cite_mf/controllers/default.py'
p5
sS'code'
p6
S'# -*- coding: utf-8 -*-\n### required - do no delete\ndef user(): return dict(form=auth())\n#def download(): return response.download(request,db)\n#def call(): return service()\n### end requires\n#def index():\n #   return dict()\n\n#def error():\n #   return dict()\nfrom gluon.tools import fetch  \nfrom time import sleep\nfrom random import randrange\nimport re\nlistf=[]\ncount=0\nbigans=[]# store the final ouput to be passed into the view\n@auth.requires_login()    #login reqired to access index page\ndef index():\n    form=SQLFORM(db.input) #displays the form to user for taking the input from the user\n    if form.process().accepted:\n        response.flash = \'Login successful\'\n        redirect(URL(\'final_ans\'))\n    return dict(form=form)\ndef extract1(url,l1): #extracts the top_result urls from the first page\n    ret=[]\n    html=fetch(url) #fetches the html page of the given url ans stores it in a string html\n    html_splitted=html.split("<A HREF=\\"citation.cfm") #splitting the fetched string\n    ht=html_splitted[0]\n    del html_splitted[0]\n    k=html_splitted[0].split(\'>\')\n    if k[1][:-3]==l1[0]:#if the user inputs title of a paper\n        k=html_splitted[0].find(\'\\"\')\n        s="http://dl.acm.org/citation.cfm"+html_splitted[0][:k]\n        ret.append(s.split(\'&preflayout\')[0]+\'&preflayout=flat\')\n    else: #if user inputs some keywords\n        for i in range(0,l1[2]):\n            k=html_splitted[i].find(\'\\"\')\n            s="http://dl.acm.org/citation.cfm"+html_splitted[i][:k]\n            ret.append(s.split(\'&preflayout\')[0]+\'&preflayout=flat\')\n    return ret\ndef sorting():\n    bigans=[]   #stores final output in a list\n    l1=u_filter() #stores the user input in list l1\n    url="http://dl.acm.org/results.cfm?h=1&query="+\'+\'.join(l1[0].split()) #construct corresponding url\n    fst_l=[]\n    ret1=[]\n    fst_l=extract1(url,l1) #extracts the urls of query results and stores it in a list fst_l\n    rec(fst_l,l1,bigans)  #this function recursively fetches the required information and stores every result in list bigans.\n    if request.args(0)==\'0\':  #if the list needs to be sorted by relevence,the bigans doesnt change.\n        pass\n    else:\n        bigans=sorted(bigans,key=lambda x:(x[4][6:]*360+x[4][:2]*30+x[4][3:5]),reverse=True)    #if the list needs to be sorted according to release date,it is sorted by sorted() python inbuilt function.\n    au=db(auth.user.username==db.auth_user.username).select().first()   \n    email=au.email        #email of user who is logged in is extracted.\n    return dict(bigans=bigans,level=l1[1],top=l1[2],ret1=ret1,email=email)   \ndef final_ans():\n    bigans=[] #stores the final output in a list\n    l1=u_filter() #extracting the user input in a list\n    url="http://dl.acm.org/results.cfm?h=1&query="+\'+\'.join(l1[0].split()) #forming the url\n    fst_l=[]\n    ret1=[]\n    fst_l=extract1(url,l1)     #extracts the urls of query results and stores it in a list fst_l\n    rec(fst_l,l1,bigans)  #this function recursively fetches the required information and stores every result in list bigans.\n    au=db(auth.user.username==db.auth_user.username).select().first()\n    email=au.email       #email of user who is logged in is extracted.\n    return dict(bigans=bigans,level=l1[1],top=l1[2],ret1=ret1,email=email)\ndef rec(list1,l1,bigans):     #recursion that results the tree of citations.\n    global count #variable for level of recursion.\n    count=count+1\n    global listf\n    listf.append([])\n    for x in list1:\n        if x!=\'\':\n            sleep(randrange(1,5))      #this is to avoid flooding the target url by multiple requests with less time gap.\n            z=cite(x)               #parsing the url x and storing it in a list z\n            bigans.append(z)        #stores that information in bigans\n            if count < l1[1]:            #if level of recursion is less than user input only then continue recursion else return\n                rec(z[7],l1,bigans[-1])     #recursive calls\n    count=count-1\n    return\ndef cite(url):\n    if url==\'\':\n        return []\n    l1=u_filter()\n    html=fetch(url)\n    temp=[]\n    d=re.search(\'<meta name="citation_title"[\\w\\W]*?>\',html).group()\n    d=bold(d)\n    temp.append(d.split(\'=\')[2][1:-2])\n    temp.append(url)\n    f=re.search(\'\\"ft_gateway.cfm[\\w\\W]*?\\"\',html)\n    if f!=None:\n        f=f.group()\n        f=bold(f)\n        temp.append(\'http://dl.acm.org/\'+f[1:-1])\n    else:\n        temp.append(url)\n    c=re.search(\'<meta name="citation_authors"[\\w\\W]*?>\',html).group()\n    c=bold(c)\n    if l1[3]==1:\n        temp.append(c.split(\'=\')[2][1:-2])\n    else:\n        temp.append(-1)\n    b=re.search(\'<meta name="citation_date"[\\w\\W]*?>\',html).group()\n    b=bold(b)\n    if l1[5]==1:\n        temp.append(b.split(\'=\')[2][1:-2])\n    else:\n        temp.append(-1)\n    h=re.search(\'<A NAME="abstract" class="small-text">ABSTRACT[\\w\\W]*?</div>\',html)\n    if h!=None:\n        h=h.group()\n        h=bold(h)\n        if \'An abstract is not available.\' in h:\n            h1="An abstract is not available."\n        elif \'<div style=\\"display:inline\\">\' in h:\n\n            h1=h.split(\'<div style=\\"display:inline\\">\')[1]\n            h1=remove(h1)\n        else:\n            h=h.replace(\'</A></h1>\',\'\')\n            h=remove(h)\n            h1=h.split(\'>\')[1]\n    else:\n        h1=-1\n    temp.append(h1)\n    s=re.search(\'CITED BY[\\w\\W]*?INDEX TERMS\',html).group()\n    if \'Citings are not available\' not in s:\n        e=re.search(\'\\d* Citations\',s)\n        if l1[4]!=1:\n            temp.append(-1)\n        elif e!=None:\n            temp.append(e.group().split()[0])\n        else:                                                                            \n            temp.append(1)\n        i=0\n        cit=[]\n        while i < l1[2]:\n            i+=1\n            s1=re.search(\'<a href[\\w\\W]*?</a>\',s)\n            if s1==None:\n                cit.append(\'\')\n            elif s1!=None:\n                k=s.find(s1.group())\n                cit.append(("http://dl.acm.org/"+s1.group().split(\'\\"\')[1]).split(\'&preflayout\')[0]+\'&preflayout=flat\')\n                s=s[k+2:]\n           \n        temp.append(cit)\n    else:\n        if l1[4]==1:\n            temp.append(0)\n        else:\n            temp.append(-1)\n        temp.append([])\n    return temp\ndef u_filter():\n    inpu=db().select(db.input.ALL)  #selects the last entry in the database table\n    for inp in inpu:\n        key=inp.keywords                    #stores each entry of database into a variable\n        level=inp.Recursion_levels\n        top=inp.Top_results\n        auth=inp.Show_author\n        cited_by=inp.Show_no_of_citations\n        year=inp.Show_release_date\n    return [key,level,top,auth,cited_by,year]      #returns a list\ndef bold(d):              #this function removes the unwanted bold tags from the html page extracted\n    pre=""\n    while pre!=d:\n        pre=d\n        d=d.replace("<b>","")\n        d=d.replace("</b>","")\n    return d\ndef remove(d):          #this function removes unwanted html tags from text.\n    pre=""\n    while pre!=d:                     #removes paragraph tags\n        pre=d\n        d=d.replace("<p>","")\n        d=d.replace("</p>","")\n    pre=""\n    while pre!=d:                     #removes div tags\n        pre=d\n        d=d.replace("<div style=\\"display:inline\\">","") \n        d=d.replace("</div>","")\n    pre=""\n    while pre!=d:                     #removes br tags\n        pre=d\n        d=d.replace("<br>","")\n    pre=""\n    while pre!=d:                     #removes par tags\n        pre=d\n        d=d.replace("<par>","")\n        d=d.replace("</par>","")\n    return d            #returns the filtered text\ndef abstract1():\n    abss=request.args[0]\n    pre=""\n    while pre!=abss:\n        pre=abss\n        abss=abss.replace("_"," ")\n    abss1=abss.split(".")       \n    return dict(abss1=abss1)\n\nresponse._vars=response._caller(final_ans)\n'
p7
sS'snapshot'
p8
(dp9
S'exception'
p10
(dp11
S'__module__'
p12
S"'urllib2'"
p13
sg6
S'504'
p14
sS'__getslice__'
p15
S"<method-wrapper '__getslice__' of HTTPError object>"
p16
sS'__str__'
p17
S'<bound method HTTPError.__str__ of HTTPError()>'
p18
sS'__reduce__'
p19
S'<built-in method __reduce__ of HTTPError object>'
p20
sS'strerror'
p21
S'None'
p22
sS'__dict__'
p23
S"{'__iter__': <bound method _fileobject.__iter__ of <socket._fileobject object>>, 'code': 504, 'fileno': <bound method _fileobject.fileno of <socket._fileobject object>>, 'fp': <addinfourl at 139641804684824 whose fp = <socket._fileobject object>>, 'hdrs': <httplib.HTTPMessage instance>, 'headers': <httplib.HTTPMessage instance>, 'msg': 'Gateway Time-out', 'next': <bound method _fileobject.next of <socket._fileobject object>>, 'read': <bound method _fileobject.read of <socket._fileobject object>>, 'readline': <bound method _fileobject.readline of <socket._fileobject object>>, ...}"
p24
sS'close'
p25
S'<bound method HTTPError.close of HTTPError()>'
p26
sS'__sizeof__'
p27
S'<built-in method __sizeof__ of HTTPError object>'
p28
sS'next'
p29
S'<bound method _fileobject.next of <socket._fileobject object>>'
p30
sS'__weakref__'
p31
S'None'
p32
sS'__init__'
p33
S'<bound method HTTPError.__init__ of HTTPError()>'
p34
sS'__setattr__'
p35
S"<method-wrapper '__setattr__' of HTTPError object>"
p36
sS'__reduce_ex__'
p37
S'<built-in method __reduce_ex__ of HTTPError object>'
p38
sS'__new__'
p39
S'<built-in method __new__ of type object>'
p40
sS'headers'
p41
S'<httplib.HTTPMessage instance>'
p42
sS'errno'
p43
S'None'
p44
sS'readlines'
p45
S'<bound method _fileobject.readlines of <socket._fileobject object>>'
p46
sS'__format__'
p47
S'<built-in method __format__ of HTTPError object>'
p48
sS'__class__'
p49
S"<class 'urllib2.HTTPError'>"
p50
sS'filename'
p51
S"'http://dl.acm.org/results.cfm?h=1&query=database+design'"
p52
sS'_HTTPError__super_init'
p53
S'<bound method HTTPError.__init__ of HTTPError()>'
p54
sS'msg'
p55
S"'Gateway Time-out'"
p56
sS'__doc__'
p57
S"'Raised when HTTP error occurs, but also acts like non-error return'"
p58
sS'fp'
p59
S'<addinfourl at 139641804684824 whose fp = <socket._fileobject object>>'
p60
sS'hdrs'
p61
S'<httplib.HTTPMessage instance>'
p62
sS'__getitem__'
p63
S"<method-wrapper '__getitem__' of HTTPError object>"
p64
sS'__setstate__'
p65
S'<built-in method __setstate__ of HTTPError object>'
p66
sS'read'
p67
S'<bound method _fileobject.read of <socket._fileobject object>>'
p68
sS'__getattribute__'
p69
S"<method-wrapper '__getattribute__' of HTTPError object>"
p70
sS'args'
p71
S'()'
p72
sS'__iter__'
p73
S'<bound method _fileobject.__iter__ of <socket._fileobject object>>'
p74
sS'__subclasshook__'
p75
S'<built-in method __subclasshook__ of type object>'
p76
sS'readline'
p77
S'<bound method _fileobject.readline of <socket._fileobject object>>'
p78
sS'__unicode__'
p79
S'<built-in method __unicode__ of HTTPError object>'
p80
sS'info'
p81
S'<bound method HTTPError.info of HTTPError()>'
p82
sS'fileno'
p83
S'<bound method _fileobject.fileno of <socket._fileobject object>>'
p84
sS'getcode'
p85
S'<bound method HTTPError.getcode of HTTPError()>'
p86
sS'url'
p87
S"'http://dl.acm.org/results.cfm?h=1&query=database+design'"
p88
sS'reason'
p89
S"'Gateway Time-out'"
p90
sS'geturl'
p91
S'<bound method HTTPError.geturl of HTTPError()>'
p92
sS'__delattr__'
p93
S"<method-wrapper '__delattr__' of HTTPError object>"
p94
sS'__repr__'
p95
S"<method-wrapper '__repr__' of HTTPError object>"
p96
sS'__hash__'
p97
S"<method-wrapper '__hash__' of HTTPError object>"
p98
ssS'evalue'
p99
S'HTTP Error 504: Gateway Time-out'
p100
sS'request'
p101
ccopy_reg
_reconstructor
p102
(cgluon.html
BEAUTIFY
p103
c__builtin__
object
p104
NtRp105
(dp106
S'attributes'
p107
(dp108
sS'components'
p109
(lp110
g102
(cgluon.html
TABLE
p111
g104
NtRp112
(dp113
g107
(dp114
S'level'
p115
I5
ssS'parent'
p116
Nsg109
(lp117
g102
(cgluon.html
TR
p118
g104
NtRp119
(dp120
g107
(dp121
sg116
g112
sg109
(lp122
g102
(cgluon.html
TD
p123
g104
NtRp124
(dp125
g107
(dp126
S'_style'
p127
S'font-weight:bold;vertical-align:top'
p128
ssg116
g119
sg109
(lp129
S'ajax'
p130
asbag102
(g123
g104
NtRp131
(dp132
g107
(dp133
S'_valign'
p134
S'top'
p135
ssg116
g119
sg109
(lp136
S':'
asbag102
(g123
g104
NtRp137
(dp138
g107
(dp139
sg116
g119
sg109
(lp140
g102
(g103
g104
NtRp141
(dp142
g107
(dp143
g115
I5
ssg116
g137
sg109
(lp144
S'False'
p145
asbasbasbag102
(g118
g104
NtRp146
(dp147
g107
(dp148
sg116
g112
sg109
(lp149
g102
(g123
g104
NtRp150
(dp151
g107
(dp152
g127
g128
ssg116
g146
sg109
(lp153
S'application'
p154
asbag102
(g123
g104
NtRp155
(dp156
g107
(dp157
g134
g135
ssg116
g146
sg109
(lp158
S':'
asbag102
(g123
g104
NtRp159
(dp160
g107
(dp161
sg116
g146
sg109
(lp162
g102
(g103
g104
NtRp163
(dp164
g107
(dp165
g115
I5
ssg116
g159
sg109
(lp166
S'cite_mf'
p167
asbasbasbag102
(g118
g104
NtRp168
(dp169
g107
(dp170
sg116
g112
sg109
(lp171
g102
(g123
g104
NtRp172
(dp173
g107
(dp174
g127
g128
ssg116
g168
sg109
(lp175
g71
asbag102
(g123
g104
NtRp176
(dp177
g107
(dp178
g134
g135
ssg116
g168
sg109
(lp179
S':'
asbag102
(g123
g104
NtRp180
(dp181
g107
(dp182
sg116
g168
sg109
(lp183
g102
(g103
g104
NtRp184
(dp185
g107
(dp186
g115
I5
ssg116
g180
sg109
(lp187
g102
(g111
g104
NtRp188
(dp189
g107
(dp190
g115
I4
ssg116
Nsg109
(lp191
sbasbasbasbag102
(g118
g104
NtRp192
(dp193
g107
(dp194
sg116
g112
sg109
(lp195
g102
(g123
g104
NtRp196
(dp197
g107
(dp198
g127
g128
ssg116
g192
sg109
(lp199
S'body'
p200
asbag102
(g123
g104
NtRp201
(dp202
g107
(dp203
g134
g135
ssg116
g192
sg109
(lp204
S':'
asbag102
(g123
g104
NtRp205
(dp206
g107
(dp207
sg116
g192
sg109
(lp208
g102
(g103
g104
NtRp209
(dp210
g107
(dp211
g115
I5
ssg116
g205
sg109
(lp212
S'<cStringIO.StringO object at 0x7f00e4291340>'
p213
asbasbasbag102
(g118
g104
NtRp214
(dp215
g107
(dp216
sg116
g112
sg109
(lp217
g102
(g123
g104
NtRp218
(dp219
g107
(dp220
g127
g128
ssg116
g214
sg109
(lp221
S'client'
p222
asbag102
(g123
g104
NtRp223
(dp224
g107
(dp225
g134
g135
ssg116
g214
sg109
(lp226
S':'
asbag102
(g123
g104
NtRp227
(dp228
g107
(dp229
sg116
g214
sg109
(lp230
g102
(g103
g104
NtRp231
(dp232
g107
(dp233
g115
I5
ssg116
g227
sg109
(lp234
S'127.0.0.1'
p235
asbasbasbag102
(g118
g104
NtRp236
(dp237
g107
(dp238
sg116
g112
sg109
(lp239
g102
(g123
g104
NtRp240
(dp241
g107
(dp242
g127
g128
ssg116
g236
sg109
(lp243
S'controller'
p244
asbag102
(g123
g104
NtRp245
(dp246
g107
(dp247
g134
g135
ssg116
g236
sg109
(lp248
S':'
asbag102
(g123
g104
NtRp249
(dp250
g107
(dp251
sg116
g236
sg109
(lp252
g102
(g103
g104
NtRp253
(dp254
g107
(dp255
g115
I5
ssg116
g249
sg109
(lp256
S'default'
p257
asbasbasbag102
(g118
g104
NtRp258
(dp259
g107
(dp260
sg116
g112
sg109
(lp261
g102
(g123
g104
NtRp262
(dp263
g107
(dp264
g127
g128
ssg116
g258
sg109
(lp265
S'cookies'
p266
asbag102
(g123
g104
NtRp267
(dp268
g107
(dp269
g134
g135
ssg116
g258
sg109
(lp270
S':'
asbag102
(g123
g104
NtRp271
(dp272
g107
(dp273
sg116
g258
sg109
(lp274
g102
(g103
g104
NtRp275
(dp276
g107
(dp277
g115
I5
ssg116
g271
sg109
(lp278
g102
(g111
g104
NtRp279
(dp280
g107
(dp281
g115
I4
ssg116
Nsg109
(lp282
g102
(g118
g104
NtRp283
(dp284
g107
(dp285
sg116
g279
sg109
(lp286
g102
(g123
g104
NtRp287
(dp288
g107
(dp289
g127
g128
ssg116
g283
sg109
(lp290
S'session_id_admin'
p291
asbag102
(g123
g104
NtRp292
(dp293
g107
(dp294
g134
g135
ssg116
g283
sg109
(lp295
S':'
asbag102
(g123
g104
NtRp296
(dp297
g107
(dp298
sg116
g283
sg109
(lp299
g102
(g103
g104
NtRp300
(dp301
g107
(dp302
g115
I4
ssg116
g296
sg109
(lp303
g102
(g111
g104
NtRp304
(dp305
g107
(dp306
g115
I3
ssg116
Nsg109
(lp307
g102
(g118
g104
NtRp308
(dp309
g107
(dp310
sg116
g304
sg109
(lp311
g102
(g123
g104
NtRp312
(dp313
g107
(dp314
g127
g128
ssg116
g308
sg109
(lp315
S'comment'
p316
asbag102
(g123
g104
NtRp317
(dp318
g107
(dp319
g134
g135
ssg116
g308
sg109
(lp320
S':'
asbag102
(g123
g104
NtRp321
(dp322
g107
(dp323
sg116
g308
sg109
(lp324
g102
(g103
g104
NtRp325
(dp326
g107
(dp327
g115
I3
ssg116
g321
sg109
(lp328
S''
asbasbasbag102
(g118
g104
NtRp329
(dp330
g107
(dp331
sg116
g304
sg109
(lp332
g102
(g123
g104
NtRp333
(dp334
g107
(dp335
g127
g128
ssg116
g329
sg109
(lp336
S'domain'
p337
asbag102
(g123
g104
NtRp338
(dp339
g107
(dp340
g134
g135
ssg116
g329
sg109
(lp341
S':'
asbag102
(g123
g104
NtRp342
(dp343
g107
(dp344
sg116
g329
sg109
(lp345
g102
(g103
g104
NtRp346
(dp347
g107
(dp348
g115
I3
ssg116
g342
sg109
(lp349
S''
asbasbasbag102
(g118
g104
NtRp350
(dp351
g107
(dp352
sg116
g304
sg109
(lp353
g102
(g123
g104
NtRp354
(dp355
g107
(dp356
g127
g128
ssg116
g350
sg109
(lp357
S'expires'
p358
asbag102
(g123
g104
NtRp359
(dp360
g107
(dp361
g134
g135
ssg116
g350
sg109
(lp362
S':'
asbag102
(g123
g104
NtRp363
(dp364
g107
(dp365
sg116
g350
sg109
(lp366
g102
(g103
g104
NtRp367
(dp368
g107
(dp369
g115
I3
ssg116
g363
sg109
(lp370
S''
asbasbasbag102
(g118
g104
NtRp371
(dp372
g107
(dp373
sg116
g304
sg109
(lp374
g102
(g123
g104
NtRp375
(dp376
g107
(dp377
g127
g128
ssg116
g371
sg109
(lp378
S'httponly'
p379
asbag102
(g123
g104
NtRp380
(dp381
g107
(dp382
g134
g135
ssg116
g371
sg109
(lp383
S':'
asbag102
(g123
g104
NtRp384
(dp385
g107
(dp386
sg116
g371
sg109
(lp387
g102
(g103
g104
NtRp388
(dp389
g107
(dp390
g115
I3
ssg116
g384
sg109
(lp391
S''
asbasbasbag102
(g118
g104
NtRp392
(dp393
g107
(dp394
sg116
g304
sg109
(lp395
g102
(g123
g104
NtRp396
(dp397
g107
(dp398
g127
g128
ssg116
g392
sg109
(lp399
S'max-age'
p400
asbag102
(g123
g104
NtRp401
(dp402
g107
(dp403
g134
g135
ssg116
g392
sg109
(lp404
S':'
asbag102
(g123
g104
NtRp405
(dp406
g107
(dp407
sg116
g392
sg109
(lp408
g102
(g103
g104
NtRp409
(dp410
g107
(dp411
g115
I3
ssg116
g405
sg109
(lp412
S''
asbasbasbag102
(g118
g104
NtRp413
(dp414
g107
(dp415
sg116
g304
sg109
(lp416
g102
(g123
g104
NtRp417
(dp418
g107
(dp419
g127
g128
ssg116
g413
sg109
(lp420
S'path'
p421
asbag102
(g123
g104
NtRp422
(dp423
g107
(dp424
g134
g135
ssg116
g413
sg109
(lp425
S':'
asbag102
(g123
g104
NtRp426
(dp427
g107
(dp428
sg116
g413
sg109
(lp429
g102
(g103
g104
NtRp430
(dp431
g107
(dp432
g115
I3
ssg116
g426
sg109
(lp433
S''
asbasbasbag102
(g118
g104
NtRp434
(dp435
g107
(dp436
sg116
g304
sg109
(lp437
g102
(g123
g104
NtRp438
(dp439
g107
(dp440
g127
g128
ssg116
g434
sg109
(lp441
S'secure'
p442
asbag102
(g123
g104
NtRp443
(dp444
g107
(dp445
g134
g135
ssg116
g434
sg109
(lp446
S':'
asbag102
(g123
g104
NtRp447
(dp448
g107
(dp449
sg116
g434
sg109
(lp450
g102
(g103
g104
NtRp451
(dp452
g107
(dp453
g115
I3
ssg116
g447
sg109
(lp454
S''
asbasbasbag102
(g118
g104
NtRp455
(dp456
g107
(dp457
sg116
g304
sg109
(lp458
g102
(g123
g104
NtRp459
(dp460
g107
(dp461
g127
g128
ssg116
g455
sg109
(lp462
S'version'
p463
asbag102
(g123
g104
NtRp464
(dp465
g107
(dp466
g134
g135
ssg116
g455
sg109
(lp467
S':'
asbag102
(g123
g104
NtRp468
(dp469
g107
(dp470
sg116
g455
sg109
(lp471
g102
(g103
g104
NtRp472
(dp473
g107
(dp474
g115
I3
ssg116
g468
sg109
(lp475
S''
asbasbasbasbasbasbasbag102
(g118
g104
NtRp476
(dp477
g107
(dp478
sg116
g279
sg109
(lp479
g102
(g123
g104
NtRp480
(dp481
g107
(dp482
g127
g128
ssg116
g476
sg109
(lp483
S'session_id_cite_mf'
p484
asbag102
(g123
g104
NtRp485
(dp486
g107
(dp487
g134
g135
ssg116
g476
sg109
(lp488
S':'
asbag102
(g123
g104
NtRp489
(dp490
g107
(dp491
sg116
g476
sg109
(lp492
g102
(g103
g104
NtRp493
(dp494
g107
(dp495
g115
I4
ssg116
g489
sg109
(lp496
g102
(g111
g104
NtRp497
(dp498
g107
(dp499
g115
I3
ssg116
Nsg109
(lp500
g102
(g118
g104
NtRp501
(dp502
g107
(dp503
sg116
g497
sg109
(lp504
g102
(g123
g104
NtRp505
(dp506
g107
(dp507
g127
g128
ssg116
g501
sg109
(lp508
g316
asbag102
(g123
g104
NtRp509
(dp510
g107
(dp511
g134
g135
ssg116
g501
sg109
(lp512
S':'
asbag102
(g123
g104
NtRp513
(dp514
g107
(dp515
sg116
g501
sg109
(lp516
g102
(g103
g104
NtRp517
(dp518
g107
(dp519
g115
I3
ssg116
g513
sg109
(lp520
S''
asbasbasbag102
(g118
g104
NtRp521
(dp522
g107
(dp523
sg116
g497
sg109
(lp524
g102
(g123
g104
NtRp525
(dp526
g107
(dp527
g127
g128
ssg116
g521
sg109
(lp528
g337
asbag102
(g123
g104
NtRp529
(dp530
g107
(dp531
g134
g135
ssg116
g521
sg109
(lp532
S':'
asbag102
(g123
g104
NtRp533
(dp534
g107
(dp535
sg116
g521
sg109
(lp536
g102
(g103
g104
NtRp537
(dp538
g107
(dp539
g115
I3
ssg116
g533
sg109
(lp540
S''
asbasbasbag102
(g118
g104
NtRp541
(dp542
g107
(dp543
sg116
g497
sg109
(lp544
g102
(g123
g104
NtRp545
(dp546
g107
(dp547
g127
g128
ssg116
g541
sg109
(lp548
g358
asbag102
(g123
g104
NtRp549
(dp550
g107
(dp551
g134
g135
ssg116
g541
sg109
(lp552
S':'
asbag102
(g123
g104
NtRp553
(dp554
g107
(dp555
sg116
g541
sg109
(lp556
g102
(g103
g104
NtRp557
(dp558
g107
(dp559
g115
I3
ssg116
g553
sg109
(lp560
S''
asbasbasbag102
(g118
g104
NtRp561
(dp562
g107
(dp563
sg116
g497
sg109
(lp564
g102
(g123
g104
NtRp565
(dp566
g107
(dp567
g127
g128
ssg116
g561
sg109
(lp568
g379
asbag102
(g123
g104
NtRp569
(dp570
g107
(dp571
g134
g135
ssg116
g561
sg109
(lp572
S':'
asbag102
(g123
g104
NtRp573
(dp574
g107
(dp575
sg116
g561
sg109
(lp576
g102
(g103
g104
NtRp577
(dp578
g107
(dp579
g115
I3
ssg116
g573
sg109
(lp580
S''
asbasbasbag102
(g118
g104
NtRp581
(dp582
g107
(dp583
sg116
g497
sg109
(lp584
g102
(g123
g104
NtRp585
(dp586
g107
(dp587
g127
g128
ssg116
g581
sg109
(lp588
g400
asbag102
(g123
g104
NtRp589
(dp590
g107
(dp591
g134
g135
ssg116
g581
sg109
(lp592
S':'
asbag102
(g123
g104
NtRp593
(dp594
g107
(dp595
sg116
g581
sg109
(lp596
g102
(g103
g104
NtRp597
(dp598
g107
(dp599
g115
I3
ssg116
g593
sg109
(lp600
S''
asbasbasbag102
(g118
g104
NtRp601
(dp602
g107
(dp603
sg116
g497
sg109
(lp604
g102
(g123
g104
NtRp605
(dp606
g107
(dp607
g127
g128
ssg116
g601
sg109
(lp608
g421
asbag102
(g123
g104
NtRp609
(dp610
g107
(dp611
g134
g135
ssg116
g601
sg109
(lp612
S':'
asbag102
(g123
g104
NtRp613
(dp614
g107
(dp615
sg116
g601
sg109
(lp616
g102
(g103
g104
NtRp617
(dp618
g107
(dp619
g115
I3
ssg116
g613
sg109
(lp620
S''
asbasbasbag102
(g118
g104
NtRp621
(dp622
g107
(dp623
sg116
g497
sg109
(lp624
g102
(g123
g104
NtRp625
(dp626
g107
(dp627
g127
g128
ssg116
g621
sg109
(lp628
g442
asbag102
(g123
g104
NtRp629
(dp630
g107
(dp631
g134
g135
ssg116
g621
sg109
(lp632
S':'
asbag102
(g123
g104
NtRp633
(dp634
g107
(dp635
sg116
g621
sg109
(lp636
g102
(g103
g104
NtRp637
(dp638
g107
(dp639
g115
I3
ssg116
g633
sg109
(lp640
S''
asbasbasbag102
(g118
g104
NtRp641
(dp642
g107
(dp643
sg116
g497
sg109
(lp644
g102
(g123
g104
NtRp645
(dp646
g107
(dp647
g127
g128
ssg116
g641
sg109
(lp648
g463
asbag102
(g123
g104
NtRp649
(dp650
g107
(dp651
g134
g135
ssg116
g641
sg109
(lp652
S':'
asbag102
(g123
g104
NtRp653
(dp654
g107
(dp655
sg116
g641
sg109
(lp656
g102
(g103
g104
NtRp657
(dp658
g107
(dp659
g115
I3
ssg116
g653
sg109
(lp660
S''
asbasbasbasbasbasbasbag102
(g118
g104
NtRp661
(dp662
g107
(dp663
sg116
g279
sg109
(lp664
g102
(g123
g104
NtRp665
(dp666
g107
(dp667
g127
g128
ssg116
g661
sg109
(lp668
S'session_id_welcome'
p669
asbag102
(g123
g104
NtRp670
(dp671
g107
(dp672
g134
g135
ssg116
g661
sg109
(lp673
S':'
asbag102
(g123
g104
NtRp674
(dp675
g107
(dp676
sg116
g661
sg109
(lp677
g102
(g103
g104
NtRp678
(dp679
g107
(dp680
g115
I4
ssg116
g674
sg109
(lp681
g102
(g111
g104
NtRp682
(dp683
g107
(dp684
g115
I3
ssg116
Nsg109
(lp685
g102
(g118
g104
NtRp686
(dp687
g107
(dp688
sg116
g682
sg109
(lp689
g102
(g123
g104
NtRp690
(dp691
g107
(dp692
g127
g128
ssg116
g686
sg109
(lp693
g316
asbag102
(g123
g104
NtRp694
(dp695
g107
(dp696
g134
g135
ssg116
g686
sg109
(lp697
S':'
asbag102
(g123
g104
NtRp698
(dp699
g107
(dp700
sg116
g686
sg109
(lp701
g102
(g103
g104
NtRp702
(dp703
g107
(dp704
g115
I3
ssg116
g698
sg109
(lp705
S''
asbasbasbag102
(g118
g104
NtRp706
(dp707
g107
(dp708
sg116
g682
sg109
(lp709
g102
(g123
g104
NtRp710
(dp711
g107
(dp712
g127
g128
ssg116
g706
sg109
(lp713
g337
asbag102
(g123
g104
NtRp714
(dp715
g107
(dp716
g134
g135
ssg116
g706
sg109
(lp717
S':'
asbag102
(g123
g104
NtRp718
(dp719
g107
(dp720
sg116
g706
sg109
(lp721
g102
(g103
g104
NtRp722
(dp723
g107
(dp724
g115
I3
ssg116
g718
sg109
(lp725
S''
asbasbasbag102
(g118
g104
NtRp726
(dp727
g107
(dp728
sg116
g682
sg109
(lp729
g102
(g123
g104
NtRp730
(dp731
g107
(dp732
g127
g128
ssg116
g726
sg109
(lp733
g358
asbag102
(g123
g104
NtRp734
(dp735
g107
(dp736
g134
g135
ssg116
g726
sg109
(lp737
S':'
asbag102
(g123
g104
NtRp738
(dp739
g107
(dp740
sg116
g726
sg109
(lp741
g102
(g103
g104
NtRp742
(dp743
g107
(dp744
g115
I3
ssg116
g738
sg109
(lp745
S''
asbasbasbag102
(g118
g104
NtRp746
(dp747
g107
(dp748
sg116
g682
sg109
(lp749
g102
(g123
g104
NtRp750
(dp751
g107
(dp752
g127
g128
ssg116
g746
sg109
(lp753
g379
asbag102
(g123
g104
NtRp754
(dp755
g107
(dp756
g134
g135
ssg116
g746
sg109
(lp757
S':'
asbag102
(g123
g104
NtRp758
(dp759
g107
(dp760
sg116
g746
sg109
(lp761
g102
(g103
g104
NtRp762
(dp763
g107
(dp764
g115
I3
ssg116
g758
sg109
(lp765
S''
asbasbasbag102
(g118
g104
NtRp766
(dp767
g107
(dp768
sg116
g682
sg109
(lp769
g102
(g123
g104
NtRp770
(dp771
g107
(dp772
g127
g128
ssg116
g766
sg109
(lp773
g400
asbag102
(g123
g104
NtRp774
(dp775
g107
(dp776
g134
g135
ssg116
g766
sg109
(lp777
S':'
asbag102
(g123
g104
NtRp778
(dp779
g107
(dp780
sg116
g766
sg109
(lp781
g102
(g103
g104
NtRp782
(dp783
g107
(dp784
g115
I3
ssg116
g778
sg109
(lp785
S''
asbasbasbag102
(g118
g104
NtRp786
(dp787
g107
(dp788
sg116
g682
sg109
(lp789
g102
(g123
g104
NtRp790
(dp791
g107
(dp792
g127
g128
ssg116
g786
sg109
(lp793
g421
asbag102
(g123
g104
NtRp794
(dp795
g107
(dp796
g134
g135
ssg116
g786
sg109
(lp797
S':'
asbag102
(g123
g104
NtRp798
(dp799
g107
(dp800
sg116
g786
sg109
(lp801
g102
(g103
g104
NtRp802
(dp803
g107
(dp804
g115
I3
ssg116
g798
sg109
(lp805
S''
asbasbasbag102
(g118
g104
NtRp806
(dp807
g107
(dp808
sg116
g682
sg109
(lp809
g102
(g123
g104
NtRp810
(dp811
g107
(dp812
g127
g128
ssg116
g806
sg109
(lp813
g442
asbag102
(g123
g104
NtRp814
(dp815
g107
(dp816
g134
g135
ssg116
g806
sg109
(lp817
S':'
asbag102
(g123
g104
NtRp818
(dp819
g107
(dp820
sg116
g806
sg109
(lp821
g102
(g103
g104
NtRp822
(dp823
g107
(dp824
g115
I3
ssg116
g818
sg109
(lp825
S''
asbasbasbag102
(g118
g104
NtRp826
(dp827
g107
(dp828
sg116
g682
sg109
(lp829
g102
(g123
g104
NtRp830
(dp831
g107
(dp832
g127
g128
ssg116
g826
sg109
(lp833
g463
asbag102
(g123
g104
NtRp834
(dp835
g107
(dp836
g134
g135
ssg116
g826
sg109
(lp837
S':'
asbag102
(g123
g104
NtRp838
(dp839
g107
(dp840
sg116
g826
sg109
(lp841
g102
(g103
g104
NtRp842
(dp843
g107
(dp844
g115
I3
ssg116
g838
sg109
(lp845
S''
asbasbasbasbasbasbasbasbasbasbasbag102
(g118
g104
NtRp846
(dp847
g107
(dp848
sg116
g112
sg109
(lp849
g102
(g123
g104
NtRp850
(dp851
g107
(dp852
g127
g128
ssg116
g846
sg109
(lp853
S'env'
p854
asbag102
(g123
g104
NtRp855
(dp856
g107
(dp857
g134
g135
ssg116
g846
sg109
(lp858
S':'
asbag102
(g123
g104
NtRp859
(dp860
g107
(dp861
sg116
g846
sg109
(lp862
g102
(g103
g104
NtRp863
(dp864
g107
(dp865
g115
I5
ssg116
g859
sg109
(lp866
g102
(g111
g104
NtRp867
(dp868
g107
(dp869
g115
I4
ssg116
Nsg109
(lp870
g102
(g118
g104
NtRp871
(dp872
g107
(dp873
sg116
g867
sg109
(lp874
g102
(g123
g104
NtRp875
(dp876
g107
(dp877
g127
g128
ssg116
g871
sg109
(lp878
S'app_folders'
p879
asbag102
(g123
g104
NtRp880
(dp881
g107
(dp882
g134
g135
ssg116
g871
sg109
(lp883
S':'
asbag102
(g123
g104
NtRp884
(dp885
g107
(dp886
sg116
g871
sg109
(lp887
g102
(g103
g104
NtRp888
(dp889
g107
(dp890
g115
I4
ssg116
g884
sg109
(lp891
S"set(['/home/maneesha/Downloads/web2py/applications/welcome/', '/home/maneesha/Downloads/web2py/applications/admin/', '/home/maneesha/Downloads/web2py/applications/cite_mf/'])"
p892
asbasbasbag102
(g118
g104
NtRp893
(dp894
g107
(dp895
sg116
g867
sg109
(lp896
g102
(g123
g104
NtRp897
(dp898
g107
(dp899
g127
g128
ssg116
g893
sg109
(lp900
S'applications_parent'
p901
asbag102
(g123
g104
NtRp902
(dp903
g107
(dp904
g134
g135
ssg116
g893
sg109
(lp905
S':'
asbag102
(g123
g104
NtRp906
(dp907
g107
(dp908
sg116
g893
sg109
(lp909
g102
(g103
g104
NtRp910
(dp911
g107
(dp912
g115
I4
ssg116
g906
sg109
(lp913
S'/home/maneesha/Downloads/web2py'
p914
asbasbasbag102
(g118
g104
NtRp915
(dp916
g107
(dp917
sg116
g867
sg109
(lp918
g102
(g123
g104
NtRp919
(dp920
g107
(dp921
g127
g128
ssg116
g915
sg109
(lp922
S'cmd_args'
p923
asbag102
(g123
g104
NtRp924
(dp925
g107
(dp926
g134
g135
ssg116
g915
sg109
(lp927
S':'
asbag102
(g123
g104
NtRp928
(dp929
g107
(dp930
sg116
g915
sg109
(lp931
g102
(g103
g104
NtRp932
(dp933
g107
(dp934
g115
I4
ssg116
g928
sg109
(lp935
g102
(g111
g104
NtRp936
(dp937
g107
(dp938
g115
I3
ssg116
Nsg109
(lp939
sbasbasbasbag102
(g118
g104
NtRp940
(dp941
g107
(dp942
sg116
g867
sg109
(lp943
g102
(g123
g104
NtRp944
(dp945
g107
(dp946
g127
g128
ssg116
g940
sg109
(lp947
S'cmd_options'
p948
asbag102
(g123
g104
NtRp949
(dp950
g107
(dp951
g134
g135
ssg116
g940
sg109
(lp952
S':'
asbag102
(g123
g104
NtRp953
(dp954
g107
(dp955
sg116
g940
sg109
(lp956
g102
(g103
g104
NtRp957
(dp958
g107
(dp959
g115
I4
ssg116
g953
sg109
(lp960
S"<Values at 0x14beb00: {'verbose': False, 'ip': '127.0.0.1', 'shutdown_timeout': 5, 'taskbar': False, 'nocron': False, 'pid_filename': 'httpserver.pid', 'maxthreads': None, 'softcron': False, 'server_name': 'maneesha-Inspiron-N5050', 'bpython': False, 'nogui': False, 'port': 8000, 'extcron': False, 'debuglevel': 30, 'test': None, 'folder': '/home/maneesha/Downloads/web2py', 'config': '', 'import_models': False, 'winservice': '', 'shell': None, 'run': '', 'log_filename': 'httpserver.log', 'args': [''], 'socket_timeout': 5, 'ssl_ca_certificate': None, 'scheduler': None, 'profiler_filename': None, 'ssl_private_key': '', 'password': '<ask>', 'request_queue_size': 5, 'ssl_certificate': '', 'cronjob': False, 'numthreads': None, 'quiet': False, 'interfaces': None, 'minthreads': None, 'timeout': 10, 'plain': False, 'nobanner': False}>"
p961
asbasbasbag102
(g118
g104
NtRp962
(dp963
g107
(dp964
sg116
g867
sg109
(lp965
g102
(g123
g104
NtRp966
(dp967
g107
(dp968
g127
g128
ssg116
g962
sg109
(lp969
S'db_sessions'
p970
asbag102
(g123
g104
NtRp971
(dp972
g107
(dp973
g134
g135
ssg116
g962
sg109
(lp974
S':'
asbag102
(g123
g104
NtRp975
(dp976
g107
(dp977
sg116
g962
sg109
(lp978
g102
(g103
g104
NtRp979
(dp980
g107
(dp981
g115
I4
ssg116
g975
sg109
(lp982
S'set([])'
p983
asbasbasbag102
(g118
g104
NtRp984
(dp985
g107
(dp986
sg116
g867
sg109
(lp987
g102
(g123
g104
NtRp988
(dp989
g107
(dp990
g127
g128
ssg116
g984
sg109
(lp991
S'debugging'
p992
asbag102
(g123
g104
NtRp993
(dp994
g107
(dp995
g134
g135
ssg116
g984
sg109
(lp996
S':'
asbag102
(g123
g104
NtRp997
(dp998
g107
(dp999
sg116
g984
sg109
(lp1000
g102
(g103
g104
NtRp1001
(dp1002
g107
(dp1003
g115
I4
ssg116
g997
sg109
(lp1004
g145
asbasbasbag102
(g118
g104
NtRp1005
(dp1006
g107
(dp1007
sg116
g867
sg109
(lp1008
g102
(g123
g104
NtRp1009
(dp1010
g107
(dp1011
g127
g128
ssg116
g1005
sg109
(lp1012
S'gluon_parent'
p1013
asbag102
(g123
g104
NtRp1014
(dp1015
g107
(dp1016
g134
g135
ssg116
g1005
sg109
(lp1017
S':'
asbag102
(g123
g104
NtRp1018
(dp1019
g107
(dp1020
sg116
g1005
sg109
(lp1021
g102
(g103
g104
NtRp1022
(dp1023
g107
(dp1024
g115
I4
ssg116
g1018
sg109
(lp1025
S'/home/maneesha/Downloads/web2py'
p1026
asbasbasbag102
(g118
g104
NtRp1027
(dp1028
g107
(dp1029
sg116
g867
sg109
(lp1030
g102
(g123
g104
NtRp1031
(dp1032
g107
(dp1033
g127
g128
ssg116
g1027
sg109
(lp1034
S'http_accept'
p1035
asbag102
(g123
g104
NtRp1036
(dp1037
g107
(dp1038
g134
g135
ssg116
g1027
sg109
(lp1039
S':'
asbag102
(g123
g104
NtRp1040
(dp1041
g107
(dp1042
sg116
g1027
sg109
(lp1043
g102
(g103
g104
NtRp1044
(dp1045
g107
(dp1046
g115
I4
ssg116
g1040
sg109
(lp1047
S'text/html,application/xhtml+xml,application/xml;q=0.9,*/*;q=0.8'
p1048
asbasbasbag102
(g118
g104
NtRp1049
(dp1050
g107
(dp1051
sg116
g867
sg109
(lp1052
g102
(g123
g104
NtRp1053
(dp1054
g107
(dp1055
g127
g128
ssg116
g1049
sg109
(lp1056
S'http_accept_encoding'
p1057
asbag102
(g123
g104
NtRp1058
(dp1059
g107
(dp1060
g134
g135
ssg116
g1049
sg109
(lp1061
S':'
asbag102
(g123
g104
NtRp1062
(dp1063
g107
(dp1064
sg116
g1049
sg109
(lp1065
g102
(g103
g104
NtRp1066
(dp1067
g107
(dp1068
g115
I4
ssg116
g1062
sg109
(lp1069
S'gzip, deflate'
p1070
asbasbasbag102
(g118
g104
NtRp1071
(dp1072
g107
(dp1073
sg116
g867
sg109
(lp1074
g102
(g123
g104
NtRp1075
(dp1076
g107
(dp1077
g127
g128
ssg116
g1071
sg109
(lp1078
S'http_accept_language'
p1079
asbag102
(g123
g104
NtRp1080
(dp1081
g107
(dp1082
g134
g135
ssg116
g1071
sg109
(lp1083
S':'
asbag102
(g123
g104
NtRp1084
(dp1085
g107
(dp1086
sg116
g1071
sg109
(lp1087
g102
(g103
g104
NtRp1088
(dp1089
g107
(dp1090
g115
I4
ssg116
g1084
sg109
(lp1091
S'en-US,en;q=0.5'
p1092
asbasbasbag102
(g118
g104
NtRp1093
(dp1094
g107
(dp1095
sg116
g867
sg109
(lp1096
g102
(g123
g104
NtRp1097
(dp1098
g107
(dp1099
g127
g128
ssg116
g1093
sg109
(lp1100
S'http_connection'
p1101
asbag102
(g123
g104
NtRp1102
(dp1103
g107
(dp1104
g134
g135
ssg116
g1093
sg109
(lp1105
S':'
asbag102
(g123
g104
NtRp1106
(dp1107
g107
(dp1108
sg116
g1093
sg109
(lp1109
g102
(g103
g104
NtRp1110
(dp1111
g107
(dp1112
g115
I4
ssg116
g1106
sg109
(lp1113
S'keep-alive'
p1114
asbasbasbag102
(g118
g104
NtRp1115
(dp1116
g107
(dp1117
sg116
g867
sg109
(lp1118
g102
(g123
g104
NtRp1119
(dp1120
g107
(dp1121
g127
g128
ssg116
g1115
sg109
(lp1122
S'http_cookie'
p1123
asbag102
(g123
g104
NtRp1124
(dp1125
g107
(dp1126
g134
g135
ssg116
g1115
sg109
(lp1127
S':'
asbag102
(g123
g104
NtRp1128
(dp1129
g107
(dp1130
sg116
g1115
sg109
(lp1131
g102
(g103
g104
NtRp1132
(dp1133
g107
(dp1134
g115
I4
ssg116
g1128
sg109
(lp1135
S'session_id_welcome=127.0.0.1-7986e1ff-c06e-40ef-9e11-52759b51362c; session_id_admin=127.0.0.1-d71de3e8-f2ea-4d1d-bee6-6b23ff7731fa; session_id_cite_mf=127.0.0.1-233aef62-6b7e-4699-94f2-aa129155e304'
p1136
asbasbasbag102
(g118
g104
NtRp1137
(dp1138
g107
(dp1139
sg116
g867
sg109
(lp1140
g102
(g123
g104
NtRp1141
(dp1142
g107
(dp1143
g127
g128
ssg116
g1137
sg109
(lp1144
S'http_host'
p1145
asbag102
(g123
g104
NtRp1146
(dp1147
g107
(dp1148
g134
g135
ssg116
g1137
sg109
(lp1149
S':'
asbag102
(g123
g104
NtRp1150
(dp1151
g107
(dp1152
sg116
g1137
sg109
(lp1153
g102
(g103
g104
NtRp1154
(dp1155
g107
(dp1156
g115
I4
ssg116
g1150
sg109
(lp1157
S'127.0.0.1:8000'
p1158
asbasbasbag102
(g118
g104
NtRp1159
(dp1160
g107
(dp1161
sg116
g867
sg109
(lp1162
g102
(g123
g104
NtRp1163
(dp1164
g107
(dp1165
g127
g128
ssg116
g1159
sg109
(lp1166
S'http_referer'
p1167
asbag102
(g123
g104
NtRp1168
(dp1169
g107
(dp1170
g134
g135
ssg116
g1159
sg109
(lp1171
S':'
asbag102
(g123
g104
NtRp1172
(dp1173
g107
(dp1174
sg116
g1159
sg109
(lp1175
g102
(g103
g104
NtRp1176
(dp1177
g107
(dp1178
g115
I4
ssg116
g1172
sg109
(lp1179
S'http://127.0.0.1:8000/cite_mf/default/index'
p1180
asbasbasbag102
(g118
g104
NtRp1181
(dp1182
g107
(dp1183
sg116
g867
sg109
(lp1184
g102
(g123
g104
NtRp1185
(dp1186
g107
(dp1187
g127
g128
ssg116
g1181
sg109
(lp1188
S'http_user_agent'
p1189
asbag102
(g123
g104
NtRp1190
(dp1191
g107
(dp1192
g134
g135
ssg116
g1181
sg109
(lp1193
S':'
asbag102
(g123
g104
NtRp1194
(dp1195
g107
(dp1196
sg116
g1181
sg109
(lp1197
g102
(g103
g104
NtRp1198
(dp1199
g107
(dp1200
g115
I4
ssg116
g1194
sg109
(lp1201
S'Mozilla/5.0 (X11; Ubuntu; Linux x86_64; rv:16.0) Gecko/20100101 Firefox/16.0'
p1202
asbasbasbag102
(g118
g104
NtRp1203
(dp1204
g107
(dp1205
sg116
g867
sg109
(lp1206
g102
(g123
g104
NtRp1207
(dp1208
g107
(dp1209
g127
g128
ssg116
g1203
sg109
(lp1210
S'is_jython'
p1211
asbag102
(g123
g104
NtRp1212
(dp1213
g107
(dp1214
g134
g135
ssg116
g1203
sg109
(lp1215
S':'
asbag102
(g123
g104
NtRp1216
(dp1217
g107
(dp1218
sg116
g1203
sg109
(lp1219
g102
(g103
g104
NtRp1220
(dp1221
g107
(dp1222
g115
I4
ssg116
g1216
sg109
(lp1223
g145
asbasbasbag102
(g118
g104
NtRp1224
(dp1225
g107
(dp1226
sg116
g867
sg109
(lp1227
g102
(g123
g104
NtRp1228
(dp1229
g107
(dp1230
g127
g128
ssg116
g1224
sg109
(lp1231
S'is_pypy'
p1232
asbag102
(g123
g104
NtRp1233
(dp1234
g107
(dp1235
g134
g135
ssg116
g1224
sg109
(lp1236
S':'
asbag102
(g123
g104
NtRp1237
(dp1238
g107
(dp1239
sg116
g1224
sg109
(lp1240
g102
(g103
g104
NtRp1241
(dp1242
g107
(dp1243
g115
I4
ssg116
g1237
sg109
(lp1244
g145
asbasbasbag102
(g118
g104
NtRp1245
(dp1246
g107
(dp1247
sg116
g867
sg109
(lp1248
g102
(g123
g104
NtRp1249
(dp1250
g107
(dp1251
g127
g128
ssg116
g1245
sg109
(lp1252
S'path_info'
p1253
asbag102
(g123
g104
NtRp1254
(dp1255
g107
(dp1256
g134
g135
ssg116
g1245
sg109
(lp1257
S':'
asbag102
(g123
g104
NtRp1258
(dp1259
g107
(dp1260
sg116
g1245
sg109
(lp1261
g102
(g103
g104
NtRp1262
(dp1263
g107
(dp1264
g115
I4
ssg116
g1258
sg109
(lp1265
S'/cite_mf/default/final_ans'
p1266
asbasbasbag102
(g118
g104
NtRp1267
(dp1268
g107
(dp1269
sg116
g867
sg109
(lp1270
g102
(g123
g104
NtRp1271
(dp1272
g107
(dp1273
g127
g128
ssg116
g1267
sg109
(lp1274
S'query_string'
p1275
asbag102
(g123
g104
NtRp1276
(dp1277
g107
(dp1278
g134
g135
ssg116
g1267
sg109
(lp1279
S':'
asbag102
(g123
g104
NtRp1280
(dp1281
g107
(dp1282
sg116
g1267
sg109
(lp1283
g102
(g103
g104
NtRp1284
(dp1285
g107
(dp1286
g115
I4
ssg116
g1280
sg109
(lp1287
S''
asbasbasbag102
(g118
g104
NtRp1288
(dp1289
g107
(dp1290
sg116
g867
sg109
(lp1291
g102
(g123
g104
NtRp1292
(dp1293
g107
(dp1294
g127
g128
ssg116
g1288
sg109
(lp1295
S'remote_addr'
p1296
asbag102
(g123
g104
NtRp1297
(dp1298
g107
(dp1299
g134
g135
ssg116
g1288
sg109
(lp1300
S':'
asbag102
(g123
g104
NtRp1301
(dp1302
g107
(dp1303
sg116
g1288
sg109
(lp1304
g102
(g103
g104
NtRp1305
(dp1306
g107
(dp1307
g115
I4
ssg116
g1301
sg109
(lp1308
g235
asbasbasbag102
(g118
g104
NtRp1309
(dp1310
g107
(dp1311
sg116
g867
sg109
(lp1312
g102
(g123
g104
NtRp1313
(dp1314
g107
(dp1315
g127
g128
ssg116
g1309
sg109
(lp1316
S'remote_port'
p1317
asbag102
(g123
g104
NtRp1318
(dp1319
g107
(dp1320
g134
g135
ssg116
g1309
sg109
(lp1321
S':'
asbag102
(g123
g104
NtRp1322
(dp1323
g107
(dp1324
sg116
g1309
sg109
(lp1325
g102
(g103
g104
NtRp1326
(dp1327
g107
(dp1328
g115
I4
ssg116
g1322
sg109
(lp1329
S'43803'
p1330
asbasbasbag102
(g118
g104
NtRp1331
(dp1332
g107
(dp1333
sg116
g867
sg109
(lp1334
g102
(g123
g104
NtRp1335
(dp1336
g107
(dp1337
g127
g128
ssg116
g1331
sg109
(lp1338
S'request_method'
p1339
asbag102
(g123
g104
NtRp1340
(dp1341
g107
(dp1342
g134
g135
ssg116
g1331
sg109
(lp1343
S':'
asbag102
(g123
g104
NtRp1344
(dp1345
g107
(dp1346
sg116
g1331
sg109
(lp1347
g102
(g103
g104
NtRp1348
(dp1349
g107
(dp1350
g115
I4
ssg116
g1344
sg109
(lp1351
S'GET'
p1352
asbasbasbag102
(g118
g104
NtRp1353
(dp1354
g107
(dp1355
sg116
g867
sg109
(lp1356
g102
(g123
g104
NtRp1357
(dp1358
g107
(dp1359
g127
g128
ssg116
g1353
sg109
(lp1360
S'script_name'
p1361
asbag102
(g123
g104
NtRp1362
(dp1363
g107
(dp1364
g134
g135
ssg116
g1353
sg109
(lp1365
S':'
asbag102
(g123
g104
NtRp1366
(dp1367
g107
(dp1368
sg116
g1353
sg109
(lp1369
g102
(g103
g104
NtRp1370
(dp1371
g107
(dp1372
g115
I4
ssg116
g1366
sg109
(lp1373
S''
asbasbasbag102
(g118
g104
NtRp1374
(dp1375
g107
(dp1376
sg116
g867
sg109
(lp1377
g102
(g123
g104
NtRp1378
(dp1379
g107
(dp1380
g127
g128
ssg116
g1374
sg109
(lp1381
S'server_name'
p1382
asbag102
(g123
g104
NtRp1383
(dp1384
g107
(dp1385
g134
g135
ssg116
g1374
sg109
(lp1386
S':'
asbag102
(g123
g104
NtRp1387
(dp1388
g107
(dp1389
sg116
g1374
sg109
(lp1390
g102
(g103
g104
NtRp1391
(dp1392
g107
(dp1393
g115
I4
ssg116
g1387
sg109
(lp1394
S'maneesha-Inspiron-N5050'
p1395
asbasbasbag102
(g118
g104
NtRp1396
(dp1397
g107
(dp1398
sg116
g867
sg109
(lp1399
g102
(g123
g104
NtRp1400
(dp1401
g107
(dp1402
g127
g128
ssg116
g1396
sg109
(lp1403
S'server_port'
p1404
asbag102
(g123
g104
NtRp1405
(dp1406
g107
(dp1407
g134
g135
ssg116
g1396
sg109
(lp1408
S':'
asbag102
(g123
g104
NtRp1409
(dp1410
g107
(dp1411
sg116
g1396
sg109
(lp1412
g102
(g103
g104
NtRp1413
(dp1414
g107
(dp1415
g115
I4
ssg116
g1409
sg109
(lp1416
S'8000'
p1417
asbasbasbag102
(g118
g104
NtRp1418
(dp1419
g107
(dp1420
sg116
g867
sg109
(lp1421
g102
(g123
g104
NtRp1422
(dp1423
g107
(dp1424
g127
g128
ssg116
g1418
sg109
(lp1425
S'server_protocol'
p1426
asbag102
(g123
g104
NtRp1427
(dp1428
g107
(dp1429
g134
g135
ssg116
g1418
sg109
(lp1430
S':'
asbag102
(g123
g104
NtRp1431
(dp1432
g107
(dp1433
sg116
g1418
sg109
(lp1434
g102
(g103
g104
NtRp1435
(dp1436
g107
(dp1437
g115
I4
ssg116
g1431
sg109
(lp1438
S'HTTP/1.1'
p1439
asbasbasbag102
(g118
g104
NtRp1440
(dp1441
g107
(dp1442
sg116
g867
sg109
(lp1443
g102
(g123
g104
NtRp1444
(dp1445
g107
(dp1446
g127
g128
ssg116
g1440
sg109
(lp1447
S'server_software'
p1448
asbag102
(g123
g104
NtRp1449
(dp1450
g107
(dp1451
g134
g135
ssg116
g1440
sg109
(lp1452
S':'
asbag102
(g123
g104
NtRp1453
(dp1454
g107
(dp1455
sg116
g1440
sg109
(lp1456
g102
(g103
g104
NtRp1457
(dp1458
g107
(dp1459
g115
I4
ssg116
g1453
sg109
(lp1460
S'Rocket 1.2.4'
p1461
asbasbasbag102
(g118
g104
NtRp1462
(dp1463
g107
(dp1464
sg116
g867
sg109
(lp1465
g102
(g123
g104
NtRp1466
(dp1467
g107
(dp1468
g127
g128
ssg116
g1462
sg109
(lp1469
S'web2py_crontype'
p1470
asbag102
(g123
g104
NtRp1471
(dp1472
g107
(dp1473
g134
g135
ssg116
g1462
sg109
(lp1474
S':'
asbag102
(g123
g104
NtRp1475
(dp1476
g107
(dp1477
sg116
g1462
sg109
(lp1478
g102
(g103
g104
NtRp1479
(dp1480
g107
(dp1481
g115
I4
ssg116
g1475
sg109
(lp1482
S'hard'
p1483
asbasbasbag102
(g118
g104
NtRp1484
(dp1485
g107
(dp1486
sg116
g867
sg109
(lp1487
g102
(g123
g104
NtRp1488
(dp1489
g107
(dp1490
g127
g128
ssg116
g1484
sg109
(lp1491
S'web2py_path'
p1492
asbag102
(g123
g104
NtRp1493
(dp1494
g107
(dp1495
g134
g135
ssg116
g1484
sg109
(lp1496
S':'
asbag102
(g123
g104
NtRp1497
(dp1498
g107
(dp1499
sg116
g1484
sg109
(lp1500
g102
(g103
g104
NtRp1501
(dp1502
g107
(dp1503
g115
I4
ssg116
g1497
sg109
(lp1504
g914
asbasbasbag102
(g118
g104
NtRp1505
(dp1506
g107
(dp1507
sg116
g867
sg109
(lp1508
g102
(g123
g104
NtRp1509
(dp1510
g107
(dp1511
g127
g128
ssg116
g1505
sg109
(lp1512
S'web2py_version'
p1513
asbag102
(g123
g104
NtRp1514
(dp1515
g107
(dp1516
g134
g135
ssg116
g1505
sg109
(lp1517
S':'
asbag102
(g123
g104
NtRp1518
(dp1519
g107
(dp1520
sg116
g1505
sg109
(lp1521
g102
(g103
g104
NtRp1522
(dp1523
g107
(dp1524
g115
I4
ssg116
g1518
sg109
(lp1525
g102
(g111
g104
NtRp1526
(dp1527
g107
(dp1528
g115
I3
ssg116
Nsg109
(lp1529
g102
(g118
g104
NtRp1530
(dp1531
g107
(dp1532
sg116
g1526
sg109
(lp1533
g102
(g123
g104
NtRp1534
(dp1535
g107
(dp1536
sg116
g1530
sg109
(lp1537
g102
(g103
g104
NtRp1538
(dp1539
g107
(dp1540
g115
I3
ssg116
g1534
sg109
(lp1541
S'1'
asbasbasbag102
(g118
g104
NtRp1542
(dp1543
g107
(dp1544
sg116
g1526
sg109
(lp1545
g102
(g123
g104
NtRp1546
(dp1547
g107
(dp1548
sg116
g1542
sg109
(lp1549
g102
(g103
g104
NtRp1550
(dp1551
g107
(dp1552
g115
I3
ssg116
g1546
sg109
(lp1553
S'99'
p1554
asbasbasbag102
(g118
g104
NtRp1555
(dp1556
g107
(dp1557
sg116
g1526
sg109
(lp1558
g102
(g123
g104
NtRp1559
(dp1560
g107
(dp1561
sg116
g1555
sg109
(lp1562
g102
(g103
g104
NtRp1563
(dp1564
g107
(dp1565
g115
I3
ssg116
g1559
sg109
(lp1566
S'7'
asbasbasbag102
(g118
g104
NtRp1567
(dp1568
g107
(dp1569
sg116
g1526
sg109
(lp1570
g102
(g123
g104
NtRp1571
(dp1572
g107
(dp1573
sg116
g1567
sg109
(lp1574
g102
(g103
g104
NtRp1575
(dp1576
g107
(dp1577
g115
I3
ssg116
g1571
sg109
(lp1578
S'datetime.datetime(2012, 3, 4, 22, 12, 8)'
p1579
asbasbasbag102
(g118
g104
NtRp1580
(dp1581
g107
(dp1582
sg116
g1526
sg109
(lp1583
g102
(g123
g104
NtRp1584
(dp1585
g107
(dp1586
sg116
g1580
sg109
(lp1587
g102
(g103
g104
NtRp1588
(dp1589
g107
(dp1590
g115
I3
ssg116
g1584
sg109
(lp1591
S'stable'
p1592
asbasbasbasbasbasbasbag102
(g118
g104
NtRp1593
(dp1594
g107
(dp1595
sg116
g867
sg109
(lp1596
g102
(g123
g104
NtRp1597
(dp1598
g107
(dp1599
g127
g128
ssg116
g1593
sg109
(lp1600
S'wsgi_errors'
p1601
asbag102
(g123
g104
NtRp1602
(dp1603
g107
(dp1604
g134
g135
ssg116
g1593
sg109
(lp1605
S':'
asbag102
(g123
g104
NtRp1606
(dp1607
g107
(dp1608
sg116
g1593
sg109
(lp1609
g102
(g103
g104
NtRp1610
(dp1611
g107
(dp1612
g115
I4
ssg116
g1606
sg109
(lp1613
S"<open file '<stderr>', mode 'w' at 0x7f010c458270>"
p1614
asbasbasbag102
(g118
g104
NtRp1615
(dp1616
g107
(dp1617
sg116
g867
sg109
(lp1618
g102
(g123
g104
NtRp1619
(dp1620
g107
(dp1621
g127
g128
ssg116
g1615
sg109
(lp1622
S'wsgi_file_wrapper'
p1623
asbag102
(g123
g104
NtRp1624
(dp1625
g107
(dp1626
g134
g135
ssg116
g1615
sg109
(lp1627
S':'
asbag102
(g123
g104
NtRp1628
(dp1629
g107
(dp1630
sg116
g1615
sg109
(lp1631
g102
(g103
g104
NtRp1632
(dp1633
g107
(dp1634
g115
I4
ssg116
g1628
sg109
(lp1635
S'<class wsgiref.util.FileWrapper at 0x138eef0>'
p1636
asbasbasbag102
(g118
g104
NtRp1637
(dp1638
g107
(dp1639
sg116
g867
sg109
(lp1640
g102
(g123
g104
NtRp1641
(dp1642
g107
(dp1643
g127
g128
ssg116
g1637
sg109
(lp1644
S'wsgi_input'
p1645
asbag102
(g123
g104
NtRp1646
(dp1647
g107
(dp1648
g134
g135
ssg116
g1637
sg109
(lp1649
S':'
asbag102
(g123
g104
NtRp1650
(dp1651
g107
(dp1652
sg116
g1637
sg109
(lp1653
g102
(g103
g104
NtRp1654
(dp1655
g107
(dp1656
g115
I4
ssg116
g1650
sg109
(lp1657
S'<socket._fileobject object at 0x7f00e4287250>'
p1658
asbasbasbag102
(g118
g104
NtRp1659
(dp1660
g107
(dp1661
sg116
g867
sg109
(lp1662
g102
(g123
g104
NtRp1663
(dp1664
g107
(dp1665
g127
g128
ssg116
g1659
sg109
(lp1666
S'wsgi_multiprocess'
p1667
asbag102
(g123
g104
NtRp1668
(dp1669
g107
(dp1670
g134
g135
ssg116
g1659
sg109
(lp1671
S':'
asbag102
(g123
g104
NtRp1672
(dp1673
g107
(dp1674
sg116
g1659
sg109
(lp1675
g102
(g103
g104
NtRp1676
(dp1677
g107
(dp1678
g115
I4
ssg116
g1672
sg109
(lp1679
g145
asbasbasbag102
(g118
g104
NtRp1680
(dp1681
g107
(dp1682
sg116
g867
sg109
(lp1683
g102
(g123
g104
NtRp1684
(dp1685
g107
(dp1686
g127
g128
ssg116
g1680
sg109
(lp1687
S'wsgi_multithread'
p1688
asbag102
(g123
g104
NtRp1689
(dp1690
g107
(dp1691
g134
g135
ssg116
g1680
sg109
(lp1692
S':'
asbag102
(g123
g104
NtRp1693
(dp1694
g107
(dp1695
sg116
g1680
sg109
(lp1696
g102
(g103
g104
NtRp1697
(dp1698
g107
(dp1699
g115
I4
ssg116
g1693
sg109
(lp1700
S'True'
p1701
asbasbasbag102
(g118
g104
NtRp1702
(dp1703
g107
(dp1704
sg116
g867
sg109
(lp1705
g102
(g123
g104
NtRp1706
(dp1707
g107
(dp1708
g127
g128
ssg116
g1702
sg109
(lp1709
S'wsgi_run_once'
p1710
asbag102
(g123
g104
NtRp1711
(dp1712
g107
(dp1713
g134
g135
ssg116
g1702
sg109
(lp1714
S':'
asbag102
(g123
g104
NtRp1715
(dp1716
g107
(dp1717
sg116
g1702
sg109
(lp1718
g102
(g103
g104
NtRp1719
(dp1720
g107
(dp1721
g115
I4
ssg116
g1715
sg109
(lp1722
g145
asbasbasbag102
(g118
g104
NtRp1723
(dp1724
g107
(dp1725
sg116
g867
sg109
(lp1726
g102
(g123
g104
NtRp1727
(dp1728
g107
(dp1729
g127
g128
ssg116
g1723
sg109
(lp1730
S'wsgi_url_scheme'
p1731
asbag102
(g123
g104
NtRp1732
(dp1733
g107
(dp1734
g134
g135
ssg116
g1723
sg109
(lp1735
S':'
asbag102
(g123
g104
NtRp1736
(dp1737
g107
(dp1738
sg116
g1723
sg109
(lp1739
g102
(g103
g104
NtRp1740
(dp1741
g107
(dp1742
g115
I4
ssg116
g1736
sg109
(lp1743
S'http'
p1744
asbasbasbag102
(g118
g104
NtRp1745
(dp1746
g107
(dp1747
sg116
g867
sg109
(lp1748
g102
(g123
g104
NtRp1749
(dp1750
g107
(dp1751
g127
g128
ssg116
g1745
sg109
(lp1752
S'wsgi_version'
p1753
asbag102
(g123
g104
NtRp1754
(dp1755
g107
(dp1756
g134
g135
ssg116
g1745
sg109
(lp1757
S':'
asbag102
(g123
g104
NtRp1758
(dp1759
g107
(dp1760
sg116
g1745
sg109
(lp1761
g102
(g103
g104
NtRp1762
(dp1763
g107
(dp1764
g115
I4
ssg116
g1758
sg109
(lp1765
g102
(g111
g104
NtRp1766
(dp1767
g107
(dp1768
g115
I3
ssg116
Nsg109
(lp1769
g102
(g118
g104
NtRp1770
(dp1771
g107
(dp1772
sg116
g1766
sg109
(lp1773
g102
(g123
g104
NtRp1774
(dp1775
g107
(dp1776
sg116
g1770
sg109
(lp1777
g102
(g103
g104
NtRp1778
(dp1779
g107
(dp1780
g115
I3
ssg116
g1774
sg109
(lp1781
S'1'
asbasbasbag102
(g118
g104
NtRp1782
(dp1783
g107
(dp1784
sg116
g1766
sg109
(lp1785
g102
(g123
g104
NtRp1786
(dp1787
g107
(dp1788
sg116
g1782
sg109
(lp1789
g102
(g103
g104
NtRp1790
(dp1791
g107
(dp1792
g115
I3
ssg116
g1786
sg109
(lp1793
S'0'
asbasbasbasbasbasbasbasbasbasbasbag102
(g118
g104
NtRp1794
(dp1795
g107
(dp1796
sg116
g112
sg109
(lp1797
g102
(g123
g104
NtRp1798
(dp1799
g107
(dp1800
g127
g128
ssg116
g1794
sg109
(lp1801
S'extension'
p1802
asbag102
(g123
g104
NtRp1803
(dp1804
g107
(dp1805
g134
g135
ssg116
g1794
sg109
(lp1806
S':'
asbag102
(g123
g104
NtRp1807
(dp1808
g107
(dp1809
sg116
g1794
sg109
(lp1810
g102
(g103
g104
NtRp1811
(dp1812
g107
(dp1813
g115
I5
ssg116
g1807
sg109
(lp1814
S'html'
p1815
asbasbasbag102
(g118
g104
NtRp1816
(dp1817
g107
(dp1818
sg116
g112
sg109
(lp1819
g102
(g123
g104
NtRp1820
(dp1821
g107
(dp1822
g127
g128
ssg116
g1816
sg109
(lp1823
S'folder'
p1824
asbag102
(g123
g104
NtRp1825
(dp1826
g107
(dp1827
g134
g135
ssg116
g1816
sg109
(lp1828
S':'
asbag102
(g123
g104
NtRp1829
(dp1830
g107
(dp1831
sg116
g1816
sg109
(lp1832
g102
(g103
g104
NtRp1833
(dp1834
g107
(dp1835
g115
I5
ssg116
g1829
sg109
(lp1836
S'/home/maneesha/Downloads/web2py/applications/cite_mf/'
p1837
asbasbasbag102
(g118
g104
NtRp1838
(dp1839
g107
(dp1840
sg116
g112
sg109
(lp1841
g102
(g123
g104
NtRp1842
(dp1843
g107
(dp1844
g127
g128
ssg116
g1838
sg109
(lp1845
S'function'
p1846
asbag102
(g123
g104
NtRp1847
(dp1848
g107
(dp1849
g134
g135
ssg116
g1838
sg109
(lp1850
S':'
asbag102
(g123
g104
NtRp1851
(dp1852
g107
(dp1853
sg116
g1838
sg109
(lp1854
g102
(g103
g104
NtRp1855
(dp1856
g107
(dp1857
g115
I5
ssg116
g1851
sg109
(lp1858
S'final_ans'
p1859
asbasbasbag102
(g118
g104
NtRp1860
(dp1861
g107
(dp1862
sg116
g112
sg109
(lp1863
g102
(g123
g104
NtRp1864
(dp1865
g107
(dp1866
g127
g128
ssg116
g1860
sg109
(lp1867
S'get_vars'
p1868
asbag102
(g123
g104
NtRp1869
(dp1870
g107
(dp1871
g134
g135
ssg116
g1860
sg109
(lp1872
S':'
asbag102
(g123
g104
NtRp1873
(dp1874
g107
(dp1875
sg116
g1860
sg109
(lp1876
g102
(g103
g104
NtRp1877
(dp1878
g107
(dp1879
g115
I5
ssg116
g1873
sg109
(lp1880
g102
(g111
g104
NtRp1881
(dp1882
g107
(dp1883
g115
I4
ssg116
Nsg109
(lp1884
sbasbasbasbag102
(g118
g104
NtRp1885
(dp1886
g107
(dp1887
sg116
g112
sg109
(lp1888
g102
(g123
g104
NtRp1889
(dp1890
g107
(dp1891
g127
g128
ssg116
g1885
sg109
(lp1892
S'global_settings'
p1893
asbag102
(g123
g104
NtRp1894
(dp1895
g107
(dp1896
g134
g135
ssg116
g1885
sg109
(lp1897
S':'
asbag102
(g123
g104
NtRp1898
(dp1899
g107
(dp1900
sg116
g1885
sg109
(lp1901
g102
(g103
g104
NtRp1902
(dp1903
g107
(dp1904
g115
I5
ssg116
g1898
sg109
(lp1905
g102
(g111
g104
NtRp1906
(dp1907
g107
(dp1908
g115
I4
ssg116
Nsg109
(lp1909
g102
(g118
g104
NtRp1910
(dp1911
g107
(dp1912
sg116
g1906
sg109
(lp1913
g102
(g123
g104
NtRp1914
(dp1915
g107
(dp1916
g127
g128
ssg116
g1910
sg109
(lp1917
g879
asbag102
(g123
g104
NtRp1918
(dp1919
g107
(dp1920
g134
g135
ssg116
g1910
sg109
(lp1921
S':'
asbag102
(g123
g104
NtRp1922
(dp1923
g107
(dp1924
sg116
g1910
sg109
(lp1925
g102
(g103
g104
NtRp1926
(dp1927
g107
(dp1928
g115
I4
ssg116
g1922
sg109
(lp1929
S"set(['/home/maneesha/Downloads/web2py/applications/welcome/', '/home/maneesha/Downloads/web2py/applications/admin/', '/home/maneesha/Downloads/web2py/applications/cite_mf/'])"
p1930
asbasbasbag102
(g118
g104
NtRp1931
(dp1932
g107
(dp1933
sg116
g1906
sg109
(lp1934
g102
(g123
g104
NtRp1935
(dp1936
g107
(dp1937
g127
g128
ssg116
g1931
sg109
(lp1938
g901
asbag102
(g123
g104
NtRp1939
(dp1940
g107
(dp1941
g134
g135
ssg116
g1931
sg109
(lp1942
S':'
asbag102
(g123
g104
NtRp1943
(dp1944
g107
(dp1945
sg116
g1931
sg109
(lp1946
g102
(g103
g104
NtRp1947
(dp1948
g107
(dp1949
g115
I4
ssg116
g1943
sg109
(lp1950
g914
asbasbasbag102
(g118
g104
NtRp1951
(dp1952
g107
(dp1953
sg116
g1906
sg109
(lp1954
g102
(g123
g104
NtRp1955
(dp1956
g107
(dp1957
g127
g128
ssg116
g1951
sg109
(lp1958
g923
asbag102
(g123
g104
NtRp1959
(dp1960
g107
(dp1961
g134
g135
ssg116
g1951
sg109
(lp1962
S':'
asbag102
(g123
g104
NtRp1963
(dp1964
g107
(dp1965
sg116
g1951
sg109
(lp1966
g102
(g103
g104
NtRp1967
(dp1968
g107
(dp1969
g115
I4
ssg116
g1963
sg109
(lp1970
g102
(g111
g104
NtRp1971
(dp1972
g107
(dp1973
g115
I3
ssg116
Nsg109
(lp1974
sbasbasbasbag102
(g118
g104
NtRp1975
(dp1976
g107
(dp1977
sg116
g1906
sg109
(lp1978
g102
(g123
g104
NtRp1979
(dp1980
g107
(dp1981
g127
g128
ssg116
g1975
sg109
(lp1982
g948
asbag102
(g123
g104
NtRp1983
(dp1984
g107
(dp1985
g134
g135
ssg116
g1975
sg109
(lp1986
S':'
asbag102
(g123
g104
NtRp1987
(dp1988
g107
(dp1989
sg116
g1975
sg109
(lp1990
g102
(g103
g104
NtRp1991
(dp1992
g107
(dp1993
g115
I4
ssg116
g1987
sg109
(lp1994
S"<Values at 0x14beb00: {'verbose': False, 'ip': '127.0.0.1', 'shutdown_timeout': 5, 'taskbar': False, 'nocron': False, 'pid_filename': 'httpserver.pid', 'maxthreads': None, 'softcron': False, 'server_name': 'maneesha-Inspiron-N5050', 'bpython': False, 'nogui': False, 'port': 8000, 'extcron': False, 'debuglevel': 30, 'test': None, 'folder': '/home/maneesha/Downloads/web2py', 'config': '', 'import_models': False, 'winservice': '', 'shell': None, 'run': '', 'log_filename': 'httpserver.log', 'args': [''], 'socket_timeout': 5, 'ssl_ca_certificate': None, 'scheduler': None, 'profiler_filename': None, 'ssl_private_key': '', 'password': '<ask>', 'request_queue_size': 5, 'ssl_certificate': '', 'cronjob': False, 'numthreads': None, 'quiet': False, 'interfaces': None, 'minthreads': None, 'timeout': 10, 'plain': False, 'nobanner': False}>"
p1995
asbasbasbag102
(g118
g104
NtRp1996
(dp1997
g107
(dp1998
sg116
g1906
sg109
(lp1999
g102
(g123
g104
NtRp2000
(dp2001
g107
(dp2002
g127
g128
ssg116
g1996
sg109
(lp2003
g970
asbag102
(g123
g104
NtRp2004
(dp2005
g107
(dp2006
g134
g135
ssg116
g1996
sg109
(lp2007
S':'
asbag102
(g123
g104
NtRp2008
(dp2009
g107
(dp2010
sg116
g1996
sg109
(lp2011
g102
(g103
g104
NtRp2012
(dp2013
g107
(dp2014
g115
I4
ssg116
g2008
sg109
(lp2015
S'set([])'
p2016
asbasbasbag102
(g118
g104
NtRp2017
(dp2018
g107
(dp2019
sg116
g1906
sg109
(lp2020
g102
(g123
g104
NtRp2021
(dp2022
g107
(dp2023
g127
g128
ssg116
g2017
sg109
(lp2024
g992
asbag102
(g123
g104
NtRp2025
(dp2026
g107
(dp2027
g134
g135
ssg116
g2017
sg109
(lp2028
S':'
asbag102
(g123
g104
NtRp2029
(dp2030
g107
(dp2031
sg116
g2017
sg109
(lp2032
g102
(g103
g104
NtRp2033
(dp2034
g107
(dp2035
g115
I4
ssg116
g2029
sg109
(lp2036
g145
asbasbasbag102
(g118
g104
NtRp2037
(dp2038
g107
(dp2039
sg116
g1906
sg109
(lp2040
g102
(g123
g104
NtRp2041
(dp2042
g107
(dp2043
g127
g128
ssg116
g2037
sg109
(lp2044
g1013
asbag102
(g123
g104
NtRp2045
(dp2046
g107
(dp2047
g134
g135
ssg116
g2037
sg109
(lp2048
S':'
asbag102
(g123
g104
NtRp2049
(dp2050
g107
(dp2051
sg116
g2037
sg109
(lp2052
g102
(g103
g104
NtRp2053
(dp2054
g107
(dp2055
g115
I4
ssg116
g2049
sg109
(lp2056
g1026
asbasbasbag102
(g118
g104
NtRp2057
(dp2058
g107
(dp2059
sg116
g1906
sg109
(lp2060
g102
(g123
g104
NtRp2061
(dp2062
g107
(dp2063
g127
g128
ssg116
g2057
sg109
(lp2064
g1211
asbag102
(g123
g104
NtRp2065
(dp2066
g107
(dp2067
g134
g135
ssg116
g2057
sg109
(lp2068
S':'
asbag102
(g123
g104
NtRp2069
(dp2070
g107
(dp2071
sg116
g2057
sg109
(lp2072
g102
(g103
g104
NtRp2073
(dp2074
g107
(dp2075
g115
I4
ssg116
g2069
sg109
(lp2076
g145
asbasbasbag102
(g118
g104
NtRp2077
(dp2078
g107
(dp2079
sg116
g1906
sg109
(lp2080
g102
(g123
g104
NtRp2081
(dp2082
g107
(dp2083
g127
g128
ssg116
g2077
sg109
(lp2084
g1232
asbag102
(g123
g104
NtRp2085
(dp2086
g107
(dp2087
g134
g135
ssg116
g2077
sg109
(lp2088
S':'
asbag102
(g123
g104
NtRp2089
(dp2090
g107
(dp2091
sg116
g2077
sg109
(lp2092
g102
(g103
g104
NtRp2093
(dp2094
g107
(dp2095
g115
I4
ssg116
g2089
sg109
(lp2096
g145
asbasbasbag102
(g118
g104
NtRp2097
(dp2098
g107
(dp2099
sg116
g1906
sg109
(lp2100
g102
(g123
g104
NtRp2101
(dp2102
g107
(dp2103
g127
g128
ssg116
g2097
sg109
(lp2104
g1470
asbag102
(g123
g104
NtRp2105
(dp2106
g107
(dp2107
g134
g135
ssg116
g2097
sg109
(lp2108
S':'
asbag102
(g123
g104
NtRp2109
(dp2110
g107
(dp2111
sg116
g2097
sg109
(lp2112
g102
(g103
g104
NtRp2113
(dp2114
g107
(dp2115
g115
I4
ssg116
g2109
sg109
(lp2116
g1483
asbasbasbag102
(g118
g104
NtRp2117
(dp2118
g107
(dp2119
sg116
g1906
sg109
(lp2120
g102
(g123
g104
NtRp2121
(dp2122
g107
(dp2123
g127
g128
ssg116
g2117
sg109
(lp2124
g1513
asbag102
(g123
g104
NtRp2125
(dp2126
g107
(dp2127
g134
g135
ssg116
g2117
sg109
(lp2128
S':'
asbag102
(g123
g104
NtRp2129
(dp2130
g107
(dp2131
sg116
g2117
sg109
(lp2132
g102
(g103
g104
NtRp2133
(dp2134
g107
(dp2135
g115
I4
ssg116
g2129
sg109
(lp2136
g102
(g111
g104
NtRp2137
(dp2138
g107
(dp2139
g115
I3
ssg116
Nsg109
(lp2140
g102
(g118
g104
NtRp2141
(dp2142
g107
(dp2143
sg116
g2137
sg109
(lp2144
g102
(g123
g104
NtRp2145
(dp2146
g107
(dp2147
sg116
g2141
sg109
(lp2148
g102
(g103
g104
NtRp2149
(dp2150
g107
(dp2151
g115
I3
ssg116
g2145
sg109
(lp2152
S'1'
asbasbasbag102
(g118
g104
NtRp2153
(dp2154
g107
(dp2155
sg116
g2137
sg109
(lp2156
g102
(g123
g104
NtRp2157
(dp2158
g107
(dp2159
sg116
g2153
sg109
(lp2160
g102
(g103
g104
NtRp2161
(dp2162
g107
(dp2163
g115
I3
ssg116
g2157
sg109
(lp2164
S'99'
p2165
asbasbasbag102
(g118
g104
NtRp2166
(dp2167
g107
(dp2168
sg116
g2137
sg109
(lp2169
g102
(g123
g104
NtRp2170
(dp2171
g107
(dp2172
sg116
g2166
sg109
(lp2173
g102
(g103
g104
NtRp2174
(dp2175
g107
(dp2176
g115
I3
ssg116
g2170
sg109
(lp2177
S'7'
asbasbasbag102
(g118
g104
NtRp2178
(dp2179
g107
(dp2180
sg116
g2137
sg109
(lp2181
g102
(g123
g104
NtRp2182
(dp2183
g107
(dp2184
sg116
g2178
sg109
(lp2185
g102
(g103
g104
NtRp2186
(dp2187
g107
(dp2188
g115
I3
ssg116
g2182
sg109
(lp2189
S'datetime.datetime(2012, 3, 4, 22, 12, 8)'
p2190
asbasbasbag102
(g118
g104
NtRp2191
(dp2192
g107
(dp2193
sg116
g2137
sg109
(lp2194
g102
(g123
g104
NtRp2195
(dp2196
g107
(dp2197
sg116
g2191
sg109
(lp2198
g102
(g103
g104
NtRp2199
(dp2200
g107
(dp2201
g115
I3
ssg116
g2195
sg109
(lp2202
g1592
asbasbasbasbasbasbasbasbasbasbasbag102
(g118
g104
NtRp2203
(dp2204
g107
(dp2205
sg116
g112
sg109
(lp2206
g102
(g123
g104
NtRp2207
(dp2208
g107
(dp2209
g127
g128
ssg116
g2203
sg109
(lp2210
S'is_https'
p2211
asbag102
(g123
g104
NtRp2212
(dp2213
g107
(dp2214
g134
g135
ssg116
g2203
sg109
(lp2215
S':'
asbag102
(g123
g104
NtRp2216
(dp2217
g107
(dp2218
sg116
g2203
sg109
(lp2219
g102
(g103
g104
NtRp2220
(dp2221
g107
(dp2222
g115
I5
ssg116
g2216
sg109
(lp2223
g145
asbasbasbag102
(g118
g104
NtRp2224
(dp2225
g107
(dp2226
sg116
g112
sg109
(lp2227
g102
(g123
g104
NtRp2228
(dp2229
g107
(dp2230
g127
g128
ssg116
g2224
sg109
(lp2231
S'is_local'
p2232
asbag102
(g123
g104
NtRp2233
(dp2234
g107
(dp2235
g134
g135
ssg116
g2224
sg109
(lp2236
S':'
asbag102
(g123
g104
NtRp2237
(dp2238
g107
(dp2239
sg116
g2224
sg109
(lp2240
g102
(g103
g104
NtRp2241
(dp2242
g107
(dp2243
g115
I5
ssg116
g2237
sg109
(lp2244
g1701
asbasbasbag102
(g118
g104
NtRp2245
(dp2246
g107
(dp2247
sg116
g112
sg109
(lp2248
g102
(g123
g104
NtRp2249
(dp2250
g107
(dp2251
g127
g128
ssg116
g2245
sg109
(lp2252
S'is_restful'
p2253
asbag102
(g123
g104
NtRp2254
(dp2255
g107
(dp2256
g134
g135
ssg116
g2245
sg109
(lp2257
S':'
asbag102
(g123
g104
NtRp2258
(dp2259
g107
(dp2260
sg116
g2245
sg109
(lp2261
g102
(g103
g104
NtRp2262
(dp2263
g107
(dp2264
g115
I5
ssg116
g2258
sg109
(lp2265
g145
asbasbasbag102
(g118
g104
NtRp2266
(dp2267
g107
(dp2268
sg116
g112
sg109
(lp2269
g102
(g123
g104
NtRp2270
(dp2271
g107
(dp2272
g127
g128
ssg116
g2266
sg109
(lp2273
S'now'
p2274
asbag102
(g123
g104
NtRp2275
(dp2276
g107
(dp2277
g134
g135
ssg116
g2266
sg109
(lp2278
S':'
asbag102
(g123
g104
NtRp2279
(dp2280
g107
(dp2281
sg116
g2266
sg109
(lp2282
g102
(g103
g104
NtRp2283
(dp2284
g107
(dp2285
g115
I5
ssg116
g2279
sg109
(lp2286
S'datetime.datetime(2012, 11, 15, 21, 54, 38, 962922)'
p2287
asbasbasbag102
(g118
g104
NtRp2288
(dp2289
g107
(dp2290
sg116
g112
sg109
(lp2291
g102
(g123
g104
NtRp2292
(dp2293
g107
(dp2294
g127
g128
ssg116
g2288
sg109
(lp2295
S'post_vars'
p2296
asbag102
(g123
g104
NtRp2297
(dp2298
g107
(dp2299
g134
g135
ssg116
g2288
sg109
(lp2300
S':'
asbag102
(g123
g104
NtRp2301
(dp2302
g107
(dp2303
sg116
g2288
sg109
(lp2304
g102
(g103
g104
NtRp2305
(dp2306
g107
(dp2307
g115
I5
ssg116
g2301
sg109
(lp2308
g102
(g111
g104
NtRp2309
(dp2310
g107
(dp2311
g115
I4
ssg116
Nsg109
(lp2312
sbasbasbasbag102
(g118
g104
NtRp2313
(dp2314
g107
(dp2315
sg116
g112
sg109
(lp2316
g102
(g123
g104
NtRp2317
(dp2318
g107
(dp2319
g127
g128
ssg116
g2313
sg109
(lp2320
g87
asbag102
(g123
g104
NtRp2321
(dp2322
g107
(dp2323
g134
g135
ssg116
g2313
sg109
(lp2324
S':'
asbag102
(g123
g104
NtRp2325
(dp2326
g107
(dp2327
sg116
g2313
sg109
(lp2328
g102
(g103
g104
NtRp2329
(dp2330
g107
(dp2331
g115
I5
ssg116
g2325
sg109
(lp2332
S'/cite_mf/default/final_ans'
p2333
asbasbasbag102
(g118
g104
NtRp2334
(dp2335
g107
(dp2336
sg116
g112
sg109
(lp2337
g102
(g123
g104
NtRp2338
(dp2339
g107
(dp2340
g127
g128
ssg116
g2334
sg109
(lp2341
S'utcnow'
p2342
asbag102
(g123
g104
NtRp2343
(dp2344
g107
(dp2345
g134
g135
ssg116
g2334
sg109
(lp2346
S':'
asbag102
(g123
g104
NtRp2347
(dp2348
g107
(dp2349
sg116
g2334
sg109
(lp2350
g102
(g103
g104
NtRp2351
(dp2352
g107
(dp2353
g115
I5
ssg116
g2347
sg109
(lp2354
S'datetime.datetime(2012, 11, 15, 16, 24, 38, 962945)'
p2355
asbasbasbag102
(g118
g104
NtRp2356
(dp2357
g107
(dp2358
sg116
g112
sg109
(lp2359
g102
(g123
g104
NtRp2360
(dp2361
g107
(dp2362
g127
g128
ssg116
g2356
sg109
(lp2363
S'uuid'
p2364
asbag102
(g123
g104
NtRp2365
(dp2366
g107
(dp2367
g134
g135
ssg116
g2356
sg109
(lp2368
S':'
asbag102
(g123
g104
NtRp2369
(dp2370
g107
(dp2371
sg116
g2356
sg109
(lp2372
g102
(g103
g104
NtRp2373
(dp2374
g107
(dp2375
g115
I5
ssg116
g2369
sg109
(lp2376
S'cite_mf/127.0.0.1.2012-11-15.21-54-38.69e8297e-8d84-453e-b7ae-c93feaead96c'
p2377
asbasbasbag102
(g118
g104
NtRp2378
(dp2379
g107
(dp2380
sg116
g112
sg109
(lp2381
g102
(g123
g104
NtRp2382
(dp2383
g107
(dp2384
g127
g128
ssg116
g2378
sg109
(lp2385
S'vars'
p2386
asbag102
(g123
g104
NtRp2387
(dp2388
g107
(dp2389
g134
g135
ssg116
g2378
sg109
(lp2390
S':'
asbag102
(g123
g104
NtRp2391
(dp2392
g107
(dp2393
sg116
g2378
sg109
(lp2394
g102
(g103
g104
NtRp2395
(dp2396
g107
(dp2397
g115
I5
ssg116
g2391
sg109
(lp2398
g102
(g111
g104
NtRp2399
(dp2400
g107
(dp2401
g115
I4
ssg116
Nsg109
(lp2402
sbasbasbasbag102
(g118
g104
NtRp2403
(dp2404
g107
(dp2405
sg116
g112
sg109
(lp2406
g102
(g123
g104
NtRp2407
(dp2408
g107
(dp2409
g127
g128
ssg116
g2403
sg109
(lp2410
S'wsgi'
p2411
asbag102
(g123
g104
NtRp2412
(dp2413
g107
(dp2414
g134
g135
ssg116
g2403
sg109
(lp2415
S':'
asbag102
(g123
g104
NtRp2416
(dp2417
g107
(dp2418
sg116
g2403
sg109
(lp2419
g102
(g103
g104
NtRp2420
(dp2421
g107
(dp2422
g115
I5
ssg116
g2416
sg109
(lp2423
g102
(g111
g104
NtRp2424
(dp2425
g107
(dp2426
g115
I4
ssg116
Nsg109
(lp2427
g102
(g118
g104
NtRp2428
(dp2429
g107
(dp2430
sg116
g2424
sg109
(lp2431
g102
(g123
g104
NtRp2432
(dp2433
g107
(dp2434
g127
g128
ssg116
g2428
sg109
(lp2435
S'environ'
p2436
asbag102
(g123
g104
NtRp2437
(dp2438
g107
(dp2439
g134
g135
ssg116
g2428
sg109
(lp2440
S':'
asbag102
(g123
g104
NtRp2441
(dp2442
g107
(dp2443
sg116
g2428
sg109
(lp2444
g102
(g103
g104
NtRp2445
(dp2446
g107
(dp2447
g115
I4
ssg116
g2441
sg109
(lp2448
g102
(g111
g104
NtRp2449
(dp2450
g107
(dp2451
g115
I3
ssg116
Nsg109
(lp2452
g102
(g118
g104
NtRp2453
(dp2454
g107
(dp2455
sg116
g2449
sg109
(lp2456
g102
(g123
g104
NtRp2457
(dp2458
g107
(dp2459
g127
g128
ssg116
g2453
sg109
(lp2460
S'HTTP_ACCEPT'
p2461
asbag102
(g123
g104
NtRp2462
(dp2463
g107
(dp2464
g134
g135
ssg116
g2453
sg109
(lp2465
S':'
asbag102
(g123
g104
NtRp2466
(dp2467
g107
(dp2468
sg116
g2453
sg109
(lp2469
g102
(g103
g104
NtRp2470
(dp2471
g107
(dp2472
g115
I3
ssg116
g2466
sg109
(lp2473
g1048
asbasbasbag102
(g118
g104
NtRp2474
(dp2475
g107
(dp2476
sg116
g2449
sg109
(lp2477
g102
(g123
g104
NtRp2478
(dp2479
g107
(dp2480
g127
g128
ssg116
g2474
sg109
(lp2481
S'HTTP_ACCEPT_ENCODING'
p2482
asbag102
(g123
g104
NtRp2483
(dp2484
g107
(dp2485
g134
g135
ssg116
g2474
sg109
(lp2486
S':'
asbag102
(g123
g104
NtRp2487
(dp2488
g107
(dp2489
sg116
g2474
sg109
(lp2490
g102
(g103
g104
NtRp2491
(dp2492
g107
(dp2493
g115
I3
ssg116
g2487
sg109
(lp2494
g1070
asbasbasbag102
(g118
g104
NtRp2495
(dp2496
g107
(dp2497
sg116
g2449
sg109
(lp2498
g102
(g123
g104
NtRp2499
(dp2500
g107
(dp2501
g127
g128
ssg116
g2495
sg109
(lp2502
S'HTTP_ACCEPT_LANGUAGE'
p2503
asbag102
(g123
g104
NtRp2504
(dp2505
g107
(dp2506
g134
g135
ssg116
g2495
sg109
(lp2507
S':'
asbag102
(g123
g104
NtRp2508
(dp2509
g107
(dp2510
sg116
g2495
sg109
(lp2511
g102
(g103
g104
NtRp2512
(dp2513
g107
(dp2514
g115
I3
ssg116
g2508
sg109
(lp2515
g1092
asbasbasbag102
(g118
g104
NtRp2516
(dp2517
g107
(dp2518
sg116
g2449
sg109
(lp2519
g102
(g123
g104
NtRp2520
(dp2521
g107
(dp2522
g127
g128
ssg116
g2516
sg109
(lp2523
S'HTTP_CONNECTION'
p2524
asbag102
(g123
g104
NtRp2525
(dp2526
g107
(dp2527
g134
g135
ssg116
g2516
sg109
(lp2528
S':'
asbag102
(g123
g104
NtRp2529
(dp2530
g107
(dp2531
sg116
g2516
sg109
(lp2532
g102
(g103
g104
NtRp2533
(dp2534
g107
(dp2535
g115
I3
ssg116
g2529
sg109
(lp2536
g1114
asbasbasbag102
(g118
g104
NtRp2537
(dp2538
g107
(dp2539
sg116
g2449
sg109
(lp2540
g102
(g123
g104
NtRp2541
(dp2542
g107
(dp2543
g127
g128
ssg116
g2537
sg109
(lp2544
S'HTTP_COOKIE'
p2545
asbag102
(g123
g104
NtRp2546
(dp2547
g107
(dp2548
g134
g135
ssg116
g2537
sg109
(lp2549
S':'
asbag102
(g123
g104
NtRp2550
(dp2551
g107
(dp2552
sg116
g2537
sg109
(lp2553
g102
(g103
g104
NtRp2554
(dp2555
g107
(dp2556
g115
I3
ssg116
g2550
sg109
(lp2557
g1136
asbasbasbag102
(g118
g104
NtRp2558
(dp2559
g107
(dp2560
sg116
g2449
sg109
(lp2561
g102
(g123
g104
NtRp2562
(dp2563
g107
(dp2564
g127
g128
ssg116
g2558
sg109
(lp2565
S'HTTP_HOST'
p2566
asbag102
(g123
g104
NtRp2567
(dp2568
g107
(dp2569
g134
g135
ssg116
g2558
sg109
(lp2570
S':'
asbag102
(g123
g104
NtRp2571
(dp2572
g107
(dp2573
sg116
g2558
sg109
(lp2574
g102
(g103
g104
NtRp2575
(dp2576
g107
(dp2577
g115
I3
ssg116
g2571
sg109
(lp2578
g1158
asbasbasbag102
(g118
g104
NtRp2579
(dp2580
g107
(dp2581
sg116
g2449
sg109
(lp2582
g102
(g123
g104
NtRp2583
(dp2584
g107
(dp2585
g127
g128
ssg116
g2579
sg109
(lp2586
S'HTTP_REFERER'
p2587
asbag102
(g123
g104
NtRp2588
(dp2589
g107
(dp2590
g134
g135
ssg116
g2579
sg109
(lp2591
S':'
asbag102
(g123
g104
NtRp2592
(dp2593
g107
(dp2594
sg116
g2579
sg109
(lp2595
g102
(g103
g104
NtRp2596
(dp2597
g107
(dp2598
g115
I3
ssg116
g2592
sg109
(lp2599
g1180
asbasbasbag102
(g118
g104
NtRp2600
(dp2601
g107
(dp2602
sg116
g2449
sg109
(lp2603
g102
(g123
g104
NtRp2604
(dp2605
g107
(dp2606
g127
g128
ssg116
g2600
sg109
(lp2607
S'HTTP_USER_AGENT'
p2608
asbag102
(g123
g104
NtRp2609
(dp2610
g107
(dp2611
g134
g135
ssg116
g2600
sg109
(lp2612
S':'
asbag102
(g123
g104
NtRp2613
(dp2614
g107
(dp2615
sg116
g2600
sg109
(lp2616
g102
(g103
g104
NtRp2617
(dp2618
g107
(dp2619
g115
I3
ssg116
g2613
sg109
(lp2620
g1202
asbasbasbag102
(g118
g104
NtRp2621
(dp2622
g107
(dp2623
sg116
g2449
sg109
(lp2624
g102
(g123
g104
NtRp2625
(dp2626
g107
(dp2627
g127
g128
ssg116
g2621
sg109
(lp2628
S'PATH_INFO'
p2629
asbag102
(g123
g104
NtRp2630
(dp2631
g107
(dp2632
g134
g135
ssg116
g2621
sg109
(lp2633
S':'
asbag102
(g123
g104
NtRp2634
(dp2635
g107
(dp2636
sg116
g2621
sg109
(lp2637
g102
(g103
g104
NtRp2638
(dp2639
g107
(dp2640
g115
I3
ssg116
g2634
sg109
(lp2641
g1266
asbasbasbag102
(g118
g104
NtRp2642
(dp2643
g107
(dp2644
sg116
g2449
sg109
(lp2645
g102
(g123
g104
NtRp2646
(dp2647
g107
(dp2648
g127
g128
ssg116
g2642
sg109
(lp2649
S'QUERY_STRING'
p2650
asbag102
(g123
g104
NtRp2651
(dp2652
g107
(dp2653
g134
g135
ssg116
g2642
sg109
(lp2654
S':'
asbag102
(g123
g104
NtRp2655
(dp2656
g107
(dp2657
sg116
g2642
sg109
(lp2658
g102
(g103
g104
NtRp2659
(dp2660
g107
(dp2661
g115
I3
ssg116
g2655
sg109
(lp2662
S''
asbasbasbag102
(g118
g104
NtRp2663
(dp2664
g107
(dp2665
sg116
g2449
sg109
(lp2666
g102
(g123
g104
NtRp2667
(dp2668
g107
(dp2669
g127
g128
ssg116
g2663
sg109
(lp2670
S'REMOTE_ADDR'
p2671
asbag102
(g123
g104
NtRp2672
(dp2673
g107
(dp2674
g134
g135
ssg116
g2663
sg109
(lp2675
S':'
asbag102
(g123
g104
NtRp2676
(dp2677
g107
(dp2678
sg116
g2663
sg109
(lp2679
g102
(g103
g104
NtRp2680
(dp2681
g107
(dp2682
g115
I3
ssg116
g2676
sg109
(lp2683
g235
asbasbasbag102
(g118
g104
NtRp2684
(dp2685
g107
(dp2686
sg116
g2449
sg109
(lp2687
g102
(g123
g104
NtRp2688
(dp2689
g107
(dp2690
g127
g128
ssg116
g2684
sg109
(lp2691
S'REMOTE_PORT'
p2692
asbag102
(g123
g104
NtRp2693
(dp2694
g107
(dp2695
g134
g135
ssg116
g2684
sg109
(lp2696
S':'
asbag102
(g123
g104
NtRp2697
(dp2698
g107
(dp2699
sg116
g2684
sg109
(lp2700
g102
(g103
g104
NtRp2701
(dp2702
g107
(dp2703
g115
I3
ssg116
g2697
sg109
(lp2704
g1330
asbasbasbag102
(g118
g104
NtRp2705
(dp2706
g107
(dp2707
sg116
g2449
sg109
(lp2708
g102
(g123
g104
NtRp2709
(dp2710
g107
(dp2711
g127
g128
ssg116
g2705
sg109
(lp2712
S'REQUEST_METHOD'
p2713
asbag102
(g123
g104
NtRp2714
(dp2715
g107
(dp2716
g134
g135
ssg116
g2705
sg109
(lp2717
S':'
asbag102
(g123
g104
NtRp2718
(dp2719
g107
(dp2720
sg116
g2705
sg109
(lp2721
g102
(g103
g104
NtRp2722
(dp2723
g107
(dp2724
g115
I3
ssg116
g2718
sg109
(lp2725
g1352
asbasbasbag102
(g118
g104
NtRp2726
(dp2727
g107
(dp2728
sg116
g2449
sg109
(lp2729
g102
(g123
g104
NtRp2730
(dp2731
g107
(dp2732
g127
g128
ssg116
g2726
sg109
(lp2733
S'SCRIPT_NAME'
p2734
asbag102
(g123
g104
NtRp2735
(dp2736
g107
(dp2737
g134
g135
ssg116
g2726
sg109
(lp2738
S':'
asbag102
(g123
g104
NtRp2739
(dp2740
g107
(dp2741
sg116
g2726
sg109
(lp2742
g102
(g103
g104
NtRp2743
(dp2744
g107
(dp2745
g115
I3
ssg116
g2739
sg109
(lp2746
S''
asbasbasbag102
(g118
g104
NtRp2747
(dp2748
g107
(dp2749
sg116
g2449
sg109
(lp2750
g102
(g123
g104
NtRp2751
(dp2752
g107
(dp2753
g127
g128
ssg116
g2747
sg109
(lp2754
S'SERVER_NAME'
p2755
asbag102
(g123
g104
NtRp2756
(dp2757
g107
(dp2758
g134
g135
ssg116
g2747
sg109
(lp2759
S':'
asbag102
(g123
g104
NtRp2760
(dp2761
g107
(dp2762
sg116
g2747
sg109
(lp2763
g102
(g103
g104
NtRp2764
(dp2765
g107
(dp2766
g115
I3
ssg116
g2760
sg109
(lp2767
g1395
asbasbasbag102
(g118
g104
NtRp2768
(dp2769
g107
(dp2770
sg116
g2449
sg109
(lp2771
g102
(g123
g104
NtRp2772
(dp2773
g107
(dp2774
g127
g128
ssg116
g2768
sg109
(lp2775
S'SERVER_PORT'
p2776
asbag102
(g123
g104
NtRp2777
(dp2778
g107
(dp2779
g134
g135
ssg116
g2768
sg109
(lp2780
S':'
asbag102
(g123
g104
NtRp2781
(dp2782
g107
(dp2783
sg116
g2768
sg109
(lp2784
g102
(g103
g104
NtRp2785
(dp2786
g107
(dp2787
g115
I3
ssg116
g2781
sg109
(lp2788
g1417
asbasbasbag102
(g118
g104
NtRp2789
(dp2790
g107
(dp2791
sg116
g2449
sg109
(lp2792
g102
(g123
g104
NtRp2793
(dp2794
g107
(dp2795
g127
g128
ssg116
g2789
sg109
(lp2796
S'SERVER_PROTOCOL'
p2797
asbag102
(g123
g104
NtRp2798
(dp2799
g107
(dp2800
g134
g135
ssg116
g2789
sg109
(lp2801
S':'
asbag102
(g123
g104
NtRp2802
(dp2803
g107
(dp2804
sg116
g2789
sg109
(lp2805
g102
(g103
g104
NtRp2806
(dp2807
g107
(dp2808
g115
I3
ssg116
g2802
sg109
(lp2809
g1439
asbasbasbag102
(g118
g104
NtRp2810
(dp2811
g107
(dp2812
sg116
g2449
sg109
(lp2813
g102
(g123
g104
NtRp2814
(dp2815
g107
(dp2816
g127
g128
ssg116
g2810
sg109
(lp2817
S'SERVER_SOFTWARE'
p2818
asbag102
(g123
g104
NtRp2819
(dp2820
g107
(dp2821
g134
g135
ssg116
g2810
sg109
(lp2822
S':'
asbag102
(g123
g104
NtRp2823
(dp2824
g107
(dp2825
sg116
g2810
sg109
(lp2826
g102
(g103
g104
NtRp2827
(dp2828
g107
(dp2829
g115
I3
ssg116
g2823
sg109
(lp2830
g1461
asbasbasbag102
(g118
g104
NtRp2831
(dp2832
g107
(dp2833
sg116
g2449
sg109
(lp2834
g102
(g123
g104
NtRp2835
(dp2836
g107
(dp2837
g127
g128
ssg116
g2831
sg109
(lp2838
S'wsgi.errors'
p2839
asbag102
(g123
g104
NtRp2840
(dp2841
g107
(dp2842
g134
g135
ssg116
g2831
sg109
(lp2843
S':'
asbag102
(g123
g104
NtRp2844
(dp2845
g107
(dp2846
sg116
g2831
sg109
(lp2847
g102
(g103
g104
NtRp2848
(dp2849
g107
(dp2850
g115
I3
ssg116
g2844
sg109
(lp2851
S"<open file '<stderr>', mode 'w' at 0x7f010c458270>"
p2852
asbasbasbag102
(g118
g104
NtRp2853
(dp2854
g107
(dp2855
sg116
g2449
sg109
(lp2856
g102
(g123
g104
NtRp2857
(dp2858
g107
(dp2859
g127
g128
ssg116
g2853
sg109
(lp2860
S'wsgi.file_wrapper'
p2861
asbag102
(g123
g104
NtRp2862
(dp2863
g107
(dp2864
g134
g135
ssg116
g2853
sg109
(lp2865
S':'
asbag102
(g123
g104
NtRp2866
(dp2867
g107
(dp2868
sg116
g2853
sg109
(lp2869
g102
(g103
g104
NtRp2870
(dp2871
g107
(dp2872
g115
I3
ssg116
g2866
sg109
(lp2873
S'<class wsgiref.util.FileWrapper at 0x138eef0>'
p2874
asbasbasbag102
(g118
g104
NtRp2875
(dp2876
g107
(dp2877
sg116
g2449
sg109
(lp2878
g102
(g123
g104
NtRp2879
(dp2880
g107
(dp2881
g127
g128
ssg116
g2875
sg109
(lp2882
S'wsgi.input'
p2883
asbag102
(g123
g104
NtRp2884
(dp2885
g107
(dp2886
g134
g135
ssg116
g2875
sg109
(lp2887
S':'
asbag102
(g123
g104
NtRp2888
(dp2889
g107
(dp2890
sg116
g2875
sg109
(lp2891
g102
(g103
g104
NtRp2892
(dp2893
g107
(dp2894
g115
I3
ssg116
g2888
sg109
(lp2895
S'<cStringIO.StringO object at 0x7f00e4291340>'
p2896
asbasbasbag102
(g118
g104
NtRp2897
(dp2898
g107
(dp2899
sg116
g2449
sg109
(lp2900
g102
(g123
g104
NtRp2901
(dp2902
g107
(dp2903
g127
g128
ssg116
g2897
sg109
(lp2904
S'wsgi.multiprocess'
p2905
asbag102
(g123
g104
NtRp2906
(dp2907
g107
(dp2908
g134
g135
ssg116
g2897
sg109
(lp2909
S':'
asbag102
(g123
g104
NtRp2910
(dp2911
g107
(dp2912
sg116
g2897
sg109
(lp2913
g102
(g103
g104
NtRp2914
(dp2915
g107
(dp2916
g115
I3
ssg116
g2910
sg109
(lp2917
g145
asbasbasbag102
(g118
g104
NtRp2918
(dp2919
g107
(dp2920
sg116
g2449
sg109
(lp2921
g102
(g123
g104
NtRp2922
(dp2923
g107
(dp2924
g127
g128
ssg116
g2918
sg109
(lp2925
S'wsgi.multithread'
p2926
asbag102
(g123
g104
NtRp2927
(dp2928
g107
(dp2929
g134
g135
ssg116
g2918
sg109
(lp2930
S':'
asbag102
(g123
g104
NtRp2931
(dp2932
g107
(dp2933
sg116
g2918
sg109
(lp2934
g102
(g103
g104
NtRp2935
(dp2936
g107
(dp2937
g115
I3
ssg116
g2931
sg109
(lp2938
g1701
asbasbasbag102
(g118
g104
NtRp2939
(dp2940
g107
(dp2941
sg116
g2449
sg109
(lp2942
g102
(g123
g104
NtRp2943
(dp2944
g107
(dp2945
g127
g128
ssg116
g2939
sg109
(lp2946
S'wsgi.run_once'
p2947
asbag102
(g123
g104
NtRp2948
(dp2949
g107
(dp2950
g134
g135
ssg116
g2939
sg109
(lp2951
S':'
asbag102
(g123
g104
NtRp2952
(dp2953
g107
(dp2954
sg116
g2939
sg109
(lp2955
g102
(g103
g104
NtRp2956
(dp2957
g107
(dp2958
g115
I3
ssg116
g2952
sg109
(lp2959
g145
asbasbasbag102
(g118
g104
NtRp2960
(dp2961
g107
(dp2962
sg116
g2449
sg109
(lp2963
g102
(g123
g104
NtRp2964
(dp2965
g107
(dp2966
g127
g128
ssg116
g2960
sg109
(lp2967
S'wsgi.url_scheme'
p2968
asbag102
(g123
g104
NtRp2969
(dp2970
g107
(dp2971
g134
g135
ssg116
g2960
sg109
(lp2972
S':'
asbag102
(g123
g104
NtRp2973
(dp2974
g107
(dp2975
sg116
g2960
sg109
(lp2976
g102
(g103
g104
NtRp2977
(dp2978
g107
(dp2979
g115
I3
ssg116
g2973
sg109
(lp2980
g1744
asbasbasbag102
(g118
g104
NtRp2981
(dp2982
g107
(dp2983
sg116
g2449
sg109
(lp2984
g102
(g123
g104
NtRp2985
(dp2986
g107
(dp2987
g127
g128
ssg116
g2981
sg109
(lp2988
S'wsgi.version'
p2989
asbag102
(g123
g104
NtRp2990
(dp2991
g107
(dp2992
g134
g135
ssg116
g2981
sg109
(lp2993
S':'
asbag102
(g123
g104
NtRp2994
(dp2995
g107
(dp2996
sg116
g2981
sg109
(lp2997
g102
(g103
g104
NtRp2998
(dp2999
g107
(dp3000
g115
I3
ssg116
g2994
sg109
(lp3001
S'1'
asbasbasbasbasbasbasbasbasbasbasbasbasbsS'frames'
p3002
(lp3003
(dp3004
S'file'
p3005
S'/home/maneesha/Downloads/web2py/gluon/restricted.py'
p3006
sS'dump'
p3007
(dp3008
S'environment'
p3009
S"{'A': <class 'gluon.html.A'>, 'Auth': <class 'gluon.tools.Auth'>, 'B': <class 'gluon.html.B'>, 'BEAUTIFY': <class 'gluon.html.BEAUTIFY'>, 'BODY': <class 'gluon.html.BODY'>, 'BR': <class 'gluon.html.BR'>, 'BUTTON': <class 'gluon.html.BUTTON'>, 'CAT': <class 'gluon.html.CAT'>, 'CENTER': <class 'gluon.html.CENTER'>, 'CLEANUP': <class 'gluon.validators.CLEANUP'>, ...}"
p3010
sS'ccode'
p3011
S'<code object <module> at 0x7f00e42879b0, file "/...ications/cite_mf/controllers/default.py", line 3>'
p3012
ssS'lnum'
p3013
I205
sS'lines'
p3014
(dp3015
I200
S'    try:'
p3016
sI201
S'        if type(code) == types.CodeType:'
p3017
sI202
S'            ccode = code'
p3018
sI203
S'        else:'
p3019
sI204
S'            ccode = compile2(code,layer)'
p3020
sI205
S'        exec ccode in environment'
p3021
sI206
S'    except HTTP:'
p3022
sI207
S'        raise'
p3023
sI208
S'    except RestrictedError:'
p3024
sI209
S'        # do not encapsulate (obfuscate) the original RestrictedError'
p3025
ssS'call'
p3026
S"(code='# -*- coding: utf-8 -*-\\n### required - do no del...ss1)\\n\\nresponse._vars=response._caller(final_ans)\\n', environment={'A': <class 'gluon.html.A'>, 'Auth': <class 'gluon.tools.Auth'>, 'B': <class 'gluon.html.B'>, 'BEAUTIFY': <class 'gluon.html.BEAUTIFY'>, 'BODY': <class 'gluon.html.BODY'>, 'BR': <class 'gluon.html.BR'>, 'BUTTON': <class 'gluon.html.BUTTON'>, 'CAT': <class 'gluon.html.CAT'>, 'CENTER': <class 'gluon.html.CENTER'>, 'CLEANUP': <class 'gluon.validators.CLEANUP'>, ...}, layer='/home/maneesha/Downloads/web2py/applications/cite_mf/controllers/default.py')"
p3027
sS'func'
p3028
S'restricted'
p3029
sa(dp3030
g3005
S'/home/maneesha/Downloads/web2py/applications/cite_mf/controllers/default.py'
p3031
sg3007
(dp3032
sg3013
I205
sg3014
(dp3033
I194
S'        d=d.replace("</par>","")'
p3034
sI195
S'    return d            #returns the filtered text'
p3035
sI196
S'def abstract1():'
p3036
sI197
S'    abss=request.args[0]'
p3037
sI198
S'    pre=""'
p3038
sI199
S'    while pre!=abss:'
p3039
sI200
S'        pre=abss'
p3040
sI201
S'        abss=abss.replace("_"," ")'
p3041
sI202
S'    abss1=abss.split(".")'
p3042
sI203
S'    return dict(abss1=abss1)'
p3043
ssg3026
S'()'
p3044
sg3028
S'<module>'
p3045
sa(dp3046
g3005
S'/home/maneesha/Downloads/web2py/gluon/globals.py'
p3047
sg3007
(dp3048
S'self'
p3049
S'undefined'
p3050
sS'f'
S'<function final_ans>'
p3051
ssg3013
I173
sg3014
(dp3052
I168
S'        self.menu = []             # used by the default view layout'
p3053
sI169
S'        self.files = []            # used by web2py_ajax.html'
p3054
sI170
S'        self.generic_patterns = [] # patterns to allow generic views'
p3055
sI171
S"        self.delimiters = ('{{','}}')"
p3056
sI172
S'        self._vars = None'
p3057
sI173
S'        self._caller = lambda f: f()'
p3058
sI174
S'        self._view_environment = None'
p3059
sI175
S'        self._custom_commit = None'
p3060
sI176
S'        self._custom_rollback = None'
p3061
sI177
S''
ssg3026
S'(f=<function final_ans>)'
p3062
sg3028
S'<lambda>'
p3063
sa(dp3064
g3005
S'/home/maneesha/Downloads/web2py/applications/cite_mf/controllers/default.py'
p3065
sg3007
(dp3066
S'global extract1'
p3067
S'<function extract1>'
p3068
sS'url'
p3069
S"'http://dl.acm.org/results.cfm?h=1&query=database+design'"
p3070
sS'l1'
p3071
S"['database design', 3, 3, True, True, True]"
p3072
sS'fst_l'
p3073
S'[]'
p3074
ssg3013
I64
sg3014
(dp3075
I64
S'    fst_l=extract1(url,l1)     #extracts the urls of query results and stores it in a list fst_l'
p3076
sI65
S'    rec(fst_l,l1,bigans)  #this function recursively fetches the required information and stores every result in list bigans.'
p3077
sI66
S'    au=db(auth.user.username==db.auth_user.username).select().first()'
p3078
sI67
S'    email=au.email       #email of user who is logged in is extracted.'
p3079
sI68
S'    return dict(bigans=bigans,level=l1[1],top=l1[2],ret1=ret1,email=email)'
p3080
sI59
S'    bigans=[] #stores the final output in a list'
p3081
sI60
S'    l1=u_filter() #extracting the user input in a list'
p3082
sI61
S'    url="http://dl.acm.org/results.cfm?h=1&query="+\'+\'.join(l1[0].split()) #forming the url'
p3083
sI62
S'    fst_l=[]'
p3084
sI63
S'    ret1=[]'
p3085
ssg3026
S'()'
p3086
sg3028
S'final_ans'
p3087
sa(dp3088
g3005
S'/home/maneesha/Downloads/web2py/applications/cite_mf/controllers/default.py'
p3089
sg3007
(dp3090
S'url'
p3091
S"'http://dl.acm.org/results.cfm?h=1&query=database+design'"
p3092
sS'html'
p3093
g3050
sS'global fetch'
p3094
S'<function fetch>'
p3095
ssg3013
I28
sg3014
(dp3096
I32
S"    k=html_splitted[0].split('>')"
p3097
sI23
S"        response.flash = 'Login successful'"
p3098
sI24
S"        redirect(URL('final_ans'))"
p3099
sI25
S'    return dict(form=form)'
p3100
sI26
S'def extract1(url,l1): #extracts the top_result urls from the first page'
p3101
sI27
S'    ret=[]'
p3102
sI28
S'    html=fetch(url) #fetches the html page of the given url ans stores it in a string html'
p3103
sI29
S'    html_splitted=html.split("<A HREF=\\"citation.cfm") #splitting the fetched string'
p3104
sI30
S'    ht=html_splitted[0]'
p3105
sI31
S'    del html_splitted[0]'
p3106
ssg3026
S"(url='http://dl.acm.org/results.cfm?h=1&query=database+design', l1=['database design', 3, 3, True, True, True])"
p3107
sg3028
S'extract1'
p3108
sa(dp3109
g3005
S'/home/maneesha/Downloads/web2py/gluon/tools.py'
p3110
sg3007
(dp3111
S'urllib2.urlopen'
p3112
S'<function urlopen>'
p3113
sS'global urllib2'
p3114
S"<module 'urllib2' from '/usr/lib/python2.7/urllib2.pyc'>"
p3115
sS'html'
p3116
g3050
sS'req'
p3117
S'<urllib2.Request instance>'
p3118
sS').read'
p3119
g3050
ssg3013
I3424
sg3014
(dp3120
I3424
S'        html = urllib2.urlopen(req).read()'
p3121
sI3425
S'    else:'
p3122
sI3426
S'        method = ((data is None) and urlfetch.GET) or urlfetch.POST'
p3123
sI3427
S'        while url is not None:'
p3124
sI3428
S'            response = urlfetch.fetch(url=url, payload=data,'
p3125
sI3419
S"    headers['Cookie'] = ' '.join(['%s=%s;'%(c.key,c.value) for c in cookie.values()])"
p3126
sI3420
S'    try:'
p3127
sI3421
S'        from google.appengine.api import urlfetch'
p3128
sI3422
S'    except ImportError:'
p3129
sI3423
S'        req = urllib2.Request(url, data, headers)'
p3130
ssg3026
S"(url='http://dl.acm.org/results.cfm?h=1&query=database+design', data=None, headers={'Cookie': '', 'User-agent': 'Mozilla/5.0'}, cookie=<SimpleCookie: >, user_agent='Mozilla/5.0')"
p3131
sg3028
S'fetch'
p3132
sa(dp3133
g3005
S'/usr/lib/python2.7/urllib2.py'
p3134
sg3007
(dp3135
S'_opener.open'
p3136
S'<bound method OpenerDirector.open of <urllib2.OpenerDirector instance>>'
p3137
sS'url'
p3138
S'<urllib2.Request instance>'
p3139
sS'data'
p3140
S'None'
p3141
sS'global _opener'
p3142
S'<urllib2.OpenerDirector instance>'
p3143
sS'timeout'
p3144
S'<object object>'
p3145
ssg3013
I126
sg3014
(dp3146
I128
S'def install_opener(opener):'
p3147
sI129
S'    global _opener'
p3148
sI130
S'    _opener = opener'
p3149
sI121
S'_opener = None'
p3150
sI122
S'def urlopen(url, data=None, timeout=socket._GLOBAL_DEFAULT_TIMEOUT):'
p3151
sI123
S'    global _opener'
p3152
sI124
S'    if _opener is None:'
p3153
sI125
S'        _opener = build_opener()'
p3154
sI126
S'    return _opener.open(url, data, timeout)'
p3155
sI127
S''
ssg3026
S'(url=<urllib2.Request instance>, data=None, timeout=<object object>)'
p3156
sg3028
S'urlopen'
p3157
sa(dp3158
g3005
S'/usr/lib/python2.7/urllib2.py'
p3159
sg3007
(dp3160
S'meth'
p3161
S'<bound method HTTPErrorProcessor.http_response of <urllib2.HTTPErrorProcessor instance>>'
p3162
sS'req'
p3163
S'<urllib2.Request instance>'
p3164
sS'response'
p3165
S'<addinfourl at 139641804684824 whose fp = <socket._fileobject object>>'
p3166
ssg3013
I406
sg3014
(dp3167
I401
S''
sI402
S'        # post-process response'
p3168
sI403
S'        meth_name = protocol+"_response"'
p3169
sI404
S'        for processor in self.process_response.get(protocol, []):'
p3170
sI405
S'            meth = getattr(processor, meth_name)'
p3171
sI406
S'            response = meth(req, response)'
p3172
sI407
S''
sI408
S'        return response'
p3173
sI409
S''
sI410
S'    def _open(self, req, data=None):'
p3174
ssg3026
S'(self=<urllib2.OpenerDirector instance>, fullurl=<urllib2.Request instance>, data=None, timeout=<object object>)'
p3175
sg3028
S'open'
p3176
sa(dp3177
g3005
S'/usr/lib/python2.7/urllib2.py'
p3178
sg3007
(dp3179
S'msg'
p3180
S"'Gateway Time-out'"
p3181
sS'code'
p3182
S'504'
p3183
sS'request'
p3184
S'<urllib2.Request instance>'
p3185
sS'response'
p3186
S'<addinfourl at 139641804684824 whose fp = <socket._fileobject object>>'
p3187
sS'hdrs'
p3188
S'<httplib.HTTPMessage instance>'
p3189
ssg3013
I519
sg3014
(dp3190
I514
S''
sI515
S'        # According to RFC 2616, "2xx" code indicates that the client\'s'
p3191
sI516
S'        # request was successfully received, understood, and accepted.'
p3192
sI517
S'        if not (200 <= code < 300):'
p3193
sI518
S'            response = self.parent.error('
p3194
sI519
S"                'http', request, response, code, msg, hdrs)"
p3195
sI520
S''
sI521
S'        return response'
p3196
sI522
S''
sI523
S'    https_response = http_response'
p3197
ssg3026
S'(self=<urllib2.HTTPErrorProcessor instance>, request=<urllib2.Request instance>, response=<addinfourl at 139641804684824 whose fp = <socket._fileobject object>>)'
p3198
sg3028
S'http_response'
p3199
sa(dp3200
g3005
S'/usr/lib/python2.7/urllib2.py'
p3201
sg3007
(dp3202
S'self._call_chain'
p3203
S'<bound method OpenerDirector._call_chain of <urllib2.OpenerDirector instance>>'
p3204
sS'self'
p3205
S'<urllib2.OpenerDirector instance>'
p3206
sS'args'
p3207
S"({301: [<urllib2.HTTPRedirectHandler instance>], 302: [<urllib2.HTTPRedirectHandler instance>], 303: [<urllib2.HTTPRedirectHandler instance>], 307: [<urllib2.HTTPRedirectHandler instance>], 'default': [<urllib2.HTTPDefaultErrorHandler instance>]}, 'default', 'http_error_default', <urllib2.Request instance>, <addinfourl at 139641804684824 whose fp = <socket._fileobject object>>, 504, 'Gateway Time-out', <httplib.HTTPMessage instance>)"
p3208
ssg3013
I444
sg3014
(dp3209
I448
S'# make sense to include both'
p3210
sI439
S'        if result:'
p3211
sI440
S'            return result'
p3212
sI441
S''
sI442
S'        if http_err:'
p3213
sI443
S"            args = (dict, 'default', 'http_error_default') + orig_args"
p3214
sI444
S'            return self._call_chain(*args)'
p3215
sI445
S''
sI446
S'# XXX probably also want an abstract factory that knows when it makes'
p3216
sI447
S'# sense to skip a superclass in favor of a subclass and when it might'
p3217
ssg3026
S"(self=<urllib2.OpenerDirector instance>, proto=504, *args=({301: [<urllib2.HTTPRedirectHandler instance>], 302: [<urllib2.HTTPRedirectHandler instance>], 303: [<urllib2.HTTPRedirectHandler instance>], 307: [<urllib2.HTTPRedirectHandler instance>], 'default': [<urllib2.HTTPDefaultErrorHandler instance>]}, 'default', 'http_error_default', <urllib2.Request instance>, <addinfourl at 139641804684824 whose fp = <socket._fileobject object>>, 504, 'Gateway Time-out', <httplib.HTTPMessage instance>))"
p3218
sg3028
S'error'
p3219
sa(dp3220
g3005
S'/usr/lib/python2.7/urllib2.py'
p3221
sg3007
(dp3222
S'args'
p3223
S"(<urllib2.Request instance>, <addinfourl at 139641804684824 whose fp = <socket._fileobject object>>, 504, 'Gateway Time-out', <httplib.HTTPMessage instance>)"
p3224
sS'result'
p3225
g3050
sS'func'
p3226
S'<bound method HTTPDefaultErrorHandler.http_error...lt of <urllib2.HTTPDefaultErrorHandler instance>>'
p3227
ssg3013
I378
sg3014
(dp3228
I373
S'        # could.  Otherwise, they return the response.'
p3229
sI374
S'        handlers = chain.get(kind, ())'
p3230
sI375
S'        for handler in handlers:'
p3231
sI376
S'            func = getattr(handler, meth_name)'
p3232
sI377
S''
sI378
S'            result = func(*args)'
p3233
sI379
S'            if result is not None:'
p3234
sI380
S'                return result'
p3235
sI381
S''
sI382
S'    def open(self, fullurl, data=None, timeout=socket._GLOBAL_DEFAULT_TIMEOUT):'
p3236
ssg3026
S"(self=<urllib2.OpenerDirector instance>, chain={301: [<urllib2.HTTPRedirectHandler instance>], 302: [<urllib2.HTTPRedirectHandler instance>], 303: [<urllib2.HTTPRedirectHandler instance>], 307: [<urllib2.HTTPRedirectHandler instance>], 'default': [<urllib2.HTTPDefaultErrorHandler instance>]}, kind='default', meth_name='http_error_default', *args=(<urllib2.Request instance>, <addinfourl at 139641804684824 whose fp = <socket._fileobject object>>, 504, 'Gateway Time-out', <httplib.HTTPMessage instance>))"
p3237
sg3028
S'_call_chain'
p3238
sa(dp3239
g3005
S'/usr/lib/python2.7/urllib2.py'
p3240
sg3007
(dp3241
S'fp'
p3242
S'<addinfourl at 139641804684824 whose fp = <socket._fileobject object>>'
p3243
sS'code'
p3244
S'504'
p3245
sS'hdrs'
p3246
S'<httplib.HTTPMessage instance>'
p3247
sS'req'
p3248
S'<urllib2.Request instance>'
p3249
sS'req.get_full_url'
p3250
S'<bound method Request.get_full_url of <urllib2.Request instance>>'
p3251
sS'msg'
p3252
S"'Gateway Time-out'"
p3253
sS'global HTTPError'
p3254
S"<class 'urllib2.HTTPError'>"
p3255
ssg3013
I527
sg3014
(dp3256
I522
S''
sI523
S'    https_response = http_response'
p3257
sI524
S''
sI525
S'class HTTPDefaultErrorHandler(BaseHandler):'
p3258
sI526
S'    def http_error_default(self, req, fp, code, msg, hdrs):'
p3259
sI527
S'        raise HTTPError(req.get_full_url(), code, msg, hdrs, fp)'
p3260
sI528
S''
sI529
S'class HTTPRedirectHandler(BaseHandler):'
p3261
sI530
S'    # maximum number of redirections to any single URL'
p3262
sI531
S'    # this is needed because of the state that cookies introduce'
p3263
ssg3026
S"(self=<urllib2.HTTPDefaultErrorHandler instance>, req=<urllib2.Request instance>, fp=<addinfourl at 139641804684824 whose fp = <socket._fileobject object>>, code=504, msg='Gateway Time-out', hdrs=<httplib.HTTPMessage instance>)"
p3264
sg3028
S'http_error_default'
p3265
sasS'pyver'
p3266
S'Python 2.7.3: /usr/bin/python'
p3267
sS'session'
p3268
g102
(g103
g104
NtRp3269
(dp3270
g107
(dp3271
sg109
(lp3272
g102
(g111
g104
NtRp3273
(dp3274
g107
(dp3275
g115
I5
ssg116
Nsg109
(lp3276
g102
(g118
g104
NtRp3277
(dp3278
g107
(dp3279
sg116
g3273
sg109
(lp3280
g102
(g123
g104
NtRp3281
(dp3282
g107
(dp3283
g127
g128
ssg116
g3277
sg109
(lp3284
S'auth'
p3285
asbag102
(g123
g104
NtRp3286
(dp3287
g107
(dp3288
g134
g135
ssg116
g3277
sg109
(lp3289
S':'
asbag102
(g123
g104
NtRp3290
(dp3291
g107
(dp3292
sg116
g3277
sg109
(lp3293
g102
(g103
g104
NtRp3294
(dp3295
g107
(dp3296
g115
I5
ssg116
g3290
sg109
(lp3297
g102
(g111
g104
NtRp3298
(dp3299
g107
(dp3300
g115
I4
ssg116
Nsg109
(lp3301
g102
(g118
g104
NtRp3302
(dp3303
g107
(dp3304
sg116
g3298
sg109
(lp3305
g102
(g123
g104
NtRp3306
(dp3307
g107
(dp3308
g127
g128
ssg116
g3302
sg109
(lp3309
S'expiration'
p3310
asbag102
(g123
g104
NtRp3311
(dp3312
g107
(dp3313
g134
g135
ssg116
g3302
sg109
(lp3314
S':'
asbag102
(g123
g104
NtRp3315
(dp3316
g107
(dp3317
sg116
g3302
sg109
(lp3318
g102
(g103
g104
NtRp3319
(dp3320
g107
(dp3321
g115
I4
ssg116
g3315
sg109
(lp3322
S'3600'
p3323
asbasbasbag102
(g118
g104
NtRp3324
(dp3325
g107
(dp3326
sg116
g3298
sg109
(lp3327
g102
(g123
g104
NtRp3328
(dp3329
g107
(dp3330
g127
g128
ssg116
g3324
sg109
(lp3331
S'hmac_key'
p3332
asbag102
(g123
g104
NtRp3333
(dp3334
g107
(dp3335
g134
g135
ssg116
g3324
sg109
(lp3336
S':'
asbag102
(g123
g104
NtRp3337
(dp3338
g107
(dp3339
sg116
g3324
sg109
(lp3340
g102
(g103
g104
NtRp3341
(dp3342
g107
(dp3343
g115
I4
ssg116
g3337
sg109
(lp3344
S'3339940d-8eb0-4dc1-9b7d-1ccd02dc6c66'
p3345
asbasbasbag102
(g118
g104
NtRp3346
(dp3347
g107
(dp3348
sg116
g3298
sg109
(lp3349
g102
(g123
g104
NtRp3350
(dp3351
g107
(dp3352
g127
g128
ssg116
g3346
sg109
(lp3353
S'last_visit'
p3354
asbag102
(g123
g104
NtRp3355
(dp3356
g107
(dp3357
g134
g135
ssg116
g3346
sg109
(lp3358
S':'
asbag102
(g123
g104
NtRp3359
(dp3360
g107
(dp3361
sg116
g3346
sg109
(lp3362
g102
(g103
g104
NtRp3363
(dp3364
g107
(dp3365
g115
I4
ssg116
g3359
sg109
(lp3366
S'datetime.datetime(2012, 11, 15, 21, 53, 41, 442266)'
p3367
asbasbasbag102
(g118
g104
NtRp3368
(dp3369
g107
(dp3370
sg116
g3298
sg109
(lp3371
g102
(g123
g104
NtRp3372
(dp3373
g107
(dp3374
g127
g128
ssg116
g3368
sg109
(lp3375
S'remember'
p3376
asbag102
(g123
g104
NtRp3377
(dp3378
g107
(dp3379
g134
g135
ssg116
g3368
sg109
(lp3380
S':'
asbag102
(g123
g104
NtRp3381
(dp3382
g107
(dp3383
sg116
g3368
sg109
(lp3384
g102
(g103
g104
NtRp3385
(dp3386
g107
(dp3387
g115
I4
ssg116
g3381
sg109
(lp3388
g145
asbasbasbag102
(g118
g104
NtRp3389
(dp3390
g107
(dp3391
sg116
g3298
sg109
(lp3392
g102
(g123
g104
NtRp3393
(dp3394
g107
(dp3395
g127
g128
ssg116
g3389
sg109
(lp3396
S'user'
p3397
asbag102
(g123
g104
NtRp3398
(dp3399
g107
(dp3400
g134
g135
ssg116
g3389
sg109
(lp3401
S':'
asbag102
(g123
g104
NtRp3402
(dp3403
g107
(dp3404
sg116
g3389
sg109
(lp3405
g102
(g103
g104
NtRp3406
(dp3407
g107
(dp3408
g115
I4
ssg116
g3402
sg109
(lp3409
g102
(g111
g104
NtRp3410
(dp3411
g107
(dp3412
g115
I3
ssg116
Nsg109
(lp3413
g102
(g118
g104
NtRp3414
(dp3415
g107
(dp3416
sg116
g3410
sg109
(lp3417
g102
(g123
g104
NtRp3418
(dp3419
g107
(dp3420
g127
g128
ssg116
g3414
sg109
(lp3421
S'created_on'
p3422
asbag102
(g123
g104
NtRp3423
(dp3424
g107
(dp3425
g134
g135
ssg116
g3414
sg109
(lp3426
S':'
asbag102
(g123
g104
NtRp3427
(dp3428
g107
(dp3429
sg116
g3414
sg109
(lp3430
g102
(g103
g104
NtRp3431
(dp3432
g107
(dp3433
g115
I3
ssg116
g3427
sg109
(lp3434
S'datetime.datetime(2012, 10, 23, 2, 28, 41)'
p3435
asbasbasbag102
(g118
g104
NtRp3436
(dp3437
g107
(dp3438
sg116
g3410
sg109
(lp3439
g102
(g123
g104
NtRp3440
(dp3441
g107
(dp3442
g127
g128
ssg116
g3436
sg109
(lp3443
S'email'
p3444
asbag102
(g123
g104
NtRp3445
(dp3446
g107
(dp3447
g134
g135
ssg116
g3436
sg109
(lp3448
S':'
asbag102
(g123
g104
NtRp3449
(dp3450
g107
(dp3451
sg116
g3436
sg109
(lp3452
g102
(g103
g104
NtRp3453
(dp3454
g107
(dp3455
g115
I3
ssg116
g3449
sg109
(lp3456
S'chitra.khatwani@students.iiit.ac.in'
p3457
asbasbasbag102
(g118
g104
NtRp3458
(dp3459
g107
(dp3460
sg116
g3410
sg109
(lp3461
g102
(g123
g104
NtRp3462
(dp3463
g107
(dp3464
g127
g128
ssg116
g3458
sg109
(lp3465
S'first_name'
p3466
asbag102
(g123
g104
NtRp3467
(dp3468
g107
(dp3469
g134
g135
ssg116
g3458
sg109
(lp3470
S':'
asbag102
(g123
g104
NtRp3471
(dp3472
g107
(dp3473
sg116
g3458
sg109
(lp3474
g102
(g103
g104
NtRp3475
(dp3476
g107
(dp3477
g115
I3
ssg116
g3471
sg109
(lp3478
S'manu'
p3479
asbasbasbag102
(g118
g104
NtRp3480
(dp3481
g107
(dp3482
sg116
g3410
sg109
(lp3483
g102
(g123
g104
NtRp3484
(dp3485
g107
(dp3486
g127
g128
ssg116
g3480
sg109
(lp3487
S'id'
p3488
asbag102
(g123
g104
NtRp3489
(dp3490
g107
(dp3491
g134
g135
ssg116
g3480
sg109
(lp3492
S':'
asbag102
(g123
g104
NtRp3493
(dp3494
g107
(dp3495
sg116
g3480
sg109
(lp3496
g102
(g103
g104
NtRp3497
(dp3498
g107
(dp3499
g115
I3
ssg116
g3493
sg109
(lp3500
S'11'
p3501
asbasbasbag102
(g118
g104
NtRp3502
(dp3503
g107
(dp3504
sg116
g3410
sg109
(lp3505
g102
(g123
g104
NtRp3506
(dp3507
g107
(dp3508
g127
g128
ssg116
g3502
sg109
(lp3509
S'last_name'
p3510
asbag102
(g123
g104
NtRp3511
(dp3512
g107
(dp3513
g134
g135
ssg116
g3502
sg109
(lp3514
S':'
asbag102
(g123
g104
NtRp3515
(dp3516
g107
(dp3517
sg116
g3502
sg109
(lp3518
g102
(g103
g104
NtRp3519
(dp3520
g107
(dp3521
g115
I3
ssg116
g3515
sg109
(lp3522
S'p'
asbasbasbag102
(g118
g104
NtRp3523
(dp3524
g107
(dp3525
sg116
g3410
sg109
(lp3526
g102
(g123
g104
NtRp3527
(dp3528
g107
(dp3529
g127
g128
ssg116
g3523
sg109
(lp3530
S'modified_on'
p3531
asbag102
(g123
g104
NtRp3532
(dp3533
g107
(dp3534
g134
g135
ssg116
g3523
sg109
(lp3535
S':'
asbag102
(g123
g104
NtRp3536
(dp3537
g107
(dp3538
sg116
g3523
sg109
(lp3539
g102
(g103
g104
NtRp3540
(dp3541
g107
(dp3542
g115
I3
ssg116
g3536
sg109
(lp3543
S'datetime.datetime(2012, 11, 15, 3, 3, 49)'
p3544
asbasbasbag102
(g118
g104
NtRp3545
(dp3546
g107
(dp3547
sg116
g3410
sg109
(lp3548
g102
(g123
g104
NtRp3549
(dp3550
g107
(dp3551
g127
g128
ssg116
g3545
sg109
(lp3552
S'password'
p3553
asbag102
(g123
g104
NtRp3554
(dp3555
g107
(dp3556
g134
g135
ssg116
g3545
sg109
(lp3557
S':'
asbag102
(g123
g104
NtRp3558
(dp3559
g107
(dp3560
sg116
g3545
sg109
(lp3561
g102
(g103
g104
NtRp3562
(dp3563
g107
(dp3564
g115
I3
ssg116
g3558
sg109
(lp3565
S'32371e3190f8e63e16755b2e6bf663a2'
p3566
asbasbasbag102
(g118
g104
NtRp3567
(dp3568
g107
(dp3569
sg116
g3410
sg109
(lp3570
g102
(g123
g104
NtRp3571
(dp3572
g107
(dp3573
g127
g128
ssg116
g3567
sg109
(lp3574
S'registration_id'
p3575
asbag102
(g123
g104
NtRp3576
(dp3577
g107
(dp3578
g134
g135
ssg116
g3567
sg109
(lp3579
S':'
asbag102
(g123
g104
NtRp3580
(dp3581
g107
(dp3582
sg116
g3567
sg109
(lp3583
g102
(g103
g104
NtRp3584
(dp3585
g107
(dp3586
g115
I3
ssg116
g3580
sg109
(lp3587
S''
asbasbasbag102
(g118
g104
NtRp3588
(dp3589
g107
(dp3590
sg116
g3410
sg109
(lp3591
g102
(g123
g104
NtRp3592
(dp3593
g107
(dp3594
g127
g128
ssg116
g3588
sg109
(lp3595
S'registration_key'
p3596
asbag102
(g123
g104
NtRp3597
(dp3598
g107
(dp3599
g134
g135
ssg116
g3588
sg109
(lp3600
S':'
asbag102
(g123
g104
NtRp3601
(dp3602
g107
(dp3603
sg116
g3588
sg109
(lp3604
g102
(g103
g104
NtRp3605
(dp3606
g107
(dp3607
g115
I3
ssg116
g3601
sg109
(lp3608
S''
asbasbasbag102
(g118
g104
NtRp3609
(dp3610
g107
(dp3611
sg116
g3410
sg109
(lp3612
g102
(g123
g104
NtRp3613
(dp3614
g107
(dp3615
g127
g128
ssg116
g3609
sg109
(lp3616
S'reset_password_key'
p3617
asbag102
(g123
g104
NtRp3618
(dp3619
g107
(dp3620
g134
g135
ssg116
g3609
sg109
(lp3621
S':'
asbag102
(g123
g104
NtRp3622
(dp3623
g107
(dp3624
sg116
g3609
sg109
(lp3625
g102
(g103
g104
NtRp3626
(dp3627
g107
(dp3628
g115
I3
ssg116
g3622
sg109
(lp3629
S''
asbasbasbag102
(g118
g104
NtRp3630
(dp3631
g107
(dp3632
sg116
g3410
sg109
(lp3633
g102
(g123
g104
NtRp3634
(dp3635
g107
(dp3636
g127
g128
ssg116
g3630
sg109
(lp3637
S'username'
p3638
asbag102
(g123
g104
NtRp3639
(dp3640
g107
(dp3641
g134
g135
ssg116
g3630
sg109
(lp3642
S':'
asbag102
(g123
g104
NtRp3643
(dp3644
g107
(dp3645
sg116
g3630
sg109
(lp3646
g102
(g103
g104
NtRp3647
(dp3648
g107
(dp3649
g115
I3
ssg116
g3643
sg109
(lp3650
S'manu1'
p3651
asbasbasbasbasbasbasbag102
(g118
g104
NtRp3652
(dp3653
g107
(dp3654
sg116
g3298
sg109
(lp3655
g102
(g123
g104
NtRp3656
(dp3657
g107
(dp3658
g127
g128
ssg116
g3652
sg109
(lp3659
S'user_groups'
p3660
asbag102
(g123
g104
NtRp3661
(dp3662
g107
(dp3663
g134
g135
ssg116
g3652
sg109
(lp3664
S':'
asbag102
(g123
g104
NtRp3665
(dp3666
g107
(dp3667
sg116
g3652
sg109
(lp3668
g102
(g103
g104
NtRp3669
(dp3670
g107
(dp3671
g115
I4
ssg116
g3665
sg109
(lp3672
g102
(g111
g104
NtRp3673
(dp3674
g107
(dp3675
g115
I3
ssg116
Nsg109
(lp3676
g102
(g118
g104
NtRp3677
(dp3678
g107
(dp3679
sg116
g3673
sg109
(lp3680
g102
(g123
g104
NtRp3681
(dp3682
g107
(dp3683
g127
g128
ssg116
g3677
sg109
(lp3684
S'1'
asbag102
(g123
g104
NtRp3685
(dp3686
g107
(dp3687
g134
g135
ssg116
g3677
sg109
(lp3688
S':'
asbag102
(g123
g104
NtRp3689
(dp3690
g107
(dp3691
sg116
g3677
sg109
(lp3692
g102
(g103
g104
NtRp3693
(dp3694
g107
(dp3695
g115
I3
ssg116
g3689
sg109
(lp3696
S'user_11'
p3697
asbasbasbasbasbasbasbasbasbasbasbasbasbsS'etype'
p3698
S"<class 'urllib2.HTTPError'>"
p3699
sS'date'
p3700
S'Thu Nov 15 21:57:50 2012'
p3701
sS'response'
p3702
g102
(g103
g104
NtRp3703
(dp3704
g107
(dp3705
sg109
(lp3706
g102
(g111
g104
NtRp3707
(dp3708
g107
(dp3709
g115
I5
ssg116
Nsg109
(lp3710
g102
(g118
g104
NtRp3711
(dp3712
g107
(dp3713
sg116
g3707
sg109
(lp3714
g102
(g123
g104
NtRp3715
(dp3716
g107
(dp3717
g127
g128
ssg116
g3711
sg109
(lp3718
g200
asbag102
(g123
g104
NtRp3719
(dp3720
g107
(dp3721
g134
g135
ssg116
g3711
sg109
(lp3722
S':'
asbag102
(g123
g104
NtRp3723
(dp3724
g107
(dp3725
sg116
g3711
sg109
(lp3726
g102
(g103
g104
NtRp3727
(dp3728
g107
(dp3729
g115
I5
ssg116
g3723
sg109
(lp3730
S'<cStringIO.StringO object at 0x7f00e4291180>'
p3731
asbasbasbag102
(g118
g104
NtRp3732
(dp3733
g107
(dp3734
sg116
g3707
sg109
(lp3735
g102
(g123
g104
NtRp3736
(dp3737
g107
(dp3738
g127
g128
ssg116
g3732
sg109
(lp3739
g266
asbag102
(g123
g104
NtRp3740
(dp3741
g107
(dp3742
g134
g135
ssg116
g3732
sg109
(lp3743
S':'
asbag102
(g123
g104
NtRp3744
(dp3745
g107
(dp3746
sg116
g3732
sg109
(lp3747
g102
(g103
g104
NtRp3748
(dp3749
g107
(dp3750
g115
I5
ssg116
g3744
sg109
(lp3751
g102
(g111
g104
NtRp3752
(dp3753
g107
(dp3754
g115
I4
ssg116
Nsg109
(lp3755
g102
(g118
g104
NtRp3756
(dp3757
g107
(dp3758
sg116
g3752
sg109
(lp3759
g102
(g123
g104
NtRp3760
(dp3761
g107
(dp3762
g127
g128
ssg116
g3756
sg109
(lp3763
S'session_id_cite_mf'
p3764
asbag102
(g123
g104
NtRp3765
(dp3766
g107
(dp3767
g134
g135
ssg116
g3756
sg109
(lp3768
S':'
asbag102
(g123
g104
NtRp3769
(dp3770
g107
(dp3771
sg116
g3756
sg109
(lp3772
g102
(g103
g104
NtRp3773
(dp3774
g107
(dp3775
g115
I4
ssg116
g3769
sg109
(lp3776
g102
(g111
g104
NtRp3777
(dp3778
g107
(dp3779
g115
I3
ssg116
Nsg109
(lp3780
g102
(g118
g104
NtRp3781
(dp3782
g107
(dp3783
sg116
g3777
sg109
(lp3784
g102
(g123
g104
NtRp3785
(dp3786
g107
(dp3787
g127
g128
ssg116
g3781
sg109
(lp3788
g316
asbag102
(g123
g104
NtRp3789
(dp3790
g107
(dp3791
g134
g135
ssg116
g3781
sg109
(lp3792
S':'
asbag102
(g123
g104
NtRp3793
(dp3794
g107
(dp3795
sg116
g3781
sg109
(lp3796
g102
(g103
g104
NtRp3797
(dp3798
g107
(dp3799
g115
I3
ssg116
g3793
sg109
(lp3800
S''
asbasbasbag102
(g118
g104
NtRp3801
(dp3802
g107
(dp3803
sg116
g3777
sg109
(lp3804
g102
(g123
g104
NtRp3805
(dp3806
g107
(dp3807
g127
g128
ssg116
g3801
sg109
(lp3808
g337
asbag102
(g123
g104
NtRp3809
(dp3810
g107
(dp3811
g134
g135
ssg116
g3801
sg109
(lp3812
S':'
asbag102
(g123
g104
NtRp3813
(dp3814
g107
(dp3815
sg116
g3801
sg109
(lp3816
g102
(g103
g104
NtRp3817
(dp3818
g107
(dp3819
g115
I3
ssg116
g3813
sg109
(lp3820
S''
asbasbasbag102
(g118
g104
NtRp3821
(dp3822
g107
(dp3823
sg116
g3777
sg109
(lp3824
g102
(g123
g104
NtRp3825
(dp3826
g107
(dp3827
g127
g128
ssg116
g3821
sg109
(lp3828
g358
asbag102
(g123
g104
NtRp3829
(dp3830
g107
(dp3831
g134
g135
ssg116
g3821
sg109
(lp3832
S':'
asbag102
(g123
g104
NtRp3833
(dp3834
g107
(dp3835
sg116
g3821
sg109
(lp3836
g102
(g103
g104
NtRp3837
(dp3838
g107
(dp3839
g115
I3
ssg116
g3833
sg109
(lp3840
S''
asbasbasbag102
(g118
g104
NtRp3841
(dp3842
g107
(dp3843
sg116
g3777
sg109
(lp3844
g102
(g123
g104
NtRp3845
(dp3846
g107
(dp3847
g127
g128
ssg116
g3841
sg109
(lp3848
g379
asbag102
(g123
g104
NtRp3849
(dp3850
g107
(dp3851
g134
g135
ssg116
g3841
sg109
(lp3852
S':'
asbag102
(g123
g104
NtRp3853
(dp3854
g107
(dp3855
sg116
g3841
sg109
(lp3856
g102
(g103
g104
NtRp3857
(dp3858
g107
(dp3859
g115
I3
ssg116
g3853
sg109
(lp3860
S''
asbasbasbag102
(g118
g104
NtRp3861
(dp3862
g107
(dp3863
sg116
g3777
sg109
(lp3864
g102
(g123
g104
NtRp3865
(dp3866
g107
(dp3867
g127
g128
ssg116
g3861
sg109
(lp3868
g400
asbag102
(g123
g104
NtRp3869
(dp3870
g107
(dp3871
g134
g135
ssg116
g3861
sg109
(lp3872
S':'
asbag102
(g123
g104
NtRp3873
(dp3874
g107
(dp3875
sg116
g3861
sg109
(lp3876
g102
(g103
g104
NtRp3877
(dp3878
g107
(dp3879
g115
I3
ssg116
g3873
sg109
(lp3880
S''
asbasbasbag102
(g118
g104
NtRp3881
(dp3882
g107
(dp3883
sg116
g3777
sg109
(lp3884
g102
(g123
g104
NtRp3885
(dp3886
g107
(dp3887
g127
g128
ssg116
g3881
sg109
(lp3888
g421
asbag102
(g123
g104
NtRp3889
(dp3890
g107
(dp3891
g134
g135
ssg116
g3881
sg109
(lp3892
S':'
asbag102
(g123
g104
NtRp3893
(dp3894
g107
(dp3895
sg116
g3881
sg109
(lp3896
g102
(g103
g104
NtRp3897
(dp3898
g107
(dp3899
g115
I3
ssg116
g3893
sg109
(lp3900
S'/'
asbasbasbag102
(g118
g104
NtRp3901
(dp3902
g107
(dp3903
sg116
g3777
sg109
(lp3904
g102
(g123
g104
NtRp3905
(dp3906
g107
(dp3907
g127
g128
ssg116
g3901
sg109
(lp3908
g442
asbag102
(g123
g104
NtRp3909
(dp3910
g107
(dp3911
g134
g135
ssg116
g3901
sg109
(lp3912
S':'
asbag102
(g123
g104
NtRp3913
(dp3914
g107
(dp3915
sg116
g3901
sg109
(lp3916
g102
(g103
g104
NtRp3917
(dp3918
g107
(dp3919
g115
I3
ssg116
g3913
sg109
(lp3920
S''
asbasbasbag102
(g118
g104
NtRp3921
(dp3922
g107
(dp3923
sg116
g3777
sg109
(lp3924
g102
(g123
g104
NtRp3925
(dp3926
g107
(dp3927
g127
g128
ssg116
g3921
sg109
(lp3928
g463
asbag102
(g123
g104
NtRp3929
(dp3930
g107
(dp3931
g134
g135
ssg116
g3921
sg109
(lp3932
S':'
asbag102
(g123
g104
NtRp3933
(dp3934
g107
(dp3935
sg116
g3921
sg109
(lp3936
g102
(g103
g104
NtRp3937
(dp3938
g107
(dp3939
g115
I3
ssg116
g3933
sg109
(lp3940
S''
asbasbasbasbasbasbasbasbasbasbasbag102
(g118
g104
NtRp3941
(dp3942
g107
(dp3943
sg116
g3707
sg109
(lp3944
g102
(g123
g104
NtRp3945
(dp3946
g107
(dp3947
g127
g128
ssg116
g3941
sg109
(lp3948
S'delimiters'
p3949
asbag102
(g123
g104
NtRp3950
(dp3951
g107
(dp3952
g134
g135
ssg116
g3941
sg109
(lp3953
S':'
asbag102
(g123
g104
NtRp3954
(dp3955
g107
(dp3956
sg116
g3941
sg109
(lp3957
g102
(g103
g104
NtRp3958
(dp3959
g107
(dp3960
g115
I5
ssg116
g3954
sg109
(lp3961
g102
(g111
g104
NtRp3962
(dp3963
g107
(dp3964
g115
I4
ssg116
Nsg109
(lp3965
g102
(g118
g104
NtRp3966
(dp3967
g107
(dp3968
sg116
g3962
sg109
(lp3969
g102
(g123
g104
NtRp3970
(dp3971
g107
(dp3972
sg116
g3966
sg109
(lp3973
g102
(g103
g104
NtRp3974
(dp3975
g107
(dp3976
g115
I4
ssg116
g3970
sg109
(lp3977
S'{{'
p3978
asbasbasbag102
(g118
g104
NtRp3979
(dp3980
g107
(dp3981
sg116
g3962
sg109
(lp3982
g102
(g123
g104
NtRp3983
(dp3984
g107
(dp3985
sg116
g3979
sg109
(lp3986
g102
(g103
g104
NtRp3987
(dp3988
g107
(dp3989
g115
I4
ssg116
g3983
sg109
(lp3990
S'}}'
p3991
asbasbasbasbasbasbasbag102
(g118
g104
NtRp3992
(dp3993
g107
(dp3994
sg116
g3707
sg109
(lp3995
g102
(g123
g104
NtRp3996
(dp3997
g107
(dp3998
g127
g128
ssg116
g3992
sg109
(lp3999
S'files'
p4000
asbag102
(g123
g104
NtRp4001
(dp4002
g107
(dp4003
g134
g135
ssg116
g3992
sg109
(lp4004
S':'
asbag102
(g123
g104
NtRp4005
(dp4006
g107
(dp4007
sg116
g3992
sg109
(lp4008
g102
(g103
g104
NtRp4009
(dp4010
g107
(dp4011
g115
I5
ssg116
g4005
sg109
(lp4012
g102
(g111
g104
NtRp4013
(dp4014
g107
(dp4015
g115
I4
ssg116
Nsg109
(lp4016
sbasbasbasbag102
(g118
g104
NtRp4017
(dp4018
g107
(dp4019
sg116
g3707
sg109
(lp4020
g102
(g123
g104
NtRp4021
(dp4022
g107
(dp4023
g127
g128
ssg116
g4017
sg109
(lp4024
S'flash'
p4025
asbag102
(g123
g104
NtRp4026
(dp4027
g107
(dp4028
g134
g135
ssg116
g4017
sg109
(lp4029
S':'
asbag102
(g123
g104
NtRp4030
(dp4031
g107
(dp4032
sg116
g4017
sg109
(lp4033
g102
(g103
g104
NtRp4034
(dp4035
g107
(dp4036
g115
I5
ssg116
g4030
sg109
(lp4037
S''
asbasbasbag102
(g118
g104
NtRp4038
(dp4039
g107
(dp4040
sg116
g3707
sg109
(lp4041
g102
(g123
g104
NtRp4042
(dp4043
g107
(dp4044
g127
g128
ssg116
g4038
sg109
(lp4045
S'generic_patterns'
p4046
asbag102
(g123
g104
NtRp4047
(dp4048
g107
(dp4049
g134
g135
ssg116
g4038
sg109
(lp4050
S':'
asbag102
(g123
g104
NtRp4051
(dp4052
g107
(dp4053
sg116
g4038
sg109
(lp4054
g102
(g103
g104
NtRp4055
(dp4056
g107
(dp4057
g115
I5
ssg116
g4051
sg109
(lp4058
g102
(g111
g104
NtRp4059
(dp4060
g107
(dp4061
g115
I4
ssg116
Nsg109
(lp4062
g102
(g118
g104
NtRp4063
(dp4064
g107
(dp4065
sg116
g4059
sg109
(lp4066
g102
(g123
g104
NtRp4067
(dp4068
g107
(dp4069
sg116
g4063
sg109
(lp4070
g102
(g103
g104
NtRp4071
(dp4072
g107
(dp4073
g115
I4
ssg116
g4067
sg109
(lp4074
S'*'
asbasbasbasbasbasbasbag102
(g118
g104
NtRp4075
(dp4076
g107
(dp4077
sg116
g3707
sg109
(lp4078
g102
(g123
g104
NtRp4079
(dp4080
g107
(dp4081
g127
g128
ssg116
g4075
sg109
(lp4082
g41
asbag102
(g123
g104
NtRp4083
(dp4084
g107
(dp4085
g134
g135
ssg116
g4075
sg109
(lp4086
S':'
asbag102
(g123
g104
NtRp4087
(dp4088
g107
(dp4089
sg116
g4075
sg109
(lp4090
g102
(g103
g104
NtRp4091
(dp4092
g107
(dp4093
g115
I5
ssg116
g4087
sg109
(lp4094
g102
(g111
g104
NtRp4095
(dp4096
g107
(dp4097
g115
I4
ssg116
Nsg109
(lp4098
g102
(g118
g104
NtRp4099
(dp4100
g107
(dp4101
sg116
g4095
sg109
(lp4102
g102
(g123
g104
NtRp4103
(dp4104
g107
(dp4105
g127
g128
ssg116
g4099
sg109
(lp4106
S'Cache-Control'
p4107
asbag102
(g123
g104
NtRp4108
(dp4109
g107
(dp4110
g134
g135
ssg116
g4099
sg109
(lp4111
S':'
asbag102
(g123
g104
NtRp4112
(dp4113
g107
(dp4114
sg116
g4099
sg109
(lp4115
g102
(g103
g104
NtRp4116
(dp4117
g107
(dp4118
g115
I4
ssg116
g4112
sg109
(lp4119
S'no-store, no-cache, must-revalidate, post-check=0, pre-check=0'
p4120
asbasbasbag102
(g118
g104
NtRp4121
(dp4122
g107
(dp4123
sg116
g4095
sg109
(lp4124
g102
(g123
g104
NtRp4125
(dp4126
g107
(dp4127
g127
g128
ssg116
g4121
sg109
(lp4128
S'Content-Type'
p4129
asbag102
(g123
g104
NtRp4130
(dp4131
g107
(dp4132
g134
g135
ssg116
g4121
sg109
(lp4133
S':'
asbag102
(g123
g104
NtRp4134
(dp4135
g107
(dp4136
sg116
g4121
sg109
(lp4137
g102
(g103
g104
NtRp4138
(dp4139
g107
(dp4140
g115
I4
ssg116
g4134
sg109
(lp4141
S'text/html; charset=utf-8'
p4142
asbasbasbag102
(g118
g104
NtRp4143
(dp4144
g107
(dp4145
sg116
g4095
sg109
(lp4146
g102
(g123
g104
NtRp4147
(dp4148
g107
(dp4149
g127
g128
ssg116
g4143
sg109
(lp4150
S'Expires'
p4151
asbag102
(g123
g104
NtRp4152
(dp4153
g107
(dp4154
g134
g135
ssg116
g4143
sg109
(lp4155
S':'
asbag102
(g123
g104
NtRp4156
(dp4157
g107
(dp4158
sg116
g4143
sg109
(lp4159
g102
(g103
g104
NtRp4160
(dp4161
g107
(dp4162
g115
I4
ssg116
g4156
sg109
(lp4163
S'Thu, 15 Nov 2012 16:24:38 GMT'
p4164
asbasbasbag102
(g118
g104
NtRp4165
(dp4166
g107
(dp4167
sg116
g4095
sg109
(lp4168
g102
(g123
g104
NtRp4169
(dp4170
g107
(dp4171
g127
g128
ssg116
g4165
sg109
(lp4172
S'Pragma'
p4173
asbag102
(g123
g104
NtRp4174
(dp4175
g107
(dp4176
g134
g135
ssg116
g4165
sg109
(lp4177
S':'
asbag102
(g123
g104
NtRp4178
(dp4179
g107
(dp4180
sg116
g4165
sg109
(lp4181
g102
(g103
g104
NtRp4182
(dp4183
g107
(dp4184
g115
I4
ssg116
g4178
sg109
(lp4185
S'no-cache'
p4186
asbasbasbag102
(g118
g104
NtRp4187
(dp4188
g107
(dp4189
sg116
g4095
sg109
(lp4190
g102
(g123
g104
NtRp4191
(dp4192
g107
(dp4193
g127
g128
ssg116
g4187
sg109
(lp4194
S'X-Powered-By'
p4195
asbag102
(g123
g104
NtRp4196
(dp4197
g107
(dp4198
g134
g135
ssg116
g4187
sg109
(lp4199
S':'
asbag102
(g123
g104
NtRp4200
(dp4201
g107
(dp4202
sg116
g4187
sg109
(lp4203
g102
(g103
g104
NtRp4204
(dp4205
g107
(dp4206
g115
I4
ssg116
g4200
sg109
(lp4207
S'web2py'
p4208
asbasbasbasbasbasbasbag102
(g118
g104
NtRp4209
(dp4210
g107
(dp4211
sg116
g3707
sg109
(lp4212
g102
(g123
g104
NtRp4213
(dp4214
g107
(dp4215
g127
g128
ssg116
g4209
sg109
(lp4216
S'menu'
p4217
asbag102
(g123
g104
NtRp4218
(dp4219
g107
(dp4220
g134
g135
ssg116
g4209
sg109
(lp4221
S':'
asbag102
(g123
g104
NtRp4222
(dp4223
g107
(dp4224
sg116
g4209
sg109
(lp4225
g102
(g103
g104
NtRp4226
(dp4227
g107
(dp4228
g115
I5
ssg116
g4222
sg109
(lp4229
g102
(g111
g104
NtRp4230
(dp4231
g107
(dp4232
g115
I4
ssg116
Nsg109
(lp4233
g102
(g118
g104
NtRp4234
(dp4235
g107
(dp4236
sg116
g4230
sg109
(lp4237
g102
(g123
g104
NtRp4238
(dp4239
g107
(dp4240
sg116
g4234
sg109
(lp4241
g102
(g103
g104
NtRp4242
(dp4243
g107
(dp4244
g115
I4
ssg116
g4238
sg109
(lp4245
g102
(g111
g104
NtRp4246
(dp4247
g107
(dp4248
g115
I3
ssg116
Nsg109
(lp4249
g102
(g118
g104
NtRp4250
(dp4251
g107
(dp4252
sg116
g4246
sg109
(lp4253
g102
(g123
g104
NtRp4254
(dp4255
g107
(dp4256
sg116
g4250
sg109
(lp4257
g102
(g103
g104
NtRp4258
(dp4259
g107
(dp4260
g115
I3
ssg116
g4254
sg109
(lp4261
cgluon.languages
lazyT_unpickle
p4262
(S't\x05\x00\x00\x00Index'
tRp4263
asbasbasbag102
(g118
g104
NtRp4264
(dp4265
g107
(dp4266
sg116
g4246
sg109
(lp4267
g102
(g123
g104
NtRp4268
(dp4269
g107
(dp4270
sg116
g4264
sg109
(lp4271
g102
(g103
g104
NtRp4272
(dp4273
g107
(dp4274
g115
I3
ssg116
g4268
sg109
(lp4275
g145
asbasbasbag102
(g118
g104
NtRp4276
(dp4277
g107
(dp4278
sg116
g4246
sg109
(lp4279
g102
(g123
g104
NtRp4280
(dp4281
g107
(dp4282
sg116
g4276
sg109
(lp4283
g102
(g103
g104
NtRp4284
(dp4285
g107
(dp4286
g115
I3
ssg116
g4280
sg109
(lp4287
S'/cite_mf/default/index'
p4288
asbasbasbag102
(g118
g104
NtRp4289
(dp4290
g107
(dp4291
sg116
g4246
sg109
(lp4292
g102
(g123
g104
NtRp4293
(dp4294
g107
(dp4295
sg116
g4289
sg109
(lp4296
g102
(g103
g104
NtRp4297
(dp4298
g107
(dp4299
g115
I3
ssg116
g4293
sg109
(lp4300
g102
(g111
g104
NtRp4301
(dp4302
g107
(dp4303
g115
I2
ssg116
Nsg109
(lp4304
sbasbasbasbasbasbasbasbasbasbasbasbag102
(g118
g104
NtRp4305
(dp4306
g107
(dp4307
sg116
g3707
sg109
(lp4308
g102
(g123
g104
NtRp4309
(dp4310
g107
(dp4311
g127
g128
ssg116
g4305
sg109
(lp4312
S'meta'
p4313
asbag102
(g123
g104
NtRp4314
(dp4315
g107
(dp4316
g134
g135
ssg116
g4305
sg109
(lp4317
S':'
asbag102
(g123
g104
NtRp4318
(dp4319
g107
(dp4320
sg116
g4305
sg109
(lp4321
g102
(g103
g104
NtRp4322
(dp4323
g107
(dp4324
g115
I5
ssg116
g4318
sg109
(lp4325
g102
(g111
g104
NtRp4326
(dp4327
g107
(dp4328
g115
I4
ssg116
Nsg109
(lp4329
g102
(g118
g104
NtRp4330
(dp4331
g107
(dp4332
sg116
g4326
sg109
(lp4333
g102
(g123
g104
NtRp4334
(dp4335
g107
(dp4336
g127
g128
ssg116
g4330
sg109
(lp4337
S'author'
p4338
asbag102
(g123
g104
NtRp4339
(dp4340
g107
(dp4341
g134
g135
ssg116
g4330
sg109
(lp4342
S':'
asbag102
(g123
g104
NtRp4343
(dp4344
g107
(dp4345
sg116
g4330
sg109
(lp4346
g102
(g103
g104
NtRp4347
(dp4348
g107
(dp4349
g115
I4
ssg116
g4343
sg109
(lp4350
S'you <you@example.com>'
p4351
asbasbasbag102
(g118
g104
NtRp4352
(dp4353
g107
(dp4354
sg116
g4326
sg109
(lp4355
g102
(g123
g104
NtRp4356
(dp4357
g107
(dp4358
g127
g128
ssg116
g4352
sg109
(lp4359
S'description'
p4360
asbag102
(g123
g104
NtRp4361
(dp4362
g107
(dp4363
g134
g135
ssg116
g4352
sg109
(lp4364
S':'
asbag102
(g123
g104
NtRp4365
(dp4366
g107
(dp4367
sg116
g4352
sg109
(lp4368
g102
(g103
g104
NtRp4369
(dp4370
g107
(dp4371
g115
I4
ssg116
g4365
sg109
(lp4372
S''
asbasbasbag102
(g118
g104
NtRp4373
(dp4374
g107
(dp4375
sg116
g4326
sg109
(lp4376
g102
(g123
g104
NtRp4377
(dp4378
g107
(dp4379
g127
g128
ssg116
g4373
sg109
(lp4380
S'keywords'
p4381
asbag102
(g123
g104
NtRp4382
(dp4383
g107
(dp4384
g134
g135
ssg116
g4373
sg109
(lp4385
S':'
asbag102
(g123
g104
NtRp4386
(dp4387
g107
(dp4388
sg116
g4373
sg109
(lp4389
g102
(g103
g104
NtRp4390
(dp4391
g107
(dp4392
g115
I4
ssg116
g4386
sg109
(lp4393
S''
asbasbasbasbasbasbasbag102
(g118
g104
NtRp4394
(dp4395
g107
(dp4396
sg116
g3707
sg109
(lp4397
g102
(g123
g104
NtRp4398
(dp4399
g107
(dp4400
g127
g128
ssg116
g4394
sg109
(lp4401
S'postprocessing'
p4402
asbag102
(g123
g104
NtRp4403
(dp4404
g107
(dp4405
g134
g135
ssg116
g4394
sg109
(lp4406
S':'
asbag102
(g123
g104
NtRp4407
(dp4408
g107
(dp4409
sg116
g4394
sg109
(lp4410
g102
(g103
g104
NtRp4411
(dp4412
g107
(dp4413
g115
I5
ssg116
g4407
sg109
(lp4414
g102
(g111
g104
NtRp4415
(dp4416
g107
(dp4417
g115
I4
ssg116
Nsg109
(lp4418
sbasbasbasbag102
(g118
g104
NtRp4419
(dp4420
g107
(dp4421
sg116
g3707
sg109
(lp4422
g102
(g123
g104
NtRp4423
(dp4424
g107
(dp4425
g127
g128
ssg116
g4419
sg109
(lp4426
S'session_file'
p4427
asbag102
(g123
g104
NtRp4428
(dp4429
g107
(dp4430
g134
g135
ssg116
g4419
sg109
(lp4431
S':'
asbag102
(g123
g104
NtRp4432
(dp4433
g107
(dp4434
sg116
g4419
sg109
(lp4435
g102
(g103
g104
NtRp4436
(dp4437
g107
(dp4438
g115
I5
ssg116
g4432
sg109
(lp4439
S"<open file '/home/maneesha/Downloads/web2py/applications/cite_mf/sessions/127.0.0.1-233aef62-6b7e-4699-94f2-aa129155e304', mode 'rb+' at 0x7f00e4208d20>"
p4440
asbasbasbag102
(g118
g104
NtRp4441
(dp4442
g107
(dp4443
sg116
g3707
sg109
(lp4444
g102
(g123
g104
NtRp4445
(dp4446
g107
(dp4447
g127
g128
ssg116
g4441
sg109
(lp4448
S'session_filename'
p4449
asbag102
(g123
g104
NtRp4450
(dp4451
g107
(dp4452
g134
g135
ssg116
g4441
sg109
(lp4453
S':'
asbag102
(g123
g104
NtRp4454
(dp4455
g107
(dp4456
sg116
g4441
sg109
(lp4457
g102
(g103
g104
NtRp4458
(dp4459
g107
(dp4460
g115
I5
ssg116
g4454
sg109
(lp4461
S'/home/maneesha/Downloads/web2py/applications/cite_mf/sessions/127.0.0.1-233aef62-6b7e-4699-94f2-aa129155e304'
p4462
asbasbasbag102
(g118
g104
NtRp4463
(dp4464
g107
(dp4465
sg116
g3707
sg109
(lp4466
g102
(g123
g104
NtRp4467
(dp4468
g107
(dp4469
g127
g128
ssg116
g4463
sg109
(lp4470
S'session_id'
p4471
asbag102
(g123
g104
NtRp4472
(dp4473
g107
(dp4474
g134
g135
ssg116
g4463
sg109
(lp4475
S':'
asbag102
(g123
g104
NtRp4476
(dp4477
g107
(dp4478
sg116
g4463
sg109
(lp4479
g102
(g103
g104
NtRp4480
(dp4481
g107
(dp4482
g115
I5
ssg116
g4476
sg109
(lp4483
S'127.0.0.1-233aef62-6b7e-4699-94f2-aa129155e304'
p4484
asbasbasbag102
(g118
g104
NtRp4485
(dp4486
g107
(dp4487
sg116
g3707
sg109
(lp4488
g102
(g123
g104
NtRp4489
(dp4490
g107
(dp4491
g127
g128
ssg116
g4485
sg109
(lp4492
S'session_id_name'
p4493
asbag102
(g123
g104
NtRp4494
(dp4495
g107
(dp4496
g134
g135
ssg116
g4485
sg109
(lp4497
S':'
asbag102
(g123
g104
NtRp4498
(dp4499
g107
(dp4500
sg116
g4485
sg109
(lp4501
g102
(g103
g104
NtRp4502
(dp4503
g107
(dp4504
g115
I5
ssg116
g4498
sg109
(lp4505
g3764
asbasbasbag102
(g118
g104
NtRp4506
(dp4507
g107
(dp4508
sg116
g3707
sg109
(lp4509
g102
(g123
g104
NtRp4510
(dp4511
g107
(dp4512
g127
g128
ssg116
g4506
sg109
(lp4513
S'session_locked'
p4514
asbag102
(g123
g104
NtRp4515
(dp4516
g107
(dp4517
g134
g135
ssg116
g4506
sg109
(lp4518
S':'
asbag102
(g123
g104
NtRp4519
(dp4520
g107
(dp4521
sg116
g4506
sg109
(lp4522
g102
(g103
g104
NtRp4523
(dp4524
g107
(dp4525
g115
I5
ssg116
g4519
sg109
(lp4526
g1701
asbasbasbag102
(g118
g104
NtRp4527
(dp4528
g107
(dp4529
sg116
g3707
sg109
(lp4530
g102
(g123
g104
NtRp4531
(dp4532
g107
(dp4533
g127
g128
ssg116
g4527
sg109
(lp4534
S'session_new'
p4535
asbag102
(g123
g104
NtRp4536
(dp4537
g107
(dp4538
g134
g135
ssg116
g4527
sg109
(lp4539
S':'
asbag102
(g123
g104
NtRp4540
(dp4541
g107
(dp4542
sg116
g4527
sg109
(lp4543
g102
(g103
g104
NtRp4544
(dp4545
g107
(dp4546
g115
I5
ssg116
g4540
sg109
(lp4547
g145
asbasbasbag102
(g118
g104
NtRp4548
(dp4549
g107
(dp4550
sg116
g3707
sg109
(lp4551
g102
(g123
g104
NtRp4552
(dp4553
g107
(dp4554
g127
g128
ssg116
g4548
sg109
(lp4555
S'status'
p4556
asbag102
(g123
g104
NtRp4557
(dp4558
g107
(dp4559
g134
g135
ssg116
g4548
sg109
(lp4560
S':'
asbag102
(g123
g104
NtRp4561
(dp4562
g107
(dp4563
sg116
g4548
sg109
(lp4564
g102
(g103
g104
NtRp4565
(dp4566
g107
(dp4567
g115
I5
ssg116
g4561
sg109
(lp4568
S'200'
p4569
asbasbasbag102
(g118
g104
NtRp4570
(dp4571
g107
(dp4572
sg116
g3707
sg109
(lp4573
g102
(g123
g104
NtRp4574
(dp4575
g107
(dp4576
g127
g128
ssg116
g4570
sg109
(lp4577
S'subtitle'
p4578
asbag102
(g123
g104
NtRp4579
(dp4580
g107
(dp4581
g134
g135
ssg116
g4570
sg109
(lp4582
S':'
asbag102
(g123
g104
NtRp4583
(dp4584
g107
(dp4585
sg116
g4570
sg109
(lp4586
g102
(g103
g104
NtRp4587
(dp4588
g107
(dp4589
g115
I5
ssg116
g4583
sg109
(lp4590
S'powered by web2py'
p4591
asbasbasbag102
(g118
g104
NtRp4592
(dp4593
g107
(dp4594
sg116
g3707
sg109
(lp4595
g102
(g123
g104
NtRp4596
(dp4597
g107
(dp4598
g127
g128
ssg116
g4592
sg109
(lp4599
S'title'
p4600
asbag102
(g123
g104
NtRp4601
(dp4602
g107
(dp4603
g134
g135
ssg116
g4592
sg109
(lp4604
S':'
asbag102
(g123
g104
NtRp4605
(dp4606
g107
(dp4607
sg116
g4592
sg109
(lp4608
g102
(g103
g104
NtRp4609
(dp4610
g107
(dp4611
g115
I5
ssg116
g4605
sg109
(lp4612
S'My New App'
p4613
asbasbasbag102
(g118
g104
NtRp4614
(dp4615
g107
(dp4616
sg116
g3707
sg109
(lp4617
g102
(g123
g104
NtRp4618
(dp4619
g107
(dp4620
g127
g128
ssg116
g4614
sg109
(lp4621
g2364
asbag102
(g123
g104
NtRp4622
(dp4623
g107
(dp4624
g134
g135
ssg116
g4614
sg109
(lp4625
S':'
asbag102
(g123
g104
NtRp4626
(dp4627
g107
(dp4628
sg116
g4614
sg109
(lp4629
g102
(g103
g104
NtRp4630
(dp4631
g107
(dp4632
g115
I5
ssg116
g4626
sg109
(lp4633
g2377
asbasbasbag102
(g118
g104
NtRp4634
(dp4635
g107
(dp4636
sg116
g3707
sg109
(lp4637
g102
(g123
g104
NtRp4638
(dp4639
g107
(dp4640
g127
g128
ssg116
g4634
sg109
(lp4641
S'view'
p4642
asbag102
(g123
g104
NtRp4643
(dp4644
g107
(dp4645
g134
g135
ssg116
g4634
sg109
(lp4646
S':'
asbag102
(g123
g104
NtRp4647
(dp4648
g107
(dp4649
sg116
g4634
sg109
(lp4650
g102
(g103
g104
NtRp4651
(dp4652
g107
(dp4653
g115
I5
ssg116
g4647
sg109
(lp4654
S'default/final_ans.html'
p4655
asbasbasbasbasbsS'locals'
p4656
(dp4657
g59
S'<addinfourl at 139641804684824 whose fp = <socket._fileobject object>>'
p4658
sg6
S'504'
p4659
sg61
S'<httplib.HTTPMessage instance>'
p4660
sS'self'
p4661
S'<urllib2.HTTPDefaultErrorHandler instance>'
p4662
sS'req'
p4663
S'<urllib2.Request instance>'
p4664
sg55
S"'Gateway Time-out'"
p4665
sssS'traceback'
p4666
S'Traceback (most recent call last):\n  File "/home/maneesha/Downloads/web2py/gluon/restricted.py", line 205, in restricted\n    exec ccode in environment\n  File "/home/maneesha/Downloads/web2py/applications/cite_mf/controllers/default.py", line 205, in <module>\n  File "/home/maneesha/Downloads/web2py/gluon/globals.py", line 173, in <lambda>\n    self._caller = lambda f: f()\n  File "/home/maneesha/Downloads/web2py/applications/cite_mf/controllers/default.py", line 64, in final_ans\n    fst_l=extract1(url,l1)     #extracts the urls of query results and stores it in a list fst_l\n  File "/home/maneesha/Downloads/web2py/applications/cite_mf/controllers/default.py", line 28, in extract1\n    html=fetch(url) #fetches the html page of the given url ans stores it in a string html\n  File "/home/maneesha/Downloads/web2py/gluon/tools.py", line 3424, in fetch\n    html = urllib2.urlopen(req).read()\n  File "/usr/lib/python2.7/urllib2.py", line 126, in urlopen\n    return _opener.open(url, data, timeout)\n  File "/usr/lib/python2.7/urllib2.py", line 406, in open\n    response = meth(req, response)\n  File "/usr/lib/python2.7/urllib2.py", line 519, in http_response\n    \'http\', request, response, code, msg, hdrs)\n  File "/usr/lib/python2.7/urllib2.py", line 444, in error\n    return self._call_chain(*args)\n  File "/usr/lib/python2.7/urllib2.py", line 378, in _call_chain\n    result = func(*args)\n  File "/usr/lib/python2.7/urllib2.py", line 527, in http_error_default\n    raise HTTPError(req.get_full_url(), code, msg, hdrs, fp)\nHTTPError: HTTP Error 504: Gateway Time-out\n'
p4667
s.