(dp1
S'output'
p2
S"<type 'exceptions.SyntaxError'> invalid syntax (final_ans.html, line 104)"
p3
sS'layer'
p4
S'/home/maneesha/Downloads/web2py/applications/cite_m2/views/default/final_ans.html'
p5
sS'code'
p6
S'response.write(\'<html xmlns="http://www.w3.org/1999/xhtml">\\n <head>\\n  <title>\\n   CITE MASTER\\n  </title>\\n  \', escape=False)\nresponse.files.append(URL(request.application,\'static\',\'plugin_layouts/layouts/Blend/default.css\'))\nresponse.write(\'\\n  \', escape=False)\nresponse.files.append(URL(\'static\',\'plugin_layouts/superfish.js\'))\nresponse.write(\'\\n  \', escape=False)\nresponse.write(\'<script type="text/javascript"><!--\\n    // These variables are used by the web2py_ajax_init function in web2py_ajax.js (which is loaded below).\\n    var w2p_ajax_confirm_message = "\', escape=False)\nresponse.write(T(\'Are you sure you want to delete this object?\'))\nresponse.write(\'";\\n    var w2p_ajax_date_format = "\', escape=False)\nresponse.write(T(\'%Y-%m-%d\'))\nresponse.write(\'";\\n    var w2p_ajax_datetime_format = "\', escape=False)\nresponse.write(T(\'%Y-%m-%d %H:%M:%S\'))\nresponse.write(\'";\\n    //--></script>\\n\', escape=False)\nresponse.files.insert(0,URL(\'static\',\'js/jquery.js\'))\nresponse.files.insert(1,URL(\'static\',\'css/calendar.css\'))\nresponse.files.insert(2,URL(\'static\',\'js/calendar.js\'))\nresponse.files.insert(3,URL(\'static\',\'js/web2py.js\'))\nresponse.include_meta()\nresponse.include_files()\nresponse.write(\'\\n\', escape=False)\nresponse.write(\'\\n  <style>\\nul.web2py-menu-vertical { width: 100px; position: relative; top:1em; left:1em;  z-index:30; border:0; margin:0; padding: 0; list-style: none; text-decoration: none;}\\nul.web2py-menu-vertical li { margin:0; padding:0; border:0; width: 150px; background: black; text-align:left;}\\nul.web2py-menu-vertical li a { margin:0; padding: 1px 3px 1px 3px; border:0; width: 194px; color: white; font-size:12px;}\\ndiv.flash { position: fixed; float: right; padding: 10px; top: 10px; right: 10px; opacity: 0.75; margin: 10px 10px 10px 10px; text-align: center; clear: both; color: #fff; font-size: 11pt; text-align: center; vertical-align: middle; cursor: pointer; background: black; border: 2px solid #fff; -moz-border-radius: 5px; -webkit-border-radius: 5px; z-index: 2; }\\ndiv.error { background-color: red; color: white; padding: 3px; }\\n.auth_navbar { text-align:right; z-index:20; position: absolute; top: 2px; right:30px; border:0; padding:0 }\\n  </style>\\n </head>\\n <body>\\n  <!-- start header -->\\n  \', escape=False)\ntry:\n    response.write(auth.navbar(action=URL(\'default\',\'user\')))\nexcept:pass\nresponse.write(\'\\n\\n  <!-- start header -->\\n  <div id="header">\\n   <div id="logo">\\n    <h1>\\n    <span style="text-transform: uppercase">CITE MASTER</span>\\n    </h1>\\n    \\n   </div>\\n   <div id="menu">\\n    \', escape=False)\nresponse.write(MENU(response.menu,_class=\'web2py-menu\'))\nresponse.write(\'\\n    <script>\\n      jQuery(document).ready(function(){jQuery(\\\'ul.web2py-menu\\\').superfish({delay:400});});\\n    </script>\\n   </div>\\n  </div>\\n  <!-- end header -->\\n  <div id="wrapper">\\n   <!-- start page -->\\n   <div id="page">\\n    <!-- start content -->\\n    <div>\\n     <div id="flash">\', escape=False)\nresponse.write(response.flash or \'\')\nresponse.write(\'</div>\\n     \', escape=False)\nresponse.write(\'\\n<ul type="none">\\n\', escape=False)\ncount=0\nresponse.write(\'\\n\', escape=False)\nf=open(\'.Rough\',\'w\')\nresponse.write(\'\\n\', escape=False)\ndef print1(bigans):\n    response.write(\'\\n    \', escape=False)\n    global count\n    response.write(\'\\n    \', escape=False)\n    for x in range(0,len(bigans)):\n        response.write(\'\\n        \', escape=False)\n        if type(bigans[x]) is list:\n            response.write(\'\\n            \', escape=False)\n            if count==0:\n                response.write(\'\\n                \', escape=False)\n                count=count+1\n                response.write(\'\\n                \', escape=False)\n                print1(bigans[x])\n                response.write(\'\\n            \', escape=False)\n            elif count!=0 and x!=7:\n                response.write(\'\\n                \', escape=False)\n                count=count+1\n                response.write(\'\\n                \', escape=False)\n                print1(bigans[x])\n                response.write(\'\\n            \', escape=False)\n                pass\n            response.write(\'\\n         \', escape=False)\n        else:\n            response.write(\'\\n             \', escape=False)\n            if x==2:\n                response.write(\'\\n             \', escape=False)\n                response.write(A(\'---------------\'*(count-1)+bigans[0], _href=bigans[2]))\n                response.write(\'\\n             \', escape=False)\n                f.write(\'---------------\'*(count-1)+bigans[0]+\'\\n\')\n                response.write(\'\\n             \', escape=False)\n            elif x==3 and bigans[x]!=-1:\n                response.write(\'\\n                  \', escape=False)\n                response.write(LI(\'---------------\'*(count-1)+\'Authors-\'))\n                response.write(\'\\n                  \', escape=False)\n                f.write(\'---------------\'*(count-1)+\'Authors-\'+\'\\n\')\n                response.write(\'\\n                 \', escape=False)\n                l=bigans[x].split(\';\')\n                response.write(\'\\n                 \', escape=False)\n                for p in l:\n                    response.write(\'\\n                     \', escape=False)\n                    if \',\' in p:\n                        response.write(\'\\n                         \', escape=False)\n                        k=p.split(\',\')[1]+\' \'+p.split(\',\')[0]\n                        response.write(\'\\n                     \', escape=False)\n                    else:\n                        response.write(\'\\n                         \', escape=False)\n                        k=p\n                        response.write(\'\\n                     \', escape=False)\n                        pass\n                    response.write(\'\\n                      \', escape=False)\n                    response.write(LI(\'---------------\'*(count-1)+k))\n                    response.write(\'\\n                      \', escape=False)\n                    f.write(\'---------------\'*(count-1)+k+\'\\n\')\n                    response.write(\'\\n                 \', escape=False)\n                    pass\n                response.write(\'\\n             \', escape=False)\n            elif x==6 and bigans[x]!=-1:\n                response.write(\'\\n                \', escape=False)\n                response.write(LI(\'---------------\'*(count-1)+\'Cited by:\'+str(bigans[x])))\n                response.write(\'\\n                \', escape=False)\n                f.write(\'---------------\'*(count-1)+\'Cited by:\'+str(bigans[x])+\'\\n\')\n                response.write(\'\\n             \', escape=False)\n            elif x==4 and bigans[x]!=-1:\n                response.write(\'\\n                \', escape=False)\n                response.write(LI(\'---------------\'*(count-1)+\'Date:\'+bigans[x]))\n                response.write(\'\\n                \', escape=False)\n                f.write(\'---------------\'*(count-1)+\'Date:\'+bigans[x]+\'\\n\')\n                response.write(\'\\n             \', escape=False)\n                pass\n            response.write(\'\\n             \', escape=False)\n        elif x==5 and bigans[x]!=-1:\n            response.write(\'\\n                \', escape=False)\n            response.write(LI(\'---------------\'*(count-1)+\'Abstract:\'+bigans[x]))\n            response.write(\'\\n                \', escape=False)\n            f.write(\'---------------\'*(count-1)+\'Abstract:\'+bigans[x]+\'\\n\')\n            response.write(\'\\n             \', escape=False)\n            pass\n        response.write(\'      \\n         \', escape=False)\n        pass\n    response.write(\'\\n     \', escape=False)\n    pass\nresponse.write(\'\\n     \', escape=False)\ncount=count-1\nresponse.write(\'\\n     \', escape=False)\nreturn\nresponse.write(\'\\n<div style="text-align:right">\\n\', escape=False)\nresponse.write(LI(\'Sort by: \'))\nresponse.write(\'\\n\', escape=False)\nresponse.write(LI(A(\'Relevence \',_href=URL("sorting", args=ret1[0]))))\nresponse.write(\'\\n\', escape=False)\nresponse.write(LI(A(\'Publication date \',_href=URL("sorting", args=ret1[1]))))\nresponse.write(\'\\n</div>\\n\', escape=False)\npass\nresponse.write(\'\\n\', escape=False)\nprint1(bigans)\nresponse.write(\'\\n\', escape=False)\nf.close()\nresponse.write(\'\\n\', escape=False)\nfrom gluon.tools import Mail\nmail = Mail()\nmail.settings.server = \'smtp.gmail.com:25\'\nmail.settings.sender = \'papireddygarimaneesha88@gmail.com\'\nmail.settings.login = \'papireddygarimaneesha88:peddamallu\'\nresponse.write(\'\\n\', escape=False)\nmail.send(to=[\'papireddygarimaneesha88@gmail.com\'],\nsubject=\'hi\',\nmessage=\'hi manu\',\nattachments = [Mail.Attachment(\'.Rough\')])\nresponse.write(\'\\n</ul>\\n\', escape=False)\nresponse.write(\'\\n    </div>\\n    <!-- end content -->\\n    <div style="clear: both;">\\n     &nbsp;\\n    </div>\\n   </div>\\n   <!-- end page -->\\n  </div>\\n  <div id="footer">\\n   <p>\\n    &copy;2012 All Rights Reserved. &nbsp;&bull;&nbsp; Design by P.Maneesha,Chitra Khatwani,Rajat Bharadwaj\\n   </p>\\n  </div>\\n </body>\\n</html>\\n\', escape=False)'
p7
sS'snapshot'
p8
(dp9
S'exception'
p10
(dp11
S'__getslice__'
p12
S"<method-wrapper '__getslice__' of exceptions.SyntaxError object>"
p13
sS'text'
p14
S"'        elif x==5 and bigans[x]!=-1:\\n'"
p15
sS'__str__'
p16
S"<method-wrapper '__str__' of exceptions.SyntaxError object>"
p17
sS'__reduce__'
p18
S'<built-in method __reduce__ of exceptions.SyntaxError object>'
p19
sS'__dict__'
p20
S'{}'
p21
sS'__sizeof__'
p22
S'<built-in method __sizeof__ of exceptions.SyntaxError object>'
p23
sS'__init__'
p24
S"<method-wrapper '__init__' of exceptions.SyntaxError object>"
p25
sS'__setattr__'
p26
S"<method-wrapper '__setattr__' of exceptions.SyntaxError object>"
p27
sS'__reduce_ex__'
p28
S'<built-in method __reduce_ex__ of exceptions.SyntaxError object>'
p29
sS'__new__'
p30
S'<built-in method __new__ of type object>'
p31
sS'__format__'
p32
S'<built-in method __format__ of exceptions.SyntaxError object>'
p33
sS'__class__'
p34
S"<type 'exceptions.SyntaxError'>"
p35
sS'filename'
p36
S"'/home/maneesha/Downloads/web2py/applications/cite_m2/views/default/final_ans.html'"
p37
sS'lineno'
p38
S'104'
p39
sS'msg'
p40
S"'invalid syntax'"
p41
sS'__doc__'
p42
S"'Invalid syntax.'"
p43
sS'__getitem__'
p44
S"<method-wrapper '__getitem__' of exceptions.SyntaxError object>"
p45
sS'__setstate__'
p46
S'<built-in method __setstate__ of exceptions.SyntaxError object>'
p47
sS'__getattribute__'
p48
S"<method-wrapper '__getattribute__' of exceptions.SyntaxError object>"
p49
sS'print_file_and_line'
p50
S'None'
p51
sS'args'
p52
S"('invalid syntax', ('/home/maneesha/Downloads/web2py/applications/cite_m2/views/default/final_ans.html', 104, 12, '        elif x==5 and bigans[x]!=-1:\\n'))"
p53
sS'__subclasshook__'
p54
S'<built-in method __subclasshook__ of type object>'
p55
sS'offset'
p56
S'12'
p57
sS'__unicode__'
p58
S'<built-in method __unicode__ of exceptions.SyntaxError object>'
p59
sS'__delattr__'
p60
S"<method-wrapper '__delattr__' of exceptions.SyntaxError object>"
p61
sS'__repr__'
p62
S"<method-wrapper '__repr__' of exceptions.SyntaxError object>"
p63
sS'__hash__'
p64
S"<method-wrapper '__hash__' of exceptions.SyntaxError object>"
p65
ssS'evalue'
p66
S'invalid syntax (final_ans.html, line 104)'
p67
sS'request'
p68
ccopy_reg
_reconstructor
p69
(cgluon.html
BEAUTIFY
p70
c__builtin__
object
p71
NtRp72
(dp73
S'attributes'
p74
(dp75
sS'components'
p76
(lp77
g69
(cgluon.html
TABLE
p78
g71
NtRp79
(dp80
g74
(dp81
S'level'
p82
I5
ssS'parent'
p83
Nsg76
(lp84
g69
(cgluon.html
TR
p85
g71
NtRp86
(dp87
g74
(dp88
sg83
g79
sg76
(lp89
g69
(cgluon.html
TD
p90
g71
NtRp91
(dp92
g74
(dp93
S'_style'
p94
S'font-weight:bold;vertical-align:top'
p95
ssg83
g86
sg76
(lp96
S'ajax'
p97
asbag69
(g90
g71
NtRp98
(dp99
g74
(dp100
S'_valign'
p101
S'top'
p102
ssg83
g86
sg76
(lp103
S':'
asbag69
(g90
g71
NtRp104
(dp105
g74
(dp106
sg83
g86
sg76
(lp107
g69
(g70
g71
NtRp108
(dp109
g74
(dp110
g82
I5
ssg83
g104
sg76
(lp111
S'False'
p112
asbasbasbag69
(g85
g71
NtRp113
(dp114
g74
(dp115
sg83
g79
sg76
(lp116
g69
(g90
g71
NtRp117
(dp118
g74
(dp119
g94
g95
ssg83
g113
sg76
(lp120
S'application'
p121
asbag69
(g90
g71
NtRp122
(dp123
g74
(dp124
g101
g102
ssg83
g113
sg76
(lp125
S':'
asbag69
(g90
g71
NtRp126
(dp127
g74
(dp128
sg83
g113
sg76
(lp129
g69
(g70
g71
NtRp130
(dp131
g74
(dp132
g82
I5
ssg83
g126
sg76
(lp133
S'cite_m2'
p134
asbasbasbag69
(g85
g71
NtRp135
(dp136
g74
(dp137
sg83
g79
sg76
(lp138
g69
(g90
g71
NtRp139
(dp140
g74
(dp141
g94
g95
ssg83
g135
sg76
(lp142
g52
asbag69
(g90
g71
NtRp143
(dp144
g74
(dp145
g101
g102
ssg83
g135
sg76
(lp146
S':'
asbag69
(g90
g71
NtRp147
(dp148
g74
(dp149
sg83
g135
sg76
(lp150
g69
(g70
g71
NtRp151
(dp152
g74
(dp153
g82
I5
ssg83
g147
sg76
(lp154
g69
(g78
g71
NtRp155
(dp156
g74
(dp157
g82
I4
ssg83
Nsg76
(lp158
sbasbasbasbag69
(g85
g71
NtRp159
(dp160
g74
(dp161
sg83
g79
sg76
(lp162
g69
(g90
g71
NtRp163
(dp164
g74
(dp165
g94
g95
ssg83
g159
sg76
(lp166
S'body'
p167
asbag69
(g90
g71
NtRp168
(dp169
g74
(dp170
g101
g102
ssg83
g159
sg76
(lp171
S':'
asbag69
(g90
g71
NtRp172
(dp173
g74
(dp174
sg83
g159
sg76
(lp175
g69
(g70
g71
NtRp176
(dp177
g74
(dp178
g82
I5
ssg83
g172
sg76
(lp179
S'<cStringIO.StringO object at 0x7fe240217ab0>'
p180
asbasbasbag69
(g85
g71
NtRp181
(dp182
g74
(dp183
sg83
g79
sg76
(lp184
g69
(g90
g71
NtRp185
(dp186
g74
(dp187
g94
g95
ssg83
g181
sg76
(lp188
S'client'
p189
asbag69
(g90
g71
NtRp190
(dp191
g74
(dp192
g101
g102
ssg83
g181
sg76
(lp193
S':'
asbag69
(g90
g71
NtRp194
(dp195
g74
(dp196
sg83
g181
sg76
(lp197
g69
(g70
g71
NtRp198
(dp199
g74
(dp200
g82
I5
ssg83
g194
sg76
(lp201
S'127.0.0.1'
p202
asbasbasbag69
(g85
g71
NtRp203
(dp204
g74
(dp205
sg83
g79
sg76
(lp206
g69
(g90
g71
NtRp207
(dp208
g74
(dp209
g94
g95
ssg83
g203
sg76
(lp210
S'controller'
p211
asbag69
(g90
g71
NtRp212
(dp213
g74
(dp214
g101
g102
ssg83
g203
sg76
(lp215
S':'
asbag69
(g90
g71
NtRp216
(dp217
g74
(dp218
sg83
g203
sg76
(lp219
g69
(g70
g71
NtRp220
(dp221
g74
(dp222
g82
I5
ssg83
g216
sg76
(lp223
S'default'
p224
asbasbasbag69
(g85
g71
NtRp225
(dp226
g74
(dp227
sg83
g79
sg76
(lp228
g69
(g90
g71
NtRp229
(dp230
g74
(dp231
g94
g95
ssg83
g225
sg76
(lp232
S'cookies'
p233
asbag69
(g90
g71
NtRp234
(dp235
g74
(dp236
g101
g102
ssg83
g225
sg76
(lp237
S':'
asbag69
(g90
g71
NtRp238
(dp239
g74
(dp240
sg83
g225
sg76
(lp241
g69
(g70
g71
NtRp242
(dp243
g74
(dp244
g82
I5
ssg83
g238
sg76
(lp245
g69
(g78
g71
NtRp246
(dp247
g74
(dp248
g82
I4
ssg83
Nsg76
(lp249
g69
(g85
g71
NtRp250
(dp251
g74
(dp252
sg83
g246
sg76
(lp253
g69
(g90
g71
NtRp254
(dp255
g74
(dp256
g94
g95
ssg83
g250
sg76
(lp257
S'session_id_admin'
p258
asbag69
(g90
g71
NtRp259
(dp260
g74
(dp261
g101
g102
ssg83
g250
sg76
(lp262
S':'
asbag69
(g90
g71
NtRp263
(dp264
g74
(dp265
sg83
g250
sg76
(lp266
g69
(g70
g71
NtRp267
(dp268
g74
(dp269
g82
I4
ssg83
g263
sg76
(lp270
g69
(g78
g71
NtRp271
(dp272
g74
(dp273
g82
I3
ssg83
Nsg76
(lp274
g69
(g85
g71
NtRp275
(dp276
g74
(dp277
sg83
g271
sg76
(lp278
g69
(g90
g71
NtRp279
(dp280
g74
(dp281
g94
g95
ssg83
g275
sg76
(lp282
S'comment'
p283
asbag69
(g90
g71
NtRp284
(dp285
g74
(dp286
g101
g102
ssg83
g275
sg76
(lp287
S':'
asbag69
(g90
g71
NtRp288
(dp289
g74
(dp290
sg83
g275
sg76
(lp291
g69
(g70
g71
NtRp292
(dp293
g74
(dp294
g82
I3
ssg83
g288
sg76
(lp295
S''
asbasbasbag69
(g85
g71
NtRp296
(dp297
g74
(dp298
sg83
g271
sg76
(lp299
g69
(g90
g71
NtRp300
(dp301
g74
(dp302
g94
g95
ssg83
g296
sg76
(lp303
S'domain'
p304
asbag69
(g90
g71
NtRp305
(dp306
g74
(dp307
g101
g102
ssg83
g296
sg76
(lp308
S':'
asbag69
(g90
g71
NtRp309
(dp310
g74
(dp311
sg83
g296
sg76
(lp312
g69
(g70
g71
NtRp313
(dp314
g74
(dp315
g82
I3
ssg83
g309
sg76
(lp316
S''
asbasbasbag69
(g85
g71
NtRp317
(dp318
g74
(dp319
sg83
g271
sg76
(lp320
g69
(g90
g71
NtRp321
(dp322
g74
(dp323
g94
g95
ssg83
g317
sg76
(lp324
S'expires'
p325
asbag69
(g90
g71
NtRp326
(dp327
g74
(dp328
g101
g102
ssg83
g317
sg76
(lp329
S':'
asbag69
(g90
g71
NtRp330
(dp331
g74
(dp332
sg83
g317
sg76
(lp333
g69
(g70
g71
NtRp334
(dp335
g74
(dp336
g82
I3
ssg83
g330
sg76
(lp337
S''
asbasbasbag69
(g85
g71
NtRp338
(dp339
g74
(dp340
sg83
g271
sg76
(lp341
g69
(g90
g71
NtRp342
(dp343
g74
(dp344
g94
g95
ssg83
g338
sg76
(lp345
S'httponly'
p346
asbag69
(g90
g71
NtRp347
(dp348
g74
(dp349
g101
g102
ssg83
g338
sg76
(lp350
S':'
asbag69
(g90
g71
NtRp351
(dp352
g74
(dp353
sg83
g338
sg76
(lp354
g69
(g70
g71
NtRp355
(dp356
g74
(dp357
g82
I3
ssg83
g351
sg76
(lp358
S''
asbasbasbag69
(g85
g71
NtRp359
(dp360
g74
(dp361
sg83
g271
sg76
(lp362
g69
(g90
g71
NtRp363
(dp364
g74
(dp365
g94
g95
ssg83
g359
sg76
(lp366
S'max-age'
p367
asbag69
(g90
g71
NtRp368
(dp369
g74
(dp370
g101
g102
ssg83
g359
sg76
(lp371
S':'
asbag69
(g90
g71
NtRp372
(dp373
g74
(dp374
sg83
g359
sg76
(lp375
g69
(g70
g71
NtRp376
(dp377
g74
(dp378
g82
I3
ssg83
g372
sg76
(lp379
S''
asbasbasbag69
(g85
g71
NtRp380
(dp381
g74
(dp382
sg83
g271
sg76
(lp383
g69
(g90
g71
NtRp384
(dp385
g74
(dp386
g94
g95
ssg83
g380
sg76
(lp387
S'path'
p388
asbag69
(g90
g71
NtRp389
(dp390
g74
(dp391
g101
g102
ssg83
g380
sg76
(lp392
S':'
asbag69
(g90
g71
NtRp393
(dp394
g74
(dp395
sg83
g380
sg76
(lp396
g69
(g70
g71
NtRp397
(dp398
g74
(dp399
g82
I3
ssg83
g393
sg76
(lp400
S''
asbasbasbag69
(g85
g71
NtRp401
(dp402
g74
(dp403
sg83
g271
sg76
(lp404
g69
(g90
g71
NtRp405
(dp406
g74
(dp407
g94
g95
ssg83
g401
sg76
(lp408
S'secure'
p409
asbag69
(g90
g71
NtRp410
(dp411
g74
(dp412
g101
g102
ssg83
g401
sg76
(lp413
S':'
asbag69
(g90
g71
NtRp414
(dp415
g74
(dp416
sg83
g401
sg76
(lp417
g69
(g70
g71
NtRp418
(dp419
g74
(dp420
g82
I3
ssg83
g414
sg76
(lp421
S''
asbasbasbag69
(g85
g71
NtRp422
(dp423
g74
(dp424
sg83
g271
sg76
(lp425
g69
(g90
g71
NtRp426
(dp427
g74
(dp428
g94
g95
ssg83
g422
sg76
(lp429
S'version'
p430
asbag69
(g90
g71
NtRp431
(dp432
g74
(dp433
g101
g102
ssg83
g422
sg76
(lp434
S':'
asbag69
(g90
g71
NtRp435
(dp436
g74
(dp437
sg83
g422
sg76
(lp438
g69
(g70
g71
NtRp439
(dp440
g74
(dp441
g82
I3
ssg83
g435
sg76
(lp442
S''
asbasbasbasbasbasbasbag69
(g85
g71
NtRp443
(dp444
g74
(dp445
sg83
g246
sg76
(lp446
g69
(g90
g71
NtRp447
(dp448
g74
(dp449
g94
g95
ssg83
g443
sg76
(lp450
S'session_id_cite_m1'
p451
asbag69
(g90
g71
NtRp452
(dp453
g74
(dp454
g101
g102
ssg83
g443
sg76
(lp455
S':'
asbag69
(g90
g71
NtRp456
(dp457
g74
(dp458
sg83
g443
sg76
(lp459
g69
(g70
g71
NtRp460
(dp461
g74
(dp462
g82
I4
ssg83
g456
sg76
(lp463
g69
(g78
g71
NtRp464
(dp465
g74
(dp466
g82
I3
ssg83
Nsg76
(lp467
g69
(g85
g71
NtRp468
(dp469
g74
(dp470
sg83
g464
sg76
(lp471
g69
(g90
g71
NtRp472
(dp473
g74
(dp474
g94
g95
ssg83
g468
sg76
(lp475
g283
asbag69
(g90
g71
NtRp476
(dp477
g74
(dp478
g101
g102
ssg83
g468
sg76
(lp479
S':'
asbag69
(g90
g71
NtRp480
(dp481
g74
(dp482
sg83
g468
sg76
(lp483
g69
(g70
g71
NtRp484
(dp485
g74
(dp486
g82
I3
ssg83
g480
sg76
(lp487
S''
asbasbasbag69
(g85
g71
NtRp488
(dp489
g74
(dp490
sg83
g464
sg76
(lp491
g69
(g90
g71
NtRp492
(dp493
g74
(dp494
g94
g95
ssg83
g488
sg76
(lp495
g304
asbag69
(g90
g71
NtRp496
(dp497
g74
(dp498
g101
g102
ssg83
g488
sg76
(lp499
S':'
asbag69
(g90
g71
NtRp500
(dp501
g74
(dp502
sg83
g488
sg76
(lp503
g69
(g70
g71
NtRp504
(dp505
g74
(dp506
g82
I3
ssg83
g500
sg76
(lp507
S''
asbasbasbag69
(g85
g71
NtRp508
(dp509
g74
(dp510
sg83
g464
sg76
(lp511
g69
(g90
g71
NtRp512
(dp513
g74
(dp514
g94
g95
ssg83
g508
sg76
(lp515
g325
asbag69
(g90
g71
NtRp516
(dp517
g74
(dp518
g101
g102
ssg83
g508
sg76
(lp519
S':'
asbag69
(g90
g71
NtRp520
(dp521
g74
(dp522
sg83
g508
sg76
(lp523
g69
(g70
g71
NtRp524
(dp525
g74
(dp526
g82
I3
ssg83
g520
sg76
(lp527
S''
asbasbasbag69
(g85
g71
NtRp528
(dp529
g74
(dp530
sg83
g464
sg76
(lp531
g69
(g90
g71
NtRp532
(dp533
g74
(dp534
g94
g95
ssg83
g528
sg76
(lp535
g346
asbag69
(g90
g71
NtRp536
(dp537
g74
(dp538
g101
g102
ssg83
g528
sg76
(lp539
S':'
asbag69
(g90
g71
NtRp540
(dp541
g74
(dp542
sg83
g528
sg76
(lp543
g69
(g70
g71
NtRp544
(dp545
g74
(dp546
g82
I3
ssg83
g540
sg76
(lp547
S''
asbasbasbag69
(g85
g71
NtRp548
(dp549
g74
(dp550
sg83
g464
sg76
(lp551
g69
(g90
g71
NtRp552
(dp553
g74
(dp554
g94
g95
ssg83
g548
sg76
(lp555
g367
asbag69
(g90
g71
NtRp556
(dp557
g74
(dp558
g101
g102
ssg83
g548
sg76
(lp559
S':'
asbag69
(g90
g71
NtRp560
(dp561
g74
(dp562
sg83
g548
sg76
(lp563
g69
(g70
g71
NtRp564
(dp565
g74
(dp566
g82
I3
ssg83
g560
sg76
(lp567
S''
asbasbasbag69
(g85
g71
NtRp568
(dp569
g74
(dp570
sg83
g464
sg76
(lp571
g69
(g90
g71
NtRp572
(dp573
g74
(dp574
g94
g95
ssg83
g568
sg76
(lp575
g388
asbag69
(g90
g71
NtRp576
(dp577
g74
(dp578
g101
g102
ssg83
g568
sg76
(lp579
S':'
asbag69
(g90
g71
NtRp580
(dp581
g74
(dp582
sg83
g568
sg76
(lp583
g69
(g70
g71
NtRp584
(dp585
g74
(dp586
g82
I3
ssg83
g580
sg76
(lp587
S''
asbasbasbag69
(g85
g71
NtRp588
(dp589
g74
(dp590
sg83
g464
sg76
(lp591
g69
(g90
g71
NtRp592
(dp593
g74
(dp594
g94
g95
ssg83
g588
sg76
(lp595
g409
asbag69
(g90
g71
NtRp596
(dp597
g74
(dp598
g101
g102
ssg83
g588
sg76
(lp599
S':'
asbag69
(g90
g71
NtRp600
(dp601
g74
(dp602
sg83
g588
sg76
(lp603
g69
(g70
g71
NtRp604
(dp605
g74
(dp606
g82
I3
ssg83
g600
sg76
(lp607
S''
asbasbasbag69
(g85
g71
NtRp608
(dp609
g74
(dp610
sg83
g464
sg76
(lp611
g69
(g90
g71
NtRp612
(dp613
g74
(dp614
g94
g95
ssg83
g608
sg76
(lp615
g430
asbag69
(g90
g71
NtRp616
(dp617
g74
(dp618
g101
g102
ssg83
g608
sg76
(lp619
S':'
asbag69
(g90
g71
NtRp620
(dp621
g74
(dp622
sg83
g608
sg76
(lp623
g69
(g70
g71
NtRp624
(dp625
g74
(dp626
g82
I3
ssg83
g620
sg76
(lp627
S''
asbasbasbasbasbasbasbag69
(g85
g71
NtRp628
(dp629
g74
(dp630
sg83
g246
sg76
(lp631
g69
(g90
g71
NtRp632
(dp633
g74
(dp634
g94
g95
ssg83
g628
sg76
(lp635
S'session_id_cite_m2'
p636
asbag69
(g90
g71
NtRp637
(dp638
g74
(dp639
g101
g102
ssg83
g628
sg76
(lp640
S':'
asbag69
(g90
g71
NtRp641
(dp642
g74
(dp643
sg83
g628
sg76
(lp644
g69
(g70
g71
NtRp645
(dp646
g74
(dp647
g82
I4
ssg83
g641
sg76
(lp648
g69
(g78
g71
NtRp649
(dp650
g74
(dp651
g82
I3
ssg83
Nsg76
(lp652
g69
(g85
g71
NtRp653
(dp654
g74
(dp655
sg83
g649
sg76
(lp656
g69
(g90
g71
NtRp657
(dp658
g74
(dp659
g94
g95
ssg83
g653
sg76
(lp660
g283
asbag69
(g90
g71
NtRp661
(dp662
g74
(dp663
g101
g102
ssg83
g653
sg76
(lp664
S':'
asbag69
(g90
g71
NtRp665
(dp666
g74
(dp667
sg83
g653
sg76
(lp668
g69
(g70
g71
NtRp669
(dp670
g74
(dp671
g82
I3
ssg83
g665
sg76
(lp672
S''
asbasbasbag69
(g85
g71
NtRp673
(dp674
g74
(dp675
sg83
g649
sg76
(lp676
g69
(g90
g71
NtRp677
(dp678
g74
(dp679
g94
g95
ssg83
g673
sg76
(lp680
g304
asbag69
(g90
g71
NtRp681
(dp682
g74
(dp683
g101
g102
ssg83
g673
sg76
(lp684
S':'
asbag69
(g90
g71
NtRp685
(dp686
g74
(dp687
sg83
g673
sg76
(lp688
g69
(g70
g71
NtRp689
(dp690
g74
(dp691
g82
I3
ssg83
g685
sg76
(lp692
S''
asbasbasbag69
(g85
g71
NtRp693
(dp694
g74
(dp695
sg83
g649
sg76
(lp696
g69
(g90
g71
NtRp697
(dp698
g74
(dp699
g94
g95
ssg83
g693
sg76
(lp700
g325
asbag69
(g90
g71
NtRp701
(dp702
g74
(dp703
g101
g102
ssg83
g693
sg76
(lp704
S':'
asbag69
(g90
g71
NtRp705
(dp706
g74
(dp707
sg83
g693
sg76
(lp708
g69
(g70
g71
NtRp709
(dp710
g74
(dp711
g82
I3
ssg83
g705
sg76
(lp712
S''
asbasbasbag69
(g85
g71
NtRp713
(dp714
g74
(dp715
sg83
g649
sg76
(lp716
g69
(g90
g71
NtRp717
(dp718
g74
(dp719
g94
g95
ssg83
g713
sg76
(lp720
g346
asbag69
(g90
g71
NtRp721
(dp722
g74
(dp723
g101
g102
ssg83
g713
sg76
(lp724
S':'
asbag69
(g90
g71
NtRp725
(dp726
g74
(dp727
sg83
g713
sg76
(lp728
g69
(g70
g71
NtRp729
(dp730
g74
(dp731
g82
I3
ssg83
g725
sg76
(lp732
S''
asbasbasbag69
(g85
g71
NtRp733
(dp734
g74
(dp735
sg83
g649
sg76
(lp736
g69
(g90
g71
NtRp737
(dp738
g74
(dp739
g94
g95
ssg83
g733
sg76
(lp740
g367
asbag69
(g90
g71
NtRp741
(dp742
g74
(dp743
g101
g102
ssg83
g733
sg76
(lp744
S':'
asbag69
(g90
g71
NtRp745
(dp746
g74
(dp747
sg83
g733
sg76
(lp748
g69
(g70
g71
NtRp749
(dp750
g74
(dp751
g82
I3
ssg83
g745
sg76
(lp752
S''
asbasbasbag69
(g85
g71
NtRp753
(dp754
g74
(dp755
sg83
g649
sg76
(lp756
g69
(g90
g71
NtRp757
(dp758
g74
(dp759
g94
g95
ssg83
g753
sg76
(lp760
g388
asbag69
(g90
g71
NtRp761
(dp762
g74
(dp763
g101
g102
ssg83
g753
sg76
(lp764
S':'
asbag69
(g90
g71
NtRp765
(dp766
g74
(dp767
sg83
g753
sg76
(lp768
g69
(g70
g71
NtRp769
(dp770
g74
(dp771
g82
I3
ssg83
g765
sg76
(lp772
S''
asbasbasbag69
(g85
g71
NtRp773
(dp774
g74
(dp775
sg83
g649
sg76
(lp776
g69
(g90
g71
NtRp777
(dp778
g74
(dp779
g94
g95
ssg83
g773
sg76
(lp780
g409
asbag69
(g90
g71
NtRp781
(dp782
g74
(dp783
g101
g102
ssg83
g773
sg76
(lp784
S':'
asbag69
(g90
g71
NtRp785
(dp786
g74
(dp787
sg83
g773
sg76
(lp788
g69
(g70
g71
NtRp789
(dp790
g74
(dp791
g82
I3
ssg83
g785
sg76
(lp792
S''
asbasbasbag69
(g85
g71
NtRp793
(dp794
g74
(dp795
sg83
g649
sg76
(lp796
g69
(g90
g71
NtRp797
(dp798
g74
(dp799
g94
g95
ssg83
g793
sg76
(lp800
g430
asbag69
(g90
g71
NtRp801
(dp802
g74
(dp803
g101
g102
ssg83
g793
sg76
(lp804
S':'
asbag69
(g90
g71
NtRp805
(dp806
g74
(dp807
sg83
g793
sg76
(lp808
g69
(g70
g71
NtRp809
(dp810
g74
(dp811
g82
I3
ssg83
g805
sg76
(lp812
S''
asbasbasbasbasbasbasbag69
(g85
g71
NtRp813
(dp814
g74
(dp815
sg83
g246
sg76
(lp816
g69
(g90
g71
NtRp817
(dp818
g74
(dp819
g94
g95
ssg83
g813
sg76
(lp820
S'session_id_proj_rough2'
p821
asbag69
(g90
g71
NtRp822
(dp823
g74
(dp824
g101
g102
ssg83
g813
sg76
(lp825
S':'
asbag69
(g90
g71
NtRp826
(dp827
g74
(dp828
sg83
g813
sg76
(lp829
g69
(g70
g71
NtRp830
(dp831
g74
(dp832
g82
I4
ssg83
g826
sg76
(lp833
g69
(g78
g71
NtRp834
(dp835
g74
(dp836
g82
I3
ssg83
Nsg76
(lp837
g69
(g85
g71
NtRp838
(dp839
g74
(dp840
sg83
g834
sg76
(lp841
g69
(g90
g71
NtRp842
(dp843
g74
(dp844
g94
g95
ssg83
g838
sg76
(lp845
g283
asbag69
(g90
g71
NtRp846
(dp847
g74
(dp848
g101
g102
ssg83
g838
sg76
(lp849
S':'
asbag69
(g90
g71
NtRp850
(dp851
g74
(dp852
sg83
g838
sg76
(lp853
g69
(g70
g71
NtRp854
(dp855
g74
(dp856
g82
I3
ssg83
g850
sg76
(lp857
S''
asbasbasbag69
(g85
g71
NtRp858
(dp859
g74
(dp860
sg83
g834
sg76
(lp861
g69
(g90
g71
NtRp862
(dp863
g74
(dp864
g94
g95
ssg83
g858
sg76
(lp865
g304
asbag69
(g90
g71
NtRp866
(dp867
g74
(dp868
g101
g102
ssg83
g858
sg76
(lp869
S':'
asbag69
(g90
g71
NtRp870
(dp871
g74
(dp872
sg83
g858
sg76
(lp873
g69
(g70
g71
NtRp874
(dp875
g74
(dp876
g82
I3
ssg83
g870
sg76
(lp877
S''
asbasbasbag69
(g85
g71
NtRp878
(dp879
g74
(dp880
sg83
g834
sg76
(lp881
g69
(g90
g71
NtRp882
(dp883
g74
(dp884
g94
g95
ssg83
g878
sg76
(lp885
g325
asbag69
(g90
g71
NtRp886
(dp887
g74
(dp888
g101
g102
ssg83
g878
sg76
(lp889
S':'
asbag69
(g90
g71
NtRp890
(dp891
g74
(dp892
sg83
g878
sg76
(lp893
g69
(g70
g71
NtRp894
(dp895
g74
(dp896
g82
I3
ssg83
g890
sg76
(lp897
S''
asbasbasbag69
(g85
g71
NtRp898
(dp899
g74
(dp900
sg83
g834
sg76
(lp901
g69
(g90
g71
NtRp902
(dp903
g74
(dp904
g94
g95
ssg83
g898
sg76
(lp905
g346
asbag69
(g90
g71
NtRp906
(dp907
g74
(dp908
g101
g102
ssg83
g898
sg76
(lp909
S':'
asbag69
(g90
g71
NtRp910
(dp911
g74
(dp912
sg83
g898
sg76
(lp913
g69
(g70
g71
NtRp914
(dp915
g74
(dp916
g82
I3
ssg83
g910
sg76
(lp917
S''
asbasbasbag69
(g85
g71
NtRp918
(dp919
g74
(dp920
sg83
g834
sg76
(lp921
g69
(g90
g71
NtRp922
(dp923
g74
(dp924
g94
g95
ssg83
g918
sg76
(lp925
g367
asbag69
(g90
g71
NtRp926
(dp927
g74
(dp928
g101
g102
ssg83
g918
sg76
(lp929
S':'
asbag69
(g90
g71
NtRp930
(dp931
g74
(dp932
sg83
g918
sg76
(lp933
g69
(g70
g71
NtRp934
(dp935
g74
(dp936
g82
I3
ssg83
g930
sg76
(lp937
S''
asbasbasbag69
(g85
g71
NtRp938
(dp939
g74
(dp940
sg83
g834
sg76
(lp941
g69
(g90
g71
NtRp942
(dp943
g74
(dp944
g94
g95
ssg83
g938
sg76
(lp945
g388
asbag69
(g90
g71
NtRp946
(dp947
g74
(dp948
g101
g102
ssg83
g938
sg76
(lp949
S':'
asbag69
(g90
g71
NtRp950
(dp951
g74
(dp952
sg83
g938
sg76
(lp953
g69
(g70
g71
NtRp954
(dp955
g74
(dp956
g82
I3
ssg83
g950
sg76
(lp957
S''
asbasbasbag69
(g85
g71
NtRp958
(dp959
g74
(dp960
sg83
g834
sg76
(lp961
g69
(g90
g71
NtRp962
(dp963
g74
(dp964
g94
g95
ssg83
g958
sg76
(lp965
g409
asbag69
(g90
g71
NtRp966
(dp967
g74
(dp968
g101
g102
ssg83
g958
sg76
(lp969
S':'
asbag69
(g90
g71
NtRp970
(dp971
g74
(dp972
sg83
g958
sg76
(lp973
g69
(g70
g71
NtRp974
(dp975
g74
(dp976
g82
I3
ssg83
g970
sg76
(lp977
S''
asbasbasbag69
(g85
g71
NtRp978
(dp979
g74
(dp980
sg83
g834
sg76
(lp981
g69
(g90
g71
NtRp982
(dp983
g74
(dp984
g94
g95
ssg83
g978
sg76
(lp985
g430
asbag69
(g90
g71
NtRp986
(dp987
g74
(dp988
g101
g102
ssg83
g978
sg76
(lp989
S':'
asbag69
(g90
g71
NtRp990
(dp991
g74
(dp992
sg83
g978
sg76
(lp993
g69
(g70
g71
NtRp994
(dp995
g74
(dp996
g82
I3
ssg83
g990
sg76
(lp997
S''
asbasbasbasbasbasbasbag69
(g85
g71
NtRp998
(dp999
g74
(dp1000
sg83
g246
sg76
(lp1001
g69
(g90
g71
NtRp1002
(dp1003
g74
(dp1004
g94
g95
ssg83
g998
sg76
(lp1005
S'session_id_welcome'
p1006
asbag69
(g90
g71
NtRp1007
(dp1008
g74
(dp1009
g101
g102
ssg83
g998
sg76
(lp1010
S':'
asbag69
(g90
g71
NtRp1011
(dp1012
g74
(dp1013
sg83
g998
sg76
(lp1014
g69
(g70
g71
NtRp1015
(dp1016
g74
(dp1017
g82
I4
ssg83
g1011
sg76
(lp1018
g69
(g78
g71
NtRp1019
(dp1020
g74
(dp1021
g82
I3
ssg83
Nsg76
(lp1022
g69
(g85
g71
NtRp1023
(dp1024
g74
(dp1025
sg83
g1019
sg76
(lp1026
g69
(g90
g71
NtRp1027
(dp1028
g74
(dp1029
g94
g95
ssg83
g1023
sg76
(lp1030
g283
asbag69
(g90
g71
NtRp1031
(dp1032
g74
(dp1033
g101
g102
ssg83
g1023
sg76
(lp1034
S':'
asbag69
(g90
g71
NtRp1035
(dp1036
g74
(dp1037
sg83
g1023
sg76
(lp1038
g69
(g70
g71
NtRp1039
(dp1040
g74
(dp1041
g82
I3
ssg83
g1035
sg76
(lp1042
S''
asbasbasbag69
(g85
g71
NtRp1043
(dp1044
g74
(dp1045
sg83
g1019
sg76
(lp1046
g69
(g90
g71
NtRp1047
(dp1048
g74
(dp1049
g94
g95
ssg83
g1043
sg76
(lp1050
g304
asbag69
(g90
g71
NtRp1051
(dp1052
g74
(dp1053
g101
g102
ssg83
g1043
sg76
(lp1054
S':'
asbag69
(g90
g71
NtRp1055
(dp1056
g74
(dp1057
sg83
g1043
sg76
(lp1058
g69
(g70
g71
NtRp1059
(dp1060
g74
(dp1061
g82
I3
ssg83
g1055
sg76
(lp1062
S''
asbasbasbag69
(g85
g71
NtRp1063
(dp1064
g74
(dp1065
sg83
g1019
sg76
(lp1066
g69
(g90
g71
NtRp1067
(dp1068
g74
(dp1069
g94
g95
ssg83
g1063
sg76
(lp1070
g325
asbag69
(g90
g71
NtRp1071
(dp1072
g74
(dp1073
g101
g102
ssg83
g1063
sg76
(lp1074
S':'
asbag69
(g90
g71
NtRp1075
(dp1076
g74
(dp1077
sg83
g1063
sg76
(lp1078
g69
(g70
g71
NtRp1079
(dp1080
g74
(dp1081
g82
I3
ssg83
g1075
sg76
(lp1082
S''
asbasbasbag69
(g85
g71
NtRp1083
(dp1084
g74
(dp1085
sg83
g1019
sg76
(lp1086
g69
(g90
g71
NtRp1087
(dp1088
g74
(dp1089
g94
g95
ssg83
g1083
sg76
(lp1090
g346
asbag69
(g90
g71
NtRp1091
(dp1092
g74
(dp1093
g101
g102
ssg83
g1083
sg76
(lp1094
S':'
asbag69
(g90
g71
NtRp1095
(dp1096
g74
(dp1097
sg83
g1083
sg76
(lp1098
g69
(g70
g71
NtRp1099
(dp1100
g74
(dp1101
g82
I3
ssg83
g1095
sg76
(lp1102
S''
asbasbasbag69
(g85
g71
NtRp1103
(dp1104
g74
(dp1105
sg83
g1019
sg76
(lp1106
g69
(g90
g71
NtRp1107
(dp1108
g74
(dp1109
g94
g95
ssg83
g1103
sg76
(lp1110
g367
asbag69
(g90
g71
NtRp1111
(dp1112
g74
(dp1113
g101
g102
ssg83
g1103
sg76
(lp1114
S':'
asbag69
(g90
g71
NtRp1115
(dp1116
g74
(dp1117
sg83
g1103
sg76
(lp1118
g69
(g70
g71
NtRp1119
(dp1120
g74
(dp1121
g82
I3
ssg83
g1115
sg76
(lp1122
S''
asbasbasbag69
(g85
g71
NtRp1123
(dp1124
g74
(dp1125
sg83
g1019
sg76
(lp1126
g69
(g90
g71
NtRp1127
(dp1128
g74
(dp1129
g94
g95
ssg83
g1123
sg76
(lp1130
g388
asbag69
(g90
g71
NtRp1131
(dp1132
g74
(dp1133
g101
g102
ssg83
g1123
sg76
(lp1134
S':'
asbag69
(g90
g71
NtRp1135
(dp1136
g74
(dp1137
sg83
g1123
sg76
(lp1138
g69
(g70
g71
NtRp1139
(dp1140
g74
(dp1141
g82
I3
ssg83
g1135
sg76
(lp1142
S''
asbasbasbag69
(g85
g71
NtRp1143
(dp1144
g74
(dp1145
sg83
g1019
sg76
(lp1146
g69
(g90
g71
NtRp1147
(dp1148
g74
(dp1149
g94
g95
ssg83
g1143
sg76
(lp1150
g409
asbag69
(g90
g71
NtRp1151
(dp1152
g74
(dp1153
g101
g102
ssg83
g1143
sg76
(lp1154
S':'
asbag69
(g90
g71
NtRp1155
(dp1156
g74
(dp1157
sg83
g1143
sg76
(lp1158
g69
(g70
g71
NtRp1159
(dp1160
g74
(dp1161
g82
I3
ssg83
g1155
sg76
(lp1162
S''
asbasbasbag69
(g85
g71
NtRp1163
(dp1164
g74
(dp1165
sg83
g1019
sg76
(lp1166
g69
(g90
g71
NtRp1167
(dp1168
g74
(dp1169
g94
g95
ssg83
g1163
sg76
(lp1170
g430
asbag69
(g90
g71
NtRp1171
(dp1172
g74
(dp1173
g101
g102
ssg83
g1163
sg76
(lp1174
S':'
asbag69
(g90
g71
NtRp1175
(dp1176
g74
(dp1177
sg83
g1163
sg76
(lp1178
g69
(g70
g71
NtRp1179
(dp1180
g74
(dp1181
g82
I3
ssg83
g1175
sg76
(lp1182
S''
asbasbasbasbasbasbasbasbasbasbasbag69
(g85
g71
NtRp1183
(dp1184
g74
(dp1185
sg83
g79
sg76
(lp1186
g69
(g90
g71
NtRp1187
(dp1188
g74
(dp1189
g94
g95
ssg83
g1183
sg76
(lp1190
S'env'
p1191
asbag69
(g90
g71
NtRp1192
(dp1193
g74
(dp1194
g101
g102
ssg83
g1183
sg76
(lp1195
S':'
asbag69
(g90
g71
NtRp1196
(dp1197
g74
(dp1198
sg83
g1183
sg76
(lp1199
g69
(g70
g71
NtRp1200
(dp1201
g74
(dp1202
g82
I5
ssg83
g1196
sg76
(lp1203
g69
(g78
g71
NtRp1204
(dp1205
g74
(dp1206
g82
I4
ssg83
Nsg76
(lp1207
g69
(g85
g71
NtRp1208
(dp1209
g74
(dp1210
sg83
g1204
sg76
(lp1211
g69
(g90
g71
NtRp1212
(dp1213
g74
(dp1214
g94
g95
ssg83
g1208
sg76
(lp1215
S'app_folders'
p1216
asbag69
(g90
g71
NtRp1217
(dp1218
g74
(dp1219
g101
g102
ssg83
g1208
sg76
(lp1220
S':'
asbag69
(g90
g71
NtRp1221
(dp1222
g74
(dp1223
sg83
g1208
sg76
(lp1224
g69
(g70
g71
NtRp1225
(dp1226
g74
(dp1227
g82
I4
ssg83
g1221
sg76
(lp1228
S"set(['/home/maneesha/Downloads/web2py/applications/welcome/', '/home/maneesha/Downloads/web2py/applications/admin/', '/home/maneesha/Downloads/web2py/applications/cite_m1/', '/home/maneesha/Downloads/web2py/applications/cite_m2/', '/home/maneesha/Downloads/web2py/applications/proj_rough2/'])"
p1229
asbasbasbag69
(g85
g71
NtRp1230
(dp1231
g74
(dp1232
sg83
g1204
sg76
(lp1233
g69
(g90
g71
NtRp1234
(dp1235
g74
(dp1236
g94
g95
ssg83
g1230
sg76
(lp1237
S'applications_parent'
p1238
asbag69
(g90
g71
NtRp1239
(dp1240
g74
(dp1241
g101
g102
ssg83
g1230
sg76
(lp1242
S':'
asbag69
(g90
g71
NtRp1243
(dp1244
g74
(dp1245
sg83
g1230
sg76
(lp1246
g69
(g70
g71
NtRp1247
(dp1248
g74
(dp1249
g82
I4
ssg83
g1243
sg76
(lp1250
S'/home/maneesha/Downloads/web2py'
p1251
asbasbasbag69
(g85
g71
NtRp1252
(dp1253
g74
(dp1254
sg83
g1204
sg76
(lp1255
g69
(g90
g71
NtRp1256
(dp1257
g74
(dp1258
g94
g95
ssg83
g1252
sg76
(lp1259
S'cmd_args'
p1260
asbag69
(g90
g71
NtRp1261
(dp1262
g74
(dp1263
g101
g102
ssg83
g1252
sg76
(lp1264
S':'
asbag69
(g90
g71
NtRp1265
(dp1266
g74
(dp1267
sg83
g1252
sg76
(lp1268
g69
(g70
g71
NtRp1269
(dp1270
g74
(dp1271
g82
I4
ssg83
g1265
sg76
(lp1272
g69
(g78
g71
NtRp1273
(dp1274
g74
(dp1275
g82
I3
ssg83
Nsg76
(lp1276
sbasbasbasbag69
(g85
g71
NtRp1277
(dp1278
g74
(dp1279
sg83
g1204
sg76
(lp1280
g69
(g90
g71
NtRp1281
(dp1282
g74
(dp1283
g94
g95
ssg83
g1277
sg76
(lp1284
S'cmd_options'
p1285
asbag69
(g90
g71
NtRp1286
(dp1287
g74
(dp1288
g101
g102
ssg83
g1277
sg76
(lp1289
S':'
asbag69
(g90
g71
NtRp1290
(dp1291
g74
(dp1292
sg83
g1277
sg76
(lp1293
g69
(g70
g71
NtRp1294
(dp1295
g74
(dp1296
g82
I4
ssg83
g1290
sg76
(lp1297
S"<Values at 0x32c0950: {'verbose': False, 'ip': '127.0.0.1', 'shutdown_timeout': 5, 'taskbar': False, 'nocron': False, 'pid_filename': 'httpserver.pid', 'maxthreads': None, 'softcron': False, 'server_name': 'maneesha-Inspiron-N5050', 'bpython': False, 'nogui': False, 'port': 8000, 'extcron': False, 'debuglevel': 30, 'test': None, 'folder': '/home/maneesha/Downloads/web2py', 'config': '', 'import_models': False, 'winservice': '', 'shell': None, 'run': '', 'log_filename': 'httpserver.log', 'args': [''], 'socket_timeout': 5, 'ssl_ca_certificate': None, 'scheduler': None, 'profiler_filename': None, 'ssl_private_key': '', 'password': '<ask>', 'request_queue_size': 5, 'ssl_certificate': '', 'cronjob': False, 'numthreads': None, 'quiet': False, 'interfaces': None, 'minthreads': None, 'timeout': 10, 'plain': False, 'nobanner': False}>"
p1298
asbasbasbag69
(g85
g71
NtRp1299
(dp1300
g74
(dp1301
sg83
g1204
sg76
(lp1302
g69
(g90
g71
NtRp1303
(dp1304
g74
(dp1305
g94
g95
ssg83
g1299
sg76
(lp1306
S'db_sessions'
p1307
asbag69
(g90
g71
NtRp1308
(dp1309
g74
(dp1310
g101
g102
ssg83
g1299
sg76
(lp1311
S':'
asbag69
(g90
g71
NtRp1312
(dp1313
g74
(dp1314
sg83
g1299
sg76
(lp1315
g69
(g70
g71
NtRp1316
(dp1317
g74
(dp1318
g82
I4
ssg83
g1312
sg76
(lp1319
S'set([])'
p1320
asbasbasbag69
(g85
g71
NtRp1321
(dp1322
g74
(dp1323
sg83
g1204
sg76
(lp1324
g69
(g90
g71
NtRp1325
(dp1326
g74
(dp1327
g94
g95
ssg83
g1321
sg76
(lp1328
S'debugging'
p1329
asbag69
(g90
g71
NtRp1330
(dp1331
g74
(dp1332
g101
g102
ssg83
g1321
sg76
(lp1333
S':'
asbag69
(g90
g71
NtRp1334
(dp1335
g74
(dp1336
sg83
g1321
sg76
(lp1337
g69
(g70
g71
NtRp1338
(dp1339
g74
(dp1340
g82
I4
ssg83
g1334
sg76
(lp1341
g112
asbasbasbag69
(g85
g71
NtRp1342
(dp1343
g74
(dp1344
sg83
g1204
sg76
(lp1345
g69
(g90
g71
NtRp1346
(dp1347
g74
(dp1348
g94
g95
ssg83
g1342
sg76
(lp1349
S'gluon_parent'
p1350
asbag69
(g90
g71
NtRp1351
(dp1352
g74
(dp1353
g101
g102
ssg83
g1342
sg76
(lp1354
S':'
asbag69
(g90
g71
NtRp1355
(dp1356
g74
(dp1357
sg83
g1342
sg76
(lp1358
g69
(g70
g71
NtRp1359
(dp1360
g74
(dp1361
g82
I4
ssg83
g1355
sg76
(lp1362
S'/home/maneesha/Downloads/web2py'
p1363
asbasbasbag69
(g85
g71
NtRp1364
(dp1365
g74
(dp1366
sg83
g1204
sg76
(lp1367
g69
(g90
g71
NtRp1368
(dp1369
g74
(dp1370
g94
g95
ssg83
g1364
sg76
(lp1371
S'http_accept'
p1372
asbag69
(g90
g71
NtRp1373
(dp1374
g74
(dp1375
g101
g102
ssg83
g1364
sg76
(lp1376
S':'
asbag69
(g90
g71
NtRp1377
(dp1378
g74
(dp1379
sg83
g1364
sg76
(lp1380
g69
(g70
g71
NtRp1381
(dp1382
g74
(dp1383
g82
I4
ssg83
g1377
sg76
(lp1384
S'text/html,application/xhtml+xml,application/xml;q=0.9,*/*;q=0.8'
p1385
asbasbasbag69
(g85
g71
NtRp1386
(dp1387
g74
(dp1388
sg83
g1204
sg76
(lp1389
g69
(g90
g71
NtRp1390
(dp1391
g74
(dp1392
g94
g95
ssg83
g1386
sg76
(lp1393
S'http_accept_encoding'
p1394
asbag69
(g90
g71
NtRp1395
(dp1396
g74
(dp1397
g101
g102
ssg83
g1386
sg76
(lp1398
S':'
asbag69
(g90
g71
NtRp1399
(dp1400
g74
(dp1401
sg83
g1386
sg76
(lp1402
g69
(g70
g71
NtRp1403
(dp1404
g74
(dp1405
g82
I4
ssg83
g1399
sg76
(lp1406
S'gzip, deflate'
p1407
asbasbasbag69
(g85
g71
NtRp1408
(dp1409
g74
(dp1410
sg83
g1204
sg76
(lp1411
g69
(g90
g71
NtRp1412
(dp1413
g74
(dp1414
g94
g95
ssg83
g1408
sg76
(lp1415
S'http_accept_language'
p1416
asbag69
(g90
g71
NtRp1417
(dp1418
g74
(dp1419
g101
g102
ssg83
g1408
sg76
(lp1420
S':'
asbag69
(g90
g71
NtRp1421
(dp1422
g74
(dp1423
sg83
g1408
sg76
(lp1424
g69
(g70
g71
NtRp1425
(dp1426
g74
(dp1427
g82
I4
ssg83
g1421
sg76
(lp1428
S'en-us,en;q=0.5'
p1429
asbasbasbag69
(g85
g71
NtRp1430
(dp1431
g74
(dp1432
sg83
g1204
sg76
(lp1433
g69
(g90
g71
NtRp1434
(dp1435
g74
(dp1436
g94
g95
ssg83
g1430
sg76
(lp1437
S'http_connection'
p1438
asbag69
(g90
g71
NtRp1439
(dp1440
g74
(dp1441
g101
g102
ssg83
g1430
sg76
(lp1442
S':'
asbag69
(g90
g71
NtRp1443
(dp1444
g74
(dp1445
sg83
g1430
sg76
(lp1446
g69
(g70
g71
NtRp1447
(dp1448
g74
(dp1449
g82
I4
ssg83
g1443
sg76
(lp1450
S'keep-alive'
p1451
asbasbasbag69
(g85
g71
NtRp1452
(dp1453
g74
(dp1454
sg83
g1204
sg76
(lp1455
g69
(g90
g71
NtRp1456
(dp1457
g74
(dp1458
g94
g95
ssg83
g1452
sg76
(lp1459
S'http_cookie'
p1460
asbag69
(g90
g71
NtRp1461
(dp1462
g74
(dp1463
g101
g102
ssg83
g1452
sg76
(lp1464
S':'
asbag69
(g90
g71
NtRp1465
(dp1466
g74
(dp1467
sg83
g1452
sg76
(lp1468
g69
(g70
g71
NtRp1469
(dp1470
g74
(dp1471
g82
I4
ssg83
g1465
sg76
(lp1472
S'session_id_welcome=127.0.0.1-c6f7920d-e28f-4499-aca2-c81d78057517; session_id_admin=127.0.0.1-cbb330dc-4a62-4ec7-a08c-d066f6cb7b08; session_id_cite_m1=127.0.0.1-7c41a6af-eedf-475e-8f92-c43a8a885ebf; session_id_proj_rough2=127.0.0.1-a4164488-e6bb-44b6-81ab-004c7a619db1; session_id_cite_m2=127.0.0.1-18beb486-26ea-4779-bf4f-d55c0a4d1287'
p1473
asbasbasbag69
(g85
g71
NtRp1474
(dp1475
g74
(dp1476
sg83
g1204
sg76
(lp1477
g69
(g90
g71
NtRp1478
(dp1479
g74
(dp1480
g94
g95
ssg83
g1474
sg76
(lp1481
S'http_host'
p1482
asbag69
(g90
g71
NtRp1483
(dp1484
g74
(dp1485
g101
g102
ssg83
g1474
sg76
(lp1486
S':'
asbag69
(g90
g71
NtRp1487
(dp1488
g74
(dp1489
sg83
g1474
sg76
(lp1490
g69
(g70
g71
NtRp1491
(dp1492
g74
(dp1493
g82
I4
ssg83
g1487
sg76
(lp1494
S'127.0.0.1:8000'
p1495
asbasbasbag69
(g85
g71
NtRp1496
(dp1497
g74
(dp1498
sg83
g1204
sg76
(lp1499
g69
(g90
g71
NtRp1500
(dp1501
g74
(dp1502
g94
g95
ssg83
g1496
sg76
(lp1503
S'http_user_agent'
p1504
asbag69
(g90
g71
NtRp1505
(dp1506
g74
(dp1507
g101
g102
ssg83
g1496
sg76
(lp1508
S':'
asbag69
(g90
g71
NtRp1509
(dp1510
g74
(dp1511
sg83
g1496
sg76
(lp1512
g69
(g70
g71
NtRp1513
(dp1514
g74
(dp1515
g82
I4
ssg83
g1509
sg76
(lp1516
S'Mozilla/5.0 (X11; Ubuntu; Linux x86_64; rv:15.0) Gecko/20100101 Firefox/15.0.1'
p1517
asbasbasbag69
(g85
g71
NtRp1518
(dp1519
g74
(dp1520
sg83
g1204
sg76
(lp1521
g69
(g90
g71
NtRp1522
(dp1523
g74
(dp1524
g94
g95
ssg83
g1518
sg76
(lp1525
S'is_jython'
p1526
asbag69
(g90
g71
NtRp1527
(dp1528
g74
(dp1529
g101
g102
ssg83
g1518
sg76
(lp1530
S':'
asbag69
(g90
g71
NtRp1531
(dp1532
g74
(dp1533
sg83
g1518
sg76
(lp1534
g69
(g70
g71
NtRp1535
(dp1536
g74
(dp1537
g82
I4
ssg83
g1531
sg76
(lp1538
g112
asbasbasbag69
(g85
g71
NtRp1539
(dp1540
g74
(dp1541
sg83
g1204
sg76
(lp1542
g69
(g90
g71
NtRp1543
(dp1544
g74
(dp1545
g94
g95
ssg83
g1539
sg76
(lp1546
S'is_pypy'
p1547
asbag69
(g90
g71
NtRp1548
(dp1549
g74
(dp1550
g101
g102
ssg83
g1539
sg76
(lp1551
S':'
asbag69
(g90
g71
NtRp1552
(dp1553
g74
(dp1554
sg83
g1539
sg76
(lp1555
g69
(g70
g71
NtRp1556
(dp1557
g74
(dp1558
g82
I4
ssg83
g1552
sg76
(lp1559
g112
asbasbasbag69
(g85
g71
NtRp1560
(dp1561
g74
(dp1562
sg83
g1204
sg76
(lp1563
g69
(g90
g71
NtRp1564
(dp1565
g74
(dp1566
g94
g95
ssg83
g1560
sg76
(lp1567
S'path_info'
p1568
asbag69
(g90
g71
NtRp1569
(dp1570
g74
(dp1571
g101
g102
ssg83
g1560
sg76
(lp1572
S':'
asbag69
(g90
g71
NtRp1573
(dp1574
g74
(dp1575
sg83
g1560
sg76
(lp1576
g69
(g70
g71
NtRp1577
(dp1578
g74
(dp1579
g82
I4
ssg83
g1573
sg76
(lp1580
S'/cite_m2/default/final_ans'
p1581
asbasbasbag69
(g85
g71
NtRp1582
(dp1583
g74
(dp1584
sg83
g1204
sg76
(lp1585
g69
(g90
g71
NtRp1586
(dp1587
g74
(dp1588
g94
g95
ssg83
g1582
sg76
(lp1589
S'query_string'
p1590
asbag69
(g90
g71
NtRp1591
(dp1592
g74
(dp1593
g101
g102
ssg83
g1582
sg76
(lp1594
S':'
asbag69
(g90
g71
NtRp1595
(dp1596
g74
(dp1597
sg83
g1582
sg76
(lp1598
g69
(g70
g71
NtRp1599
(dp1600
g74
(dp1601
g82
I4
ssg83
g1595
sg76
(lp1602
S''
asbasbasbag69
(g85
g71
NtRp1603
(dp1604
g74
(dp1605
sg83
g1204
sg76
(lp1606
g69
(g90
g71
NtRp1607
(dp1608
g74
(dp1609
g94
g95
ssg83
g1603
sg76
(lp1610
S'remote_addr'
p1611
asbag69
(g90
g71
NtRp1612
(dp1613
g74
(dp1614
g101
g102
ssg83
g1603
sg76
(lp1615
S':'
asbag69
(g90
g71
NtRp1616
(dp1617
g74
(dp1618
sg83
g1603
sg76
(lp1619
g69
(g70
g71
NtRp1620
(dp1621
g74
(dp1622
g82
I4
ssg83
g1616
sg76
(lp1623
g202
asbasbasbag69
(g85
g71
NtRp1624
(dp1625
g74
(dp1626
sg83
g1204
sg76
(lp1627
g69
(g90
g71
NtRp1628
(dp1629
g74
(dp1630
g94
g95
ssg83
g1624
sg76
(lp1631
S'remote_port'
p1632
asbag69
(g90
g71
NtRp1633
(dp1634
g74
(dp1635
g101
g102
ssg83
g1624
sg76
(lp1636
S':'
asbag69
(g90
g71
NtRp1637
(dp1638
g74
(dp1639
sg83
g1624
sg76
(lp1640
g69
(g70
g71
NtRp1641
(dp1642
g74
(dp1643
g82
I4
ssg83
g1637
sg76
(lp1644
S'54443'
p1645
asbasbasbag69
(g85
g71
NtRp1646
(dp1647
g74
(dp1648
sg83
g1204
sg76
(lp1649
g69
(g90
g71
NtRp1650
(dp1651
g74
(dp1652
g94
g95
ssg83
g1646
sg76
(lp1653
S'request_method'
p1654
asbag69
(g90
g71
NtRp1655
(dp1656
g74
(dp1657
g101
g102
ssg83
g1646
sg76
(lp1658
S':'
asbag69
(g90
g71
NtRp1659
(dp1660
g74
(dp1661
sg83
g1646
sg76
(lp1662
g69
(g70
g71
NtRp1663
(dp1664
g74
(dp1665
g82
I4
ssg83
g1659
sg76
(lp1666
S'GET'
p1667
asbasbasbag69
(g85
g71
NtRp1668
(dp1669
g74
(dp1670
sg83
g1204
sg76
(lp1671
g69
(g90
g71
NtRp1672
(dp1673
g74
(dp1674
g94
g95
ssg83
g1668
sg76
(lp1675
S'script_name'
p1676
asbag69
(g90
g71
NtRp1677
(dp1678
g74
(dp1679
g101
g102
ssg83
g1668
sg76
(lp1680
S':'
asbag69
(g90
g71
NtRp1681
(dp1682
g74
(dp1683
sg83
g1668
sg76
(lp1684
g69
(g70
g71
NtRp1685
(dp1686
g74
(dp1687
g82
I4
ssg83
g1681
sg76
(lp1688
S''
asbasbasbag69
(g85
g71
NtRp1689
(dp1690
g74
(dp1691
sg83
g1204
sg76
(lp1692
g69
(g90
g71
NtRp1693
(dp1694
g74
(dp1695
g94
g95
ssg83
g1689
sg76
(lp1696
S'server_name'
p1697
asbag69
(g90
g71
NtRp1698
(dp1699
g74
(dp1700
g101
g102
ssg83
g1689
sg76
(lp1701
S':'
asbag69
(g90
g71
NtRp1702
(dp1703
g74
(dp1704
sg83
g1689
sg76
(lp1705
g69
(g70
g71
NtRp1706
(dp1707
g74
(dp1708
g82
I4
ssg83
g1702
sg76
(lp1709
S'maneesha-Inspiron-N5050'
p1710
asbasbasbag69
(g85
g71
NtRp1711
(dp1712
g74
(dp1713
sg83
g1204
sg76
(lp1714
g69
(g90
g71
NtRp1715
(dp1716
g74
(dp1717
g94
g95
ssg83
g1711
sg76
(lp1718
S'server_port'
p1719
asbag69
(g90
g71
NtRp1720
(dp1721
g74
(dp1722
g101
g102
ssg83
g1711
sg76
(lp1723
S':'
asbag69
(g90
g71
NtRp1724
(dp1725
g74
(dp1726
sg83
g1711
sg76
(lp1727
g69
(g70
g71
NtRp1728
(dp1729
g74
(dp1730
g82
I4
ssg83
g1724
sg76
(lp1731
S'8000'
p1732
asbasbasbag69
(g85
g71
NtRp1733
(dp1734
g74
(dp1735
sg83
g1204
sg76
(lp1736
g69
(g90
g71
NtRp1737
(dp1738
g74
(dp1739
g94
g95
ssg83
g1733
sg76
(lp1740
S'server_protocol'
p1741
asbag69
(g90
g71
NtRp1742
(dp1743
g74
(dp1744
g101
g102
ssg83
g1733
sg76
(lp1745
S':'
asbag69
(g90
g71
NtRp1746
(dp1747
g74
(dp1748
sg83
g1733
sg76
(lp1749
g69
(g70
g71
NtRp1750
(dp1751
g74
(dp1752
g82
I4
ssg83
g1746
sg76
(lp1753
S'HTTP/1.1'
p1754
asbasbasbag69
(g85
g71
NtRp1755
(dp1756
g74
(dp1757
sg83
g1204
sg76
(lp1758
g69
(g90
g71
NtRp1759
(dp1760
g74
(dp1761
g94
g95
ssg83
g1755
sg76
(lp1762
S'server_software'
p1763
asbag69
(g90
g71
NtRp1764
(dp1765
g74
(dp1766
g101
g102
ssg83
g1755
sg76
(lp1767
S':'
asbag69
(g90
g71
NtRp1768
(dp1769
g74
(dp1770
sg83
g1755
sg76
(lp1771
g69
(g70
g71
NtRp1772
(dp1773
g74
(dp1774
g82
I4
ssg83
g1768
sg76
(lp1775
S'Rocket 1.2.4'
p1776
asbasbasbag69
(g85
g71
NtRp1777
(dp1778
g74
(dp1779
sg83
g1204
sg76
(lp1780
g69
(g90
g71
NtRp1781
(dp1782
g74
(dp1783
g94
g95
ssg83
g1777
sg76
(lp1784
S'web2py_crontype'
p1785
asbag69
(g90
g71
NtRp1786
(dp1787
g74
(dp1788
g101
g102
ssg83
g1777
sg76
(lp1789
S':'
asbag69
(g90
g71
NtRp1790
(dp1791
g74
(dp1792
sg83
g1777
sg76
(lp1793
g69
(g70
g71
NtRp1794
(dp1795
g74
(dp1796
g82
I4
ssg83
g1790
sg76
(lp1797
S'hard'
p1798
asbasbasbag69
(g85
g71
NtRp1799
(dp1800
g74
(dp1801
sg83
g1204
sg76
(lp1802
g69
(g90
g71
NtRp1803
(dp1804
g74
(dp1805
g94
g95
ssg83
g1799
sg76
(lp1806
S'web2py_path'
p1807
asbag69
(g90
g71
NtRp1808
(dp1809
g74
(dp1810
g101
g102
ssg83
g1799
sg76
(lp1811
S':'
asbag69
(g90
g71
NtRp1812
(dp1813
g74
(dp1814
sg83
g1799
sg76
(lp1815
g69
(g70
g71
NtRp1816
(dp1817
g74
(dp1818
g82
I4
ssg83
g1812
sg76
(lp1819
g1251
asbasbasbag69
(g85
g71
NtRp1820
(dp1821
g74
(dp1822
sg83
g1204
sg76
(lp1823
g69
(g90
g71
NtRp1824
(dp1825
g74
(dp1826
g94
g95
ssg83
g1820
sg76
(lp1827
S'web2py_version'
p1828
asbag69
(g90
g71
NtRp1829
(dp1830
g74
(dp1831
g101
g102
ssg83
g1820
sg76
(lp1832
S':'
asbag69
(g90
g71
NtRp1833
(dp1834
g74
(dp1835
sg83
g1820
sg76
(lp1836
g69
(g70
g71
NtRp1837
(dp1838
g74
(dp1839
g82
I4
ssg83
g1833
sg76
(lp1840
g69
(g78
g71
NtRp1841
(dp1842
g74
(dp1843
g82
I3
ssg83
Nsg76
(lp1844
g69
(g85
g71
NtRp1845
(dp1846
g74
(dp1847
sg83
g1841
sg76
(lp1848
g69
(g90
g71
NtRp1849
(dp1850
g74
(dp1851
sg83
g1845
sg76
(lp1852
g69
(g70
g71
NtRp1853
(dp1854
g74
(dp1855
g82
I3
ssg83
g1849
sg76
(lp1856
S'1'
asbasbasbag69
(g85
g71
NtRp1857
(dp1858
g74
(dp1859
sg83
g1841
sg76
(lp1860
g69
(g90
g71
NtRp1861
(dp1862
g74
(dp1863
sg83
g1857
sg76
(lp1864
g69
(g70
g71
NtRp1865
(dp1866
g74
(dp1867
g82
I3
ssg83
g1861
sg76
(lp1868
S'99'
p1869
asbasbasbag69
(g85
g71
NtRp1870
(dp1871
g74
(dp1872
sg83
g1841
sg76
(lp1873
g69
(g90
g71
NtRp1874
(dp1875
g74
(dp1876
sg83
g1870
sg76
(lp1877
g69
(g70
g71
NtRp1878
(dp1879
g74
(dp1880
g82
I3
ssg83
g1874
sg76
(lp1881
S'7'
asbasbasbag69
(g85
g71
NtRp1882
(dp1883
g74
(dp1884
sg83
g1841
sg76
(lp1885
g69
(g90
g71
NtRp1886
(dp1887
g74
(dp1888
sg83
g1882
sg76
(lp1889
g69
(g70
g71
NtRp1890
(dp1891
g74
(dp1892
g82
I3
ssg83
g1886
sg76
(lp1893
S'datetime.datetime(2012, 3, 4, 22, 12, 8)'
p1894
asbasbasbag69
(g85
g71
NtRp1895
(dp1896
g74
(dp1897
sg83
g1841
sg76
(lp1898
g69
(g90
g71
NtRp1899
(dp1900
g74
(dp1901
sg83
g1895
sg76
(lp1902
g69
(g70
g71
NtRp1903
(dp1904
g74
(dp1905
g82
I3
ssg83
g1899
sg76
(lp1906
S'stable'
p1907
asbasbasbasbasbasbasbag69
(g85
g71
NtRp1908
(dp1909
g74
(dp1910
sg83
g1204
sg76
(lp1911
g69
(g90
g71
NtRp1912
(dp1913
g74
(dp1914
g94
g95
ssg83
g1908
sg76
(lp1915
S'wsgi_errors'
p1916
asbag69
(g90
g71
NtRp1917
(dp1918
g74
(dp1919
g101
g102
ssg83
g1908
sg76
(lp1920
S':'
asbag69
(g90
g71
NtRp1921
(dp1922
g74
(dp1923
sg83
g1908
sg76
(lp1924
g69
(g70
g71
NtRp1925
(dp1926
g74
(dp1927
g82
I4
ssg83
g1921
sg76
(lp1928
S"<open file '<stderr>', mode 'w' at 0x7fe2722a9270>"
p1929
asbasbasbag69
(g85
g71
NtRp1930
(dp1931
g74
(dp1932
sg83
g1204
sg76
(lp1933
g69
(g90
g71
NtRp1934
(dp1935
g74
(dp1936
g94
g95
ssg83
g1930
sg76
(lp1937
S'wsgi_file_wrapper'
p1938
asbag69
(g90
g71
NtRp1939
(dp1940
g74
(dp1941
g101
g102
ssg83
g1930
sg76
(lp1942
S':'
asbag69
(g90
g71
NtRp1943
(dp1944
g74
(dp1945
sg83
g1930
sg76
(lp1946
g69
(g70
g71
NtRp1947
(dp1948
g74
(dp1949
g82
I4
ssg83
g1943
sg76
(lp1950
S'<class wsgiref.util.FileWrapper at 0x318fef0>'
p1951
asbasbasbag69
(g85
g71
NtRp1952
(dp1953
g74
(dp1954
sg83
g1204
sg76
(lp1955
g69
(g90
g71
NtRp1956
(dp1957
g74
(dp1958
g94
g95
ssg83
g1952
sg76
(lp1959
S'wsgi_input'
p1960
asbag69
(g90
g71
NtRp1961
(dp1962
g74
(dp1963
g101
g102
ssg83
g1952
sg76
(lp1964
S':'
asbag69
(g90
g71
NtRp1965
(dp1966
g74
(dp1967
sg83
g1952
sg76
(lp1968
g69
(g70
g71
NtRp1969
(dp1970
g74
(dp1971
g82
I4
ssg83
g1965
sg76
(lp1972
S'<socket._fileobject object at 0x7fe2402228d0>'
p1973
asbasbasbag69
(g85
g71
NtRp1974
(dp1975
g74
(dp1976
sg83
g1204
sg76
(lp1977
g69
(g90
g71
NtRp1978
(dp1979
g74
(dp1980
g94
g95
ssg83
g1974
sg76
(lp1981
S'wsgi_multiprocess'
p1982
asbag69
(g90
g71
NtRp1983
(dp1984
g74
(dp1985
g101
g102
ssg83
g1974
sg76
(lp1986
S':'
asbag69
(g90
g71
NtRp1987
(dp1988
g74
(dp1989
sg83
g1974
sg76
(lp1990
g69
(g70
g71
NtRp1991
(dp1992
g74
(dp1993
g82
I4
ssg83
g1987
sg76
(lp1994
g112
asbasbasbag69
(g85
g71
NtRp1995
(dp1996
g74
(dp1997
sg83
g1204
sg76
(lp1998
g69
(g90
g71
NtRp1999
(dp2000
g74
(dp2001
g94
g95
ssg83
g1995
sg76
(lp2002
S'wsgi_multithread'
p2003
asbag69
(g90
g71
NtRp2004
(dp2005
g74
(dp2006
g101
g102
ssg83
g1995
sg76
(lp2007
S':'
asbag69
(g90
g71
NtRp2008
(dp2009
g74
(dp2010
sg83
g1995
sg76
(lp2011
g69
(g70
g71
NtRp2012
(dp2013
g74
(dp2014
g82
I4
ssg83
g2008
sg76
(lp2015
S'True'
p2016
asbasbasbag69
(g85
g71
NtRp2017
(dp2018
g74
(dp2019
sg83
g1204
sg76
(lp2020
g69
(g90
g71
NtRp2021
(dp2022
g74
(dp2023
g94
g95
ssg83
g2017
sg76
(lp2024
S'wsgi_run_once'
p2025
asbag69
(g90
g71
NtRp2026
(dp2027
g74
(dp2028
g101
g102
ssg83
g2017
sg76
(lp2029
S':'
asbag69
(g90
g71
NtRp2030
(dp2031
g74
(dp2032
sg83
g2017
sg76
(lp2033
g69
(g70
g71
NtRp2034
(dp2035
g74
(dp2036
g82
I4
ssg83
g2030
sg76
(lp2037
g112
asbasbasbag69
(g85
g71
NtRp2038
(dp2039
g74
(dp2040
sg83
g1204
sg76
(lp2041
g69
(g90
g71
NtRp2042
(dp2043
g74
(dp2044
g94
g95
ssg83
g2038
sg76
(lp2045
S'wsgi_url_scheme'
p2046
asbag69
(g90
g71
NtRp2047
(dp2048
g74
(dp2049
g101
g102
ssg83
g2038
sg76
(lp2050
S':'
asbag69
(g90
g71
NtRp2051
(dp2052
g74
(dp2053
sg83
g2038
sg76
(lp2054
g69
(g70
g71
NtRp2055
(dp2056
g74
(dp2057
g82
I4
ssg83
g2051
sg76
(lp2058
S'http'
p2059
asbasbasbag69
(g85
g71
NtRp2060
(dp2061
g74
(dp2062
sg83
g1204
sg76
(lp2063
g69
(g90
g71
NtRp2064
(dp2065
g74
(dp2066
g94
g95
ssg83
g2060
sg76
(lp2067
S'wsgi_version'
p2068
asbag69
(g90
g71
NtRp2069
(dp2070
g74
(dp2071
g101
g102
ssg83
g2060
sg76
(lp2072
S':'
asbag69
(g90
g71
NtRp2073
(dp2074
g74
(dp2075
sg83
g2060
sg76
(lp2076
g69
(g70
g71
NtRp2077
(dp2078
g74
(dp2079
g82
I4
ssg83
g2073
sg76
(lp2080
g69
(g78
g71
NtRp2081
(dp2082
g74
(dp2083
g82
I3
ssg83
Nsg76
(lp2084
g69
(g85
g71
NtRp2085
(dp2086
g74
(dp2087
sg83
g2081
sg76
(lp2088
g69
(g90
g71
NtRp2089
(dp2090
g74
(dp2091
sg83
g2085
sg76
(lp2092
g69
(g70
g71
NtRp2093
(dp2094
g74
(dp2095
g82
I3
ssg83
g2089
sg76
(lp2096
S'1'
asbasbasbag69
(g85
g71
NtRp2097
(dp2098
g74
(dp2099
sg83
g2081
sg76
(lp2100
g69
(g90
g71
NtRp2101
(dp2102
g74
(dp2103
sg83
g2097
sg76
(lp2104
g69
(g70
g71
NtRp2105
(dp2106
g74
(dp2107
g82
I3
ssg83
g2101
sg76
(lp2108
S'0'
asbasbasbasbasbasbasbasbasbasbasbag69
(g85
g71
NtRp2109
(dp2110
g74
(dp2111
sg83
g79
sg76
(lp2112
g69
(g90
g71
NtRp2113
(dp2114
g74
(dp2115
g94
g95
ssg83
g2109
sg76
(lp2116
S'extension'
p2117
asbag69
(g90
g71
NtRp2118
(dp2119
g74
(dp2120
g101
g102
ssg83
g2109
sg76
(lp2121
S':'
asbag69
(g90
g71
NtRp2122
(dp2123
g74
(dp2124
sg83
g2109
sg76
(lp2125
g69
(g70
g71
NtRp2126
(dp2127
g74
(dp2128
g82
I5
ssg83
g2122
sg76
(lp2129
S'html'
p2130
asbasbasbag69
(g85
g71
NtRp2131
(dp2132
g74
(dp2133
sg83
g79
sg76
(lp2134
g69
(g90
g71
NtRp2135
(dp2136
g74
(dp2137
g94
g95
ssg83
g2131
sg76
(lp2138
S'folder'
p2139
asbag69
(g90
g71
NtRp2140
(dp2141
g74
(dp2142
g101
g102
ssg83
g2131
sg76
(lp2143
S':'
asbag69
(g90
g71
NtRp2144
(dp2145
g74
(dp2146
sg83
g2131
sg76
(lp2147
g69
(g70
g71
NtRp2148
(dp2149
g74
(dp2150
g82
I5
ssg83
g2144
sg76
(lp2151
S'/home/maneesha/Downloads/web2py/applications/cite_m2/'
p2152
asbasbasbag69
(g85
g71
NtRp2153
(dp2154
g74
(dp2155
sg83
g79
sg76
(lp2156
g69
(g90
g71
NtRp2157
(dp2158
g74
(dp2159
g94
g95
ssg83
g2153
sg76
(lp2160
S'function'
p2161
asbag69
(g90
g71
NtRp2162
(dp2163
g74
(dp2164
g101
g102
ssg83
g2153
sg76
(lp2165
S':'
asbag69
(g90
g71
NtRp2166
(dp2167
g74
(dp2168
sg83
g2153
sg76
(lp2169
g69
(g70
g71
NtRp2170
(dp2171
g74
(dp2172
g82
I5
ssg83
g2166
sg76
(lp2173
S'final_ans'
p2174
asbasbasbag69
(g85
g71
NtRp2175
(dp2176
g74
(dp2177
sg83
g79
sg76
(lp2178
g69
(g90
g71
NtRp2179
(dp2180
g74
(dp2181
g94
g95
ssg83
g2175
sg76
(lp2182
S'get_vars'
p2183
asbag69
(g90
g71
NtRp2184
(dp2185
g74
(dp2186
g101
g102
ssg83
g2175
sg76
(lp2187
S':'
asbag69
(g90
g71
NtRp2188
(dp2189
g74
(dp2190
sg83
g2175
sg76
(lp2191
g69
(g70
g71
NtRp2192
(dp2193
g74
(dp2194
g82
I5
ssg83
g2188
sg76
(lp2195
g69
(g78
g71
NtRp2196
(dp2197
g74
(dp2198
g82
I4
ssg83
Nsg76
(lp2199
sbasbasbasbag69
(g85
g71
NtRp2200
(dp2201
g74
(dp2202
sg83
g79
sg76
(lp2203
g69
(g90
g71
NtRp2204
(dp2205
g74
(dp2206
g94
g95
ssg83
g2200
sg76
(lp2207
S'global_settings'
p2208
asbag69
(g90
g71
NtRp2209
(dp2210
g74
(dp2211
g101
g102
ssg83
g2200
sg76
(lp2212
S':'
asbag69
(g90
g71
NtRp2213
(dp2214
g74
(dp2215
sg83
g2200
sg76
(lp2216
g69
(g70
g71
NtRp2217
(dp2218
g74
(dp2219
g82
I5
ssg83
g2213
sg76
(lp2220
g69
(g78
g71
NtRp2221
(dp2222
g74
(dp2223
g82
I4
ssg83
Nsg76
(lp2224
g69
(g85
g71
NtRp2225
(dp2226
g74
(dp2227
sg83
g2221
sg76
(lp2228
g69
(g90
g71
NtRp2229
(dp2230
g74
(dp2231
g94
g95
ssg83
g2225
sg76
(lp2232
g1216
asbag69
(g90
g71
NtRp2233
(dp2234
g74
(dp2235
g101
g102
ssg83
g2225
sg76
(lp2236
S':'
asbag69
(g90
g71
NtRp2237
(dp2238
g74
(dp2239
sg83
g2225
sg76
(lp2240
g69
(g70
g71
NtRp2241
(dp2242
g74
(dp2243
g82
I4
ssg83
g2237
sg76
(lp2244
S"set(['/home/maneesha/Downloads/web2py/applications/welcome/', '/home/maneesha/Downloads/web2py/applications/admin/', '/home/maneesha/Downloads/web2py/applications/cite_m1/', '/home/maneesha/Downloads/web2py/applications/cite_m2/', '/home/maneesha/Downloads/web2py/applications/proj_rough2/'])"
p2245
asbasbasbag69
(g85
g71
NtRp2246
(dp2247
g74
(dp2248
sg83
g2221
sg76
(lp2249
g69
(g90
g71
NtRp2250
(dp2251
g74
(dp2252
g94
g95
ssg83
g2246
sg76
(lp2253
g1238
asbag69
(g90
g71
NtRp2254
(dp2255
g74
(dp2256
g101
g102
ssg83
g2246
sg76
(lp2257
S':'
asbag69
(g90
g71
NtRp2258
(dp2259
g74
(dp2260
sg83
g2246
sg76
(lp2261
g69
(g70
g71
NtRp2262
(dp2263
g74
(dp2264
g82
I4
ssg83
g2258
sg76
(lp2265
g1251
asbasbasbag69
(g85
g71
NtRp2266
(dp2267
g74
(dp2268
sg83
g2221
sg76
(lp2269
g69
(g90
g71
NtRp2270
(dp2271
g74
(dp2272
g94
g95
ssg83
g2266
sg76
(lp2273
g1260
asbag69
(g90
g71
NtRp2274
(dp2275
g74
(dp2276
g101
g102
ssg83
g2266
sg76
(lp2277
S':'
asbag69
(g90
g71
NtRp2278
(dp2279
g74
(dp2280
sg83
g2266
sg76
(lp2281
g69
(g70
g71
NtRp2282
(dp2283
g74
(dp2284
g82
I4
ssg83
g2278
sg76
(lp2285
g69
(g78
g71
NtRp2286
(dp2287
g74
(dp2288
g82
I3
ssg83
Nsg76
(lp2289
sbasbasbasbag69
(g85
g71
NtRp2290
(dp2291
g74
(dp2292
sg83
g2221
sg76
(lp2293
g69
(g90
g71
NtRp2294
(dp2295
g74
(dp2296
g94
g95
ssg83
g2290
sg76
(lp2297
g1285
asbag69
(g90
g71
NtRp2298
(dp2299
g74
(dp2300
g101
g102
ssg83
g2290
sg76
(lp2301
S':'
asbag69
(g90
g71
NtRp2302
(dp2303
g74
(dp2304
sg83
g2290
sg76
(lp2305
g69
(g70
g71
NtRp2306
(dp2307
g74
(dp2308
g82
I4
ssg83
g2302
sg76
(lp2309
S"<Values at 0x32c0950: {'verbose': False, 'ip': '127.0.0.1', 'shutdown_timeout': 5, 'taskbar': False, 'nocron': False, 'pid_filename': 'httpserver.pid', 'maxthreads': None, 'softcron': False, 'server_name': 'maneesha-Inspiron-N5050', 'bpython': False, 'nogui': False, 'port': 8000, 'extcron': False, 'debuglevel': 30, 'test': None, 'folder': '/home/maneesha/Downloads/web2py', 'config': '', 'import_models': False, 'winservice': '', 'shell': None, 'run': '', 'log_filename': 'httpserver.log', 'args': [''], 'socket_timeout': 5, 'ssl_ca_certificate': None, 'scheduler': None, 'profiler_filename': None, 'ssl_private_key': '', 'password': '<ask>', 'request_queue_size': 5, 'ssl_certificate': '', 'cronjob': False, 'numthreads': None, 'quiet': False, 'interfaces': None, 'minthreads': None, 'timeout': 10, 'plain': False, 'nobanner': False}>"
p2310
asbasbasbag69
(g85
g71
NtRp2311
(dp2312
g74
(dp2313
sg83
g2221
sg76
(lp2314
g69
(g90
g71
NtRp2315
(dp2316
g74
(dp2317
g94
g95
ssg83
g2311
sg76
(lp2318
g1307
asbag69
(g90
g71
NtRp2319
(dp2320
g74
(dp2321
g101
g102
ssg83
g2311
sg76
(lp2322
S':'
asbag69
(g90
g71
NtRp2323
(dp2324
g74
(dp2325
sg83
g2311
sg76
(lp2326
g69
(g70
g71
NtRp2327
(dp2328
g74
(dp2329
g82
I4
ssg83
g2323
sg76
(lp2330
S'set([])'
p2331
asbasbasbag69
(g85
g71
NtRp2332
(dp2333
g74
(dp2334
sg83
g2221
sg76
(lp2335
g69
(g90
g71
NtRp2336
(dp2337
g74
(dp2338
g94
g95
ssg83
g2332
sg76
(lp2339
g1329
asbag69
(g90
g71
NtRp2340
(dp2341
g74
(dp2342
g101
g102
ssg83
g2332
sg76
(lp2343
S':'
asbag69
(g90
g71
NtRp2344
(dp2345
g74
(dp2346
sg83
g2332
sg76
(lp2347
g69
(g70
g71
NtRp2348
(dp2349
g74
(dp2350
g82
I4
ssg83
g2344
sg76
(lp2351
g112
asbasbasbag69
(g85
g71
NtRp2352
(dp2353
g74
(dp2354
sg83
g2221
sg76
(lp2355
g69
(g90
g71
NtRp2356
(dp2357
g74
(dp2358
g94
g95
ssg83
g2352
sg76
(lp2359
g1350
asbag69
(g90
g71
NtRp2360
(dp2361
g74
(dp2362
g101
g102
ssg83
g2352
sg76
(lp2363
S':'
asbag69
(g90
g71
NtRp2364
(dp2365
g74
(dp2366
sg83
g2352
sg76
(lp2367
g69
(g70
g71
NtRp2368
(dp2369
g74
(dp2370
g82
I4
ssg83
g2364
sg76
(lp2371
g1363
asbasbasbag69
(g85
g71
NtRp2372
(dp2373
g74
(dp2374
sg83
g2221
sg76
(lp2375
g69
(g90
g71
NtRp2376
(dp2377
g74
(dp2378
g94
g95
ssg83
g2372
sg76
(lp2379
g1526
asbag69
(g90
g71
NtRp2380
(dp2381
g74
(dp2382
g101
g102
ssg83
g2372
sg76
(lp2383
S':'
asbag69
(g90
g71
NtRp2384
(dp2385
g74
(dp2386
sg83
g2372
sg76
(lp2387
g69
(g70
g71
NtRp2388
(dp2389
g74
(dp2390
g82
I4
ssg83
g2384
sg76
(lp2391
g112
asbasbasbag69
(g85
g71
NtRp2392
(dp2393
g74
(dp2394
sg83
g2221
sg76
(lp2395
g69
(g90
g71
NtRp2396
(dp2397
g74
(dp2398
g94
g95
ssg83
g2392
sg76
(lp2399
g1547
asbag69
(g90
g71
NtRp2400
(dp2401
g74
(dp2402
g101
g102
ssg83
g2392
sg76
(lp2403
S':'
asbag69
(g90
g71
NtRp2404
(dp2405
g74
(dp2406
sg83
g2392
sg76
(lp2407
g69
(g70
g71
NtRp2408
(dp2409
g74
(dp2410
g82
I4
ssg83
g2404
sg76
(lp2411
g112
asbasbasbag69
(g85
g71
NtRp2412
(dp2413
g74
(dp2414
sg83
g2221
sg76
(lp2415
g69
(g90
g71
NtRp2416
(dp2417
g74
(dp2418
g94
g95
ssg83
g2412
sg76
(lp2419
g1785
asbag69
(g90
g71
NtRp2420
(dp2421
g74
(dp2422
g101
g102
ssg83
g2412
sg76
(lp2423
S':'
asbag69
(g90
g71
NtRp2424
(dp2425
g74
(dp2426
sg83
g2412
sg76
(lp2427
g69
(g70
g71
NtRp2428
(dp2429
g74
(dp2430
g82
I4
ssg83
g2424
sg76
(lp2431
g1798
asbasbasbag69
(g85
g71
NtRp2432
(dp2433
g74
(dp2434
sg83
g2221
sg76
(lp2435
g69
(g90
g71
NtRp2436
(dp2437
g74
(dp2438
g94
g95
ssg83
g2432
sg76
(lp2439
g1828
asbag69
(g90
g71
NtRp2440
(dp2441
g74
(dp2442
g101
g102
ssg83
g2432
sg76
(lp2443
S':'
asbag69
(g90
g71
NtRp2444
(dp2445
g74
(dp2446
sg83
g2432
sg76
(lp2447
g69
(g70
g71
NtRp2448
(dp2449
g74
(dp2450
g82
I4
ssg83
g2444
sg76
(lp2451
g69
(g78
g71
NtRp2452
(dp2453
g74
(dp2454
g82
I3
ssg83
Nsg76
(lp2455
g69
(g85
g71
NtRp2456
(dp2457
g74
(dp2458
sg83
g2452
sg76
(lp2459
g69
(g90
g71
NtRp2460
(dp2461
g74
(dp2462
sg83
g2456
sg76
(lp2463
g69
(g70
g71
NtRp2464
(dp2465
g74
(dp2466
g82
I3
ssg83
g2460
sg76
(lp2467
S'1'
asbasbasbag69
(g85
g71
NtRp2468
(dp2469
g74
(dp2470
sg83
g2452
sg76
(lp2471
g69
(g90
g71
NtRp2472
(dp2473
g74
(dp2474
sg83
g2468
sg76
(lp2475
g69
(g70
g71
NtRp2476
(dp2477
g74
(dp2478
g82
I3
ssg83
g2472
sg76
(lp2479
S'99'
p2480
asbasbasbag69
(g85
g71
NtRp2481
(dp2482
g74
(dp2483
sg83
g2452
sg76
(lp2484
g69
(g90
g71
NtRp2485
(dp2486
g74
(dp2487
sg83
g2481
sg76
(lp2488
g69
(g70
g71
NtRp2489
(dp2490
g74
(dp2491
g82
I3
ssg83
g2485
sg76
(lp2492
S'7'
asbasbasbag69
(g85
g71
NtRp2493
(dp2494
g74
(dp2495
sg83
g2452
sg76
(lp2496
g69
(g90
g71
NtRp2497
(dp2498
g74
(dp2499
sg83
g2493
sg76
(lp2500
g69
(g70
g71
NtRp2501
(dp2502
g74
(dp2503
g82
I3
ssg83
g2497
sg76
(lp2504
S'datetime.datetime(2012, 3, 4, 22, 12, 8)'
p2505
asbasbasbag69
(g85
g71
NtRp2506
(dp2507
g74
(dp2508
sg83
g2452
sg76
(lp2509
g69
(g90
g71
NtRp2510
(dp2511
g74
(dp2512
sg83
g2506
sg76
(lp2513
g69
(g70
g71
NtRp2514
(dp2515
g74
(dp2516
g82
I3
ssg83
g2510
sg76
(lp2517
g1907
asbasbasbasbasbasbasbasbasbasbasbag69
(g85
g71
NtRp2518
(dp2519
g74
(dp2520
sg83
g79
sg76
(lp2521
g69
(g90
g71
NtRp2522
(dp2523
g74
(dp2524
g94
g95
ssg83
g2518
sg76
(lp2525
S'is_https'
p2526
asbag69
(g90
g71
NtRp2527
(dp2528
g74
(dp2529
g101
g102
ssg83
g2518
sg76
(lp2530
S':'
asbag69
(g90
g71
NtRp2531
(dp2532
g74
(dp2533
sg83
g2518
sg76
(lp2534
g69
(g70
g71
NtRp2535
(dp2536
g74
(dp2537
g82
I5
ssg83
g2531
sg76
(lp2538
g112
asbasbasbag69
(g85
g71
NtRp2539
(dp2540
g74
(dp2541
sg83
g79
sg76
(lp2542
g69
(g90
g71
NtRp2543
(dp2544
g74
(dp2545
g94
g95
ssg83
g2539
sg76
(lp2546
S'is_local'
p2547
asbag69
(g90
g71
NtRp2548
(dp2549
g74
(dp2550
g101
g102
ssg83
g2539
sg76
(lp2551
S':'
asbag69
(g90
g71
NtRp2552
(dp2553
g74
(dp2554
sg83
g2539
sg76
(lp2555
g69
(g70
g71
NtRp2556
(dp2557
g74
(dp2558
g82
I5
ssg83
g2552
sg76
(lp2559
g2016
asbasbasbag69
(g85
g71
NtRp2560
(dp2561
g74
(dp2562
sg83
g79
sg76
(lp2563
g69
(g90
g71
NtRp2564
(dp2565
g74
(dp2566
g94
g95
ssg83
g2560
sg76
(lp2567
S'is_restful'
p2568
asbag69
(g90
g71
NtRp2569
(dp2570
g74
(dp2571
g101
g102
ssg83
g2560
sg76
(lp2572
S':'
asbag69
(g90
g71
NtRp2573
(dp2574
g74
(dp2575
sg83
g2560
sg76
(lp2576
g69
(g70
g71
NtRp2577
(dp2578
g74
(dp2579
g82
I5
ssg83
g2573
sg76
(lp2580
g112
asbasbasbag69
(g85
g71
NtRp2581
(dp2582
g74
(dp2583
sg83
g79
sg76
(lp2584
g69
(g90
g71
NtRp2585
(dp2586
g74
(dp2587
g94
g95
ssg83
g2581
sg76
(lp2588
S'now'
p2589
asbag69
(g90
g71
NtRp2590
(dp2591
g74
(dp2592
g101
g102
ssg83
g2581
sg76
(lp2593
S':'
asbag69
(g90
g71
NtRp2594
(dp2595
g74
(dp2596
sg83
g2581
sg76
(lp2597
g69
(g70
g71
NtRp2598
(dp2599
g74
(dp2600
g82
I5
ssg83
g2594
sg76
(lp2601
S'datetime.datetime(2012, 10, 23, 23, 38, 57, 359007)'
p2602
asbasbasbag69
(g85
g71
NtRp2603
(dp2604
g74
(dp2605
sg83
g79
sg76
(lp2606
g69
(g90
g71
NtRp2607
(dp2608
g74
(dp2609
g94
g95
ssg83
g2603
sg76
(lp2610
S'post_vars'
p2611
asbag69
(g90
g71
NtRp2612
(dp2613
g74
(dp2614
g101
g102
ssg83
g2603
sg76
(lp2615
S':'
asbag69
(g90
g71
NtRp2616
(dp2617
g74
(dp2618
sg83
g2603
sg76
(lp2619
g69
(g70
g71
NtRp2620
(dp2621
g74
(dp2622
g82
I5
ssg83
g2616
sg76
(lp2623
g69
(g78
g71
NtRp2624
(dp2625
g74
(dp2626
g82
I4
ssg83
Nsg76
(lp2627
sbasbasbasbag69
(g85
g71
NtRp2628
(dp2629
g74
(dp2630
sg83
g79
sg76
(lp2631
g69
(g90
g71
NtRp2632
(dp2633
g74
(dp2634
g94
g95
ssg83
g2628
sg76
(lp2635
S'url'
p2636
asbag69
(g90
g71
NtRp2637
(dp2638
g74
(dp2639
g101
g102
ssg83
g2628
sg76
(lp2640
S':'
asbag69
(g90
g71
NtRp2641
(dp2642
g74
(dp2643
sg83
g2628
sg76
(lp2644
g69
(g70
g71
NtRp2645
(dp2646
g74
(dp2647
g82
I5
ssg83
g2641
sg76
(lp2648
S'/cite_m2/default/final_ans'
p2649
asbasbasbag69
(g85
g71
NtRp2650
(dp2651
g74
(dp2652
sg83
g79
sg76
(lp2653
g69
(g90
g71
NtRp2654
(dp2655
g74
(dp2656
g94
g95
ssg83
g2650
sg76
(lp2657
S'utcnow'
p2658
asbag69
(g90
g71
NtRp2659
(dp2660
g74
(dp2661
g101
g102
ssg83
g2650
sg76
(lp2662
S':'
asbag69
(g90
g71
NtRp2663
(dp2664
g74
(dp2665
sg83
g2650
sg76
(lp2666
g69
(g70
g71
NtRp2667
(dp2668
g74
(dp2669
g82
I5
ssg83
g2663
sg76
(lp2670
S'datetime.datetime(2012, 10, 23, 18, 8, 57, 359083)'
p2671
asbasbasbag69
(g85
g71
NtRp2672
(dp2673
g74
(dp2674
sg83
g79
sg76
(lp2675
g69
(g90
g71
NtRp2676
(dp2677
g74
(dp2678
g94
g95
ssg83
g2672
sg76
(lp2679
S'uuid'
p2680
asbag69
(g90
g71
NtRp2681
(dp2682
g74
(dp2683
g101
g102
ssg83
g2672
sg76
(lp2684
S':'
asbag69
(g90
g71
NtRp2685
(dp2686
g74
(dp2687
sg83
g2672
sg76
(lp2688
g69
(g70
g71
NtRp2689
(dp2690
g74
(dp2691
g82
I5
ssg83
g2685
sg76
(lp2692
S'cite_m2/127.0.0.1.2012-10-23.23-38-57.dad67d19-97ed-486a-a503-7a44a548e4d8'
p2693
asbasbasbag69
(g85
g71
NtRp2694
(dp2695
g74
(dp2696
sg83
g79
sg76
(lp2697
g69
(g90
g71
NtRp2698
(dp2699
g74
(dp2700
g94
g95
ssg83
g2694
sg76
(lp2701
S'vars'
p2702
asbag69
(g90
g71
NtRp2703
(dp2704
g74
(dp2705
g101
g102
ssg83
g2694
sg76
(lp2706
S':'
asbag69
(g90
g71
NtRp2707
(dp2708
g74
(dp2709
sg83
g2694
sg76
(lp2710
g69
(g70
g71
NtRp2711
(dp2712
g74
(dp2713
g82
I5
ssg83
g2707
sg76
(lp2714
g69
(g78
g71
NtRp2715
(dp2716
g74
(dp2717
g82
I4
ssg83
Nsg76
(lp2718
sbasbasbasbag69
(g85
g71
NtRp2719
(dp2720
g74
(dp2721
sg83
g79
sg76
(lp2722
g69
(g90
g71
NtRp2723
(dp2724
g74
(dp2725
g94
g95
ssg83
g2719
sg76
(lp2726
S'wsgi'
p2727
asbag69
(g90
g71
NtRp2728
(dp2729
g74
(dp2730
g101
g102
ssg83
g2719
sg76
(lp2731
S':'
asbag69
(g90
g71
NtRp2732
(dp2733
g74
(dp2734
sg83
g2719
sg76
(lp2735
g69
(g70
g71
NtRp2736
(dp2737
g74
(dp2738
g82
I5
ssg83
g2732
sg76
(lp2739
g69
(g78
g71
NtRp2740
(dp2741
g74
(dp2742
g82
I4
ssg83
Nsg76
(lp2743
g69
(g85
g71
NtRp2744
(dp2745
g74
(dp2746
sg83
g2740
sg76
(lp2747
g69
(g90
g71
NtRp2748
(dp2749
g74
(dp2750
g94
g95
ssg83
g2744
sg76
(lp2751
S'environ'
p2752
asbag69
(g90
g71
NtRp2753
(dp2754
g74
(dp2755
g101
g102
ssg83
g2744
sg76
(lp2756
S':'
asbag69
(g90
g71
NtRp2757
(dp2758
g74
(dp2759
sg83
g2744
sg76
(lp2760
g69
(g70
g71
NtRp2761
(dp2762
g74
(dp2763
g82
I4
ssg83
g2757
sg76
(lp2764
g69
(g78
g71
NtRp2765
(dp2766
g74
(dp2767
g82
I3
ssg83
Nsg76
(lp2768
g69
(g85
g71
NtRp2769
(dp2770
g74
(dp2771
sg83
g2765
sg76
(lp2772
g69
(g90
g71
NtRp2773
(dp2774
g74
(dp2775
g94
g95
ssg83
g2769
sg76
(lp2776
S'HTTP_ACCEPT'
p2777
asbag69
(g90
g71
NtRp2778
(dp2779
g74
(dp2780
g101
g102
ssg83
g2769
sg76
(lp2781
S':'
asbag69
(g90
g71
NtRp2782
(dp2783
g74
(dp2784
sg83
g2769
sg76
(lp2785
g69
(g70
g71
NtRp2786
(dp2787
g74
(dp2788
g82
I3
ssg83
g2782
sg76
(lp2789
g1385
asbasbasbag69
(g85
g71
NtRp2790
(dp2791
g74
(dp2792
sg83
g2765
sg76
(lp2793
g69
(g90
g71
NtRp2794
(dp2795
g74
(dp2796
g94
g95
ssg83
g2790
sg76
(lp2797
S'HTTP_ACCEPT_ENCODING'
p2798
asbag69
(g90
g71
NtRp2799
(dp2800
g74
(dp2801
g101
g102
ssg83
g2790
sg76
(lp2802
S':'
asbag69
(g90
g71
NtRp2803
(dp2804
g74
(dp2805
sg83
g2790
sg76
(lp2806
g69
(g70
g71
NtRp2807
(dp2808
g74
(dp2809
g82
I3
ssg83
g2803
sg76
(lp2810
g1407
asbasbasbag69
(g85
g71
NtRp2811
(dp2812
g74
(dp2813
sg83
g2765
sg76
(lp2814
g69
(g90
g71
NtRp2815
(dp2816
g74
(dp2817
g94
g95
ssg83
g2811
sg76
(lp2818
S'HTTP_ACCEPT_LANGUAGE'
p2819
asbag69
(g90
g71
NtRp2820
(dp2821
g74
(dp2822
g101
g102
ssg83
g2811
sg76
(lp2823
S':'
asbag69
(g90
g71
NtRp2824
(dp2825
g74
(dp2826
sg83
g2811
sg76
(lp2827
g69
(g70
g71
NtRp2828
(dp2829
g74
(dp2830
g82
I3
ssg83
g2824
sg76
(lp2831
g1429
asbasbasbag69
(g85
g71
NtRp2832
(dp2833
g74
(dp2834
sg83
g2765
sg76
(lp2835
g69
(g90
g71
NtRp2836
(dp2837
g74
(dp2838
g94
g95
ssg83
g2832
sg76
(lp2839
S'HTTP_CONNECTION'
p2840
asbag69
(g90
g71
NtRp2841
(dp2842
g74
(dp2843
g101
g102
ssg83
g2832
sg76
(lp2844
S':'
asbag69
(g90
g71
NtRp2845
(dp2846
g74
(dp2847
sg83
g2832
sg76
(lp2848
g69
(g70
g71
NtRp2849
(dp2850
g74
(dp2851
g82
I3
ssg83
g2845
sg76
(lp2852
g1451
asbasbasbag69
(g85
g71
NtRp2853
(dp2854
g74
(dp2855
sg83
g2765
sg76
(lp2856
g69
(g90
g71
NtRp2857
(dp2858
g74
(dp2859
g94
g95
ssg83
g2853
sg76
(lp2860
S'HTTP_COOKIE'
p2861
asbag69
(g90
g71
NtRp2862
(dp2863
g74
(dp2864
g101
g102
ssg83
g2853
sg76
(lp2865
S':'
asbag69
(g90
g71
NtRp2866
(dp2867
g74
(dp2868
sg83
g2853
sg76
(lp2869
g69
(g70
g71
NtRp2870
(dp2871
g74
(dp2872
g82
I3
ssg83
g2866
sg76
(lp2873
g1473
asbasbasbag69
(g85
g71
NtRp2874
(dp2875
g74
(dp2876
sg83
g2765
sg76
(lp2877
g69
(g90
g71
NtRp2878
(dp2879
g74
(dp2880
g94
g95
ssg83
g2874
sg76
(lp2881
S'HTTP_HOST'
p2882
asbag69
(g90
g71
NtRp2883
(dp2884
g74
(dp2885
g101
g102
ssg83
g2874
sg76
(lp2886
S':'
asbag69
(g90
g71
NtRp2887
(dp2888
g74
(dp2889
sg83
g2874
sg76
(lp2890
g69
(g70
g71
NtRp2891
(dp2892
g74
(dp2893
g82
I3
ssg83
g2887
sg76
(lp2894
g1495
asbasbasbag69
(g85
g71
NtRp2895
(dp2896
g74
(dp2897
sg83
g2765
sg76
(lp2898
g69
(g90
g71
NtRp2899
(dp2900
g74
(dp2901
g94
g95
ssg83
g2895
sg76
(lp2902
S'HTTP_USER_AGENT'
p2903
asbag69
(g90
g71
NtRp2904
(dp2905
g74
(dp2906
g101
g102
ssg83
g2895
sg76
(lp2907
S':'
asbag69
(g90
g71
NtRp2908
(dp2909
g74
(dp2910
sg83
g2895
sg76
(lp2911
g69
(g70
g71
NtRp2912
(dp2913
g74
(dp2914
g82
I3
ssg83
g2908
sg76
(lp2915
g1517
asbasbasbag69
(g85
g71
NtRp2916
(dp2917
g74
(dp2918
sg83
g2765
sg76
(lp2919
g69
(g90
g71
NtRp2920
(dp2921
g74
(dp2922
g94
g95
ssg83
g2916
sg76
(lp2923
S'PATH_INFO'
p2924
asbag69
(g90
g71
NtRp2925
(dp2926
g74
(dp2927
g101
g102
ssg83
g2916
sg76
(lp2928
S':'
asbag69
(g90
g71
NtRp2929
(dp2930
g74
(dp2931
sg83
g2916
sg76
(lp2932
g69
(g70
g71
NtRp2933
(dp2934
g74
(dp2935
g82
I3
ssg83
g2929
sg76
(lp2936
g1581
asbasbasbag69
(g85
g71
NtRp2937
(dp2938
g74
(dp2939
sg83
g2765
sg76
(lp2940
g69
(g90
g71
NtRp2941
(dp2942
g74
(dp2943
g94
g95
ssg83
g2937
sg76
(lp2944
S'QUERY_STRING'
p2945
asbag69
(g90
g71
NtRp2946
(dp2947
g74
(dp2948
g101
g102
ssg83
g2937
sg76
(lp2949
S':'
asbag69
(g90
g71
NtRp2950
(dp2951
g74
(dp2952
sg83
g2937
sg76
(lp2953
g69
(g70
g71
NtRp2954
(dp2955
g74
(dp2956
g82
I3
ssg83
g2950
sg76
(lp2957
S''
asbasbasbag69
(g85
g71
NtRp2958
(dp2959
g74
(dp2960
sg83
g2765
sg76
(lp2961
g69
(g90
g71
NtRp2962
(dp2963
g74
(dp2964
g94
g95
ssg83
g2958
sg76
(lp2965
S'REMOTE_ADDR'
p2966
asbag69
(g90
g71
NtRp2967
(dp2968
g74
(dp2969
g101
g102
ssg83
g2958
sg76
(lp2970
S':'
asbag69
(g90
g71
NtRp2971
(dp2972
g74
(dp2973
sg83
g2958
sg76
(lp2974
g69
(g70
g71
NtRp2975
(dp2976
g74
(dp2977
g82
I3
ssg83
g2971
sg76
(lp2978
g202
asbasbasbag69
(g85
g71
NtRp2979
(dp2980
g74
(dp2981
sg83
g2765
sg76
(lp2982
g69
(g90
g71
NtRp2983
(dp2984
g74
(dp2985
g94
g95
ssg83
g2979
sg76
(lp2986
S'REMOTE_PORT'
p2987
asbag69
(g90
g71
NtRp2988
(dp2989
g74
(dp2990
g101
g102
ssg83
g2979
sg76
(lp2991
S':'
asbag69
(g90
g71
NtRp2992
(dp2993
g74
(dp2994
sg83
g2979
sg76
(lp2995
g69
(g70
g71
NtRp2996
(dp2997
g74
(dp2998
g82
I3
ssg83
g2992
sg76
(lp2999
g1645
asbasbasbag69
(g85
g71
NtRp3000
(dp3001
g74
(dp3002
sg83
g2765
sg76
(lp3003
g69
(g90
g71
NtRp3004
(dp3005
g74
(dp3006
g94
g95
ssg83
g3000
sg76
(lp3007
S'REQUEST_METHOD'
p3008
asbag69
(g90
g71
NtRp3009
(dp3010
g74
(dp3011
g101
g102
ssg83
g3000
sg76
(lp3012
S':'
asbag69
(g90
g71
NtRp3013
(dp3014
g74
(dp3015
sg83
g3000
sg76
(lp3016
g69
(g70
g71
NtRp3017
(dp3018
g74
(dp3019
g82
I3
ssg83
g3013
sg76
(lp3020
g1667
asbasbasbag69
(g85
g71
NtRp3021
(dp3022
g74
(dp3023
sg83
g2765
sg76
(lp3024
g69
(g90
g71
NtRp3025
(dp3026
g74
(dp3027
g94
g95
ssg83
g3021
sg76
(lp3028
S'SCRIPT_NAME'
p3029
asbag69
(g90
g71
NtRp3030
(dp3031
g74
(dp3032
g101
g102
ssg83
g3021
sg76
(lp3033
S':'
asbag69
(g90
g71
NtRp3034
(dp3035
g74
(dp3036
sg83
g3021
sg76
(lp3037
g69
(g70
g71
NtRp3038
(dp3039
g74
(dp3040
g82
I3
ssg83
g3034
sg76
(lp3041
S''
asbasbasbag69
(g85
g71
NtRp3042
(dp3043
g74
(dp3044
sg83
g2765
sg76
(lp3045
g69
(g90
g71
NtRp3046
(dp3047
g74
(dp3048
g94
g95
ssg83
g3042
sg76
(lp3049
S'SERVER_NAME'
p3050
asbag69
(g90
g71
NtRp3051
(dp3052
g74
(dp3053
g101
g102
ssg83
g3042
sg76
(lp3054
S':'
asbag69
(g90
g71
NtRp3055
(dp3056
g74
(dp3057
sg83
g3042
sg76
(lp3058
g69
(g70
g71
NtRp3059
(dp3060
g74
(dp3061
g82
I3
ssg83
g3055
sg76
(lp3062
g1710
asbasbasbag69
(g85
g71
NtRp3063
(dp3064
g74
(dp3065
sg83
g2765
sg76
(lp3066
g69
(g90
g71
NtRp3067
(dp3068
g74
(dp3069
g94
g95
ssg83
g3063
sg76
(lp3070
S'SERVER_PORT'
p3071
asbag69
(g90
g71
NtRp3072
(dp3073
g74
(dp3074
g101
g102
ssg83
g3063
sg76
(lp3075
S':'
asbag69
(g90
g71
NtRp3076
(dp3077
g74
(dp3078
sg83
g3063
sg76
(lp3079
g69
(g70
g71
NtRp3080
(dp3081
g74
(dp3082
g82
I3
ssg83
g3076
sg76
(lp3083
g1732
asbasbasbag69
(g85
g71
NtRp3084
(dp3085
g74
(dp3086
sg83
g2765
sg76
(lp3087
g69
(g90
g71
NtRp3088
(dp3089
g74
(dp3090
g94
g95
ssg83
g3084
sg76
(lp3091
S'SERVER_PROTOCOL'
p3092
asbag69
(g90
g71
NtRp3093
(dp3094
g74
(dp3095
g101
g102
ssg83
g3084
sg76
(lp3096
S':'
asbag69
(g90
g71
NtRp3097
(dp3098
g74
(dp3099
sg83
g3084
sg76
(lp3100
g69
(g70
g71
NtRp3101
(dp3102
g74
(dp3103
g82
I3
ssg83
g3097
sg76
(lp3104
g1754
asbasbasbag69
(g85
g71
NtRp3105
(dp3106
g74
(dp3107
sg83
g2765
sg76
(lp3108
g69
(g90
g71
NtRp3109
(dp3110
g74
(dp3111
g94
g95
ssg83
g3105
sg76
(lp3112
S'SERVER_SOFTWARE'
p3113
asbag69
(g90
g71
NtRp3114
(dp3115
g74
(dp3116
g101
g102
ssg83
g3105
sg76
(lp3117
S':'
asbag69
(g90
g71
NtRp3118
(dp3119
g74
(dp3120
sg83
g3105
sg76
(lp3121
g69
(g70
g71
NtRp3122
(dp3123
g74
(dp3124
g82
I3
ssg83
g3118
sg76
(lp3125
g1776
asbasbasbag69
(g85
g71
NtRp3126
(dp3127
g74
(dp3128
sg83
g2765
sg76
(lp3129
g69
(g90
g71
NtRp3130
(dp3131
g74
(dp3132
g94
g95
ssg83
g3126
sg76
(lp3133
S'wsgi.errors'
p3134
asbag69
(g90
g71
NtRp3135
(dp3136
g74
(dp3137
g101
g102
ssg83
g3126
sg76
(lp3138
S':'
asbag69
(g90
g71
NtRp3139
(dp3140
g74
(dp3141
sg83
g3126
sg76
(lp3142
g69
(g70
g71
NtRp3143
(dp3144
g74
(dp3145
g82
I3
ssg83
g3139
sg76
(lp3146
S"<open file '<stderr>', mode 'w' at 0x7fe2722a9270>"
p3147
asbasbasbag69
(g85
g71
NtRp3148
(dp3149
g74
(dp3150
sg83
g2765
sg76
(lp3151
g69
(g90
g71
NtRp3152
(dp3153
g74
(dp3154
g94
g95
ssg83
g3148
sg76
(lp3155
S'wsgi.file_wrapper'
p3156
asbag69
(g90
g71
NtRp3157
(dp3158
g74
(dp3159
g101
g102
ssg83
g3148
sg76
(lp3160
S':'
asbag69
(g90
g71
NtRp3161
(dp3162
g74
(dp3163
sg83
g3148
sg76
(lp3164
g69
(g70
g71
NtRp3165
(dp3166
g74
(dp3167
g82
I3
ssg83
g3161
sg76
(lp3168
S'<class wsgiref.util.FileWrapper at 0x318fef0>'
p3169
asbasbasbag69
(g85
g71
NtRp3170
(dp3171
g74
(dp3172
sg83
g2765
sg76
(lp3173
g69
(g90
g71
NtRp3174
(dp3175
g74
(dp3176
g94
g95
ssg83
g3170
sg76
(lp3177
S'wsgi.input'
p3178
asbag69
(g90
g71
NtRp3179
(dp3180
g74
(dp3181
g101
g102
ssg83
g3170
sg76
(lp3182
S':'
asbag69
(g90
g71
NtRp3183
(dp3184
g74
(dp3185
sg83
g3170
sg76
(lp3186
g69
(g70
g71
NtRp3187
(dp3188
g74
(dp3189
g82
I3
ssg83
g3183
sg76
(lp3190
S'<cStringIO.StringO object at 0x7fe240217ab0>'
p3191
asbasbasbag69
(g85
g71
NtRp3192
(dp3193
g74
(dp3194
sg83
g2765
sg76
(lp3195
g69
(g90
g71
NtRp3196
(dp3197
g74
(dp3198
g94
g95
ssg83
g3192
sg76
(lp3199
S'wsgi.multiprocess'
p3200
asbag69
(g90
g71
NtRp3201
(dp3202
g74
(dp3203
g101
g102
ssg83
g3192
sg76
(lp3204
S':'
asbag69
(g90
g71
NtRp3205
(dp3206
g74
(dp3207
sg83
g3192
sg76
(lp3208
g69
(g70
g71
NtRp3209
(dp3210
g74
(dp3211
g82
I3
ssg83
g3205
sg76
(lp3212
g112
asbasbasbag69
(g85
g71
NtRp3213
(dp3214
g74
(dp3215
sg83
g2765
sg76
(lp3216
g69
(g90
g71
NtRp3217
(dp3218
g74
(dp3219
g94
g95
ssg83
g3213
sg76
(lp3220
S'wsgi.multithread'
p3221
asbag69
(g90
g71
NtRp3222
(dp3223
g74
(dp3224
g101
g102
ssg83
g3213
sg76
(lp3225
S':'
asbag69
(g90
g71
NtRp3226
(dp3227
g74
(dp3228
sg83
g3213
sg76
(lp3229
g69
(g70
g71
NtRp3230
(dp3231
g74
(dp3232
g82
I3
ssg83
g3226
sg76
(lp3233
g2016
asbasbasbag69
(g85
g71
NtRp3234
(dp3235
g74
(dp3236
sg83
g2765
sg76
(lp3237
g69
(g90
g71
NtRp3238
(dp3239
g74
(dp3240
g94
g95
ssg83
g3234
sg76
(lp3241
S'wsgi.run_once'
p3242
asbag69
(g90
g71
NtRp3243
(dp3244
g74
(dp3245
g101
g102
ssg83
g3234
sg76
(lp3246
S':'
asbag69
(g90
g71
NtRp3247
(dp3248
g74
(dp3249
sg83
g3234
sg76
(lp3250
g69
(g70
g71
NtRp3251
(dp3252
g74
(dp3253
g82
I3
ssg83
g3247
sg76
(lp3254
g112
asbasbasbag69
(g85
g71
NtRp3255
(dp3256
g74
(dp3257
sg83
g2765
sg76
(lp3258
g69
(g90
g71
NtRp3259
(dp3260
g74
(dp3261
g94
g95
ssg83
g3255
sg76
(lp3262
S'wsgi.url_scheme'
p3263
asbag69
(g90
g71
NtRp3264
(dp3265
g74
(dp3266
g101
g102
ssg83
g3255
sg76
(lp3267
S':'
asbag69
(g90
g71
NtRp3268
(dp3269
g74
(dp3270
sg83
g3255
sg76
(lp3271
g69
(g70
g71
NtRp3272
(dp3273
g74
(dp3274
g82
I3
ssg83
g3268
sg76
(lp3275
g2059
asbasbasbag69
(g85
g71
NtRp3276
(dp3277
g74
(dp3278
sg83
g2765
sg76
(lp3279
g69
(g90
g71
NtRp3280
(dp3281
g74
(dp3282
g94
g95
ssg83
g3276
sg76
(lp3283
S'wsgi.version'
p3284
asbag69
(g90
g71
NtRp3285
(dp3286
g74
(dp3287
g101
g102
ssg83
g3276
sg76
(lp3288
S':'
asbag69
(g90
g71
NtRp3289
(dp3290
g74
(dp3291
sg83
g3276
sg76
(lp3292
g69
(g70
g71
NtRp3293
(dp3294
g74
(dp3295
g82
I3
ssg83
g3289
sg76
(lp3296
S'1'
asbasbasbasbasbasbasbasbasbasbasbasbasbsS'frames'
p3297
(lp3298
(dp3299
S'file'
p3300
S'/home/maneesha/Downloads/web2py/gluon/restricted.py'
p3301
sS'dump'
p3302
(dp3303
S'code'
p3304
S'\'response.write(\\\'<html xmlns="http://www.w3.org/1...p>\\\\n  </div>\\\\n </body>\\\\n</html>\\\\n\\\', escape=False)\''
p3305
sS'layer'
p3306
S"'/home/maneesha/Downloads/web2py/applications/cite_m2/views/default/final_ans.html'"
p3307
sS'global compile2'
p3308
S'<function compile2>'
p3309
sS'ccode'
p3310
S'undefined'
p3311
ssS'lnum'
p3312
I204
sS'lines'
p3313
(dp3314
I199
S"    environment['__name__'] = '__restricted__'"
p3315
sI200
S'    try:'
p3316
sI201
S'        if type(code) == types.CodeType:'
p3317
sI202
S'            ccode = code'
p3318
sI203
S'        else:'
p3319
sI204
S'            ccode = compile2(code,layer)'
p3320
sI205
S'        exec ccode in environment'
p3321
sI206
S'    except HTTP:'
p3322
sI207
S'        raise'
p3323
sI208
S'    except RestrictedError:'
p3324
ssS'call'
p3325
S'(code=\'response.write(\\\'<html xmlns="http://www.w3.org/1...p>\\\\n  </div>\\\\n </body>\\\\n</html>\\\\n\\\', escape=False)\', environment={\'A\': <class \'gluon.html.A\'>, \'Auth\': <class \'gluon.tools.Auth\'>, \'B\': <class \'gluon.html.B\'>, \'BEAUTIFY\': <class \'gluon.html.BEAUTIFY\'>, \'BODY\': <class \'gluon.html.BODY\'>, \'BR\': <class \'gluon.html.BR\'>, \'BUTTON\': <class \'gluon.html.BUTTON\'>, \'CAT\': <class \'gluon.html.CAT\'>, \'CENTER\': <class \'gluon.html.CENTER\'>, \'CLEANUP\': <class \'gluon.validators.CLEANUP\'>, ...}, layer=\'/home/maneesha/Downloads/web2py/applications/cite_m2/views/default/final_ans.html\')'
p3326
sS'func'
p3327
S'restricted'
p3328
sa(dp3329
g3300
S'/home/maneesha/Downloads/web2py/gluon/restricted.py'
p3330
sg3302
(dp3331
S'builtincompile'
p3332
S'<built-in function compile>'
p3333
sS'code'
p3334
S'\'response.write(\\\'<html xmlns="http://www.w3.org/1...p>\\\\n  </div>\\\\n </body>\\\\n</html>\\\\n\\\', escape=False)\''
p3335
sS'code.rstrip'
p3336
S'<built-in method rstrip of str object>'
p3337
sS').replace'
p3338
g3311
sS'layer'
p3339
S"'/home/maneesha/Downloads/web2py/applications/cite_m2/views/default/final_ans.html'"
p3340
ssg3312
I189
sg3313
(dp3341
I192
S'    """'
p3342
sI193
S'    runs code in environment and returns the output. if an exception occurs'
p3343
sI184
S''
sI185
S'def compile2(code,layer):'
p3344
sI186
S'    """'
p3345
sI187
S"    The +'\\n' is necessary else compile fails when code ends in a comment."
p3346
sI188
S'    """'
p3347
sI189
S"    return compile(code.rstrip().replace('\\r\\n','\\n')+'\\n', layer, 'exec')"
p3348
sI190
S''
sI191
S"def restricted(code, environment=None, layer='Unknown'):"
p3349
ssg3325
S'(code=\'response.write(\\\'<html xmlns="http://www.w3.org/1...p>\\\\n  </div>\\\\n </body>\\\\n</html>\\\\n\\\', escape=False)\', layer=\'/home/maneesha/Downloads/web2py/applications/cite_m2/views/default/final_ans.html\')'
p3350
sg3327
S'compile2'
p3351
sasS'pyver'
p3352
S'Python 2.7.3: /usr/bin/python'
p3353
sS'session'
p3354
g69
(g70
g71
NtRp3355
(dp3356
g74
(dp3357
sg76
(lp3358
g69
(g78
g71
NtRp3359
(dp3360
g74
(dp3361
g82
I5
ssg83
Nsg76
(lp3362
g69
(g85
g71
NtRp3363
(dp3364
g74
(dp3365
sg83
g3359
sg76
(lp3366
g69
(g90
g71
NtRp3367
(dp3368
g74
(dp3369
g94
g95
ssg83
g3363
sg76
(lp3370
S'auth'
p3371
asbag69
(g90
g71
NtRp3372
(dp3373
g74
(dp3374
g101
g102
ssg83
g3363
sg76
(lp3375
S':'
asbag69
(g90
g71
NtRp3376
(dp3377
g74
(dp3378
sg83
g3363
sg76
(lp3379
g69
(g70
g71
NtRp3380
(dp3381
g74
(dp3382
g82
I5
ssg83
g3376
sg76
(lp3383
g69
(g78
g71
NtRp3384
(dp3385
g74
(dp3386
g82
I4
ssg83
Nsg76
(lp3387
g69
(g85
g71
NtRp3388
(dp3389
g74
(dp3390
sg83
g3384
sg76
(lp3391
g69
(g90
g71
NtRp3392
(dp3393
g74
(dp3394
g94
g95
ssg83
g3388
sg76
(lp3395
S'expiration'
p3396
asbag69
(g90
g71
NtRp3397
(dp3398
g74
(dp3399
g101
g102
ssg83
g3388
sg76
(lp3400
S':'
asbag69
(g90
g71
NtRp3401
(dp3402
g74
(dp3403
sg83
g3388
sg76
(lp3404
g69
(g70
g71
NtRp3405
(dp3406
g74
(dp3407
g82
I4
ssg83
g3401
sg76
(lp3408
S'3600'
p3409
asbasbasbag69
(g85
g71
NtRp3410
(dp3411
g74
(dp3412
sg83
g3384
sg76
(lp3413
g69
(g90
g71
NtRp3414
(dp3415
g74
(dp3416
g94
g95
ssg83
g3410
sg76
(lp3417
S'hmac_key'
p3418
asbag69
(g90
g71
NtRp3419
(dp3420
g74
(dp3421
g101
g102
ssg83
g3410
sg76
(lp3422
S':'
asbag69
(g90
g71
NtRp3423
(dp3424
g74
(dp3425
sg83
g3410
sg76
(lp3426
g69
(g70
g71
NtRp3427
(dp3428
g74
(dp3429
g82
I4
ssg83
g3423
sg76
(lp3430
S'65140c8c-8acf-456c-bec1-a33b64eec626'
p3431
asbasbasbag69
(g85
g71
NtRp3432
(dp3433
g74
(dp3434
sg83
g3384
sg76
(lp3435
g69
(g90
g71
NtRp3436
(dp3437
g74
(dp3438
g94
g95
ssg83
g3432
sg76
(lp3439
S'last_visit'
p3440
asbag69
(g90
g71
NtRp3441
(dp3442
g74
(dp3443
g101
g102
ssg83
g3432
sg76
(lp3444
S':'
asbag69
(g90
g71
NtRp3445
(dp3446
g74
(dp3447
sg83
g3432
sg76
(lp3448
g69
(g70
g71
NtRp3449
(dp3450
g74
(dp3451
g82
I4
ssg83
g3445
sg76
(lp3452
S'datetime.datetime(2012, 10, 23, 23, 36, 14, 728991)'
p3453
asbasbasbag69
(g85
g71
NtRp3454
(dp3455
g74
(dp3456
sg83
g3384
sg76
(lp3457
g69
(g90
g71
NtRp3458
(dp3459
g74
(dp3460
g94
g95
ssg83
g3454
sg76
(lp3461
S'remember'
p3462
asbag69
(g90
g71
NtRp3463
(dp3464
g74
(dp3465
g101
g102
ssg83
g3454
sg76
(lp3466
S':'
asbag69
(g90
g71
NtRp3467
(dp3468
g74
(dp3469
sg83
g3454
sg76
(lp3470
g69
(g70
g71
NtRp3471
(dp3472
g74
(dp3473
g82
I4
ssg83
g3467
sg76
(lp3474
g112
asbasbasbag69
(g85
g71
NtRp3475
(dp3476
g74
(dp3477
sg83
g3384
sg76
(lp3478
g69
(g90
g71
NtRp3479
(dp3480
g74
(dp3481
g94
g95
ssg83
g3475
sg76
(lp3482
S'user'
p3483
asbag69
(g90
g71
NtRp3484
(dp3485
g74
(dp3486
g101
g102
ssg83
g3475
sg76
(lp3487
S':'
asbag69
(g90
g71
NtRp3488
(dp3489
g74
(dp3490
sg83
g3475
sg76
(lp3491
g69
(g70
g71
NtRp3492
(dp3493
g74
(dp3494
g82
I4
ssg83
g3488
sg76
(lp3495
g69
(g78
g71
NtRp3496
(dp3497
g74
(dp3498
g82
I3
ssg83
Nsg76
(lp3499
g69
(g85
g71
NtRp3500
(dp3501
g74
(dp3502
sg83
g3496
sg76
(lp3503
g69
(g90
g71
NtRp3504
(dp3505
g74
(dp3506
g94
g95
ssg83
g3500
sg76
(lp3507
S'created_on'
p3508
asbag69
(g90
g71
NtRp3509
(dp3510
g74
(dp3511
g101
g102
ssg83
g3500
sg76
(lp3512
S':'
asbag69
(g90
g71
NtRp3513
(dp3514
g74
(dp3515
sg83
g3500
sg76
(lp3516
g69
(g70
g71
NtRp3517
(dp3518
g74
(dp3519
g82
I3
ssg83
g3513
sg76
(lp3520
S'datetime.datetime(2012, 10, 23, 2, 28, 41)'
p3521
asbasbasbag69
(g85
g71
NtRp3522
(dp3523
g74
(dp3524
sg83
g3496
sg76
(lp3525
g69
(g90
g71
NtRp3526
(dp3527
g74
(dp3528
g94
g95
ssg83
g3522
sg76
(lp3529
S'email'
p3530
asbag69
(g90
g71
NtRp3531
(dp3532
g74
(dp3533
g101
g102
ssg83
g3522
sg76
(lp3534
S':'
asbag69
(g90
g71
NtRp3535
(dp3536
g74
(dp3537
sg83
g3522
sg76
(lp3538
g69
(g70
g71
NtRp3539
(dp3540
g74
(dp3541
g82
I3
ssg83
g3535
sg76
(lp3542
S'manu@gmail.com'
p3543
asbasbasbag69
(g85
g71
NtRp3544
(dp3545
g74
(dp3546
sg83
g3496
sg76
(lp3547
g69
(g90
g71
NtRp3548
(dp3549
g74
(dp3550
g94
g95
ssg83
g3544
sg76
(lp3551
S'first_name'
p3552
asbag69
(g90
g71
NtRp3553
(dp3554
g74
(dp3555
g101
g102
ssg83
g3544
sg76
(lp3556
S':'
asbag69
(g90
g71
NtRp3557
(dp3558
g74
(dp3559
sg83
g3544
sg76
(lp3560
g69
(g70
g71
NtRp3561
(dp3562
g74
(dp3563
g82
I3
ssg83
g3557
sg76
(lp3564
S'manu'
p3565
asbasbasbag69
(g85
g71
NtRp3566
(dp3567
g74
(dp3568
sg83
g3496
sg76
(lp3569
g69
(g90
g71
NtRp3570
(dp3571
g74
(dp3572
g94
g95
ssg83
g3566
sg76
(lp3573
S'id'
p3574
asbag69
(g90
g71
NtRp3575
(dp3576
g74
(dp3577
g101
g102
ssg83
g3566
sg76
(lp3578
S':'
asbag69
(g90
g71
NtRp3579
(dp3580
g74
(dp3581
sg83
g3566
sg76
(lp3582
g69
(g70
g71
NtRp3583
(dp3584
g74
(dp3585
g82
I3
ssg83
g3579
sg76
(lp3586
S'11'
p3587
asbasbasbag69
(g85
g71
NtRp3588
(dp3589
g74
(dp3590
sg83
g3496
sg76
(lp3591
g69
(g90
g71
NtRp3592
(dp3593
g74
(dp3594
g94
g95
ssg83
g3588
sg76
(lp3595
S'last_name'
p3596
asbag69
(g90
g71
NtRp3597
(dp3598
g74
(dp3599
g101
g102
ssg83
g3588
sg76
(lp3600
S':'
asbag69
(g90
g71
NtRp3601
(dp3602
g74
(dp3603
sg83
g3588
sg76
(lp3604
g69
(g70
g71
NtRp3605
(dp3606
g74
(dp3607
g82
I3
ssg83
g3601
sg76
(lp3608
S'p'
asbasbasbag69
(g85
g71
NtRp3609
(dp3610
g74
(dp3611
sg83
g3496
sg76
(lp3612
g69
(g90
g71
NtRp3613
(dp3614
g74
(dp3615
g94
g95
ssg83
g3609
sg76
(lp3616
S'modified_on'
p3617
asbag69
(g90
g71
NtRp3618
(dp3619
g74
(dp3620
g101
g102
ssg83
g3609
sg76
(lp3621
S':'
asbag69
(g90
g71
NtRp3622
(dp3623
g74
(dp3624
sg83
g3609
sg76
(lp3625
g69
(g70
g71
NtRp3626
(dp3627
g74
(dp3628
g82
I3
ssg83
g3622
sg76
(lp3629
S'datetime.datetime(2012, 10, 23, 2, 28, 41)'
p3630
asbasbasbag69
(g85
g71
NtRp3631
(dp3632
g74
(dp3633
sg83
g3496
sg76
(lp3634
g69
(g90
g71
NtRp3635
(dp3636
g74
(dp3637
g94
g95
ssg83
g3631
sg76
(lp3638
S'password'
p3639
asbag69
(g90
g71
NtRp3640
(dp3641
g74
(dp3642
g101
g102
ssg83
g3631
sg76
(lp3643
S':'
asbag69
(g90
g71
NtRp3644
(dp3645
g74
(dp3646
sg83
g3631
sg76
(lp3647
g69
(g70
g71
NtRp3648
(dp3649
g74
(dp3650
g82
I3
ssg83
g3644
sg76
(lp3651
S'32371e3190f8e63e16755b2e6bf663a2'
p3652
asbasbasbag69
(g85
g71
NtRp3653
(dp3654
g74
(dp3655
sg83
g3496
sg76
(lp3656
g69
(g90
g71
NtRp3657
(dp3658
g74
(dp3659
g94
g95
ssg83
g3653
sg76
(lp3660
S'registration_id'
p3661
asbag69
(g90
g71
NtRp3662
(dp3663
g74
(dp3664
g101
g102
ssg83
g3653
sg76
(lp3665
S':'
asbag69
(g90
g71
NtRp3666
(dp3667
g74
(dp3668
sg83
g3653
sg76
(lp3669
g69
(g70
g71
NtRp3670
(dp3671
g74
(dp3672
g82
I3
ssg83
g3666
sg76
(lp3673
S''
asbasbasbag69
(g85
g71
NtRp3674
(dp3675
g74
(dp3676
sg83
g3496
sg76
(lp3677
g69
(g90
g71
NtRp3678
(dp3679
g74
(dp3680
g94
g95
ssg83
g3674
sg76
(lp3681
S'registration_key'
p3682
asbag69
(g90
g71
NtRp3683
(dp3684
g74
(dp3685
g101
g102
ssg83
g3674
sg76
(lp3686
S':'
asbag69
(g90
g71
NtRp3687
(dp3688
g74
(dp3689
sg83
g3674
sg76
(lp3690
g69
(g70
g71
NtRp3691
(dp3692
g74
(dp3693
g82
I3
ssg83
g3687
sg76
(lp3694
S''
asbasbasbag69
(g85
g71
NtRp3695
(dp3696
g74
(dp3697
sg83
g3496
sg76
(lp3698
g69
(g90
g71
NtRp3699
(dp3700
g74
(dp3701
g94
g95
ssg83
g3695
sg76
(lp3702
S'reset_password_key'
p3703
asbag69
(g90
g71
NtRp3704
(dp3705
g74
(dp3706
g101
g102
ssg83
g3695
sg76
(lp3707
S':'
asbag69
(g90
g71
NtRp3708
(dp3709
g74
(dp3710
sg83
g3695
sg76
(lp3711
g69
(g70
g71
NtRp3712
(dp3713
g74
(dp3714
g82
I3
ssg83
g3708
sg76
(lp3715
S''
asbasbasbag69
(g85
g71
NtRp3716
(dp3717
g74
(dp3718
sg83
g3496
sg76
(lp3719
g69
(g90
g71
NtRp3720
(dp3721
g74
(dp3722
g94
g95
ssg83
g3716
sg76
(lp3723
S'username'
p3724
asbag69
(g90
g71
NtRp3725
(dp3726
g74
(dp3727
g101
g102
ssg83
g3716
sg76
(lp3728
S':'
asbag69
(g90
g71
NtRp3729
(dp3730
g74
(dp3731
sg83
g3716
sg76
(lp3732
g69
(g70
g71
NtRp3733
(dp3734
g74
(dp3735
g82
I3
ssg83
g3729
sg76
(lp3736
S'manu1'
p3737
asbasbasbasbasbasbasbag69
(g85
g71
NtRp3738
(dp3739
g74
(dp3740
sg83
g3384
sg76
(lp3741
g69
(g90
g71
NtRp3742
(dp3743
g74
(dp3744
g94
g95
ssg83
g3738
sg76
(lp3745
S'user_groups'
p3746
asbag69
(g90
g71
NtRp3747
(dp3748
g74
(dp3749
g101
g102
ssg83
g3738
sg76
(lp3750
S':'
asbag69
(g90
g71
NtRp3751
(dp3752
g74
(dp3753
sg83
g3738
sg76
(lp3754
g69
(g70
g71
NtRp3755
(dp3756
g74
(dp3757
g82
I4
ssg83
g3751
sg76
(lp3758
g69
(g78
g71
NtRp3759
(dp3760
g74
(dp3761
g82
I3
ssg83
Nsg76
(lp3762
g69
(g85
g71
NtRp3763
(dp3764
g74
(dp3765
sg83
g3759
sg76
(lp3766
g69
(g90
g71
NtRp3767
(dp3768
g74
(dp3769
g94
g95
ssg83
g3763
sg76
(lp3770
S'1'
asbag69
(g90
g71
NtRp3771
(dp3772
g74
(dp3773
g101
g102
ssg83
g3763
sg76
(lp3774
S':'
asbag69
(g90
g71
NtRp3775
(dp3776
g74
(dp3777
sg83
g3763
sg76
(lp3778
g69
(g70
g71
NtRp3779
(dp3780
g74
(dp3781
g82
I3
ssg83
g3775
sg76
(lp3782
S'user_11'
p3783
asbasbasbasbasbasbasbasbasbasbasbasbasbsS'etype'
p3784
S"<type 'exceptions.SyntaxError'>"
p3785
sS'date'
p3786
S'Tue Oct 23 23:39:41 2012'
p3787
sS'response'
p3788
g69
(g70
g71
NtRp3789
(dp3790
g74
(dp3791
sg76
(lp3792
g69
(g78
g71
NtRp3793
(dp3794
g74
(dp3795
g82
I5
ssg83
Nsg76
(lp3796
g69
(g85
g71
NtRp3797
(dp3798
g74
(dp3799
sg83
g3793
sg76
(lp3800
g69
(g90
g71
NtRp3801
(dp3802
g74
(dp3803
g94
g95
ssg83
g3797
sg76
(lp3804
g167
asbag69
(g90
g71
NtRp3805
(dp3806
g74
(dp3807
g101
g102
ssg83
g3797
sg76
(lp3808
S':'
asbag69
(g90
g71
NtRp3809
(dp3810
g74
(dp3811
sg83
g3797
sg76
(lp3812
g69
(g70
g71
NtRp3813
(dp3814
g74
(dp3815
g82
I5
ssg83
g3809
sg76
(lp3816
S'<cStringIO.StringO object at 0x7fe23c1b05a8>'
p3817
asbasbasbag69
(g85
g71
NtRp3818
(dp3819
g74
(dp3820
sg83
g3793
sg76
(lp3821
g69
(g90
g71
NtRp3822
(dp3823
g74
(dp3824
g94
g95
ssg83
g3818
sg76
(lp3825
g233
asbag69
(g90
g71
NtRp3826
(dp3827
g74
(dp3828
g101
g102
ssg83
g3818
sg76
(lp3829
S':'
asbag69
(g90
g71
NtRp3830
(dp3831
g74
(dp3832
sg83
g3818
sg76
(lp3833
g69
(g70
g71
NtRp3834
(dp3835
g74
(dp3836
g82
I5
ssg83
g3830
sg76
(lp3837
g69
(g78
g71
NtRp3838
(dp3839
g74
(dp3840
g82
I4
ssg83
Nsg76
(lp3841
g69
(g85
g71
NtRp3842
(dp3843
g74
(dp3844
sg83
g3838
sg76
(lp3845
g69
(g90
g71
NtRp3846
(dp3847
g74
(dp3848
g94
g95
ssg83
g3842
sg76
(lp3849
S'session_id_cite_m2'
p3850
asbag69
(g90
g71
NtRp3851
(dp3852
g74
(dp3853
g101
g102
ssg83
g3842
sg76
(lp3854
S':'
asbag69
(g90
g71
NtRp3855
(dp3856
g74
(dp3857
sg83
g3842
sg76
(lp3858
g69
(g70
g71
NtRp3859
(dp3860
g74
(dp3861
g82
I4
ssg83
g3855
sg76
(lp3862
g69
(g78
g71
NtRp3863
(dp3864
g74
(dp3865
g82
I3
ssg83
Nsg76
(lp3866
g69
(g85
g71
NtRp3867
(dp3868
g74
(dp3869
sg83
g3863
sg76
(lp3870
g69
(g90
g71
NtRp3871
(dp3872
g74
(dp3873
g94
g95
ssg83
g3867
sg76
(lp3874
g283
asbag69
(g90
g71
NtRp3875
(dp3876
g74
(dp3877
g101
g102
ssg83
g3867
sg76
(lp3878
S':'
asbag69
(g90
g71
NtRp3879
(dp3880
g74
(dp3881
sg83
g3867
sg76
(lp3882
g69
(g70
g71
NtRp3883
(dp3884
g74
(dp3885
g82
I3
ssg83
g3879
sg76
(lp3886
S''
asbasbasbag69
(g85
g71
NtRp3887
(dp3888
g74
(dp3889
sg83
g3863
sg76
(lp3890
g69
(g90
g71
NtRp3891
(dp3892
g74
(dp3893
g94
g95
ssg83
g3887
sg76
(lp3894
g304
asbag69
(g90
g71
NtRp3895
(dp3896
g74
(dp3897
g101
g102
ssg83
g3887
sg76
(lp3898
S':'
asbag69
(g90
g71
NtRp3899
(dp3900
g74
(dp3901
sg83
g3887
sg76
(lp3902
g69
(g70
g71
NtRp3903
(dp3904
g74
(dp3905
g82
I3
ssg83
g3899
sg76
(lp3906
S''
asbasbasbag69
(g85
g71
NtRp3907
(dp3908
g74
(dp3909
sg83
g3863
sg76
(lp3910
g69
(g90
g71
NtRp3911
(dp3912
g74
(dp3913
g94
g95
ssg83
g3907
sg76
(lp3914
g325
asbag69
(g90
g71
NtRp3915
(dp3916
g74
(dp3917
g101
g102
ssg83
g3907
sg76
(lp3918
S':'
asbag69
(g90
g71
NtRp3919
(dp3920
g74
(dp3921
sg83
g3907
sg76
(lp3922
g69
(g70
g71
NtRp3923
(dp3924
g74
(dp3925
g82
I3
ssg83
g3919
sg76
(lp3926
S''
asbasbasbag69
(g85
g71
NtRp3927
(dp3928
g74
(dp3929
sg83
g3863
sg76
(lp3930
g69
(g90
g71
NtRp3931
(dp3932
g74
(dp3933
g94
g95
ssg83
g3927
sg76
(lp3934
g346
asbag69
(g90
g71
NtRp3935
(dp3936
g74
(dp3937
g101
g102
ssg83
g3927
sg76
(lp3938
S':'
asbag69
(g90
g71
NtRp3939
(dp3940
g74
(dp3941
sg83
g3927
sg76
(lp3942
g69
(g70
g71
NtRp3943
(dp3944
g74
(dp3945
g82
I3
ssg83
g3939
sg76
(lp3946
S''
asbasbasbag69
(g85
g71
NtRp3947
(dp3948
g74
(dp3949
sg83
g3863
sg76
(lp3950
g69
(g90
g71
NtRp3951
(dp3952
g74
(dp3953
g94
g95
ssg83
g3947
sg76
(lp3954
g367
asbag69
(g90
g71
NtRp3955
(dp3956
g74
(dp3957
g101
g102
ssg83
g3947
sg76
(lp3958
S':'
asbag69
(g90
g71
NtRp3959
(dp3960
g74
(dp3961
sg83
g3947
sg76
(lp3962
g69
(g70
g71
NtRp3963
(dp3964
g74
(dp3965
g82
I3
ssg83
g3959
sg76
(lp3966
S''
asbasbasbag69
(g85
g71
NtRp3967
(dp3968
g74
(dp3969
sg83
g3863
sg76
(lp3970
g69
(g90
g71
NtRp3971
(dp3972
g74
(dp3973
g94
g95
ssg83
g3967
sg76
(lp3974
g388
asbag69
(g90
g71
NtRp3975
(dp3976
g74
(dp3977
g101
g102
ssg83
g3967
sg76
(lp3978
S':'
asbag69
(g90
g71
NtRp3979
(dp3980
g74
(dp3981
sg83
g3967
sg76
(lp3982
g69
(g70
g71
NtRp3983
(dp3984
g74
(dp3985
g82
I3
ssg83
g3979
sg76
(lp3986
S'/'
asbasbasbag69
(g85
g71
NtRp3987
(dp3988
g74
(dp3989
sg83
g3863
sg76
(lp3990
g69
(g90
g71
NtRp3991
(dp3992
g74
(dp3993
g94
g95
ssg83
g3987
sg76
(lp3994
g409
asbag69
(g90
g71
NtRp3995
(dp3996
g74
(dp3997
g101
g102
ssg83
g3987
sg76
(lp3998
S':'
asbag69
(g90
g71
NtRp3999
(dp4000
g74
(dp4001
sg83
g3987
sg76
(lp4002
g69
(g70
g71
NtRp4003
(dp4004
g74
(dp4005
g82
I3
ssg83
g3999
sg76
(lp4006
S''
asbasbasbag69
(g85
g71
NtRp4007
(dp4008
g74
(dp4009
sg83
g3863
sg76
(lp4010
g69
(g90
g71
NtRp4011
(dp4012
g74
(dp4013
g94
g95
ssg83
g4007
sg76
(lp4014
g430
asbag69
(g90
g71
NtRp4015
(dp4016
g74
(dp4017
g101
g102
ssg83
g4007
sg76
(lp4018
S':'
asbag69
(g90
g71
NtRp4019
(dp4020
g74
(dp4021
sg83
g4007
sg76
(lp4022
g69
(g70
g71
NtRp4023
(dp4024
g74
(dp4025
g82
I3
ssg83
g4019
sg76
(lp4026
S''
asbasbasbasbasbasbasbasbasbasbasbag69
(g85
g71
NtRp4027
(dp4028
g74
(dp4029
sg83
g3793
sg76
(lp4030
g69
(g90
g71
NtRp4031
(dp4032
g74
(dp4033
g94
g95
ssg83
g4027
sg76
(lp4034
S'delimiters'
p4035
asbag69
(g90
g71
NtRp4036
(dp4037
g74
(dp4038
g101
g102
ssg83
g4027
sg76
(lp4039
S':'
asbag69
(g90
g71
NtRp4040
(dp4041
g74
(dp4042
sg83
g4027
sg76
(lp4043
g69
(g70
g71
NtRp4044
(dp4045
g74
(dp4046
g82
I5
ssg83
g4040
sg76
(lp4047
g69
(g78
g71
NtRp4048
(dp4049
g74
(dp4050
g82
I4
ssg83
Nsg76
(lp4051
g69
(g85
g71
NtRp4052
(dp4053
g74
(dp4054
sg83
g4048
sg76
(lp4055
g69
(g90
g71
NtRp4056
(dp4057
g74
(dp4058
sg83
g4052
sg76
(lp4059
g69
(g70
g71
NtRp4060
(dp4061
g74
(dp4062
g82
I4
ssg83
g4056
sg76
(lp4063
S'{{'
p4064
asbasbasbag69
(g85
g71
NtRp4065
(dp4066
g74
(dp4067
sg83
g4048
sg76
(lp4068
g69
(g90
g71
NtRp4069
(dp4070
g74
(dp4071
sg83
g4065
sg76
(lp4072
g69
(g70
g71
NtRp4073
(dp4074
g74
(dp4075
g82
I4
ssg83
g4069
sg76
(lp4076
S'}}'
p4077
asbasbasbasbasbasbasbag69
(g85
g71
NtRp4078
(dp4079
g74
(dp4080
sg83
g3793
sg76
(lp4081
g69
(g90
g71
NtRp4082
(dp4083
g74
(dp4084
g94
g95
ssg83
g4078
sg76
(lp4085
S'files'
p4086
asbag69
(g90
g71
NtRp4087
(dp4088
g74
(dp4089
g101
g102
ssg83
g4078
sg76
(lp4090
S':'
asbag69
(g90
g71
NtRp4091
(dp4092
g74
(dp4093
sg83
g4078
sg76
(lp4094
g69
(g70
g71
NtRp4095
(dp4096
g74
(dp4097
g82
I5
ssg83
g4091
sg76
(lp4098
g69
(g78
g71
NtRp4099
(dp4100
g74
(dp4101
g82
I4
ssg83
Nsg76
(lp4102
sbasbasbasbag69
(g85
g71
NtRp4103
(dp4104
g74
(dp4105
sg83
g3793
sg76
(lp4106
g69
(g90
g71
NtRp4107
(dp4108
g74
(dp4109
g94
g95
ssg83
g4103
sg76
(lp4110
S'flash'
p4111
asbag69
(g90
g71
NtRp4112
(dp4113
g74
(dp4114
g101
g102
ssg83
g4103
sg76
(lp4115
S':'
asbag69
(g90
g71
NtRp4116
(dp4117
g74
(dp4118
sg83
g4103
sg76
(lp4119
g69
(g70
g71
NtRp4120
(dp4121
g74
(dp4122
g82
I5
ssg83
g4116
sg76
(lp4123
S''
asbasbasbag69
(g85
g71
NtRp4124
(dp4125
g74
(dp4126
sg83
g3793
sg76
(lp4127
g69
(g90
g71
NtRp4128
(dp4129
g74
(dp4130
g94
g95
ssg83
g4124
sg76
(lp4131
S'generic_patterns'
p4132
asbag69
(g90
g71
NtRp4133
(dp4134
g74
(dp4135
g101
g102
ssg83
g4124
sg76
(lp4136
S':'
asbag69
(g90
g71
NtRp4137
(dp4138
g74
(dp4139
sg83
g4124
sg76
(lp4140
g69
(g70
g71
NtRp4141
(dp4142
g74
(dp4143
g82
I5
ssg83
g4137
sg76
(lp4144
g69
(g78
g71
NtRp4145
(dp4146
g74
(dp4147
g82
I4
ssg83
Nsg76
(lp4148
g69
(g85
g71
NtRp4149
(dp4150
g74
(dp4151
sg83
g4145
sg76
(lp4152
g69
(g90
g71
NtRp4153
(dp4154
g74
(dp4155
sg83
g4149
sg76
(lp4156
g69
(g70
g71
NtRp4157
(dp4158
g74
(dp4159
g82
I4
ssg83
g4153
sg76
(lp4160
S'*'
asbasbasbasbasbasbasbag69
(g85
g71
NtRp4161
(dp4162
g74
(dp4163
sg83
g3793
sg76
(lp4164
g69
(g90
g71
NtRp4165
(dp4166
g74
(dp4167
g94
g95
ssg83
g4161
sg76
(lp4168
S'headers'
p4169
asbag69
(g90
g71
NtRp4170
(dp4171
g74
(dp4172
g101
g102
ssg83
g4161
sg76
(lp4173
S':'
asbag69
(g90
g71
NtRp4174
(dp4175
g74
(dp4176
sg83
g4161
sg76
(lp4177
g69
(g70
g71
NtRp4178
(dp4179
g74
(dp4180
g82
I5
ssg83
g4174
sg76
(lp4181
g69
(g78
g71
NtRp4182
(dp4183
g74
(dp4184
g82
I4
ssg83
Nsg76
(lp4185
g69
(g85
g71
NtRp4186
(dp4187
g74
(dp4188
sg83
g4182
sg76
(lp4189
g69
(g90
g71
NtRp4190
(dp4191
g74
(dp4192
g94
g95
ssg83
g4186
sg76
(lp4193
S'Cache-Control'
p4194
asbag69
(g90
g71
NtRp4195
(dp4196
g74
(dp4197
g101
g102
ssg83
g4186
sg76
(lp4198
S':'
asbag69
(g90
g71
NtRp4199
(dp4200
g74
(dp4201
sg83
g4186
sg76
(lp4202
g69
(g70
g71
NtRp4203
(dp4204
g74
(dp4205
g82
I4
ssg83
g4199
sg76
(lp4206
S'no-store, no-cache, must-revalidate, post-check=0, pre-check=0'
p4207
asbasbasbag69
(g85
g71
NtRp4208
(dp4209
g74
(dp4210
sg83
g4182
sg76
(lp4211
g69
(g90
g71
NtRp4212
(dp4213
g74
(dp4214
g94
g95
ssg83
g4208
sg76
(lp4215
S'Content-Type'
p4216
asbag69
(g90
g71
NtRp4217
(dp4218
g74
(dp4219
g101
g102
ssg83
g4208
sg76
(lp4220
S':'
asbag69
(g90
g71
NtRp4221
(dp4222
g74
(dp4223
sg83
g4208
sg76
(lp4224
g69
(g70
g71
NtRp4225
(dp4226
g74
(dp4227
g82
I4
ssg83
g4221
sg76
(lp4228
S'text/html; charset=utf-8'
p4229
asbasbasbag69
(g85
g71
NtRp4230
(dp4231
g74
(dp4232
sg83
g4182
sg76
(lp4233
g69
(g90
g71
NtRp4234
(dp4235
g74
(dp4236
g94
g95
ssg83
g4230
sg76
(lp4237
S'Expires'
p4238
asbag69
(g90
g71
NtRp4239
(dp4240
g74
(dp4241
g101
g102
ssg83
g4230
sg76
(lp4242
S':'
asbag69
(g90
g71
NtRp4243
(dp4244
g74
(dp4245
sg83
g4230
sg76
(lp4246
g69
(g70
g71
NtRp4247
(dp4248
g74
(dp4249
g82
I4
ssg83
g4243
sg76
(lp4250
S'Tue, 23 Oct 2012 18:08:57 GMT'
p4251
asbasbasbag69
(g85
g71
NtRp4252
(dp4253
g74
(dp4254
sg83
g4182
sg76
(lp4255
g69
(g90
g71
NtRp4256
(dp4257
g74
(dp4258
g94
g95
ssg83
g4252
sg76
(lp4259
S'Pragma'
p4260
asbag69
(g90
g71
NtRp4261
(dp4262
g74
(dp4263
g101
g102
ssg83
g4252
sg76
(lp4264
S':'
asbag69
(g90
g71
NtRp4265
(dp4266
g74
(dp4267
sg83
g4252
sg76
(lp4268
g69
(g70
g71
NtRp4269
(dp4270
g74
(dp4271
g82
I4
ssg83
g4265
sg76
(lp4272
S'no-cache'
p4273
asbasbasbag69
(g85
g71
NtRp4274
(dp4275
g74
(dp4276
sg83
g4182
sg76
(lp4277
g69
(g90
g71
NtRp4278
(dp4279
g74
(dp4280
g94
g95
ssg83
g4274
sg76
(lp4281
S'X-Powered-By'
p4282
asbag69
(g90
g71
NtRp4283
(dp4284
g74
(dp4285
g101
g102
ssg83
g4274
sg76
(lp4286
S':'
asbag69
(g90
g71
NtRp4287
(dp4288
g74
(dp4289
sg83
g4274
sg76
(lp4290
g69
(g70
g71
NtRp4291
(dp4292
g74
(dp4293
g82
I4
ssg83
g4287
sg76
(lp4294
S'web2py'
p4295
asbasbasbasbasbasbasbag69
(g85
g71
NtRp4296
(dp4297
g74
(dp4298
sg83
g3793
sg76
(lp4299
g69
(g90
g71
NtRp4300
(dp4301
g74
(dp4302
g94
g95
ssg83
g4296
sg76
(lp4303
S'menu'
p4304
asbag69
(g90
g71
NtRp4305
(dp4306
g74
(dp4307
g101
g102
ssg83
g4296
sg76
(lp4308
S':'
asbag69
(g90
g71
NtRp4309
(dp4310
g74
(dp4311
sg83
g4296
sg76
(lp4312
g69
(g70
g71
NtRp4313
(dp4314
g74
(dp4315
g82
I5
ssg83
g4309
sg76
(lp4316
g69
(g78
g71
NtRp4317
(dp4318
g74
(dp4319
g82
I4
ssg83
Nsg76
(lp4320
g69
(g85
g71
NtRp4321
(dp4322
g74
(dp4323
sg83
g4317
sg76
(lp4324
g69
(g90
g71
NtRp4325
(dp4326
g74
(dp4327
sg83
g4321
sg76
(lp4328
g69
(g70
g71
NtRp4329
(dp4330
g74
(dp4331
g82
I4
ssg83
g4325
sg76
(lp4332
g69
(g78
g71
NtRp4333
(dp4334
g74
(dp4335
g82
I3
ssg83
Nsg76
(lp4336
g69
(g85
g71
NtRp4337
(dp4338
g74
(dp4339
sg83
g4333
sg76
(lp4340
g69
(g90
g71
NtRp4341
(dp4342
g74
(dp4343
sg83
g4337
sg76
(lp4344
g69
(g70
g71
NtRp4345
(dp4346
g74
(dp4347
g82
I3
ssg83
g4341
sg76
(lp4348
cgluon.languages
lazyT_unpickle
p4349
(S't\x05\x00\x00\x00Index'
tRp4350
asbasbasbag69
(g85
g71
NtRp4351
(dp4352
g74
(dp4353
sg83
g4333
sg76
(lp4354
g69
(g90
g71
NtRp4355
(dp4356
g74
(dp4357
sg83
g4351
sg76
(lp4358
g69
(g70
g71
NtRp4359
(dp4360
g74
(dp4361
g82
I3
ssg83
g4355
sg76
(lp4362
g112
asbasbasbag69
(g85
g71
NtRp4363
(dp4364
g74
(dp4365
sg83
g4333
sg76
(lp4366
g69
(g90
g71
NtRp4367
(dp4368
g74
(dp4369
sg83
g4363
sg76
(lp4370
g69
(g70
g71
NtRp4371
(dp4372
g74
(dp4373
g82
I3
ssg83
g4367
sg76
(lp4374
S'/cite_m2/default/index'
p4375
asbasbasbag69
(g85
g71
NtRp4376
(dp4377
g74
(dp4378
sg83
g4333
sg76
(lp4379
g69
(g90
g71
NtRp4380
(dp4381
g74
(dp4382
sg83
g4376
sg76
(lp4383
g69
(g70
g71
NtRp4384
(dp4385
g74
(dp4386
g82
I3
ssg83
g4380
sg76
(lp4387
g69
(g78
g71
NtRp4388
(dp4389
g74
(dp4390
g82
I2
ssg83
Nsg76
(lp4391
sbasbasbasbasbasbasbasbasbasbasbasbag69
(g85
g71
NtRp4392
(dp4393
g74
(dp4394
sg83
g3793
sg76
(lp4395
g69
(g90
g71
NtRp4396
(dp4397
g74
(dp4398
g94
g95
ssg83
g4392
sg76
(lp4399
S'meta'
p4400
asbag69
(g90
g71
NtRp4401
(dp4402
g74
(dp4403
g101
g102
ssg83
g4392
sg76
(lp4404
S':'
asbag69
(g90
g71
NtRp4405
(dp4406
g74
(dp4407
sg83
g4392
sg76
(lp4408
g69
(g70
g71
NtRp4409
(dp4410
g74
(dp4411
g82
I5
ssg83
g4405
sg76
(lp4412
g69
(g78
g71
NtRp4413
(dp4414
g74
(dp4415
g82
I4
ssg83
Nsg76
(lp4416
g69
(g85
g71
NtRp4417
(dp4418
g74
(dp4419
sg83
g4413
sg76
(lp4420
g69
(g90
g71
NtRp4421
(dp4422
g74
(dp4423
g94
g95
ssg83
g4417
sg76
(lp4424
S'author'
p4425
asbag69
(g90
g71
NtRp4426
(dp4427
g74
(dp4428
g101
g102
ssg83
g4417
sg76
(lp4429
S':'
asbag69
(g90
g71
NtRp4430
(dp4431
g74
(dp4432
sg83
g4417
sg76
(lp4433
g69
(g70
g71
NtRp4434
(dp4435
g74
(dp4436
g82
I4
ssg83
g4430
sg76
(lp4437
S'you <you@example.com>'
p4438
asbasbasbag69
(g85
g71
NtRp4439
(dp4440
g74
(dp4441
sg83
g4413
sg76
(lp4442
g69
(g90
g71
NtRp4443
(dp4444
g74
(dp4445
g94
g95
ssg83
g4439
sg76
(lp4446
S'description'
p4447
asbag69
(g90
g71
NtRp4448
(dp4449
g74
(dp4450
g101
g102
ssg83
g4439
sg76
(lp4451
S':'
asbag69
(g90
g71
NtRp4452
(dp4453
g74
(dp4454
sg83
g4439
sg76
(lp4455
g69
(g70
g71
NtRp4456
(dp4457
g74
(dp4458
g82
I4
ssg83
g4452
sg76
(lp4459
S''
asbasbasbag69
(g85
g71
NtRp4460
(dp4461
g74
(dp4462
sg83
g4413
sg76
(lp4463
g69
(g90
g71
NtRp4464
(dp4465
g74
(dp4466
g94
g95
ssg83
g4460
sg76
(lp4467
S'keywords'
p4468
asbag69
(g90
g71
NtRp4469
(dp4470
g74
(dp4471
g101
g102
ssg83
g4460
sg76
(lp4472
S':'
asbag69
(g90
g71
NtRp4473
(dp4474
g74
(dp4475
sg83
g4460
sg76
(lp4476
g69
(g70
g71
NtRp4477
(dp4478
g74
(dp4479
g82
I4
ssg83
g4473
sg76
(lp4480
S''
asbasbasbasbasbasbasbag69
(g85
g71
NtRp4481
(dp4482
g74
(dp4483
sg83
g3793
sg76
(lp4484
g69
(g90
g71
NtRp4485
(dp4486
g74
(dp4487
g94
g95
ssg83
g4481
sg76
(lp4488
S'postprocessing'
p4489
asbag69
(g90
g71
NtRp4490
(dp4491
g74
(dp4492
g101
g102
ssg83
g4481
sg76
(lp4493
S':'
asbag69
(g90
g71
NtRp4494
(dp4495
g74
(dp4496
sg83
g4481
sg76
(lp4497
g69
(g70
g71
NtRp4498
(dp4499
g74
(dp4500
g82
I5
ssg83
g4494
sg76
(lp4501
g69
(g78
g71
NtRp4502
(dp4503
g74
(dp4504
g82
I4
ssg83
Nsg76
(lp4505
sbasbasbasbag69
(g85
g71
NtRp4506
(dp4507
g74
(dp4508
sg83
g3793
sg76
(lp4509
g69
(g90
g71
NtRp4510
(dp4511
g74
(dp4512
g94
g95
ssg83
g4506
sg76
(lp4513
S'session_file'
p4514
asbag69
(g90
g71
NtRp4515
(dp4516
g74
(dp4517
g101
g102
ssg83
g4506
sg76
(lp4518
S':'
asbag69
(g90
g71
NtRp4519
(dp4520
g74
(dp4521
sg83
g4506
sg76
(lp4522
g69
(g70
g71
NtRp4523
(dp4524
g74
(dp4525
g82
I5
ssg83
g4519
sg76
(lp4526
S"<open file '/home/maneesha/Downloads/web2py/applications/cite_m2/sessions/127.0.0.1-18beb486-26ea-4779-bf4f-d55c0a4d1287', mode 'rb+' at 0x7fe2382fc150>"
p4527
asbasbasbag69
(g85
g71
NtRp4528
(dp4529
g74
(dp4530
sg83
g3793
sg76
(lp4531
g69
(g90
g71
NtRp4532
(dp4533
g74
(dp4534
g94
g95
ssg83
g4528
sg76
(lp4535
S'session_filename'
p4536
asbag69
(g90
g71
NtRp4537
(dp4538
g74
(dp4539
g101
g102
ssg83
g4528
sg76
(lp4540
S':'
asbag69
(g90
g71
NtRp4541
(dp4542
g74
(dp4543
sg83
g4528
sg76
(lp4544
g69
(g70
g71
NtRp4545
(dp4546
g74
(dp4547
g82
I5
ssg83
g4541
sg76
(lp4548
S'/home/maneesha/Downloads/web2py/applications/cite_m2/sessions/127.0.0.1-18beb486-26ea-4779-bf4f-d55c0a4d1287'
p4549
asbasbasbag69
(g85
g71
NtRp4550
(dp4551
g74
(dp4552
sg83
g3793
sg76
(lp4553
g69
(g90
g71
NtRp4554
(dp4555
g74
(dp4556
g94
g95
ssg83
g4550
sg76
(lp4557
S'session_id'
p4558
asbag69
(g90
g71
NtRp4559
(dp4560
g74
(dp4561
g101
g102
ssg83
g4550
sg76
(lp4562
S':'
asbag69
(g90
g71
NtRp4563
(dp4564
g74
(dp4565
sg83
g4550
sg76
(lp4566
g69
(g70
g71
NtRp4567
(dp4568
g74
(dp4569
g82
I5
ssg83
g4563
sg76
(lp4570
S'127.0.0.1-18beb486-26ea-4779-bf4f-d55c0a4d1287'
p4571
asbasbasbag69
(g85
g71
NtRp4572
(dp4573
g74
(dp4574
sg83
g3793
sg76
(lp4575
g69
(g90
g71
NtRp4576
(dp4577
g74
(dp4578
g94
g95
ssg83
g4572
sg76
(lp4579
S'session_id_name'
p4580
asbag69
(g90
g71
NtRp4581
(dp4582
g74
(dp4583
g101
g102
ssg83
g4572
sg76
(lp4584
S':'
asbag69
(g90
g71
NtRp4585
(dp4586
g74
(dp4587
sg83
g4572
sg76
(lp4588
g69
(g70
g71
NtRp4589
(dp4590
g74
(dp4591
g82
I5
ssg83
g4585
sg76
(lp4592
g3850
asbasbasbag69
(g85
g71
NtRp4593
(dp4594
g74
(dp4595
sg83
g3793
sg76
(lp4596
g69
(g90
g71
NtRp4597
(dp4598
g74
(dp4599
g94
g95
ssg83
g4593
sg76
(lp4600
S'session_locked'
p4601
asbag69
(g90
g71
NtRp4602
(dp4603
g74
(dp4604
g101
g102
ssg83
g4593
sg76
(lp4605
S':'
asbag69
(g90
g71
NtRp4606
(dp4607
g74
(dp4608
sg83
g4593
sg76
(lp4609
g69
(g70
g71
NtRp4610
(dp4611
g74
(dp4612
g82
I5
ssg83
g4606
sg76
(lp4613
g2016
asbasbasbag69
(g85
g71
NtRp4614
(dp4615
g74
(dp4616
sg83
g3793
sg76
(lp4617
g69
(g90
g71
NtRp4618
(dp4619
g74
(dp4620
g94
g95
ssg83
g4614
sg76
(lp4621
S'session_new'
p4622
asbag69
(g90
g71
NtRp4623
(dp4624
g74
(dp4625
g101
g102
ssg83
g4614
sg76
(lp4626
S':'
asbag69
(g90
g71
NtRp4627
(dp4628
g74
(dp4629
sg83
g4614
sg76
(lp4630
g69
(g70
g71
NtRp4631
(dp4632
g74
(dp4633
g82
I5
ssg83
g4627
sg76
(lp4634
g112
asbasbasbag69
(g85
g71
NtRp4635
(dp4636
g74
(dp4637
sg83
g3793
sg76
(lp4638
g69
(g90
g71
NtRp4639
(dp4640
g74
(dp4641
g94
g95
ssg83
g4635
sg76
(lp4642
S'status'
p4643
asbag69
(g90
g71
NtRp4644
(dp4645
g74
(dp4646
g101
g102
ssg83
g4635
sg76
(lp4647
S':'
asbag69
(g90
g71
NtRp4648
(dp4649
g74
(dp4650
sg83
g4635
sg76
(lp4651
g69
(g70
g71
NtRp4652
(dp4653
g74
(dp4654
g82
I5
ssg83
g4648
sg76
(lp4655
S'200'
p4656
asbasbasbag69
(g85
g71
NtRp4657
(dp4658
g74
(dp4659
sg83
g3793
sg76
(lp4660
g69
(g90
g71
NtRp4661
(dp4662
g74
(dp4663
g94
g95
ssg83
g4657
sg76
(lp4664
S'subtitle'
p4665
asbag69
(g90
g71
NtRp4666
(dp4667
g74
(dp4668
g101
g102
ssg83
g4657
sg76
(lp4669
S':'
asbag69
(g90
g71
NtRp4670
(dp4671
g74
(dp4672
sg83
g4657
sg76
(lp4673
g69
(g70
g71
NtRp4674
(dp4675
g74
(dp4676
g82
I5
ssg83
g4670
sg76
(lp4677
S'powered by web2py'
p4678
asbasbasbag69
(g85
g71
NtRp4679
(dp4680
g74
(dp4681
sg83
g3793
sg76
(lp4682
g69
(g90
g71
NtRp4683
(dp4684
g74
(dp4685
g94
g95
ssg83
g4679
sg76
(lp4686
S'title'
p4687
asbag69
(g90
g71
NtRp4688
(dp4689
g74
(dp4690
g101
g102
ssg83
g4679
sg76
(lp4691
S':'
asbag69
(g90
g71
NtRp4692
(dp4693
g74
(dp4694
sg83
g4679
sg76
(lp4695
g69
(g70
g71
NtRp4696
(dp4697
g74
(dp4698
g82
I5
ssg83
g4692
sg76
(lp4699
S'My New App'
p4700
asbasbasbag69
(g85
g71
NtRp4701
(dp4702
g74
(dp4703
sg83
g3793
sg76
(lp4704
g69
(g90
g71
NtRp4705
(dp4706
g74
(dp4707
g94
g95
ssg83
g4701
sg76
(lp4708
g2680
asbag69
(g90
g71
NtRp4709
(dp4710
g74
(dp4711
g101
g102
ssg83
g4701
sg76
(lp4712
S':'
asbag69
(g90
g71
NtRp4713
(dp4714
g74
(dp4715
sg83
g4701
sg76
(lp4716
g69
(g70
g71
NtRp4717
(dp4718
g74
(dp4719
g82
I5
ssg83
g4713
sg76
(lp4720
g2693
asbasbasbag69
(g85
g71
NtRp4721
(dp4722
g74
(dp4723
sg83
g3793
sg76
(lp4724
g69
(g90
g71
NtRp4725
(dp4726
g74
(dp4727
g94
g95
ssg83
g4721
sg76
(lp4728
S'view'
p4729
asbag69
(g90
g71
NtRp4730
(dp4731
g74
(dp4732
g101
g102
ssg83
g4721
sg76
(lp4733
S':'
asbag69
(g90
g71
NtRp4734
(dp4735
g74
(dp4736
sg83
g4721
sg76
(lp4737
g69
(g70
g71
NtRp4738
(dp4739
g74
(dp4740
g82
I5
ssg83
g4734
sg76
(lp4741
S'default/final_ans.html'
p4742
asbasbasbasbasbsS'locals'
p4743
(dp4744
g4
S"'/home/maneesha/Downloads/web2py/applications/cite_m2/views/default/final_ans.html'"
p4745
sg6
S'\'response.write(\\\'<html xmlns="http://www.w3.org/1...p>\\\\n  </div>\\\\n </body>\\\\n</html>\\\\n\\\', escape=False)\''
p4746
sssS'traceback'
p4747
S'Traceback (most recent call last):\n  File "/home/maneesha/Downloads/web2py/gluon/restricted.py", line 204, in restricted\n    ccode = compile2(code,layer)\n  File "/home/maneesha/Downloads/web2py/gluon/restricted.py", line 189, in compile2\n    return compile(code.rstrip().replace(\'\\r\\n\',\'\\n\')+\'\\n\', layer, \'exec\')\n  File "/home/maneesha/Downloads/web2py/applications/cite_m2/views/default/final_ans.html", line 104\n    elif x==5 and bigans[x]!=-1:\n       ^\nSyntaxError: invalid syntax\n'
p4748
s.