(dp1
S'output'
p2
S"<type 'exceptions.IOError'> [Errno 2] No such file or directory: '/home/maneesha/Downloads/web2py/.Rough'"
p3
sS'layer'
p4
S'/home/chitra/courses/SSAD/web2py/applications/cite_m5/views/default/sorting.html'
p5
sS'code'
p6
S'response.write(\'<html xmlns="http://www.w3.org/1999/xhtml">\\n <head>\\n  <title>\\n   CITE MASTER\\n  </title>\\n  \', escape=False)\nresponse.files.append(URL(request.application,\'static\',\'plugin_layouts/layouts/Blend/default.css\'))\nresponse.write(\'\\n  \', escape=False)\nresponse.files.append(URL(\'static\',\'plugin_layouts/superfish.js\'))\nresponse.write(\'\\n  \', escape=False)\nresponse.write(\'<script type="text/javascript"><!--\\n    // These variables are used by the web2py_ajax_init function in web2py_ajax.js (which is loaded below).\\n    var w2p_ajax_confirm_message = "\', escape=False)\nresponse.write(T(\'Are you sure you want to delete this object?\'))\nresponse.write(\'";\\n    var w2p_ajax_date_format = "\', escape=False)\nresponse.write(T(\'%Y-%m-%d\'))\nresponse.write(\'";\\n    var w2p_ajax_datetime_format = "\', escape=False)\nresponse.write(T(\'%Y-%m-%d %H:%M:%S\'))\nresponse.write(\'";\\n    //--></script>\\n\', escape=False)\nresponse.files.insert(0,URL(\'static\',\'js/jquery.js\'))\nresponse.files.insert(1,URL(\'static\',\'css/calendar.css\'))\nresponse.files.insert(2,URL(\'static\',\'js/calendar.js\'))\nresponse.files.insert(3,URL(\'static\',\'js/web2py.js\'))\nresponse.include_meta()\nresponse.include_files()\nresponse.write(\'\\n\', escape=False)\nresponse.write(\'\\n  <style>\\nul.web2py-menu-vertical { width: 100px; position: relative; top:1em; left:1em;  z-index:30; border:0; margin:0; padding: 0; list-style: none; text-decoration: none;}\\nul.web2py-menu-vertical li { margin:0; padding:0; border:0; width: 150px; background: black; text-align:left;}\\nul.web2py-menu-vertical li a { margin:0; padding: 1px 3px 1px 3px; border:0; width: 194px; color: white; font-size:12px;}\\ndiv.flash { position: fixed; float: right; padding: 10px; top: 10px; right: 10px; opacity: 0.75; margin: 10px 10px 10px 10px; text-align: center; clear: both; color: #fff; font-size: 11pt; text-align: center; vertical-align: middle; cursor: pointer; background: black; border: 2px solid #fff; -moz-border-radius: 5px; -webkit-border-radius: 5px; z-index: 2; }\\ndiv.error { background-color: red; color: white; padding: 3px; }\\n.auth_navbar { text-align:right; z-index:20; position: absolute; top: 2px; right:30px; border:0; padding:0 }\\n  </style>\\n </head>\\n <body>\\n  <!-- start header -->\\n  \', escape=False)\ntry:\n    response.write(auth.navbar(action=URL(\'default\',\'user\')))\nexcept:pass\nresponse.write(\'\\n\\n  <!-- start header -->\\n  <div id="header">\\n   <div id="logo">\\n    <h1>\\n    <span style="text-transform: uppercase">CITE MASTER</span>\\n    </h1>\\n    \\n   </div>\\n   <div id="menu">\\n    \', escape=False)\nresponse.write(MENU(response.menu,_class=\'web2py-menu\'))\nresponse.write(\'\\n    <script>\\n      jQuery(document).ready(function(){jQuery(\\\'ul.web2py-menu\\\').superfish({delay:400});});\\n    </script>\\n   </div>\\n  </div>\\n  <!-- end header -->\\n  <div id="wrapper">\\n   <!-- start page -->\\n   <div id="page">\\n    <!-- start content -->\\n    <div>\\n     <div id="flash">\', escape=False)\nresponse.write(response.flash or \'\')\nresponse.write(\'</div>\\n     \', escape=False)\nresponse.write(\'\\n<ul type="none">\\n\', escape=False)\nabss=\'\'\nresponse.write(\'\\n\', escape=False)\nauth=[]\nresponse.write(\'\\n\', escape=False)\ncount=0\nresponse.write(\'\\n\', escape=False)\nf=open(\'.Rough\',\'w\')\nresponse.write(\'\\n\', escape=False)\ndef noun(string1):\n    response.write(\'\\n    \', escape=False)\n    string2=\'\'\n    response.write(\'\\n    \', escape=False)\n    import nltk\n    response.write(\'\\n    \', escape=False)\n    text = nltk.word_tokenize(string1)\n    response.write(\'\\n    \', escape=False)\n    l=nltk.pos_tag(text)\n    response.write(\'\\n    \', escape=False)\n    for t in l:\n        response.write(\'\\n        \', escape=False)\n        if t[1]==\'NN\':\n            response.write(\'\\n            \', escape=False)\n            string2=string2+t[0]+\' \'\n            response.write(\'\\n        \', escape=False)\n            pass\n        response.write(\'\\n    \', escape=False)\n        pass\n    response.write(\'\\n    \', escape=False)\n    return string2\nresponse.write(\'\\n\', escape=False)\ndef print1(bigans):\n    response.write(\'\\n    \', escape=False)\n    global count\n    response.write(\'\\n    \', escape=False)\n    for x in range(0,len(bigans)):\n        response.write(\'\\n        \', escape=False)\n        if type(bigans[x]) is list:\n            response.write(\'\\n            \', escape=False)\n            if count==0:\n                response.write(\'\\n                \', escape=False)\n                count=count+1\n                response.write(\'\\n                \', escape=False)\n                print1(bigans[x])\n                response.write(\'\\n            \', escape=False)\n            elif count!=0 and x!=7:\n                response.write(\'\\n                \', escape=False)\n                count=count+1\n                response.write(\'\\n                \', escape=False)\n                print1(bigans[x])\n                response.write(\'\\n            \', escape=False)\n                pass\n            response.write(\'\\n         \', escape=False)\n        else:\n            response.write(\'\\n             \', escape=False)\n            if x==2:\n                response.write(\'\\n             \', escape=False)\n                response.write(A(\'---------------\'*(count-1)+bigans[0], _href=bigans[2]))\n                response.write(\'\\n             \', escape=False)\n                f.write(\'---------------\'*(count-1)+bigans[0]+\'\\n\')\n                response.write(\'\\n             \', escape=False)\n            elif x==3 and bigans[x]!=-1:\n                response.write(\'\\n                 \', escape=False)\n                global auth\n                response.write(\'\\n                 \', escape=False)\n                response.write(LI(\'---------------\'*(count-1)+\'Authors-\'))\n                response.write(\'\\n                 \', escape=False)\n                f.write(\'---------------\'*(count-1)+\'Authors-\'+\'\\n\')\n                response.write(\'\\n                 \', escape=False)\n                l=bigans[x].split(\';\')\n                response.write(\'\\n                 \', escape=False)\n                for p in l:\n                    response.write(\'\\n                     \', escape=False)\n                    if \',\' in p:\n                        response.write(\'\\n                         \', escape=False)\n                        k=p.split(\',\')[1]+\' \'+p.split(\',\')[0]\n                        response.write(\'\\n                     \', escape=False)\n                    else:\n                        response.write(\'\\n                         \', escape=False)\n                        k=p\n                        response.write(\'\\n                     \', escape=False)\n                        pass\n                    response.write(\'\\n                     \', escape=False)\n                    response.write(LI(\'---------------\'*(count-1)+k))\n                    response.write(\'\\n                     \', escape=False)\n                    f.write(\'---------------\'*(count-1)+k+\'\\n\')\n                    response.write(\'\\n                     \', escape=False)\n                    auth.append(k)\n                    response.write(\'\\n                 \', escape=False)\n                    pass\n                response.write(\'\\n             \', escape=False)\n            elif x==6 and bigans[x]!=-1:\n                response.write(\'\\n                \', escape=False)\n                response.write(LI(\'---------------\'*(count-1)+\'Cited by:\'+str(bigans[x])))\n                response.write(\'\\n                \', escape=False)\n                f.write(\'---------------\'*(count-1)+\'Cited by:\'+str(bigans[x])+\'\\n\')\n                response.write(\'\\n             \', escape=False)\n            elif x==4 and bigans[x]!=-1:\n                response.write(\'\\n                \', escape=False)\n                response.write(LI(\'---------------\'*(count-1)+\'Date:\'+bigans[x]))\n                response.write(\'\\n                \', escape=False)\n                f.write(\'---------------\'*(count-1)+\'Date:\'+bigans[x]+\'\\n\')\n                response.write(\'\\n             \', escape=False)\n            elif x==5 and bigans[x]!=-1:\n                response.write(\'\\n                \', escape=False)\n                response.write(A(\'---------------\'*(count-1)+\'Abstract:\',_href=URL("abstract", args=XML([bigans[x]]))))\n                response.write(\'\\n                \', escape=False)\n                f.write(\'---------------\'*(count-1)+\'Abstract:\'+bigans[x]+\'\\n\')\n                response.write(\'\\n                \', escape=False)\n                global abss\n                response.write(\'\\n                \', escape=False)\n                abss1=noun(bigans[x])\n                response.write(\'\\n                \', escape=False)\n                abss=abss+abss1\n                response.write(\'\\n             \', escape=False)\n                pass\n            response.write(\'\\n         \', escape=False)\n            pass\n        response.write(\'\\n     \', escape=False)\n        pass\n    response.write(\'\\n     \', escape=False)\n    count=count-1\n    response.write(\'\\n     \', escape=False)\n    return\nresponse.write(\'\\n<div style="text-align:right">\\n\', escape=False)\nresponse.write(LI(\'Sort by: \'))\nresponse.write(\'\\n\', escape=False)\nresponse.write(LI(A(\'Relevence \',_href=URL("sorting", args=ret1[0]))))\nresponse.write(\'\\n\', escape=False)\nresponse.write(LI(A(\'Publication date \',_href=URL("sorting", args=ret1[1]))))\nresponse.write(\'\\n</div>\\n\', escape=False)\npass\nresponse.write(\'\\n\', escape=False)\nprint1(bigans)\nresponse.write(\'\\n\', escape=False)\nfrom collections import Counter\nresponse.write(\'\\n\', escape=False)\nword=abss.split(\' \')\nresponse.write(\'\\n\', escape=False)\nc = Counter(word)\nresponse.write(\' \\n\', escape=False)\nmost=c.most_common(10)\nresponse.write(\'\\n\', escape=False)\nfor ele in most:\n    response.write(\'\\n    \', escape=False)\n    response.write(LI(ele[0]))\n    response.write(\'\\n\', escape=False)\n    pass\nresponse.write(\'\\n\', escape=False)\nword=auth\nresponse.write(\'\\n\', escape=False)\nc = Counter(word)\nresponse.write(\' \\n\', escape=False)\nmost=c.most_common(5)\nresponse.write(\'\\n\', escape=False)\nfor ele in most:\n    response.write(\'\\n    \', escape=False)\n    response.write(LI(ele[0]))\n    response.write(\'\\n\', escape=False)\n    pass\nresponse.write(\'\\n\', escape=False)\nf.close()\nresponse.write(\'\\n\', escape=False)\nfrom reportlab.lib.enums import TA_JUSTIFY\nresponse.write(\'\\n\', escape=False)\nfrom reportlab.lib.pagesizes import letter\nresponse.write(\'\\n\', escape=False)\nfrom reportlab.platypus import SimpleDocTemplate, Paragraph, Spacer, Image\nresponse.write(\'\\n\', escape=False)\nfrom reportlab.lib.units import inch\nresponse.write(\'\\n\', escape=False)\nfrom os import path\nresponse.write(\'\\n\', escape=False)\nimport reportlab\nresponse.write(\'\\n\\n\\n\', escape=False)\nimport os\nresponse.write(\'\\n\', escape=False)\nfrom reportlab.lib.units import inch, cm\nresponse.write(\'\\n\', escape=False)\nfrom reportlab.lib.pagesizes import A4\nresponse.write(\'\\n\', escape=False)\nfrom reportlab.lib.styles import ParagraphStyle\nresponse.write(\'\\n\', escape=False)\nfrom reportlab.lib.styles import getSampleStyleSheet\nresponse.write(\'\\n\', escape=False)\nstyleSheet = getSampleStyleSheet()\nresponse.write(\'\\n\', escape=False)\nmystyle = ParagraphStyle(name=\'normal\',fontName=\'Courier\',\nfontSize=10,\nalignment=TA_JUSTIFY,\nleading=1.2*12,\nparent=styleSheet[\'Normal\'])\nresponse.write(\'      \\n      \\n\', escape=False)\nmodel_report = \'/home/maneesha/Downloads/web2py/.Rough\'\nresponse.write(\'\\n\\n\', escape=False)\ndoc = SimpleDocTemplate("my2.pdf",  \\\nrightMargin=40, leftMargin=40, \\\ntopMargin=40, bottomMargin=25, \\\npageSize=A4)\nresponse.write(\'\\n\\n\\n\', escape=False)\nelements = []\nresponse.write(\'  \\n\\n\', escape=False)\ninfile   = file(model_report).read()\nresponse.write(\'\\n\', escape=False)\nreport_paragraphs = infile.split("\\n")\nresponse.write(\'\\n\', escape=False)\nfor para in report_paragraphs:\n    response.write(\'\\n    \', escape=False)\n    para1 = \'<font face="Courier" >%s</font>\' % para\n    response.write(\'\\n    \', escape=False)\n    elements.append(Paragraph(para1, style=mystyle))\n    response.write(\'\\n\', escape=False)\n    pass\nresponse.write(\'\\n\', escape=False)\ndoc.build(elements)\nresponse.write(\'\\n\', escape=False)\nfrom gluon.tools import Mail\nmail = Mail()\nmail.settings.server = \'smtp.gmail.com:587\'\nmail.settings.sender = \'papireddygarimaneesha88@gmail.com\'\nmail.settings.login = \'papireddygarimaneesha88:peddamallu\'\nresponse.write(\'\\n\', escape=False)\nmail.send(to=[\'chitra.khatwani19@gmail.com\'],\nsubject=\'hi\',\nmessage=\'hi manu\',\nattachments = [Mail.Attachment(\'my2.pdf\')])\nresponse.write(\'\\n</ul>\\n\', escape=False)\nresponse.write(\'\\n    </div>\\n    <!-- end content -->\\n    <div style="clear: both;">\\n     &nbsp;\\n    </div>\\n   </div>\\n   <!-- end page -->\\n  </div>\\n  <div id="footer">\\n   <p>\\n    &copy;2012 All Rights Reserved. &nbsp;&bull;&nbsp; Design by P.Maneesha,Chitra Khatwani,Rajat Bharadwaj\\n   </p>\\n  </div>\\n </body>\\n</html>\\n\', escape=False)'
p7
sS'snapshot'
p8
(dp9
S'exception'
p10
(dp11
S'__getslice__'
p12
S"<method-wrapper '__getslice__' of exceptions.IOError object>"
p13
sS'__str__'
p14
S"<method-wrapper '__str__' of exceptions.IOError object>"
p15
sS'__reduce__'
p16
S'<built-in method __reduce__ of exceptions.IOError object>'
p17
sS'__dict__'
p18
S'{}'
p19
sS'__sizeof__'
p20
S'<built-in method __sizeof__ of exceptions.IOError object>'
p21
sS'__init__'
p22
S"<method-wrapper '__init__' of exceptions.IOError object>"
p23
sS'__setattr__'
p24
S"<method-wrapper '__setattr__' of exceptions.IOError object>"
p25
sS'__reduce_ex__'
p26
S'<built-in method __reduce_ex__ of exceptions.IOError object>'
p27
sS'__new__'
p28
S'<built-in method __new__ of type object>'
p29
sS'errno'
p30
S'2'
sS'__format__'
p31
S'<built-in method __format__ of exceptions.IOError object>'
p32
sS'__class__'
p33
S"<type 'exceptions.IOError'>"
p34
sS'filename'
p35
S"'/home/maneesha/Downloads/web2py/.Rough'"
p36
sS'__doc__'
p37
S"'I/O operation failed.'"
p38
sS'__getitem__'
p39
S"<method-wrapper '__getitem__' of exceptions.IOError object>"
p40
sS'__setstate__'
p41
S'<built-in method __setstate__ of exceptions.IOError object>'
p42
sS'__getattribute__'
p43
S"<method-wrapper '__getattribute__' of exceptions.IOError object>"
p44
sS'args'
p45
S"(2, 'No such file or directory')"
p46
sS'__subclasshook__'
p47
S'<built-in method __subclasshook__ of type object>'
p48
sS'__unicode__'
p49
S'<built-in method __unicode__ of exceptions.IOError object>'
p50
sS'strerror'
p51
S"'No such file or directory'"
p52
sS'__delattr__'
p53
S"<method-wrapper '__delattr__' of exceptions.IOError object>"
p54
sS'__repr__'
p55
S"<method-wrapper '__repr__' of exceptions.IOError object>"
p56
sS'__hash__'
p57
S"<method-wrapper '__hash__' of exceptions.IOError object>"
p58
ssS'evalue'
p59
S"[Errno 2] No such file or directory: '/home/maneesha/Downloads/web2py/.Rough'"
p60
sS'request'
p61
ccopy_reg
_reconstructor
p62
(cgluon.html
BEAUTIFY
p63
c__builtin__
object
p64
NtRp65
(dp66
S'attributes'
p67
(dp68
sS'components'
p69
(lp70
g62
(cgluon.html
TABLE
p71
g64
NtRp72
(dp73
g67
(dp74
S'level'
p75
I5
ssS'parent'
p76
Nsg69
(lp77
g62
(cgluon.html
TR
p78
g64
NtRp79
(dp80
g67
(dp81
sg76
g72
sg69
(lp82
g62
(cgluon.html
TD
p83
g64
NtRp84
(dp85
g67
(dp86
S'_style'
p87
S'font-weight:bold;vertical-align:top'
p88
ssg76
g79
sg69
(lp89
S'ajax'
p90
asbag62
(g83
g64
NtRp91
(dp92
g67
(dp93
S'_valign'
p94
S'top'
p95
ssg76
g79
sg69
(lp96
S':'
asbag62
(g83
g64
NtRp97
(dp98
g67
(dp99
sg76
g79
sg69
(lp100
g62
(g63
g64
NtRp101
(dp102
g67
(dp103
g75
I5
ssg76
g97
sg69
(lp104
S'False'
p105
asbasbasbag62
(g78
g64
NtRp106
(dp107
g67
(dp108
sg76
g72
sg69
(lp109
g62
(g83
g64
NtRp110
(dp111
g67
(dp112
g87
g88
ssg76
g106
sg69
(lp113
S'application'
p114
asbag62
(g83
g64
NtRp115
(dp116
g67
(dp117
g94
g95
ssg76
g106
sg69
(lp118
S':'
asbag62
(g83
g64
NtRp119
(dp120
g67
(dp121
sg76
g106
sg69
(lp122
g62
(g63
g64
NtRp123
(dp124
g67
(dp125
g75
I5
ssg76
g119
sg69
(lp126
S'cite_m5'
p127
asbasbasbag62
(g78
g64
NtRp128
(dp129
g67
(dp130
sg76
g72
sg69
(lp131
g62
(g83
g64
NtRp132
(dp133
g67
(dp134
g87
g88
ssg76
g128
sg69
(lp135
g45
asbag62
(g83
g64
NtRp136
(dp137
g67
(dp138
g94
g95
ssg76
g128
sg69
(lp139
S':'
asbag62
(g83
g64
NtRp140
(dp141
g67
(dp142
sg76
g128
sg69
(lp143
g62
(g63
g64
NtRp144
(dp145
g67
(dp146
g75
I5
ssg76
g140
sg69
(lp147
g62
(g71
g64
NtRp148
(dp149
g67
(dp150
g75
I4
ssg76
Nsg69
(lp151
g62
(g78
g64
NtRp152
(dp153
g67
(dp154
sg76
g148
sg69
(lp155
g62
(g83
g64
NtRp156
(dp157
g67
(dp158
sg76
g152
sg69
(lp159
g62
(g63
g64
NtRp160
(dp161
g67
(dp162
g75
I4
ssg76
g156
sg69
(lp163
S'1'
asbasbasbasbasbasbasbag62
(g78
g64
NtRp164
(dp165
g67
(dp166
sg76
g72
sg69
(lp167
g62
(g83
g64
NtRp168
(dp169
g67
(dp170
g87
g88
ssg76
g164
sg69
(lp171
S'body'
p172
asbag62
(g83
g64
NtRp173
(dp174
g67
(dp175
g94
g95
ssg76
g164
sg69
(lp176
S':'
asbag62
(g83
g64
NtRp177
(dp178
g67
(dp179
sg76
g164
sg69
(lp180
g62
(g63
g64
NtRp181
(dp182
g67
(dp183
g75
I5
ssg76
g177
sg69
(lp184
S'<cStringIO.StringO object at 0x7fbd8872e1b8>'
p185
asbasbasbag62
(g78
g64
NtRp186
(dp187
g67
(dp188
sg76
g72
sg69
(lp189
g62
(g83
g64
NtRp190
(dp191
g67
(dp192
g87
g88
ssg76
g186
sg69
(lp193
S'client'
p194
asbag62
(g83
g64
NtRp195
(dp196
g67
(dp197
g94
g95
ssg76
g186
sg69
(lp198
S':'
asbag62
(g83
g64
NtRp199
(dp200
g67
(dp201
sg76
g186
sg69
(lp202
g62
(g63
g64
NtRp203
(dp204
g67
(dp205
g75
I5
ssg76
g199
sg69
(lp206
S'127.0.0.1'
p207
asbasbasbag62
(g78
g64
NtRp208
(dp209
g67
(dp210
sg76
g72
sg69
(lp211
g62
(g83
g64
NtRp212
(dp213
g67
(dp214
g87
g88
ssg76
g208
sg69
(lp215
S'controller'
p216
asbag62
(g83
g64
NtRp217
(dp218
g67
(dp219
g94
g95
ssg76
g208
sg69
(lp220
S':'
asbag62
(g83
g64
NtRp221
(dp222
g67
(dp223
sg76
g208
sg69
(lp224
g62
(g63
g64
NtRp225
(dp226
g67
(dp227
g75
I5
ssg76
g221
sg69
(lp228
S'default'
p229
asbasbasbag62
(g78
g64
NtRp230
(dp231
g67
(dp232
sg76
g72
sg69
(lp233
g62
(g83
g64
NtRp234
(dp235
g67
(dp236
g87
g88
ssg76
g230
sg69
(lp237
S'cookies'
p238
asbag62
(g83
g64
NtRp239
(dp240
g67
(dp241
g94
g95
ssg76
g230
sg69
(lp242
S':'
asbag62
(g83
g64
NtRp243
(dp244
g67
(dp245
sg76
g230
sg69
(lp246
g62
(g63
g64
NtRp247
(dp248
g67
(dp249
g75
I5
ssg76
g243
sg69
(lp250
g62
(g71
g64
NtRp251
(dp252
g67
(dp253
g75
I4
ssg76
Nsg69
(lp254
g62
(g78
g64
NtRp255
(dp256
g67
(dp257
sg76
g251
sg69
(lp258
g62
(g83
g64
NtRp259
(dp260
g67
(dp261
g87
g88
ssg76
g255
sg69
(lp262
S'session_id_admin'
p263
asbag62
(g83
g64
NtRp264
(dp265
g67
(dp266
g94
g95
ssg76
g255
sg69
(lp267
S':'
asbag62
(g83
g64
NtRp268
(dp269
g67
(dp270
sg76
g255
sg69
(lp271
g62
(g63
g64
NtRp272
(dp273
g67
(dp274
g75
I4
ssg76
g268
sg69
(lp275
g62
(g71
g64
NtRp276
(dp277
g67
(dp278
g75
I3
ssg76
Nsg69
(lp279
g62
(g78
g64
NtRp280
(dp281
g67
(dp282
sg76
g276
sg69
(lp283
g62
(g83
g64
NtRp284
(dp285
g67
(dp286
g87
g88
ssg76
g280
sg69
(lp287
S'comment'
p288
asbag62
(g83
g64
NtRp289
(dp290
g67
(dp291
g94
g95
ssg76
g280
sg69
(lp292
S':'
asbag62
(g83
g64
NtRp293
(dp294
g67
(dp295
sg76
g280
sg69
(lp296
g62
(g63
g64
NtRp297
(dp298
g67
(dp299
g75
I3
ssg76
g293
sg69
(lp300
S''
asbasbasbag62
(g78
g64
NtRp301
(dp302
g67
(dp303
sg76
g276
sg69
(lp304
g62
(g83
g64
NtRp305
(dp306
g67
(dp307
g87
g88
ssg76
g301
sg69
(lp308
S'domain'
p309
asbag62
(g83
g64
NtRp310
(dp311
g67
(dp312
g94
g95
ssg76
g301
sg69
(lp313
S':'
asbag62
(g83
g64
NtRp314
(dp315
g67
(dp316
sg76
g301
sg69
(lp317
g62
(g63
g64
NtRp318
(dp319
g67
(dp320
g75
I3
ssg76
g314
sg69
(lp321
S''
asbasbasbag62
(g78
g64
NtRp322
(dp323
g67
(dp324
sg76
g276
sg69
(lp325
g62
(g83
g64
NtRp326
(dp327
g67
(dp328
g87
g88
ssg76
g322
sg69
(lp329
S'expires'
p330
asbag62
(g83
g64
NtRp331
(dp332
g67
(dp333
g94
g95
ssg76
g322
sg69
(lp334
S':'
asbag62
(g83
g64
NtRp335
(dp336
g67
(dp337
sg76
g322
sg69
(lp338
g62
(g63
g64
NtRp339
(dp340
g67
(dp341
g75
I3
ssg76
g335
sg69
(lp342
S''
asbasbasbag62
(g78
g64
NtRp343
(dp344
g67
(dp345
sg76
g276
sg69
(lp346
g62
(g83
g64
NtRp347
(dp348
g67
(dp349
g87
g88
ssg76
g343
sg69
(lp350
S'httponly'
p351
asbag62
(g83
g64
NtRp352
(dp353
g67
(dp354
g94
g95
ssg76
g343
sg69
(lp355
S':'
asbag62
(g83
g64
NtRp356
(dp357
g67
(dp358
sg76
g343
sg69
(lp359
g62
(g63
g64
NtRp360
(dp361
g67
(dp362
g75
I3
ssg76
g356
sg69
(lp363
S''
asbasbasbag62
(g78
g64
NtRp364
(dp365
g67
(dp366
sg76
g276
sg69
(lp367
g62
(g83
g64
NtRp368
(dp369
g67
(dp370
g87
g88
ssg76
g364
sg69
(lp371
S'max-age'
p372
asbag62
(g83
g64
NtRp373
(dp374
g67
(dp375
g94
g95
ssg76
g364
sg69
(lp376
S':'
asbag62
(g83
g64
NtRp377
(dp378
g67
(dp379
sg76
g364
sg69
(lp380
g62
(g63
g64
NtRp381
(dp382
g67
(dp383
g75
I3
ssg76
g377
sg69
(lp384
S''
asbasbasbag62
(g78
g64
NtRp385
(dp386
g67
(dp387
sg76
g276
sg69
(lp388
g62
(g83
g64
NtRp389
(dp390
g67
(dp391
g87
g88
ssg76
g385
sg69
(lp392
S'path'
p393
asbag62
(g83
g64
NtRp394
(dp395
g67
(dp396
g94
g95
ssg76
g385
sg69
(lp397
S':'
asbag62
(g83
g64
NtRp398
(dp399
g67
(dp400
sg76
g385
sg69
(lp401
g62
(g63
g64
NtRp402
(dp403
g67
(dp404
g75
I3
ssg76
g398
sg69
(lp405
S''
asbasbasbag62
(g78
g64
NtRp406
(dp407
g67
(dp408
sg76
g276
sg69
(lp409
g62
(g83
g64
NtRp410
(dp411
g67
(dp412
g87
g88
ssg76
g406
sg69
(lp413
S'secure'
p414
asbag62
(g83
g64
NtRp415
(dp416
g67
(dp417
g94
g95
ssg76
g406
sg69
(lp418
S':'
asbag62
(g83
g64
NtRp419
(dp420
g67
(dp421
sg76
g406
sg69
(lp422
g62
(g63
g64
NtRp423
(dp424
g67
(dp425
g75
I3
ssg76
g419
sg69
(lp426
S''
asbasbasbag62
(g78
g64
NtRp427
(dp428
g67
(dp429
sg76
g276
sg69
(lp430
g62
(g83
g64
NtRp431
(dp432
g67
(dp433
g87
g88
ssg76
g427
sg69
(lp434
S'version'
p435
asbag62
(g83
g64
NtRp436
(dp437
g67
(dp438
g94
g95
ssg76
g427
sg69
(lp439
S':'
asbag62
(g83
g64
NtRp440
(dp441
g67
(dp442
sg76
g427
sg69
(lp443
g62
(g63
g64
NtRp444
(dp445
g67
(dp446
g75
I3
ssg76
g440
sg69
(lp447
S''
asbasbasbasbasbasbasbag62
(g78
g64
NtRp448
(dp449
g67
(dp450
sg76
g251
sg69
(lp451
g62
(g83
g64
NtRp452
(dp453
g67
(dp454
g87
g88
ssg76
g448
sg69
(lp455
S'session_id_cite_m22'
p456
asbag62
(g83
g64
NtRp457
(dp458
g67
(dp459
g94
g95
ssg76
g448
sg69
(lp460
S':'
asbag62
(g83
g64
NtRp461
(dp462
g67
(dp463
sg76
g448
sg69
(lp464
g62
(g63
g64
NtRp465
(dp466
g67
(dp467
g75
I4
ssg76
g461
sg69
(lp468
g62
(g71
g64
NtRp469
(dp470
g67
(dp471
g75
I3
ssg76
Nsg69
(lp472
g62
(g78
g64
NtRp473
(dp474
g67
(dp475
sg76
g469
sg69
(lp476
g62
(g83
g64
NtRp477
(dp478
g67
(dp479
g87
g88
ssg76
g473
sg69
(lp480
g288
asbag62
(g83
g64
NtRp481
(dp482
g67
(dp483
g94
g95
ssg76
g473
sg69
(lp484
S':'
asbag62
(g83
g64
NtRp485
(dp486
g67
(dp487
sg76
g473
sg69
(lp488
g62
(g63
g64
NtRp489
(dp490
g67
(dp491
g75
I3
ssg76
g485
sg69
(lp492
S''
asbasbasbag62
(g78
g64
NtRp493
(dp494
g67
(dp495
sg76
g469
sg69
(lp496
g62
(g83
g64
NtRp497
(dp498
g67
(dp499
g87
g88
ssg76
g493
sg69
(lp500
g309
asbag62
(g83
g64
NtRp501
(dp502
g67
(dp503
g94
g95
ssg76
g493
sg69
(lp504
S':'
asbag62
(g83
g64
NtRp505
(dp506
g67
(dp507
sg76
g493
sg69
(lp508
g62
(g63
g64
NtRp509
(dp510
g67
(dp511
g75
I3
ssg76
g505
sg69
(lp512
S''
asbasbasbag62
(g78
g64
NtRp513
(dp514
g67
(dp515
sg76
g469
sg69
(lp516
g62
(g83
g64
NtRp517
(dp518
g67
(dp519
g87
g88
ssg76
g513
sg69
(lp520
g330
asbag62
(g83
g64
NtRp521
(dp522
g67
(dp523
g94
g95
ssg76
g513
sg69
(lp524
S':'
asbag62
(g83
g64
NtRp525
(dp526
g67
(dp527
sg76
g513
sg69
(lp528
g62
(g63
g64
NtRp529
(dp530
g67
(dp531
g75
I3
ssg76
g525
sg69
(lp532
S''
asbasbasbag62
(g78
g64
NtRp533
(dp534
g67
(dp535
sg76
g469
sg69
(lp536
g62
(g83
g64
NtRp537
(dp538
g67
(dp539
g87
g88
ssg76
g533
sg69
(lp540
g351
asbag62
(g83
g64
NtRp541
(dp542
g67
(dp543
g94
g95
ssg76
g533
sg69
(lp544
S':'
asbag62
(g83
g64
NtRp545
(dp546
g67
(dp547
sg76
g533
sg69
(lp548
g62
(g63
g64
NtRp549
(dp550
g67
(dp551
g75
I3
ssg76
g545
sg69
(lp552
S''
asbasbasbag62
(g78
g64
NtRp553
(dp554
g67
(dp555
sg76
g469
sg69
(lp556
g62
(g83
g64
NtRp557
(dp558
g67
(dp559
g87
g88
ssg76
g553
sg69
(lp560
g372
asbag62
(g83
g64
NtRp561
(dp562
g67
(dp563
g94
g95
ssg76
g553
sg69
(lp564
S':'
asbag62
(g83
g64
NtRp565
(dp566
g67
(dp567
sg76
g553
sg69
(lp568
g62
(g63
g64
NtRp569
(dp570
g67
(dp571
g75
I3
ssg76
g565
sg69
(lp572
S''
asbasbasbag62
(g78
g64
NtRp573
(dp574
g67
(dp575
sg76
g469
sg69
(lp576
g62
(g83
g64
NtRp577
(dp578
g67
(dp579
g87
g88
ssg76
g573
sg69
(lp580
g393
asbag62
(g83
g64
NtRp581
(dp582
g67
(dp583
g94
g95
ssg76
g573
sg69
(lp584
S':'
asbag62
(g83
g64
NtRp585
(dp586
g67
(dp587
sg76
g573
sg69
(lp588
g62
(g63
g64
NtRp589
(dp590
g67
(dp591
g75
I3
ssg76
g585
sg69
(lp592
S''
asbasbasbag62
(g78
g64
NtRp593
(dp594
g67
(dp595
sg76
g469
sg69
(lp596
g62
(g83
g64
NtRp597
(dp598
g67
(dp599
g87
g88
ssg76
g593
sg69
(lp600
g414
asbag62
(g83
g64
NtRp601
(dp602
g67
(dp603
g94
g95
ssg76
g593
sg69
(lp604
S':'
asbag62
(g83
g64
NtRp605
(dp606
g67
(dp607
sg76
g593
sg69
(lp608
g62
(g63
g64
NtRp609
(dp610
g67
(dp611
g75
I3
ssg76
g605
sg69
(lp612
S''
asbasbasbag62
(g78
g64
NtRp613
(dp614
g67
(dp615
sg76
g469
sg69
(lp616
g62
(g83
g64
NtRp617
(dp618
g67
(dp619
g87
g88
ssg76
g613
sg69
(lp620
g435
asbag62
(g83
g64
NtRp621
(dp622
g67
(dp623
g94
g95
ssg76
g613
sg69
(lp624
S':'
asbag62
(g83
g64
NtRp625
(dp626
g67
(dp627
sg76
g613
sg69
(lp628
g62
(g63
g64
NtRp629
(dp630
g67
(dp631
g75
I3
ssg76
g625
sg69
(lp632
S''
asbasbasbasbasbasbasbag62
(g78
g64
NtRp633
(dp634
g67
(dp635
sg76
g251
sg69
(lp636
g62
(g83
g64
NtRp637
(dp638
g67
(dp639
g87
g88
ssg76
g633
sg69
(lp640
S'session_id_cite_m5'
p641
asbag62
(g83
g64
NtRp642
(dp643
g67
(dp644
g94
g95
ssg76
g633
sg69
(lp645
S':'
asbag62
(g83
g64
NtRp646
(dp647
g67
(dp648
sg76
g633
sg69
(lp649
g62
(g63
g64
NtRp650
(dp651
g67
(dp652
g75
I4
ssg76
g646
sg69
(lp653
g62
(g71
g64
NtRp654
(dp655
g67
(dp656
g75
I3
ssg76
Nsg69
(lp657
g62
(g78
g64
NtRp658
(dp659
g67
(dp660
sg76
g654
sg69
(lp661
g62
(g83
g64
NtRp662
(dp663
g67
(dp664
g87
g88
ssg76
g658
sg69
(lp665
g288
asbag62
(g83
g64
NtRp666
(dp667
g67
(dp668
g94
g95
ssg76
g658
sg69
(lp669
S':'
asbag62
(g83
g64
NtRp670
(dp671
g67
(dp672
sg76
g658
sg69
(lp673
g62
(g63
g64
NtRp674
(dp675
g67
(dp676
g75
I3
ssg76
g670
sg69
(lp677
S''
asbasbasbag62
(g78
g64
NtRp678
(dp679
g67
(dp680
sg76
g654
sg69
(lp681
g62
(g83
g64
NtRp682
(dp683
g67
(dp684
g87
g88
ssg76
g678
sg69
(lp685
g309
asbag62
(g83
g64
NtRp686
(dp687
g67
(dp688
g94
g95
ssg76
g678
sg69
(lp689
S':'
asbag62
(g83
g64
NtRp690
(dp691
g67
(dp692
sg76
g678
sg69
(lp693
g62
(g63
g64
NtRp694
(dp695
g67
(dp696
g75
I3
ssg76
g690
sg69
(lp697
S''
asbasbasbag62
(g78
g64
NtRp698
(dp699
g67
(dp700
sg76
g654
sg69
(lp701
g62
(g83
g64
NtRp702
(dp703
g67
(dp704
g87
g88
ssg76
g698
sg69
(lp705
g330
asbag62
(g83
g64
NtRp706
(dp707
g67
(dp708
g94
g95
ssg76
g698
sg69
(lp709
S':'
asbag62
(g83
g64
NtRp710
(dp711
g67
(dp712
sg76
g698
sg69
(lp713
g62
(g63
g64
NtRp714
(dp715
g67
(dp716
g75
I3
ssg76
g710
sg69
(lp717
S''
asbasbasbag62
(g78
g64
NtRp718
(dp719
g67
(dp720
sg76
g654
sg69
(lp721
g62
(g83
g64
NtRp722
(dp723
g67
(dp724
g87
g88
ssg76
g718
sg69
(lp725
g351
asbag62
(g83
g64
NtRp726
(dp727
g67
(dp728
g94
g95
ssg76
g718
sg69
(lp729
S':'
asbag62
(g83
g64
NtRp730
(dp731
g67
(dp732
sg76
g718
sg69
(lp733
g62
(g63
g64
NtRp734
(dp735
g67
(dp736
g75
I3
ssg76
g730
sg69
(lp737
S''
asbasbasbag62
(g78
g64
NtRp738
(dp739
g67
(dp740
sg76
g654
sg69
(lp741
g62
(g83
g64
NtRp742
(dp743
g67
(dp744
g87
g88
ssg76
g738
sg69
(lp745
g372
asbag62
(g83
g64
NtRp746
(dp747
g67
(dp748
g94
g95
ssg76
g738
sg69
(lp749
S':'
asbag62
(g83
g64
NtRp750
(dp751
g67
(dp752
sg76
g738
sg69
(lp753
g62
(g63
g64
NtRp754
(dp755
g67
(dp756
g75
I3
ssg76
g750
sg69
(lp757
S''
asbasbasbag62
(g78
g64
NtRp758
(dp759
g67
(dp760
sg76
g654
sg69
(lp761
g62
(g83
g64
NtRp762
(dp763
g67
(dp764
g87
g88
ssg76
g758
sg69
(lp765
g393
asbag62
(g83
g64
NtRp766
(dp767
g67
(dp768
g94
g95
ssg76
g758
sg69
(lp769
S':'
asbag62
(g83
g64
NtRp770
(dp771
g67
(dp772
sg76
g758
sg69
(lp773
g62
(g63
g64
NtRp774
(dp775
g67
(dp776
g75
I3
ssg76
g770
sg69
(lp777
S''
asbasbasbag62
(g78
g64
NtRp778
(dp779
g67
(dp780
sg76
g654
sg69
(lp781
g62
(g83
g64
NtRp782
(dp783
g67
(dp784
g87
g88
ssg76
g778
sg69
(lp785
g414
asbag62
(g83
g64
NtRp786
(dp787
g67
(dp788
g94
g95
ssg76
g778
sg69
(lp789
S':'
asbag62
(g83
g64
NtRp790
(dp791
g67
(dp792
sg76
g778
sg69
(lp793
g62
(g63
g64
NtRp794
(dp795
g67
(dp796
g75
I3
ssg76
g790
sg69
(lp797
S''
asbasbasbag62
(g78
g64
NtRp798
(dp799
g67
(dp800
sg76
g654
sg69
(lp801
g62
(g83
g64
NtRp802
(dp803
g67
(dp804
g87
g88
ssg76
g798
sg69
(lp805
g435
asbag62
(g83
g64
NtRp806
(dp807
g67
(dp808
g94
g95
ssg76
g798
sg69
(lp809
S':'
asbag62
(g83
g64
NtRp810
(dp811
g67
(dp812
sg76
g798
sg69
(lp813
g62
(g63
g64
NtRp814
(dp815
g67
(dp816
g75
I3
ssg76
g810
sg69
(lp817
S''
asbasbasbasbasbasbasbag62
(g78
g64
NtRp818
(dp819
g67
(dp820
sg76
g251
sg69
(lp821
g62
(g83
g64
NtRp822
(dp823
g67
(dp824
g87
g88
ssg76
g818
sg69
(lp825
S'session_id_welcome'
p826
asbag62
(g83
g64
NtRp827
(dp828
g67
(dp829
g94
g95
ssg76
g818
sg69
(lp830
S':'
asbag62
(g83
g64
NtRp831
(dp832
g67
(dp833
sg76
g818
sg69
(lp834
g62
(g63
g64
NtRp835
(dp836
g67
(dp837
g75
I4
ssg76
g831
sg69
(lp838
g62
(g71
g64
NtRp839
(dp840
g67
(dp841
g75
I3
ssg76
Nsg69
(lp842
g62
(g78
g64
NtRp843
(dp844
g67
(dp845
sg76
g839
sg69
(lp846
g62
(g83
g64
NtRp847
(dp848
g67
(dp849
g87
g88
ssg76
g843
sg69
(lp850
g288
asbag62
(g83
g64
NtRp851
(dp852
g67
(dp853
g94
g95
ssg76
g843
sg69
(lp854
S':'
asbag62
(g83
g64
NtRp855
(dp856
g67
(dp857
sg76
g843
sg69
(lp858
g62
(g63
g64
NtRp859
(dp860
g67
(dp861
g75
I3
ssg76
g855
sg69
(lp862
S''
asbasbasbag62
(g78
g64
NtRp863
(dp864
g67
(dp865
sg76
g839
sg69
(lp866
g62
(g83
g64
NtRp867
(dp868
g67
(dp869
g87
g88
ssg76
g863
sg69
(lp870
g309
asbag62
(g83
g64
NtRp871
(dp872
g67
(dp873
g94
g95
ssg76
g863
sg69
(lp874
S':'
asbag62
(g83
g64
NtRp875
(dp876
g67
(dp877
sg76
g863
sg69
(lp878
g62
(g63
g64
NtRp879
(dp880
g67
(dp881
g75
I3
ssg76
g875
sg69
(lp882
S''
asbasbasbag62
(g78
g64
NtRp883
(dp884
g67
(dp885
sg76
g839
sg69
(lp886
g62
(g83
g64
NtRp887
(dp888
g67
(dp889
g87
g88
ssg76
g883
sg69
(lp890
g330
asbag62
(g83
g64
NtRp891
(dp892
g67
(dp893
g94
g95
ssg76
g883
sg69
(lp894
S':'
asbag62
(g83
g64
NtRp895
(dp896
g67
(dp897
sg76
g883
sg69
(lp898
g62
(g63
g64
NtRp899
(dp900
g67
(dp901
g75
I3
ssg76
g895
sg69
(lp902
S''
asbasbasbag62
(g78
g64
NtRp903
(dp904
g67
(dp905
sg76
g839
sg69
(lp906
g62
(g83
g64
NtRp907
(dp908
g67
(dp909
g87
g88
ssg76
g903
sg69
(lp910
g351
asbag62
(g83
g64
NtRp911
(dp912
g67
(dp913
g94
g95
ssg76
g903
sg69
(lp914
S':'
asbag62
(g83
g64
NtRp915
(dp916
g67
(dp917
sg76
g903
sg69
(lp918
g62
(g63
g64
NtRp919
(dp920
g67
(dp921
g75
I3
ssg76
g915
sg69
(lp922
S''
asbasbasbag62
(g78
g64
NtRp923
(dp924
g67
(dp925
sg76
g839
sg69
(lp926
g62
(g83
g64
NtRp927
(dp928
g67
(dp929
g87
g88
ssg76
g923
sg69
(lp930
g372
asbag62
(g83
g64
NtRp931
(dp932
g67
(dp933
g94
g95
ssg76
g923
sg69
(lp934
S':'
asbag62
(g83
g64
NtRp935
(dp936
g67
(dp937
sg76
g923
sg69
(lp938
g62
(g63
g64
NtRp939
(dp940
g67
(dp941
g75
I3
ssg76
g935
sg69
(lp942
S''
asbasbasbag62
(g78
g64
NtRp943
(dp944
g67
(dp945
sg76
g839
sg69
(lp946
g62
(g83
g64
NtRp947
(dp948
g67
(dp949
g87
g88
ssg76
g943
sg69
(lp950
g393
asbag62
(g83
g64
NtRp951
(dp952
g67
(dp953
g94
g95
ssg76
g943
sg69
(lp954
S':'
asbag62
(g83
g64
NtRp955
(dp956
g67
(dp957
sg76
g943
sg69
(lp958
g62
(g63
g64
NtRp959
(dp960
g67
(dp961
g75
I3
ssg76
g955
sg69
(lp962
S''
asbasbasbag62
(g78
g64
NtRp963
(dp964
g67
(dp965
sg76
g839
sg69
(lp966
g62
(g83
g64
NtRp967
(dp968
g67
(dp969
g87
g88
ssg76
g963
sg69
(lp970
g414
asbag62
(g83
g64
NtRp971
(dp972
g67
(dp973
g94
g95
ssg76
g963
sg69
(lp974
S':'
asbag62
(g83
g64
NtRp975
(dp976
g67
(dp977
sg76
g963
sg69
(lp978
g62
(g63
g64
NtRp979
(dp980
g67
(dp981
g75
I3
ssg76
g975
sg69
(lp982
S''
asbasbasbag62
(g78
g64
NtRp983
(dp984
g67
(dp985
sg76
g839
sg69
(lp986
g62
(g83
g64
NtRp987
(dp988
g67
(dp989
g87
g88
ssg76
g983
sg69
(lp990
g435
asbag62
(g83
g64
NtRp991
(dp992
g67
(dp993
g94
g95
ssg76
g983
sg69
(lp994
S':'
asbag62
(g83
g64
NtRp995
(dp996
g67
(dp997
sg76
g983
sg69
(lp998
g62
(g63
g64
NtRp999
(dp1000
g67
(dp1001
g75
I3
ssg76
g995
sg69
(lp1002
S''
asbasbasbasbasbasbasbasbasbasbasbag62
(g78
g64
NtRp1003
(dp1004
g67
(dp1005
sg76
g72
sg69
(lp1006
g62
(g83
g64
NtRp1007
(dp1008
g67
(dp1009
g87
g88
ssg76
g1003
sg69
(lp1010
S'env'
p1011
asbag62
(g83
g64
NtRp1012
(dp1013
g67
(dp1014
g94
g95
ssg76
g1003
sg69
(lp1015
S':'
asbag62
(g83
g64
NtRp1016
(dp1017
g67
(dp1018
sg76
g1003
sg69
(lp1019
g62
(g63
g64
NtRp1020
(dp1021
g67
(dp1022
g75
I5
ssg76
g1016
sg69
(lp1023
g62
(g71
g64
NtRp1024
(dp1025
g67
(dp1026
g75
I4
ssg76
Nsg69
(lp1027
g62
(g78
g64
NtRp1028
(dp1029
g67
(dp1030
sg76
g1024
sg69
(lp1031
g62
(g83
g64
NtRp1032
(dp1033
g67
(dp1034
g87
g88
ssg76
g1028
sg69
(lp1035
S'app_folders'
p1036
asbag62
(g83
g64
NtRp1037
(dp1038
g67
(dp1039
g94
g95
ssg76
g1028
sg69
(lp1040
S':'
asbag62
(g83
g64
NtRp1041
(dp1042
g67
(dp1043
sg76
g1028
sg69
(lp1044
g62
(g63
g64
NtRp1045
(dp1046
g67
(dp1047
g75
I4
ssg76
g1041
sg69
(lp1048
S"set(['/home/chitra/courses/SSAD/web2py/applications/cite_m22/', '/home/chitra/courses/SSAD/web2py/applications/welcome/', '/home/chitra/courses/SSAD/web2py/applications/cite_m5/', '/home/chitra/courses/SSAD/web2py/applications/admin/'])"
p1049
asbasbasbag62
(g78
g64
NtRp1050
(dp1051
g67
(dp1052
sg76
g1024
sg69
(lp1053
g62
(g83
g64
NtRp1054
(dp1055
g67
(dp1056
g87
g88
ssg76
g1050
sg69
(lp1057
S'applications_parent'
p1058
asbag62
(g83
g64
NtRp1059
(dp1060
g67
(dp1061
g94
g95
ssg76
g1050
sg69
(lp1062
S':'
asbag62
(g83
g64
NtRp1063
(dp1064
g67
(dp1065
sg76
g1050
sg69
(lp1066
g62
(g63
g64
NtRp1067
(dp1068
g67
(dp1069
g75
I4
ssg76
g1063
sg69
(lp1070
S'/home/chitra/courses/SSAD/web2py'
p1071
asbasbasbag62
(g78
g64
NtRp1072
(dp1073
g67
(dp1074
sg76
g1024
sg69
(lp1075
g62
(g83
g64
NtRp1076
(dp1077
g67
(dp1078
g87
g88
ssg76
g1072
sg69
(lp1079
S'cmd_args'
p1080
asbag62
(g83
g64
NtRp1081
(dp1082
g67
(dp1083
g94
g95
ssg76
g1072
sg69
(lp1084
S':'
asbag62
(g83
g64
NtRp1085
(dp1086
g67
(dp1087
sg76
g1072
sg69
(lp1088
g62
(g63
g64
NtRp1089
(dp1090
g67
(dp1091
g75
I4
ssg76
g1085
sg69
(lp1092
g62
(g71
g64
NtRp1093
(dp1094
g67
(dp1095
g75
I3
ssg76
Nsg69
(lp1096
sbasbasbasbag62
(g78
g64
NtRp1097
(dp1098
g67
(dp1099
sg76
g1024
sg69
(lp1100
g62
(g83
g64
NtRp1101
(dp1102
g67
(dp1103
g87
g88
ssg76
g1097
sg69
(lp1104
S'cmd_options'
p1105
asbag62
(g83
g64
NtRp1106
(dp1107
g67
(dp1108
g94
g95
ssg76
g1097
sg69
(lp1109
S':'
asbag62
(g83
g64
NtRp1110
(dp1111
g67
(dp1112
sg76
g1097
sg69
(lp1113
g62
(g63
g64
NtRp1114
(dp1115
g67
(dp1116
g75
I4
ssg76
g1110
sg69
(lp1117
S"<Values at 0x2bd8b48: {'verbose': False, 'ip': '127.0.0.1', 'shutdown_timeout': 5, 'taskbar': False, 'nocron': False, 'pid_filename': 'httpserver.pid', 'maxthreads': None, 'softcron': False, 'server_name': 'chitra-HP-Pavilion-dv6-Notebook-PC', 'bpython': False, 'nogui': False, 'port': 8000, 'extcron': False, 'debuglevel': 30, 'test': None, 'folder': '/home/chitra/courses/SSAD/web2py', 'config': '', 'import_models': False, 'winservice': '', 'shell': None, 'run': '', 'log_filename': 'httpserver.log', 'args': [''], 'socket_timeout': 5, 'ssl_ca_certificate': None, 'scheduler': None, 'profiler_filename': None, 'ssl_private_key': '', 'password': '<ask>', 'request_queue_size': 5, 'ssl_certificate': '', 'cronjob': False, 'numthreads': None, 'quiet': False, 'interfaces': None, 'minthreads': None, 'timeout': 10, 'plain': False, 'nobanner': False}>"
p1118
asbasbasbag62
(g78
g64
NtRp1119
(dp1120
g67
(dp1121
sg76
g1024
sg69
(lp1122
g62
(g83
g64
NtRp1123
(dp1124
g67
(dp1125
g87
g88
ssg76
g1119
sg69
(lp1126
S'db_sessions'
p1127
asbag62
(g83
g64
NtRp1128
(dp1129
g67
(dp1130
g94
g95
ssg76
g1119
sg69
(lp1131
S':'
asbag62
(g83
g64
NtRp1132
(dp1133
g67
(dp1134
sg76
g1119
sg69
(lp1135
g62
(g63
g64
NtRp1136
(dp1137
g67
(dp1138
g75
I4
ssg76
g1132
sg69
(lp1139
S'set([])'
p1140
asbasbasbag62
(g78
g64
NtRp1141
(dp1142
g67
(dp1143
sg76
g1024
sg69
(lp1144
g62
(g83
g64
NtRp1145
(dp1146
g67
(dp1147
g87
g88
ssg76
g1141
sg69
(lp1148
S'debugging'
p1149
asbag62
(g83
g64
NtRp1150
(dp1151
g67
(dp1152
g94
g95
ssg76
g1141
sg69
(lp1153
S':'
asbag62
(g83
g64
NtRp1154
(dp1155
g67
(dp1156
sg76
g1141
sg69
(lp1157
g62
(g63
g64
NtRp1158
(dp1159
g67
(dp1160
g75
I4
ssg76
g1154
sg69
(lp1161
g105
asbasbasbag62
(g78
g64
NtRp1162
(dp1163
g67
(dp1164
sg76
g1024
sg69
(lp1165
g62
(g83
g64
NtRp1166
(dp1167
g67
(dp1168
g87
g88
ssg76
g1162
sg69
(lp1169
S'gluon_parent'
p1170
asbag62
(g83
g64
NtRp1171
(dp1172
g67
(dp1173
g94
g95
ssg76
g1162
sg69
(lp1174
S':'
asbag62
(g83
g64
NtRp1175
(dp1176
g67
(dp1177
sg76
g1162
sg69
(lp1178
g62
(g63
g64
NtRp1179
(dp1180
g67
(dp1181
g75
I4
ssg76
g1175
sg69
(lp1182
S'/home/chitra/courses/SSAD/web2py'
p1183
asbasbasbag62
(g78
g64
NtRp1184
(dp1185
g67
(dp1186
sg76
g1024
sg69
(lp1187
g62
(g83
g64
NtRp1188
(dp1189
g67
(dp1190
g87
g88
ssg76
g1184
sg69
(lp1191
S'http_accept'
p1192
asbag62
(g83
g64
NtRp1193
(dp1194
g67
(dp1195
g94
g95
ssg76
g1184
sg69
(lp1196
S':'
asbag62
(g83
g64
NtRp1197
(dp1198
g67
(dp1199
sg76
g1184
sg69
(lp1200
g62
(g63
g64
NtRp1201
(dp1202
g67
(dp1203
g75
I4
ssg76
g1197
sg69
(lp1204
S'text/html,application/xhtml+xml,application/xml;q=0.9,*/*;q=0.8'
p1205
asbasbasbag62
(g78
g64
NtRp1206
(dp1207
g67
(dp1208
sg76
g1024
sg69
(lp1209
g62
(g83
g64
NtRp1210
(dp1211
g67
(dp1212
g87
g88
ssg76
g1206
sg69
(lp1213
S'http_accept_encoding'
p1214
asbag62
(g83
g64
NtRp1215
(dp1216
g67
(dp1217
g94
g95
ssg76
g1206
sg69
(lp1218
S':'
asbag62
(g83
g64
NtRp1219
(dp1220
g67
(dp1221
sg76
g1206
sg69
(lp1222
g62
(g63
g64
NtRp1223
(dp1224
g67
(dp1225
g75
I4
ssg76
g1219
sg69
(lp1226
S'gzip, deflate'
p1227
asbasbasbag62
(g78
g64
NtRp1228
(dp1229
g67
(dp1230
sg76
g1024
sg69
(lp1231
g62
(g83
g64
NtRp1232
(dp1233
g67
(dp1234
g87
g88
ssg76
g1228
sg69
(lp1235
S'http_accept_language'
p1236
asbag62
(g83
g64
NtRp1237
(dp1238
g67
(dp1239
g94
g95
ssg76
g1228
sg69
(lp1240
S':'
asbag62
(g83
g64
NtRp1241
(dp1242
g67
(dp1243
sg76
g1228
sg69
(lp1244
g62
(g63
g64
NtRp1245
(dp1246
g67
(dp1247
g75
I4
ssg76
g1241
sg69
(lp1248
S'en-us,en;q=0.5'
p1249
asbasbasbag62
(g78
g64
NtRp1250
(dp1251
g67
(dp1252
sg76
g1024
sg69
(lp1253
g62
(g83
g64
NtRp1254
(dp1255
g67
(dp1256
g87
g88
ssg76
g1250
sg69
(lp1257
S'http_connection'
p1258
asbag62
(g83
g64
NtRp1259
(dp1260
g67
(dp1261
g94
g95
ssg76
g1250
sg69
(lp1262
S':'
asbag62
(g83
g64
NtRp1263
(dp1264
g67
(dp1265
sg76
g1250
sg69
(lp1266
g62
(g63
g64
NtRp1267
(dp1268
g67
(dp1269
g75
I4
ssg76
g1263
sg69
(lp1270
S'keep-alive'
p1271
asbasbasbag62
(g78
g64
NtRp1272
(dp1273
g67
(dp1274
sg76
g1024
sg69
(lp1275
g62
(g83
g64
NtRp1276
(dp1277
g67
(dp1278
g87
g88
ssg76
g1272
sg69
(lp1279
S'http_cookie'
p1280
asbag62
(g83
g64
NtRp1281
(dp1282
g67
(dp1283
g94
g95
ssg76
g1272
sg69
(lp1284
S':'
asbag62
(g83
g64
NtRp1285
(dp1286
g67
(dp1287
sg76
g1272
sg69
(lp1288
g62
(g63
g64
NtRp1289
(dp1290
g67
(dp1291
g75
I4
ssg76
g1285
sg69
(lp1292
S'session_id_welcome=127.0.0.1-a6c88c71-9608-4012-94c8-79cd2d75eafa; session_id_admin=127.0.0.1-70cad1ca-c74c-4e34-a495-678fca9189ef; session_id_cite_m22=127.0.0.1-e3dcd446-1fd1-4868-b5d1-7f33d9a6d234; session_id_cite_m5=127.0.0.1-6b5fef13-ab11-4a8b-a8a1-45e33faa95ff'
p1293
asbasbasbag62
(g78
g64
NtRp1294
(dp1295
g67
(dp1296
sg76
g1024
sg69
(lp1297
g62
(g83
g64
NtRp1298
(dp1299
g67
(dp1300
g87
g88
ssg76
g1294
sg69
(lp1301
S'http_host'
p1302
asbag62
(g83
g64
NtRp1303
(dp1304
g67
(dp1305
g94
g95
ssg76
g1294
sg69
(lp1306
S':'
asbag62
(g83
g64
NtRp1307
(dp1308
g67
(dp1309
sg76
g1294
sg69
(lp1310
g62
(g63
g64
NtRp1311
(dp1312
g67
(dp1313
g75
I4
ssg76
g1307
sg69
(lp1314
S'127.0.0.1:8000'
p1315
asbasbasbag62
(g78
g64
NtRp1316
(dp1317
g67
(dp1318
sg76
g1024
sg69
(lp1319
g62
(g83
g64
NtRp1320
(dp1321
g67
(dp1322
g87
g88
ssg76
g1316
sg69
(lp1323
S'http_referer'
p1324
asbag62
(g83
g64
NtRp1325
(dp1326
g67
(dp1327
g94
g95
ssg76
g1316
sg69
(lp1328
S':'
asbag62
(g83
g64
NtRp1329
(dp1330
g67
(dp1331
sg76
g1316
sg69
(lp1332
g62
(g63
g64
NtRp1333
(dp1334
g67
(dp1335
g75
I4
ssg76
g1329
sg69
(lp1336
S'http://127.0.0.1:8000/cite_m5/default/final_ans'
p1337
asbasbasbag62
(g78
g64
NtRp1338
(dp1339
g67
(dp1340
sg76
g1024
sg69
(lp1341
g62
(g83
g64
NtRp1342
(dp1343
g67
(dp1344
g87
g88
ssg76
g1338
sg69
(lp1345
S'http_user_agent'
p1346
asbag62
(g83
g64
NtRp1347
(dp1348
g67
(dp1349
g94
g95
ssg76
g1338
sg69
(lp1350
S':'
asbag62
(g83
g64
NtRp1351
(dp1352
g67
(dp1353
sg76
g1338
sg69
(lp1354
g62
(g63
g64
NtRp1355
(dp1356
g67
(dp1357
g75
I4
ssg76
g1351
sg69
(lp1358
S'Mozilla/5.0 (X11; Ubuntu; Linux x86_64; rv:13.0) Gecko/20100101 Firefox/13.0.1'
p1359
asbasbasbag62
(g78
g64
NtRp1360
(dp1361
g67
(dp1362
sg76
g1024
sg69
(lp1363
g62
(g83
g64
NtRp1364
(dp1365
g67
(dp1366
g87
g88
ssg76
g1360
sg69
(lp1367
S'is_jython'
p1368
asbag62
(g83
g64
NtRp1369
(dp1370
g67
(dp1371
g94
g95
ssg76
g1360
sg69
(lp1372
S':'
asbag62
(g83
g64
NtRp1373
(dp1374
g67
(dp1375
sg76
g1360
sg69
(lp1376
g62
(g63
g64
NtRp1377
(dp1378
g67
(dp1379
g75
I4
ssg76
g1373
sg69
(lp1380
g105
asbasbasbag62
(g78
g64
NtRp1381
(dp1382
g67
(dp1383
sg76
g1024
sg69
(lp1384
g62
(g83
g64
NtRp1385
(dp1386
g67
(dp1387
g87
g88
ssg76
g1381
sg69
(lp1388
S'is_pypy'
p1389
asbag62
(g83
g64
NtRp1390
(dp1391
g67
(dp1392
g94
g95
ssg76
g1381
sg69
(lp1393
S':'
asbag62
(g83
g64
NtRp1394
(dp1395
g67
(dp1396
sg76
g1381
sg69
(lp1397
g62
(g63
g64
NtRp1398
(dp1399
g67
(dp1400
g75
I4
ssg76
g1394
sg69
(lp1401
g105
asbasbasbag62
(g78
g64
NtRp1402
(dp1403
g67
(dp1404
sg76
g1024
sg69
(lp1405
g62
(g83
g64
NtRp1406
(dp1407
g67
(dp1408
g87
g88
ssg76
g1402
sg69
(lp1409
S'path_info'
p1410
asbag62
(g83
g64
NtRp1411
(dp1412
g67
(dp1413
g94
g95
ssg76
g1402
sg69
(lp1414
S':'
asbag62
(g83
g64
NtRp1415
(dp1416
g67
(dp1417
sg76
g1402
sg69
(lp1418
g62
(g63
g64
NtRp1419
(dp1420
g67
(dp1421
g75
I4
ssg76
g1415
sg69
(lp1422
S'/cite_m5/default/sorting/1'
p1423
asbasbasbag62
(g78
g64
NtRp1424
(dp1425
g67
(dp1426
sg76
g1024
sg69
(lp1427
g62
(g83
g64
NtRp1428
(dp1429
g67
(dp1430
g87
g88
ssg76
g1424
sg69
(lp1431
S'query_string'
p1432
asbag62
(g83
g64
NtRp1433
(dp1434
g67
(dp1435
g94
g95
ssg76
g1424
sg69
(lp1436
S':'
asbag62
(g83
g64
NtRp1437
(dp1438
g67
(dp1439
sg76
g1424
sg69
(lp1440
g62
(g63
g64
NtRp1441
(dp1442
g67
(dp1443
g75
I4
ssg76
g1437
sg69
(lp1444
S''
asbasbasbag62
(g78
g64
NtRp1445
(dp1446
g67
(dp1447
sg76
g1024
sg69
(lp1448
g62
(g83
g64
NtRp1449
(dp1450
g67
(dp1451
g87
g88
ssg76
g1445
sg69
(lp1452
S'remote_addr'
p1453
asbag62
(g83
g64
NtRp1454
(dp1455
g67
(dp1456
g94
g95
ssg76
g1445
sg69
(lp1457
S':'
asbag62
(g83
g64
NtRp1458
(dp1459
g67
(dp1460
sg76
g1445
sg69
(lp1461
g62
(g63
g64
NtRp1462
(dp1463
g67
(dp1464
g75
I4
ssg76
g1458
sg69
(lp1465
g207
asbasbasbag62
(g78
g64
NtRp1466
(dp1467
g67
(dp1468
sg76
g1024
sg69
(lp1469
g62
(g83
g64
NtRp1470
(dp1471
g67
(dp1472
g87
g88
ssg76
g1466
sg69
(lp1473
S'remote_port'
p1474
asbag62
(g83
g64
NtRp1475
(dp1476
g67
(dp1477
g94
g95
ssg76
g1466
sg69
(lp1478
S':'
asbag62
(g83
g64
NtRp1479
(dp1480
g67
(dp1481
sg76
g1466
sg69
(lp1482
g62
(g63
g64
NtRp1483
(dp1484
g67
(dp1485
g75
I4
ssg76
g1479
sg69
(lp1486
S'42927'
p1487
asbasbasbag62
(g78
g64
NtRp1488
(dp1489
g67
(dp1490
sg76
g1024
sg69
(lp1491
g62
(g83
g64
NtRp1492
(dp1493
g67
(dp1494
g87
g88
ssg76
g1488
sg69
(lp1495
S'request_method'
p1496
asbag62
(g83
g64
NtRp1497
(dp1498
g67
(dp1499
g94
g95
ssg76
g1488
sg69
(lp1500
S':'
asbag62
(g83
g64
NtRp1501
(dp1502
g67
(dp1503
sg76
g1488
sg69
(lp1504
g62
(g63
g64
NtRp1505
(dp1506
g67
(dp1507
g75
I4
ssg76
g1501
sg69
(lp1508
S'GET'
p1509
asbasbasbag62
(g78
g64
NtRp1510
(dp1511
g67
(dp1512
sg76
g1024
sg69
(lp1513
g62
(g83
g64
NtRp1514
(dp1515
g67
(dp1516
g87
g88
ssg76
g1510
sg69
(lp1517
S'script_name'
p1518
asbag62
(g83
g64
NtRp1519
(dp1520
g67
(dp1521
g94
g95
ssg76
g1510
sg69
(lp1522
S':'
asbag62
(g83
g64
NtRp1523
(dp1524
g67
(dp1525
sg76
g1510
sg69
(lp1526
g62
(g63
g64
NtRp1527
(dp1528
g67
(dp1529
g75
I4
ssg76
g1523
sg69
(lp1530
S''
asbasbasbag62
(g78
g64
NtRp1531
(dp1532
g67
(dp1533
sg76
g1024
sg69
(lp1534
g62
(g83
g64
NtRp1535
(dp1536
g67
(dp1537
g87
g88
ssg76
g1531
sg69
(lp1538
S'server_name'
p1539
asbag62
(g83
g64
NtRp1540
(dp1541
g67
(dp1542
g94
g95
ssg76
g1531
sg69
(lp1543
S':'
asbag62
(g83
g64
NtRp1544
(dp1545
g67
(dp1546
sg76
g1531
sg69
(lp1547
g62
(g63
g64
NtRp1548
(dp1549
g67
(dp1550
g75
I4
ssg76
g1544
sg69
(lp1551
S'chitra-HP-Pavilion-dv6-Notebook-PC'
p1552
asbasbasbag62
(g78
g64
NtRp1553
(dp1554
g67
(dp1555
sg76
g1024
sg69
(lp1556
g62
(g83
g64
NtRp1557
(dp1558
g67
(dp1559
g87
g88
ssg76
g1553
sg69
(lp1560
S'server_port'
p1561
asbag62
(g83
g64
NtRp1562
(dp1563
g67
(dp1564
g94
g95
ssg76
g1553
sg69
(lp1565
S':'
asbag62
(g83
g64
NtRp1566
(dp1567
g67
(dp1568
sg76
g1553
sg69
(lp1569
g62
(g63
g64
NtRp1570
(dp1571
g67
(dp1572
g75
I4
ssg76
g1566
sg69
(lp1573
S'8000'
p1574
asbasbasbag62
(g78
g64
NtRp1575
(dp1576
g67
(dp1577
sg76
g1024
sg69
(lp1578
g62
(g83
g64
NtRp1579
(dp1580
g67
(dp1581
g87
g88
ssg76
g1575
sg69
(lp1582
S'server_protocol'
p1583
asbag62
(g83
g64
NtRp1584
(dp1585
g67
(dp1586
g94
g95
ssg76
g1575
sg69
(lp1587
S':'
asbag62
(g83
g64
NtRp1588
(dp1589
g67
(dp1590
sg76
g1575
sg69
(lp1591
g62
(g63
g64
NtRp1592
(dp1593
g67
(dp1594
g75
I4
ssg76
g1588
sg69
(lp1595
S'HTTP/1.1'
p1596
asbasbasbag62
(g78
g64
NtRp1597
(dp1598
g67
(dp1599
sg76
g1024
sg69
(lp1600
g62
(g83
g64
NtRp1601
(dp1602
g67
(dp1603
g87
g88
ssg76
g1597
sg69
(lp1604
S'server_software'
p1605
asbag62
(g83
g64
NtRp1606
(dp1607
g67
(dp1608
g94
g95
ssg76
g1597
sg69
(lp1609
S':'
asbag62
(g83
g64
NtRp1610
(dp1611
g67
(dp1612
sg76
g1597
sg69
(lp1613
g62
(g63
g64
NtRp1614
(dp1615
g67
(dp1616
g75
I4
ssg76
g1610
sg69
(lp1617
S'Rocket 1.2.4'
p1618
asbasbasbag62
(g78
g64
NtRp1619
(dp1620
g67
(dp1621
sg76
g1024
sg69
(lp1622
g62
(g83
g64
NtRp1623
(dp1624
g67
(dp1625
g87
g88
ssg76
g1619
sg69
(lp1626
S'web2py_crontype'
p1627
asbag62
(g83
g64
NtRp1628
(dp1629
g67
(dp1630
g94
g95
ssg76
g1619
sg69
(lp1631
S':'
asbag62
(g83
g64
NtRp1632
(dp1633
g67
(dp1634
sg76
g1619
sg69
(lp1635
g62
(g63
g64
NtRp1636
(dp1637
g67
(dp1638
g75
I4
ssg76
g1632
sg69
(lp1639
S'hard'
p1640
asbasbasbag62
(g78
g64
NtRp1641
(dp1642
g67
(dp1643
sg76
g1024
sg69
(lp1644
g62
(g83
g64
NtRp1645
(dp1646
g67
(dp1647
g87
g88
ssg76
g1641
sg69
(lp1648
S'web2py_path'
p1649
asbag62
(g83
g64
NtRp1650
(dp1651
g67
(dp1652
g94
g95
ssg76
g1641
sg69
(lp1653
S':'
asbag62
(g83
g64
NtRp1654
(dp1655
g67
(dp1656
sg76
g1641
sg69
(lp1657
g62
(g63
g64
NtRp1658
(dp1659
g67
(dp1660
g75
I4
ssg76
g1654
sg69
(lp1661
g1071
asbasbasbag62
(g78
g64
NtRp1662
(dp1663
g67
(dp1664
sg76
g1024
sg69
(lp1665
g62
(g83
g64
NtRp1666
(dp1667
g67
(dp1668
g87
g88
ssg76
g1662
sg69
(lp1669
S'web2py_version'
p1670
asbag62
(g83
g64
NtRp1671
(dp1672
g67
(dp1673
g94
g95
ssg76
g1662
sg69
(lp1674
S':'
asbag62
(g83
g64
NtRp1675
(dp1676
g67
(dp1677
sg76
g1662
sg69
(lp1678
g62
(g63
g64
NtRp1679
(dp1680
g67
(dp1681
g75
I4
ssg76
g1675
sg69
(lp1682
g62
(g71
g64
NtRp1683
(dp1684
g67
(dp1685
g75
I3
ssg76
Nsg69
(lp1686
g62
(g78
g64
NtRp1687
(dp1688
g67
(dp1689
sg76
g1683
sg69
(lp1690
g62
(g83
g64
NtRp1691
(dp1692
g67
(dp1693
sg76
g1687
sg69
(lp1694
g62
(g63
g64
NtRp1695
(dp1696
g67
(dp1697
g75
I3
ssg76
g1691
sg69
(lp1698
S'1'
asbasbasbag62
(g78
g64
NtRp1699
(dp1700
g67
(dp1701
sg76
g1683
sg69
(lp1702
g62
(g83
g64
NtRp1703
(dp1704
g67
(dp1705
sg76
g1699
sg69
(lp1706
g62
(g63
g64
NtRp1707
(dp1708
g67
(dp1709
g75
I3
ssg76
g1703
sg69
(lp1710
S'99'
p1711
asbasbasbag62
(g78
g64
NtRp1712
(dp1713
g67
(dp1714
sg76
g1683
sg69
(lp1715
g62
(g83
g64
NtRp1716
(dp1717
g67
(dp1718
sg76
g1712
sg69
(lp1719
g62
(g63
g64
NtRp1720
(dp1721
g67
(dp1722
g75
I3
ssg76
g1716
sg69
(lp1723
S'7'
asbasbasbag62
(g78
g64
NtRp1724
(dp1725
g67
(dp1726
sg76
g1683
sg69
(lp1727
g62
(g83
g64
NtRp1728
(dp1729
g67
(dp1730
sg76
g1724
sg69
(lp1731
g62
(g63
g64
NtRp1732
(dp1733
g67
(dp1734
g75
I3
ssg76
g1728
sg69
(lp1735
S'datetime.datetime(2012, 3, 4, 22, 12, 8)'
p1736
asbasbasbag62
(g78
g64
NtRp1737
(dp1738
g67
(dp1739
sg76
g1683
sg69
(lp1740
g62
(g83
g64
NtRp1741
(dp1742
g67
(dp1743
sg76
g1737
sg69
(lp1744
g62
(g63
g64
NtRp1745
(dp1746
g67
(dp1747
g75
I3
ssg76
g1741
sg69
(lp1748
S'stable'
p1749
asbasbasbasbasbasbasbag62
(g78
g64
NtRp1750
(dp1751
g67
(dp1752
sg76
g1024
sg69
(lp1753
g62
(g83
g64
NtRp1754
(dp1755
g67
(dp1756
g87
g88
ssg76
g1750
sg69
(lp1757
S'wsgi_errors'
p1758
asbag62
(g83
g64
NtRp1759
(dp1760
g67
(dp1761
g94
g95
ssg76
g1750
sg69
(lp1762
S':'
asbag62
(g83
g64
NtRp1763
(dp1764
g67
(dp1765
sg76
g1750
sg69
(lp1766
g62
(g63
g64
NtRp1767
(dp1768
g67
(dp1769
g75
I4
ssg76
g1763
sg69
(lp1770
S"<open file '<stderr>', mode 'w' at 0x7fbdb8040270>"
p1771
asbasbasbag62
(g78
g64
NtRp1772
(dp1773
g67
(dp1774
sg76
g1024
sg69
(lp1775
g62
(g83
g64
NtRp1776
(dp1777
g67
(dp1778
g87
g88
ssg76
g1772
sg69
(lp1779
S'wsgi_file_wrapper'
p1780
asbag62
(g83
g64
NtRp1781
(dp1782
g67
(dp1783
g94
g95
ssg76
g1772
sg69
(lp1784
S':'
asbag62
(g83
g64
NtRp1785
(dp1786
g67
(dp1787
sg76
g1772
sg69
(lp1788
g62
(g63
g64
NtRp1789
(dp1790
g67
(dp1791
g75
I4
ssg76
g1785
sg69
(lp1792
S'<class wsgiref.util.FileWrapper at 0x2ac6120>'
p1793
asbasbasbag62
(g78
g64
NtRp1794
(dp1795
g67
(dp1796
sg76
g1024
sg69
(lp1797
g62
(g83
g64
NtRp1798
(dp1799
g67
(dp1800
g87
g88
ssg76
g1794
sg69
(lp1801
S'wsgi_input'
p1802
asbag62
(g83
g64
NtRp1803
(dp1804
g67
(dp1805
g94
g95
ssg76
g1794
sg69
(lp1806
S':'
asbag62
(g83
g64
NtRp1807
(dp1808
g67
(dp1809
sg76
g1794
sg69
(lp1810
g62
(g63
g64
NtRp1811
(dp1812
g67
(dp1813
g75
I4
ssg76
g1807
sg69
(lp1814
S'<socket._fileobject object at 0x7fbd702f20d0>'
p1815
asbasbasbag62
(g78
g64
NtRp1816
(dp1817
g67
(dp1818
sg76
g1024
sg69
(lp1819
g62
(g83
g64
NtRp1820
(dp1821
g67
(dp1822
g87
g88
ssg76
g1816
sg69
(lp1823
S'wsgi_multiprocess'
p1824
asbag62
(g83
g64
NtRp1825
(dp1826
g67
(dp1827
g94
g95
ssg76
g1816
sg69
(lp1828
S':'
asbag62
(g83
g64
NtRp1829
(dp1830
g67
(dp1831
sg76
g1816
sg69
(lp1832
g62
(g63
g64
NtRp1833
(dp1834
g67
(dp1835
g75
I4
ssg76
g1829
sg69
(lp1836
g105
asbasbasbag62
(g78
g64
NtRp1837
(dp1838
g67
(dp1839
sg76
g1024
sg69
(lp1840
g62
(g83
g64
NtRp1841
(dp1842
g67
(dp1843
g87
g88
ssg76
g1837
sg69
(lp1844
S'wsgi_multithread'
p1845
asbag62
(g83
g64
NtRp1846
(dp1847
g67
(dp1848
g94
g95
ssg76
g1837
sg69
(lp1849
S':'
asbag62
(g83
g64
NtRp1850
(dp1851
g67
(dp1852
sg76
g1837
sg69
(lp1853
g62
(g63
g64
NtRp1854
(dp1855
g67
(dp1856
g75
I4
ssg76
g1850
sg69
(lp1857
S'True'
p1858
asbasbasbag62
(g78
g64
NtRp1859
(dp1860
g67
(dp1861
sg76
g1024
sg69
(lp1862
g62
(g83
g64
NtRp1863
(dp1864
g67
(dp1865
g87
g88
ssg76
g1859
sg69
(lp1866
S'wsgi_run_once'
p1867
asbag62
(g83
g64
NtRp1868
(dp1869
g67
(dp1870
g94
g95
ssg76
g1859
sg69
(lp1871
S':'
asbag62
(g83
g64
NtRp1872
(dp1873
g67
(dp1874
sg76
g1859
sg69
(lp1875
g62
(g63
g64
NtRp1876
(dp1877
g67
(dp1878
g75
I4
ssg76
g1872
sg69
(lp1879
g105
asbasbasbag62
(g78
g64
NtRp1880
(dp1881
g67
(dp1882
sg76
g1024
sg69
(lp1883
g62
(g83
g64
NtRp1884
(dp1885
g67
(dp1886
g87
g88
ssg76
g1880
sg69
(lp1887
S'wsgi_url_scheme'
p1888
asbag62
(g83
g64
NtRp1889
(dp1890
g67
(dp1891
g94
g95
ssg76
g1880
sg69
(lp1892
S':'
asbag62
(g83
g64
NtRp1893
(dp1894
g67
(dp1895
sg76
g1880
sg69
(lp1896
g62
(g63
g64
NtRp1897
(dp1898
g67
(dp1899
g75
I4
ssg76
g1893
sg69
(lp1900
S'http'
p1901
asbasbasbag62
(g78
g64
NtRp1902
(dp1903
g67
(dp1904
sg76
g1024
sg69
(lp1905
g62
(g83
g64
NtRp1906
(dp1907
g67
(dp1908
g87
g88
ssg76
g1902
sg69
(lp1909
S'wsgi_version'
p1910
asbag62
(g83
g64
NtRp1911
(dp1912
g67
(dp1913
g94
g95
ssg76
g1902
sg69
(lp1914
S':'
asbag62
(g83
g64
NtRp1915
(dp1916
g67
(dp1917
sg76
g1902
sg69
(lp1918
g62
(g63
g64
NtRp1919
(dp1920
g67
(dp1921
g75
I4
ssg76
g1915
sg69
(lp1922
g62
(g71
g64
NtRp1923
(dp1924
g67
(dp1925
g75
I3
ssg76
Nsg69
(lp1926
g62
(g78
g64
NtRp1927
(dp1928
g67
(dp1929
sg76
g1923
sg69
(lp1930
g62
(g83
g64
NtRp1931
(dp1932
g67
(dp1933
sg76
g1927
sg69
(lp1934
g62
(g63
g64
NtRp1935
(dp1936
g67
(dp1937
g75
I3
ssg76
g1931
sg69
(lp1938
S'1'
asbasbasbag62
(g78
g64
NtRp1939
(dp1940
g67
(dp1941
sg76
g1923
sg69
(lp1942
g62
(g83
g64
NtRp1943
(dp1944
g67
(dp1945
sg76
g1939
sg69
(lp1946
g62
(g63
g64
NtRp1947
(dp1948
g67
(dp1949
g75
I3
ssg76
g1943
sg69
(lp1950
S'0'
asbasbasbasbasbasbasbasbasbasbasbag62
(g78
g64
NtRp1951
(dp1952
g67
(dp1953
sg76
g72
sg69
(lp1954
g62
(g83
g64
NtRp1955
(dp1956
g67
(dp1957
g87
g88
ssg76
g1951
sg69
(lp1958
S'extension'
p1959
asbag62
(g83
g64
NtRp1960
(dp1961
g67
(dp1962
g94
g95
ssg76
g1951
sg69
(lp1963
S':'
asbag62
(g83
g64
NtRp1964
(dp1965
g67
(dp1966
sg76
g1951
sg69
(lp1967
g62
(g63
g64
NtRp1968
(dp1969
g67
(dp1970
g75
I5
ssg76
g1964
sg69
(lp1971
S'html'
p1972
asbasbasbag62
(g78
g64
NtRp1973
(dp1974
g67
(dp1975
sg76
g72
sg69
(lp1976
g62
(g83
g64
NtRp1977
(dp1978
g67
(dp1979
g87
g88
ssg76
g1973
sg69
(lp1980
S'folder'
p1981
asbag62
(g83
g64
NtRp1982
(dp1983
g67
(dp1984
g94
g95
ssg76
g1973
sg69
(lp1985
S':'
asbag62
(g83
g64
NtRp1986
(dp1987
g67
(dp1988
sg76
g1973
sg69
(lp1989
g62
(g63
g64
NtRp1990
(dp1991
g67
(dp1992
g75
I5
ssg76
g1986
sg69
(lp1993
S'/home/chitra/courses/SSAD/web2py/applications/cite_m5/'
p1994
asbasbasbag62
(g78
g64
NtRp1995
(dp1996
g67
(dp1997
sg76
g72
sg69
(lp1998
g62
(g83
g64
NtRp1999
(dp2000
g67
(dp2001
g87
g88
ssg76
g1995
sg69
(lp2002
S'function'
p2003
asbag62
(g83
g64
NtRp2004
(dp2005
g67
(dp2006
g94
g95
ssg76
g1995
sg69
(lp2007
S':'
asbag62
(g83
g64
NtRp2008
(dp2009
g67
(dp2010
sg76
g1995
sg69
(lp2011
g62
(g63
g64
NtRp2012
(dp2013
g67
(dp2014
g75
I5
ssg76
g2008
sg69
(lp2015
S'sorting'
p2016
asbasbasbag62
(g78
g64
NtRp2017
(dp2018
g67
(dp2019
sg76
g72
sg69
(lp2020
g62
(g83
g64
NtRp2021
(dp2022
g67
(dp2023
g87
g88
ssg76
g2017
sg69
(lp2024
S'get_vars'
p2025
asbag62
(g83
g64
NtRp2026
(dp2027
g67
(dp2028
g94
g95
ssg76
g2017
sg69
(lp2029
S':'
asbag62
(g83
g64
NtRp2030
(dp2031
g67
(dp2032
sg76
g2017
sg69
(lp2033
g62
(g63
g64
NtRp2034
(dp2035
g67
(dp2036
g75
I5
ssg76
g2030
sg69
(lp2037
g62
(g71
g64
NtRp2038
(dp2039
g67
(dp2040
g75
I4
ssg76
Nsg69
(lp2041
sbasbasbasbag62
(g78
g64
NtRp2042
(dp2043
g67
(dp2044
sg76
g72
sg69
(lp2045
g62
(g83
g64
NtRp2046
(dp2047
g67
(dp2048
g87
g88
ssg76
g2042
sg69
(lp2049
S'global_settings'
p2050
asbag62
(g83
g64
NtRp2051
(dp2052
g67
(dp2053
g94
g95
ssg76
g2042
sg69
(lp2054
S':'
asbag62
(g83
g64
NtRp2055
(dp2056
g67
(dp2057
sg76
g2042
sg69
(lp2058
g62
(g63
g64
NtRp2059
(dp2060
g67
(dp2061
g75
I5
ssg76
g2055
sg69
(lp2062
g62
(g71
g64
NtRp2063
(dp2064
g67
(dp2065
g75
I4
ssg76
Nsg69
(lp2066
g62
(g78
g64
NtRp2067
(dp2068
g67
(dp2069
sg76
g2063
sg69
(lp2070
g62
(g83
g64
NtRp2071
(dp2072
g67
(dp2073
g87
g88
ssg76
g2067
sg69
(lp2074
g1036
asbag62
(g83
g64
NtRp2075
(dp2076
g67
(dp2077
g94
g95
ssg76
g2067
sg69
(lp2078
S':'
asbag62
(g83
g64
NtRp2079
(dp2080
g67
(dp2081
sg76
g2067
sg69
(lp2082
g62
(g63
g64
NtRp2083
(dp2084
g67
(dp2085
g75
I4
ssg76
g2079
sg69
(lp2086
S"set(['/home/chitra/courses/SSAD/web2py/applications/cite_m22/', '/home/chitra/courses/SSAD/web2py/applications/welcome/', '/home/chitra/courses/SSAD/web2py/applications/cite_m5/', '/home/chitra/courses/SSAD/web2py/applications/admin/'])"
p2087
asbasbasbag62
(g78
g64
NtRp2088
(dp2089
g67
(dp2090
sg76
g2063
sg69
(lp2091
g62
(g83
g64
NtRp2092
(dp2093
g67
(dp2094
g87
g88
ssg76
g2088
sg69
(lp2095
g1058
asbag62
(g83
g64
NtRp2096
(dp2097
g67
(dp2098
g94
g95
ssg76
g2088
sg69
(lp2099
S':'
asbag62
(g83
g64
NtRp2100
(dp2101
g67
(dp2102
sg76
g2088
sg69
(lp2103
g62
(g63
g64
NtRp2104
(dp2105
g67
(dp2106
g75
I4
ssg76
g2100
sg69
(lp2107
g1071
asbasbasbag62
(g78
g64
NtRp2108
(dp2109
g67
(dp2110
sg76
g2063
sg69
(lp2111
g62
(g83
g64
NtRp2112
(dp2113
g67
(dp2114
g87
g88
ssg76
g2108
sg69
(lp2115
g1080
asbag62
(g83
g64
NtRp2116
(dp2117
g67
(dp2118
g94
g95
ssg76
g2108
sg69
(lp2119
S':'
asbag62
(g83
g64
NtRp2120
(dp2121
g67
(dp2122
sg76
g2108
sg69
(lp2123
g62
(g63
g64
NtRp2124
(dp2125
g67
(dp2126
g75
I4
ssg76
g2120
sg69
(lp2127
g62
(g71
g64
NtRp2128
(dp2129
g67
(dp2130
g75
I3
ssg76
Nsg69
(lp2131
sbasbasbasbag62
(g78
g64
NtRp2132
(dp2133
g67
(dp2134
sg76
g2063
sg69
(lp2135
g62
(g83
g64
NtRp2136
(dp2137
g67
(dp2138
g87
g88
ssg76
g2132
sg69
(lp2139
g1105
asbag62
(g83
g64
NtRp2140
(dp2141
g67
(dp2142
g94
g95
ssg76
g2132
sg69
(lp2143
S':'
asbag62
(g83
g64
NtRp2144
(dp2145
g67
(dp2146
sg76
g2132
sg69
(lp2147
g62
(g63
g64
NtRp2148
(dp2149
g67
(dp2150
g75
I4
ssg76
g2144
sg69
(lp2151
S"<Values at 0x2bd8b48: {'verbose': False, 'ip': '127.0.0.1', 'shutdown_timeout': 5, 'taskbar': False, 'nocron': False, 'pid_filename': 'httpserver.pid', 'maxthreads': None, 'softcron': False, 'server_name': 'chitra-HP-Pavilion-dv6-Notebook-PC', 'bpython': False, 'nogui': False, 'port': 8000, 'extcron': False, 'debuglevel': 30, 'test': None, 'folder': '/home/chitra/courses/SSAD/web2py', 'config': '', 'import_models': False, 'winservice': '', 'shell': None, 'run': '', 'log_filename': 'httpserver.log', 'args': [''], 'socket_timeout': 5, 'ssl_ca_certificate': None, 'scheduler': None, 'profiler_filename': None, 'ssl_private_key': '', 'password': '<ask>', 'request_queue_size': 5, 'ssl_certificate': '', 'cronjob': False, 'numthreads': None, 'quiet': False, 'interfaces': None, 'minthreads': None, 'timeout': 10, 'plain': False, 'nobanner': False}>"
p2152
asbasbasbag62
(g78
g64
NtRp2153
(dp2154
g67
(dp2155
sg76
g2063
sg69
(lp2156
g62
(g83
g64
NtRp2157
(dp2158
g67
(dp2159
g87
g88
ssg76
g2153
sg69
(lp2160
g1127
asbag62
(g83
g64
NtRp2161
(dp2162
g67
(dp2163
g94
g95
ssg76
g2153
sg69
(lp2164
S':'
asbag62
(g83
g64
NtRp2165
(dp2166
g67
(dp2167
sg76
g2153
sg69
(lp2168
g62
(g63
g64
NtRp2169
(dp2170
g67
(dp2171
g75
I4
ssg76
g2165
sg69
(lp2172
S'set([])'
p2173
asbasbasbag62
(g78
g64
NtRp2174
(dp2175
g67
(dp2176
sg76
g2063
sg69
(lp2177
g62
(g83
g64
NtRp2178
(dp2179
g67
(dp2180
g87
g88
ssg76
g2174
sg69
(lp2181
g1149
asbag62
(g83
g64
NtRp2182
(dp2183
g67
(dp2184
g94
g95
ssg76
g2174
sg69
(lp2185
S':'
asbag62
(g83
g64
NtRp2186
(dp2187
g67
(dp2188
sg76
g2174
sg69
(lp2189
g62
(g63
g64
NtRp2190
(dp2191
g67
(dp2192
g75
I4
ssg76
g2186
sg69
(lp2193
g105
asbasbasbag62
(g78
g64
NtRp2194
(dp2195
g67
(dp2196
sg76
g2063
sg69
(lp2197
g62
(g83
g64
NtRp2198
(dp2199
g67
(dp2200
g87
g88
ssg76
g2194
sg69
(lp2201
g1170
asbag62
(g83
g64
NtRp2202
(dp2203
g67
(dp2204
g94
g95
ssg76
g2194
sg69
(lp2205
S':'
asbag62
(g83
g64
NtRp2206
(dp2207
g67
(dp2208
sg76
g2194
sg69
(lp2209
g62
(g63
g64
NtRp2210
(dp2211
g67
(dp2212
g75
I4
ssg76
g2206
sg69
(lp2213
g1183
asbasbasbag62
(g78
g64
NtRp2214
(dp2215
g67
(dp2216
sg76
g2063
sg69
(lp2217
g62
(g83
g64
NtRp2218
(dp2219
g67
(dp2220
g87
g88
ssg76
g2214
sg69
(lp2221
g1368
asbag62
(g83
g64
NtRp2222
(dp2223
g67
(dp2224
g94
g95
ssg76
g2214
sg69
(lp2225
S':'
asbag62
(g83
g64
NtRp2226
(dp2227
g67
(dp2228
sg76
g2214
sg69
(lp2229
g62
(g63
g64
NtRp2230
(dp2231
g67
(dp2232
g75
I4
ssg76
g2226
sg69
(lp2233
g105
asbasbasbag62
(g78
g64
NtRp2234
(dp2235
g67
(dp2236
sg76
g2063
sg69
(lp2237
g62
(g83
g64
NtRp2238
(dp2239
g67
(dp2240
g87
g88
ssg76
g2234
sg69
(lp2241
g1389
asbag62
(g83
g64
NtRp2242
(dp2243
g67
(dp2244
g94
g95
ssg76
g2234
sg69
(lp2245
S':'
asbag62
(g83
g64
NtRp2246
(dp2247
g67
(dp2248
sg76
g2234
sg69
(lp2249
g62
(g63
g64
NtRp2250
(dp2251
g67
(dp2252
g75
I4
ssg76
g2246
sg69
(lp2253
g105
asbasbasbag62
(g78
g64
NtRp2254
(dp2255
g67
(dp2256
sg76
g2063
sg69
(lp2257
g62
(g83
g64
NtRp2258
(dp2259
g67
(dp2260
g87
g88
ssg76
g2254
sg69
(lp2261
g1627
asbag62
(g83
g64
NtRp2262
(dp2263
g67
(dp2264
g94
g95
ssg76
g2254
sg69
(lp2265
S':'
asbag62
(g83
g64
NtRp2266
(dp2267
g67
(dp2268
sg76
g2254
sg69
(lp2269
g62
(g63
g64
NtRp2270
(dp2271
g67
(dp2272
g75
I4
ssg76
g2266
sg69
(lp2273
g1640
asbasbasbag62
(g78
g64
NtRp2274
(dp2275
g67
(dp2276
sg76
g2063
sg69
(lp2277
g62
(g83
g64
NtRp2278
(dp2279
g67
(dp2280
g87
g88
ssg76
g2274
sg69
(lp2281
g1670
asbag62
(g83
g64
NtRp2282
(dp2283
g67
(dp2284
g94
g95
ssg76
g2274
sg69
(lp2285
S':'
asbag62
(g83
g64
NtRp2286
(dp2287
g67
(dp2288
sg76
g2274
sg69
(lp2289
g62
(g63
g64
NtRp2290
(dp2291
g67
(dp2292
g75
I4
ssg76
g2286
sg69
(lp2293
g62
(g71
g64
NtRp2294
(dp2295
g67
(dp2296
g75
I3
ssg76
Nsg69
(lp2297
g62
(g78
g64
NtRp2298
(dp2299
g67
(dp2300
sg76
g2294
sg69
(lp2301
g62
(g83
g64
NtRp2302
(dp2303
g67
(dp2304
sg76
g2298
sg69
(lp2305
g62
(g63
g64
NtRp2306
(dp2307
g67
(dp2308
g75
I3
ssg76
g2302
sg69
(lp2309
S'1'
asbasbasbag62
(g78
g64
NtRp2310
(dp2311
g67
(dp2312
sg76
g2294
sg69
(lp2313
g62
(g83
g64
NtRp2314
(dp2315
g67
(dp2316
sg76
g2310
sg69
(lp2317
g62
(g63
g64
NtRp2318
(dp2319
g67
(dp2320
g75
I3
ssg76
g2314
sg69
(lp2321
S'99'
p2322
asbasbasbag62
(g78
g64
NtRp2323
(dp2324
g67
(dp2325
sg76
g2294
sg69
(lp2326
g62
(g83
g64
NtRp2327
(dp2328
g67
(dp2329
sg76
g2323
sg69
(lp2330
g62
(g63
g64
NtRp2331
(dp2332
g67
(dp2333
g75
I3
ssg76
g2327
sg69
(lp2334
S'7'
asbasbasbag62
(g78
g64
NtRp2335
(dp2336
g67
(dp2337
sg76
g2294
sg69
(lp2338
g62
(g83
g64
NtRp2339
(dp2340
g67
(dp2341
sg76
g2335
sg69
(lp2342
g62
(g63
g64
NtRp2343
(dp2344
g67
(dp2345
g75
I3
ssg76
g2339
sg69
(lp2346
S'datetime.datetime(2012, 3, 4, 22, 12, 8)'
p2347
asbasbasbag62
(g78
g64
NtRp2348
(dp2349
g67
(dp2350
sg76
g2294
sg69
(lp2351
g62
(g83
g64
NtRp2352
(dp2353
g67
(dp2354
sg76
g2348
sg69
(lp2355
g62
(g63
g64
NtRp2356
(dp2357
g67
(dp2358
g75
I3
ssg76
g2352
sg69
(lp2359
g1749
asbasbasbasbasbasbasbasbasbasbasbag62
(g78
g64
NtRp2360
(dp2361
g67
(dp2362
sg76
g72
sg69
(lp2363
g62
(g83
g64
NtRp2364
(dp2365
g67
(dp2366
g87
g88
ssg76
g2360
sg69
(lp2367
S'is_https'
p2368
asbag62
(g83
g64
NtRp2369
(dp2370
g67
(dp2371
g94
g95
ssg76
g2360
sg69
(lp2372
S':'
asbag62
(g83
g64
NtRp2373
(dp2374
g67
(dp2375
sg76
g2360
sg69
(lp2376
g62
(g63
g64
NtRp2377
(dp2378
g67
(dp2379
g75
I5
ssg76
g2373
sg69
(lp2380
g105
asbasbasbag62
(g78
g64
NtRp2381
(dp2382
g67
(dp2383
sg76
g72
sg69
(lp2384
g62
(g83
g64
NtRp2385
(dp2386
g67
(dp2387
g87
g88
ssg76
g2381
sg69
(lp2388
S'is_local'
p2389
asbag62
(g83
g64
NtRp2390
(dp2391
g67
(dp2392
g94
g95
ssg76
g2381
sg69
(lp2393
S':'
asbag62
(g83
g64
NtRp2394
(dp2395
g67
(dp2396
sg76
g2381
sg69
(lp2397
g62
(g63
g64
NtRp2398
(dp2399
g67
(dp2400
g75
I5
ssg76
g2394
sg69
(lp2401
g1858
asbasbasbag62
(g78
g64
NtRp2402
(dp2403
g67
(dp2404
sg76
g72
sg69
(lp2405
g62
(g83
g64
NtRp2406
(dp2407
g67
(dp2408
g87
g88
ssg76
g2402
sg69
(lp2409
S'is_restful'
p2410
asbag62
(g83
g64
NtRp2411
(dp2412
g67
(dp2413
g94
g95
ssg76
g2402
sg69
(lp2414
S':'
asbag62
(g83
g64
NtRp2415
(dp2416
g67
(dp2417
sg76
g2402
sg69
(lp2418
g62
(g63
g64
NtRp2419
(dp2420
g67
(dp2421
g75
I5
ssg76
g2415
sg69
(lp2422
g105
asbasbasbag62
(g78
g64
NtRp2423
(dp2424
g67
(dp2425
sg76
g72
sg69
(lp2426
g62
(g83
g64
NtRp2427
(dp2428
g67
(dp2429
g87
g88
ssg76
g2423
sg69
(lp2430
S'now'
p2431
asbag62
(g83
g64
NtRp2432
(dp2433
g67
(dp2434
g94
g95
ssg76
g2423
sg69
(lp2435
S':'
asbag62
(g83
g64
NtRp2436
(dp2437
g67
(dp2438
sg76
g2423
sg69
(lp2439
g62
(g63
g64
NtRp2440
(dp2441
g67
(dp2442
g75
I5
ssg76
g2436
sg69
(lp2443
S'datetime.datetime(2012, 11, 12, 1, 51, 20, 617726)'
p2444
asbasbasbag62
(g78
g64
NtRp2445
(dp2446
g67
(dp2447
sg76
g72
sg69
(lp2448
g62
(g83
g64
NtRp2449
(dp2450
g67
(dp2451
g87
g88
ssg76
g2445
sg69
(lp2452
S'post_vars'
p2453
asbag62
(g83
g64
NtRp2454
(dp2455
g67
(dp2456
g94
g95
ssg76
g2445
sg69
(lp2457
S':'
asbag62
(g83
g64
NtRp2458
(dp2459
g67
(dp2460
sg76
g2445
sg69
(lp2461
g62
(g63
g64
NtRp2462
(dp2463
g67
(dp2464
g75
I5
ssg76
g2458
sg69
(lp2465
g62
(g71
g64
NtRp2466
(dp2467
g67
(dp2468
g75
I4
ssg76
Nsg69
(lp2469
sbasbasbasbag62
(g78
g64
NtRp2470
(dp2471
g67
(dp2472
sg76
g72
sg69
(lp2473
g62
(g83
g64
NtRp2474
(dp2475
g67
(dp2476
g87
g88
ssg76
g2470
sg69
(lp2477
S'raw_args'
p2478
asbag62
(g83
g64
NtRp2479
(dp2480
g67
(dp2481
g94
g95
ssg76
g2470
sg69
(lp2482
S':'
asbag62
(g83
g64
NtRp2483
(dp2484
g67
(dp2485
sg76
g2470
sg69
(lp2486
g62
(g63
g64
NtRp2487
(dp2488
g67
(dp2489
g75
I5
ssg76
g2483
sg69
(lp2490
S'1'
asbasbasbag62
(g78
g64
NtRp2491
(dp2492
g67
(dp2493
sg76
g72
sg69
(lp2494
g62
(g83
g64
NtRp2495
(dp2496
g67
(dp2497
g87
g88
ssg76
g2491
sg69
(lp2498
S'url'
p2499
asbag62
(g83
g64
NtRp2500
(dp2501
g67
(dp2502
g94
g95
ssg76
g2491
sg69
(lp2503
S':'
asbag62
(g83
g64
NtRp2504
(dp2505
g67
(dp2506
sg76
g2491
sg69
(lp2507
g62
(g63
g64
NtRp2508
(dp2509
g67
(dp2510
g75
I5
ssg76
g2504
sg69
(lp2511
S'/cite_m5/default/sorting/1'
p2512
asbasbasbag62
(g78
g64
NtRp2513
(dp2514
g67
(dp2515
sg76
g72
sg69
(lp2516
g62
(g83
g64
NtRp2517
(dp2518
g67
(dp2519
g87
g88
ssg76
g2513
sg69
(lp2520
S'utcnow'
p2521
asbag62
(g83
g64
NtRp2522
(dp2523
g67
(dp2524
g94
g95
ssg76
g2513
sg69
(lp2525
S':'
asbag62
(g83
g64
NtRp2526
(dp2527
g67
(dp2528
sg76
g2513
sg69
(lp2529
g62
(g63
g64
NtRp2530
(dp2531
g67
(dp2532
g75
I5
ssg76
g2526
sg69
(lp2533
S'datetime.datetime(2012, 11, 11, 20, 21, 20, 617769)'
p2534
asbasbasbag62
(g78
g64
NtRp2535
(dp2536
g67
(dp2537
sg76
g72
sg69
(lp2538
g62
(g83
g64
NtRp2539
(dp2540
g67
(dp2541
g87
g88
ssg76
g2535
sg69
(lp2542
S'uuid'
p2543
asbag62
(g83
g64
NtRp2544
(dp2545
g67
(dp2546
g94
g95
ssg76
g2535
sg69
(lp2547
S':'
asbag62
(g83
g64
NtRp2548
(dp2549
g67
(dp2550
sg76
g2535
sg69
(lp2551
g62
(g63
g64
NtRp2552
(dp2553
g67
(dp2554
g75
I5
ssg76
g2548
sg69
(lp2555
S'cite_m5/127.0.0.1.2012-11-12.01-51-20.aeef8d18-652e-4221-8fba-0c0f52d8a9ee'
p2556
asbasbasbag62
(g78
g64
NtRp2557
(dp2558
g67
(dp2559
sg76
g72
sg69
(lp2560
g62
(g83
g64
NtRp2561
(dp2562
g67
(dp2563
g87
g88
ssg76
g2557
sg69
(lp2564
S'vars'
p2565
asbag62
(g83
g64
NtRp2566
(dp2567
g67
(dp2568
g94
g95
ssg76
g2557
sg69
(lp2569
S':'
asbag62
(g83
g64
NtRp2570
(dp2571
g67
(dp2572
sg76
g2557
sg69
(lp2573
g62
(g63
g64
NtRp2574
(dp2575
g67
(dp2576
g75
I5
ssg76
g2570
sg69
(lp2577
g62
(g71
g64
NtRp2578
(dp2579
g67
(dp2580
g75
I4
ssg76
Nsg69
(lp2581
sbasbasbasbag62
(g78
g64
NtRp2582
(dp2583
g67
(dp2584
sg76
g72
sg69
(lp2585
g62
(g83
g64
NtRp2586
(dp2587
g67
(dp2588
g87
g88
ssg76
g2582
sg69
(lp2589
S'wsgi'
p2590
asbag62
(g83
g64
NtRp2591
(dp2592
g67
(dp2593
g94
g95
ssg76
g2582
sg69
(lp2594
S':'
asbag62
(g83
g64
NtRp2595
(dp2596
g67
(dp2597
sg76
g2582
sg69
(lp2598
g62
(g63
g64
NtRp2599
(dp2600
g67
(dp2601
g75
I5
ssg76
g2595
sg69
(lp2602
g62
(g71
g64
NtRp2603
(dp2604
g67
(dp2605
g75
I4
ssg76
Nsg69
(lp2606
g62
(g78
g64
NtRp2607
(dp2608
g67
(dp2609
sg76
g2603
sg69
(lp2610
g62
(g83
g64
NtRp2611
(dp2612
g67
(dp2613
g87
g88
ssg76
g2607
sg69
(lp2614
S'environ'
p2615
asbag62
(g83
g64
NtRp2616
(dp2617
g67
(dp2618
g94
g95
ssg76
g2607
sg69
(lp2619
S':'
asbag62
(g83
g64
NtRp2620
(dp2621
g67
(dp2622
sg76
g2607
sg69
(lp2623
g62
(g63
g64
NtRp2624
(dp2625
g67
(dp2626
g75
I4
ssg76
g2620
sg69
(lp2627
g62
(g71
g64
NtRp2628
(dp2629
g67
(dp2630
g75
I3
ssg76
Nsg69
(lp2631
g62
(g78
g64
NtRp2632
(dp2633
g67
(dp2634
sg76
g2628
sg69
(lp2635
g62
(g83
g64
NtRp2636
(dp2637
g67
(dp2638
g87
g88
ssg76
g2632
sg69
(lp2639
S'HTTP_ACCEPT'
p2640
asbag62
(g83
g64
NtRp2641
(dp2642
g67
(dp2643
g94
g95
ssg76
g2632
sg69
(lp2644
S':'
asbag62
(g83
g64
NtRp2645
(dp2646
g67
(dp2647
sg76
g2632
sg69
(lp2648
g62
(g63
g64
NtRp2649
(dp2650
g67
(dp2651
g75
I3
ssg76
g2645
sg69
(lp2652
g1205
asbasbasbag62
(g78
g64
NtRp2653
(dp2654
g67
(dp2655
sg76
g2628
sg69
(lp2656
g62
(g83
g64
NtRp2657
(dp2658
g67
(dp2659
g87
g88
ssg76
g2653
sg69
(lp2660
S'HTTP_ACCEPT_ENCODING'
p2661
asbag62
(g83
g64
NtRp2662
(dp2663
g67
(dp2664
g94
g95
ssg76
g2653
sg69
(lp2665
S':'
asbag62
(g83
g64
NtRp2666
(dp2667
g67
(dp2668
sg76
g2653
sg69
(lp2669
g62
(g63
g64
NtRp2670
(dp2671
g67
(dp2672
g75
I3
ssg76
g2666
sg69
(lp2673
g1227
asbasbasbag62
(g78
g64
NtRp2674
(dp2675
g67
(dp2676
sg76
g2628
sg69
(lp2677
g62
(g83
g64
NtRp2678
(dp2679
g67
(dp2680
g87
g88
ssg76
g2674
sg69
(lp2681
S'HTTP_ACCEPT_LANGUAGE'
p2682
asbag62
(g83
g64
NtRp2683
(dp2684
g67
(dp2685
g94
g95
ssg76
g2674
sg69
(lp2686
S':'
asbag62
(g83
g64
NtRp2687
(dp2688
g67
(dp2689
sg76
g2674
sg69
(lp2690
g62
(g63
g64
NtRp2691
(dp2692
g67
(dp2693
g75
I3
ssg76
g2687
sg69
(lp2694
g1249
asbasbasbag62
(g78
g64
NtRp2695
(dp2696
g67
(dp2697
sg76
g2628
sg69
(lp2698
g62
(g83
g64
NtRp2699
(dp2700
g67
(dp2701
g87
g88
ssg76
g2695
sg69
(lp2702
S'HTTP_CONNECTION'
p2703
asbag62
(g83
g64
NtRp2704
(dp2705
g67
(dp2706
g94
g95
ssg76
g2695
sg69
(lp2707
S':'
asbag62
(g83
g64
NtRp2708
(dp2709
g67
(dp2710
sg76
g2695
sg69
(lp2711
g62
(g63
g64
NtRp2712
(dp2713
g67
(dp2714
g75
I3
ssg76
g2708
sg69
(lp2715
g1271
asbasbasbag62
(g78
g64
NtRp2716
(dp2717
g67
(dp2718
sg76
g2628
sg69
(lp2719
g62
(g83
g64
NtRp2720
(dp2721
g67
(dp2722
g87
g88
ssg76
g2716
sg69
(lp2723
S'HTTP_COOKIE'
p2724
asbag62
(g83
g64
NtRp2725
(dp2726
g67
(dp2727
g94
g95
ssg76
g2716
sg69
(lp2728
S':'
asbag62
(g83
g64
NtRp2729
(dp2730
g67
(dp2731
sg76
g2716
sg69
(lp2732
g62
(g63
g64
NtRp2733
(dp2734
g67
(dp2735
g75
I3
ssg76
g2729
sg69
(lp2736
g1293
asbasbasbag62
(g78
g64
NtRp2737
(dp2738
g67
(dp2739
sg76
g2628
sg69
(lp2740
g62
(g83
g64
NtRp2741
(dp2742
g67
(dp2743
g87
g88
ssg76
g2737
sg69
(lp2744
S'HTTP_HOST'
p2745
asbag62
(g83
g64
NtRp2746
(dp2747
g67
(dp2748
g94
g95
ssg76
g2737
sg69
(lp2749
S':'
asbag62
(g83
g64
NtRp2750
(dp2751
g67
(dp2752
sg76
g2737
sg69
(lp2753
g62
(g63
g64
NtRp2754
(dp2755
g67
(dp2756
g75
I3
ssg76
g2750
sg69
(lp2757
g1315
asbasbasbag62
(g78
g64
NtRp2758
(dp2759
g67
(dp2760
sg76
g2628
sg69
(lp2761
g62
(g83
g64
NtRp2762
(dp2763
g67
(dp2764
g87
g88
ssg76
g2758
sg69
(lp2765
S'HTTP_REFERER'
p2766
asbag62
(g83
g64
NtRp2767
(dp2768
g67
(dp2769
g94
g95
ssg76
g2758
sg69
(lp2770
S':'
asbag62
(g83
g64
NtRp2771
(dp2772
g67
(dp2773
sg76
g2758
sg69
(lp2774
g62
(g63
g64
NtRp2775
(dp2776
g67
(dp2777
g75
I3
ssg76
g2771
sg69
(lp2778
g1337
asbasbasbag62
(g78
g64
NtRp2779
(dp2780
g67
(dp2781
sg76
g2628
sg69
(lp2782
g62
(g83
g64
NtRp2783
(dp2784
g67
(dp2785
g87
g88
ssg76
g2779
sg69
(lp2786
S'HTTP_USER_AGENT'
p2787
asbag62
(g83
g64
NtRp2788
(dp2789
g67
(dp2790
g94
g95
ssg76
g2779
sg69
(lp2791
S':'
asbag62
(g83
g64
NtRp2792
(dp2793
g67
(dp2794
sg76
g2779
sg69
(lp2795
g62
(g63
g64
NtRp2796
(dp2797
g67
(dp2798
g75
I3
ssg76
g2792
sg69
(lp2799
g1359
asbasbasbag62
(g78
g64
NtRp2800
(dp2801
g67
(dp2802
sg76
g2628
sg69
(lp2803
g62
(g83
g64
NtRp2804
(dp2805
g67
(dp2806
g87
g88
ssg76
g2800
sg69
(lp2807
S'PATH_INFO'
p2808
asbag62
(g83
g64
NtRp2809
(dp2810
g67
(dp2811
g94
g95
ssg76
g2800
sg69
(lp2812
S':'
asbag62
(g83
g64
NtRp2813
(dp2814
g67
(dp2815
sg76
g2800
sg69
(lp2816
g62
(g63
g64
NtRp2817
(dp2818
g67
(dp2819
g75
I3
ssg76
g2813
sg69
(lp2820
g1423
asbasbasbag62
(g78
g64
NtRp2821
(dp2822
g67
(dp2823
sg76
g2628
sg69
(lp2824
g62
(g83
g64
NtRp2825
(dp2826
g67
(dp2827
g87
g88
ssg76
g2821
sg69
(lp2828
S'QUERY_STRING'
p2829
asbag62
(g83
g64
NtRp2830
(dp2831
g67
(dp2832
g94
g95
ssg76
g2821
sg69
(lp2833
S':'
asbag62
(g83
g64
NtRp2834
(dp2835
g67
(dp2836
sg76
g2821
sg69
(lp2837
g62
(g63
g64
NtRp2838
(dp2839
g67
(dp2840
g75
I3
ssg76
g2834
sg69
(lp2841
S''
asbasbasbag62
(g78
g64
NtRp2842
(dp2843
g67
(dp2844
sg76
g2628
sg69
(lp2845
g62
(g83
g64
NtRp2846
(dp2847
g67
(dp2848
g87
g88
ssg76
g2842
sg69
(lp2849
S'REMOTE_ADDR'
p2850
asbag62
(g83
g64
NtRp2851
(dp2852
g67
(dp2853
g94
g95
ssg76
g2842
sg69
(lp2854
S':'
asbag62
(g83
g64
NtRp2855
(dp2856
g67
(dp2857
sg76
g2842
sg69
(lp2858
g62
(g63
g64
NtRp2859
(dp2860
g67
(dp2861
g75
I3
ssg76
g2855
sg69
(lp2862
g207
asbasbasbag62
(g78
g64
NtRp2863
(dp2864
g67
(dp2865
sg76
g2628
sg69
(lp2866
g62
(g83
g64
NtRp2867
(dp2868
g67
(dp2869
g87
g88
ssg76
g2863
sg69
(lp2870
S'REMOTE_PORT'
p2871
asbag62
(g83
g64
NtRp2872
(dp2873
g67
(dp2874
g94
g95
ssg76
g2863
sg69
(lp2875
S':'
asbag62
(g83
g64
NtRp2876
(dp2877
g67
(dp2878
sg76
g2863
sg69
(lp2879
g62
(g63
g64
NtRp2880
(dp2881
g67
(dp2882
g75
I3
ssg76
g2876
sg69
(lp2883
g1487
asbasbasbag62
(g78
g64
NtRp2884
(dp2885
g67
(dp2886
sg76
g2628
sg69
(lp2887
g62
(g83
g64
NtRp2888
(dp2889
g67
(dp2890
g87
g88
ssg76
g2884
sg69
(lp2891
S'REQUEST_METHOD'
p2892
asbag62
(g83
g64
NtRp2893
(dp2894
g67
(dp2895
g94
g95
ssg76
g2884
sg69
(lp2896
S':'
asbag62
(g83
g64
NtRp2897
(dp2898
g67
(dp2899
sg76
g2884
sg69
(lp2900
g62
(g63
g64
NtRp2901
(dp2902
g67
(dp2903
g75
I3
ssg76
g2897
sg69
(lp2904
g1509
asbasbasbag62
(g78
g64
NtRp2905
(dp2906
g67
(dp2907
sg76
g2628
sg69
(lp2908
g62
(g83
g64
NtRp2909
(dp2910
g67
(dp2911
g87
g88
ssg76
g2905
sg69
(lp2912
S'SCRIPT_NAME'
p2913
asbag62
(g83
g64
NtRp2914
(dp2915
g67
(dp2916
g94
g95
ssg76
g2905
sg69
(lp2917
S':'
asbag62
(g83
g64
NtRp2918
(dp2919
g67
(dp2920
sg76
g2905
sg69
(lp2921
g62
(g63
g64
NtRp2922
(dp2923
g67
(dp2924
g75
I3
ssg76
g2918
sg69
(lp2925
S''
asbasbasbag62
(g78
g64
NtRp2926
(dp2927
g67
(dp2928
sg76
g2628
sg69
(lp2929
g62
(g83
g64
NtRp2930
(dp2931
g67
(dp2932
g87
g88
ssg76
g2926
sg69
(lp2933
S'SERVER_NAME'
p2934
asbag62
(g83
g64
NtRp2935
(dp2936
g67
(dp2937
g94
g95
ssg76
g2926
sg69
(lp2938
S':'
asbag62
(g83
g64
NtRp2939
(dp2940
g67
(dp2941
sg76
g2926
sg69
(lp2942
g62
(g63
g64
NtRp2943
(dp2944
g67
(dp2945
g75
I3
ssg76
g2939
sg69
(lp2946
g1552
asbasbasbag62
(g78
g64
NtRp2947
(dp2948
g67
(dp2949
sg76
g2628
sg69
(lp2950
g62
(g83
g64
NtRp2951
(dp2952
g67
(dp2953
g87
g88
ssg76
g2947
sg69
(lp2954
S'SERVER_PORT'
p2955
asbag62
(g83
g64
NtRp2956
(dp2957
g67
(dp2958
g94
g95
ssg76
g2947
sg69
(lp2959
S':'
asbag62
(g83
g64
NtRp2960
(dp2961
g67
(dp2962
sg76
g2947
sg69
(lp2963
g62
(g63
g64
NtRp2964
(dp2965
g67
(dp2966
g75
I3
ssg76
g2960
sg69
(lp2967
g1574
asbasbasbag62
(g78
g64
NtRp2968
(dp2969
g67
(dp2970
sg76
g2628
sg69
(lp2971
g62
(g83
g64
NtRp2972
(dp2973
g67
(dp2974
g87
g88
ssg76
g2968
sg69
(lp2975
S'SERVER_PROTOCOL'
p2976
asbag62
(g83
g64
NtRp2977
(dp2978
g67
(dp2979
g94
g95
ssg76
g2968
sg69
(lp2980
S':'
asbag62
(g83
g64
NtRp2981
(dp2982
g67
(dp2983
sg76
g2968
sg69
(lp2984
g62
(g63
g64
NtRp2985
(dp2986
g67
(dp2987
g75
I3
ssg76
g2981
sg69
(lp2988
g1596
asbasbasbag62
(g78
g64
NtRp2989
(dp2990
g67
(dp2991
sg76
g2628
sg69
(lp2992
g62
(g83
g64
NtRp2993
(dp2994
g67
(dp2995
g87
g88
ssg76
g2989
sg69
(lp2996
S'SERVER_SOFTWARE'
p2997
asbag62
(g83
g64
NtRp2998
(dp2999
g67
(dp3000
g94
g95
ssg76
g2989
sg69
(lp3001
S':'
asbag62
(g83
g64
NtRp3002
(dp3003
g67
(dp3004
sg76
g2989
sg69
(lp3005
g62
(g63
g64
NtRp3006
(dp3007
g67
(dp3008
g75
I3
ssg76
g3002
sg69
(lp3009
g1618
asbasbasbag62
(g78
g64
NtRp3010
(dp3011
g67
(dp3012
sg76
g2628
sg69
(lp3013
g62
(g83
g64
NtRp3014
(dp3015
g67
(dp3016
g87
g88
ssg76
g3010
sg69
(lp3017
S'wsgi.errors'
p3018
asbag62
(g83
g64
NtRp3019
(dp3020
g67
(dp3021
g94
g95
ssg76
g3010
sg69
(lp3022
S':'
asbag62
(g83
g64
NtRp3023
(dp3024
g67
(dp3025
sg76
g3010
sg69
(lp3026
g62
(g63
g64
NtRp3027
(dp3028
g67
(dp3029
g75
I3
ssg76
g3023
sg69
(lp3030
S"<open file '<stderr>', mode 'w' at 0x7fbdb8040270>"
p3031
asbasbasbag62
(g78
g64
NtRp3032
(dp3033
g67
(dp3034
sg76
g2628
sg69
(lp3035
g62
(g83
g64
NtRp3036
(dp3037
g67
(dp3038
g87
g88
ssg76
g3032
sg69
(lp3039
S'wsgi.file_wrapper'
p3040
asbag62
(g83
g64
NtRp3041
(dp3042
g67
(dp3043
g94
g95
ssg76
g3032
sg69
(lp3044
S':'
asbag62
(g83
g64
NtRp3045
(dp3046
g67
(dp3047
sg76
g3032
sg69
(lp3048
g62
(g63
g64
NtRp3049
(dp3050
g67
(dp3051
g75
I3
ssg76
g3045
sg69
(lp3052
S'<class wsgiref.util.FileWrapper at 0x2ac6120>'
p3053
asbasbasbag62
(g78
g64
NtRp3054
(dp3055
g67
(dp3056
sg76
g2628
sg69
(lp3057
g62
(g83
g64
NtRp3058
(dp3059
g67
(dp3060
g87
g88
ssg76
g3054
sg69
(lp3061
S'wsgi.input'
p3062
asbag62
(g83
g64
NtRp3063
(dp3064
g67
(dp3065
g94
g95
ssg76
g3054
sg69
(lp3066
S':'
asbag62
(g83
g64
NtRp3067
(dp3068
g67
(dp3069
sg76
g3054
sg69
(lp3070
g62
(g63
g64
NtRp3071
(dp3072
g67
(dp3073
g75
I3
ssg76
g3067
sg69
(lp3074
S'<cStringIO.StringO object at 0x7fbd8872e1b8>'
p3075
asbasbasbag62
(g78
g64
NtRp3076
(dp3077
g67
(dp3078
sg76
g2628
sg69
(lp3079
g62
(g83
g64
NtRp3080
(dp3081
g67
(dp3082
g87
g88
ssg76
g3076
sg69
(lp3083
S'wsgi.multiprocess'
p3084
asbag62
(g83
g64
NtRp3085
(dp3086
g67
(dp3087
g94
g95
ssg76
g3076
sg69
(lp3088
S':'
asbag62
(g83
g64
NtRp3089
(dp3090
g67
(dp3091
sg76
g3076
sg69
(lp3092
g62
(g63
g64
NtRp3093
(dp3094
g67
(dp3095
g75
I3
ssg76
g3089
sg69
(lp3096
g105
asbasbasbag62
(g78
g64
NtRp3097
(dp3098
g67
(dp3099
sg76
g2628
sg69
(lp3100
g62
(g83
g64
NtRp3101
(dp3102
g67
(dp3103
g87
g88
ssg76
g3097
sg69
(lp3104
S'wsgi.multithread'
p3105
asbag62
(g83
g64
NtRp3106
(dp3107
g67
(dp3108
g94
g95
ssg76
g3097
sg69
(lp3109
S':'
asbag62
(g83
g64
NtRp3110
(dp3111
g67
(dp3112
sg76
g3097
sg69
(lp3113
g62
(g63
g64
NtRp3114
(dp3115
g67
(dp3116
g75
I3
ssg76
g3110
sg69
(lp3117
g1858
asbasbasbag62
(g78
g64
NtRp3118
(dp3119
g67
(dp3120
sg76
g2628
sg69
(lp3121
g62
(g83
g64
NtRp3122
(dp3123
g67
(dp3124
g87
g88
ssg76
g3118
sg69
(lp3125
S'wsgi.run_once'
p3126
asbag62
(g83
g64
NtRp3127
(dp3128
g67
(dp3129
g94
g95
ssg76
g3118
sg69
(lp3130
S':'
asbag62
(g83
g64
NtRp3131
(dp3132
g67
(dp3133
sg76
g3118
sg69
(lp3134
g62
(g63
g64
NtRp3135
(dp3136
g67
(dp3137
g75
I3
ssg76
g3131
sg69
(lp3138
g105
asbasbasbag62
(g78
g64
NtRp3139
(dp3140
g67
(dp3141
sg76
g2628
sg69
(lp3142
g62
(g83
g64
NtRp3143
(dp3144
g67
(dp3145
g87
g88
ssg76
g3139
sg69
(lp3146
S'wsgi.url_scheme'
p3147
asbag62
(g83
g64
NtRp3148
(dp3149
g67
(dp3150
g94
g95
ssg76
g3139
sg69
(lp3151
S':'
asbag62
(g83
g64
NtRp3152
(dp3153
g67
(dp3154
sg76
g3139
sg69
(lp3155
g62
(g63
g64
NtRp3156
(dp3157
g67
(dp3158
g75
I3
ssg76
g3152
sg69
(lp3159
g1901
asbasbasbag62
(g78
g64
NtRp3160
(dp3161
g67
(dp3162
sg76
g2628
sg69
(lp3163
g62
(g83
g64
NtRp3164
(dp3165
g67
(dp3166
g87
g88
ssg76
g3160
sg69
(lp3167
S'wsgi.version'
p3168
asbag62
(g83
g64
NtRp3169
(dp3170
g67
(dp3171
g94
g95
ssg76
g3160
sg69
(lp3172
S':'
asbag62
(g83
g64
NtRp3173
(dp3174
g67
(dp3175
sg76
g3160
sg69
(lp3176
g62
(g63
g64
NtRp3177
(dp3178
g67
(dp3179
g75
I3
ssg76
g3173
sg69
(lp3180
S'1'
asbasbasbasbasbasbasbasbasbasbasbasbasbsS'frames'
p3181
(lp3182
(dp3183
S'file'
p3184
S'/home/chitra/courses/SSAD/web2py/gluon/restricted.py'
p3185
sS'dump'
p3186
(dp3187
S'environment'
p3188
S"{'A': <class 'gluon.html.A'>, 'A4': (595.275590551181, 841.8897637795275), 'Auth': <class 'gluon.tools.Auth'>, 'B': <class 'gluon.html.B'>, 'BEAUTIFY': <class 'gluon.html.BEAUTIFY'>, 'BODY': <class 'gluon.html.BODY'>, 'BR': <class 'gluon.html.BR'>, 'BUTTON': <class 'gluon.html.BUTTON'>, 'CAT': <class 'gluon.html.CAT'>, 'CENTER': <class 'gluon.html.CENTER'>, ...}"
p3189
sS'ccode'
p3190
S'<code object <module> at 0x7fbd887487b0, file "/...ions/cite_m5/views/default/sorting.html", line 1>'
p3191
ssS'lnum'
p3192
I205
sS'lines'
p3193
(dp3194
I200
S'    try:'
p3195
sI201
S'        if type(code) == types.CodeType:'
p3196
sI202
S'            ccode = code'
p3197
sI203
S'        else:'
p3198
sI204
S'            ccode = compile2(code,layer)'
p3199
sI205
S'        exec ccode in environment'
p3200
sI206
S'    except HTTP:'
p3201
sI207
S'        raise'
p3202
sI208
S'    except RestrictedError:'
p3203
sI209
S'        # do not encapsulate (obfuscate) the original RestrictedError'
p3204
ssS'call'
p3205
S'(code=\'response.write(\\\'<html xmlns="http://www.w3.org/1...p>\\\\n  </div>\\\\n </body>\\\\n</html>\\\\n\\\', escape=False)\', environment={\'A\': <class \'gluon.html.A\'>, \'A4\': (595.275590551181, 841.8897637795275), \'Auth\': <class \'gluon.tools.Auth\'>, \'B\': <class \'gluon.html.B\'>, \'BEAUTIFY\': <class \'gluon.html.BEAUTIFY\'>, \'BODY\': <class \'gluon.html.BODY\'>, \'BR\': <class \'gluon.html.BR\'>, \'BUTTON\': <class \'gluon.html.BUTTON\'>, \'CAT\': <class \'gluon.html.CAT\'>, \'CENTER\': <class \'gluon.html.CENTER\'>, ...}, layer=\'/home/chitra/courses/SSAD/web2py/applications/cite_m5/views/default/sorting.html\')'
p3206
sS'func'
p3207
S'restricted'
p3208
sa(dp3209
g3184
S'/home/chitra/courses/SSAD/web2py/applications/cite_m5/views/default/sorting.html'
p3210
sg3186
(dp3211
sg3192
I231
sg3193
(dp3212
I224
S'doc = SimpleDocTemplate("my2.pdf",  \\'
p3213
sI225
S'rightMargin=40, leftMargin=40, \\'
p3214
sI226
S'topMargin=40, bottomMargin=25, \\'
p3215
sI227
S'pageSize=A4)'
p3216
sI228
S"response.write('\\n\\n\\n', escape=False)"
p3217
sI229
S'elements = []'
p3218
sI230
S"response.write('  \\n\\n', escape=False)"
p3219
sI231
S'infile   = file(model_report).read()'
p3220
sI232
S"response.write('\\n', escape=False)"
p3221
sI233
S'report_paragraphs = infile.split("\\n")'
p3222
sI234
S"response.write('\\n', escape=False)"
p3223
sI235
S'for para in report_paragraphs:'
p3224
sI236
S"    response.write('\\n    ', escape=False)"
p3225
sI237
S'    para1 = \'<font face="Courier" >%s</font>\' % para'
p3226
sI238
S"    response.write('\\n    ', escape=False)"
p3227
sI239
S'    elements.append(Paragraph(para1, style=mystyle))'
p3228
sI240
S"    response.write('\\n', escape=False)"
p3229
sI241
S'    pass'
p3230
sI222
S"model_report = '/home/maneesha/Downloads/web2py/.Rough'"
p3231
sI223
S"response.write('\\n\\n', escape=False)"
p3232
ssg3205
S'()'
p3233
sg3207
S'<module>'
p3234
sasS'pyver'
p3235
S'Python 2.7.3: /usr/bin/python'
p3236
sS'session'
p3237
g62
(g63
g64
NtRp3238
(dp3239
g67
(dp3240
sg69
(lp3241
g62
(g71
g64
NtRp3242
(dp3243
g67
(dp3244
g75
I5
ssg76
Nsg69
(lp3245
g62
(g78
g64
NtRp3246
(dp3247
g67
(dp3248
sg76
g3242
sg69
(lp3249
g62
(g83
g64
NtRp3250
(dp3251
g67
(dp3252
g87
g88
ssg76
g3246
sg69
(lp3253
S'auth'
p3254
asbag62
(g83
g64
NtRp3255
(dp3256
g67
(dp3257
g94
g95
ssg76
g3246
sg69
(lp3258
S':'
asbag62
(g83
g64
NtRp3259
(dp3260
g67
(dp3261
sg76
g3246
sg69
(lp3262
g62
(g63
g64
NtRp3263
(dp3264
g67
(dp3265
g75
I5
ssg76
g3259
sg69
(lp3266
g62
(g71
g64
NtRp3267
(dp3268
g67
(dp3269
g75
I4
ssg76
Nsg69
(lp3270
g62
(g78
g64
NtRp3271
(dp3272
g67
(dp3273
sg76
g3267
sg69
(lp3274
g62
(g83
g64
NtRp3275
(dp3276
g67
(dp3277
g87
g88
ssg76
g3271
sg69
(lp3278
S'expiration'
p3279
asbag62
(g83
g64
NtRp3280
(dp3281
g67
(dp3282
g94
g95
ssg76
g3271
sg69
(lp3283
S':'
asbag62
(g83
g64
NtRp3284
(dp3285
g67
(dp3286
sg76
g3271
sg69
(lp3287
g62
(g63
g64
NtRp3288
(dp3289
g67
(dp3290
g75
I4
ssg76
g3284
sg69
(lp3291
S'3600'
p3292
asbasbasbag62
(g78
g64
NtRp3293
(dp3294
g67
(dp3295
sg76
g3267
sg69
(lp3296
g62
(g83
g64
NtRp3297
(dp3298
g67
(dp3299
g87
g88
ssg76
g3293
sg69
(lp3300
S'hmac_key'
p3301
asbag62
(g83
g64
NtRp3302
(dp3303
g67
(dp3304
g94
g95
ssg76
g3293
sg69
(lp3305
S':'
asbag62
(g83
g64
NtRp3306
(dp3307
g67
(dp3308
sg76
g3293
sg69
(lp3309
g62
(g63
g64
NtRp3310
(dp3311
g67
(dp3312
g75
I4
ssg76
g3306
sg69
(lp3313
S'da465c81-3a10-45d5-810f-76f191bf566c'
p3314
asbasbasbag62
(g78
g64
NtRp3315
(dp3316
g67
(dp3317
sg76
g3267
sg69
(lp3318
g62
(g83
g64
NtRp3319
(dp3320
g67
(dp3321
g87
g88
ssg76
g3315
sg69
(lp3322
S'last_visit'
p3323
asbag62
(g83
g64
NtRp3324
(dp3325
g67
(dp3326
g94
g95
ssg76
g3315
sg69
(lp3327
S':'
asbag62
(g83
g64
NtRp3328
(dp3329
g67
(dp3330
sg76
g3315
sg69
(lp3331
g62
(g63
g64
NtRp3332
(dp3333
g67
(dp3334
g75
I4
ssg76
g3328
sg69
(lp3335
S'datetime.datetime(2012, 11, 12, 1, 45, 35, 931039)'
p3336
asbasbasbag62
(g78
g64
NtRp3337
(dp3338
g67
(dp3339
sg76
g3267
sg69
(lp3340
g62
(g83
g64
NtRp3341
(dp3342
g67
(dp3343
g87
g88
ssg76
g3337
sg69
(lp3344
S'remember'
p3345
asbag62
(g83
g64
NtRp3346
(dp3347
g67
(dp3348
g94
g95
ssg76
g3337
sg69
(lp3349
S':'
asbag62
(g83
g64
NtRp3350
(dp3351
g67
(dp3352
sg76
g3337
sg69
(lp3353
g62
(g63
g64
NtRp3354
(dp3355
g67
(dp3356
g75
I4
ssg76
g3350
sg69
(lp3357
g105
asbasbasbag62
(g78
g64
NtRp3358
(dp3359
g67
(dp3360
sg76
g3267
sg69
(lp3361
g62
(g83
g64
NtRp3362
(dp3363
g67
(dp3364
g87
g88
ssg76
g3358
sg69
(lp3365
S'user'
p3366
asbag62
(g83
g64
NtRp3367
(dp3368
g67
(dp3369
g94
g95
ssg76
g3358
sg69
(lp3370
S':'
asbag62
(g83
g64
NtRp3371
(dp3372
g67
(dp3373
sg76
g3358
sg69
(lp3374
g62
(g63
g64
NtRp3375
(dp3376
g67
(dp3377
g75
I4
ssg76
g3371
sg69
(lp3378
g62
(g71
g64
NtRp3379
(dp3380
g67
(dp3381
g75
I3
ssg76
Nsg69
(lp3382
g62
(g78
g64
NtRp3383
(dp3384
g67
(dp3385
sg76
g3379
sg69
(lp3386
g62
(g83
g64
NtRp3387
(dp3388
g67
(dp3389
g87
g88
ssg76
g3383
sg69
(lp3390
S'created_on'
p3391
asbag62
(g83
g64
NtRp3392
(dp3393
g67
(dp3394
g94
g95
ssg76
g3383
sg69
(lp3395
S':'
asbag62
(g83
g64
NtRp3396
(dp3397
g67
(dp3398
sg76
g3383
sg69
(lp3399
g62
(g63
g64
NtRp3400
(dp3401
g67
(dp3402
g75
I3
ssg76
g3396
sg69
(lp3403
S'datetime.datetime(2012, 10, 23, 2, 28, 41)'
p3404
asbasbasbag62
(g78
g64
NtRp3405
(dp3406
g67
(dp3407
sg76
g3379
sg69
(lp3408
g62
(g83
g64
NtRp3409
(dp3410
g67
(dp3411
g87
g88
ssg76
g3405
sg69
(lp3412
S'email'
p3413
asbag62
(g83
g64
NtRp3414
(dp3415
g67
(dp3416
g94
g95
ssg76
g3405
sg69
(lp3417
S':'
asbag62
(g83
g64
NtRp3418
(dp3419
g67
(dp3420
sg76
g3405
sg69
(lp3421
g62
(g63
g64
NtRp3422
(dp3423
g67
(dp3424
g75
I3
ssg76
g3418
sg69
(lp3425
S'manu@gmail.com'
p3426
asbasbasbag62
(g78
g64
NtRp3427
(dp3428
g67
(dp3429
sg76
g3379
sg69
(lp3430
g62
(g83
g64
NtRp3431
(dp3432
g67
(dp3433
g87
g88
ssg76
g3427
sg69
(lp3434
S'first_name'
p3435
asbag62
(g83
g64
NtRp3436
(dp3437
g67
(dp3438
g94
g95
ssg76
g3427
sg69
(lp3439
S':'
asbag62
(g83
g64
NtRp3440
(dp3441
g67
(dp3442
sg76
g3427
sg69
(lp3443
g62
(g63
g64
NtRp3444
(dp3445
g67
(dp3446
g75
I3
ssg76
g3440
sg69
(lp3447
S'manu'
p3448
asbasbasbag62
(g78
g64
NtRp3449
(dp3450
g67
(dp3451
sg76
g3379
sg69
(lp3452
g62
(g83
g64
NtRp3453
(dp3454
g67
(dp3455
g87
g88
ssg76
g3449
sg69
(lp3456
S'id'
p3457
asbag62
(g83
g64
NtRp3458
(dp3459
g67
(dp3460
g94
g95
ssg76
g3449
sg69
(lp3461
S':'
asbag62
(g83
g64
NtRp3462
(dp3463
g67
(dp3464
sg76
g3449
sg69
(lp3465
g62
(g63
g64
NtRp3466
(dp3467
g67
(dp3468
g75
I3
ssg76
g3462
sg69
(lp3469
S'11'
p3470
asbasbasbag62
(g78
g64
NtRp3471
(dp3472
g67
(dp3473
sg76
g3379
sg69
(lp3474
g62
(g83
g64
NtRp3475
(dp3476
g67
(dp3477
g87
g88
ssg76
g3471
sg69
(lp3478
S'last_name'
p3479
asbag62
(g83
g64
NtRp3480
(dp3481
g67
(dp3482
g94
g95
ssg76
g3471
sg69
(lp3483
S':'
asbag62
(g83
g64
NtRp3484
(dp3485
g67
(dp3486
sg76
g3471
sg69
(lp3487
g62
(g63
g64
NtRp3488
(dp3489
g67
(dp3490
g75
I3
ssg76
g3484
sg69
(lp3491
S'p'
asbasbasbag62
(g78
g64
NtRp3492
(dp3493
g67
(dp3494
sg76
g3379
sg69
(lp3495
g62
(g83
g64
NtRp3496
(dp3497
g67
(dp3498
g87
g88
ssg76
g3492
sg69
(lp3499
S'modified_on'
p3500
asbag62
(g83
g64
NtRp3501
(dp3502
g67
(dp3503
g94
g95
ssg76
g3492
sg69
(lp3504
S':'
asbag62
(g83
g64
NtRp3505
(dp3506
g67
(dp3507
sg76
g3492
sg69
(lp3508
g62
(g63
g64
NtRp3509
(dp3510
g67
(dp3511
g75
I3
ssg76
g3505
sg69
(lp3512
S'datetime.datetime(2012, 10, 23, 2, 28, 41)'
p3513
asbasbasbag62
(g78
g64
NtRp3514
(dp3515
g67
(dp3516
sg76
g3379
sg69
(lp3517
g62
(g83
g64
NtRp3518
(dp3519
g67
(dp3520
g87
g88
ssg76
g3514
sg69
(lp3521
S'password'
p3522
asbag62
(g83
g64
NtRp3523
(dp3524
g67
(dp3525
g94
g95
ssg76
g3514
sg69
(lp3526
S':'
asbag62
(g83
g64
NtRp3527
(dp3528
g67
(dp3529
sg76
g3514
sg69
(lp3530
g62
(g63
g64
NtRp3531
(dp3532
g67
(dp3533
g75
I3
ssg76
g3527
sg69
(lp3534
S'32371e3190f8e63e16755b2e6bf663a2'
p3535
asbasbasbag62
(g78
g64
NtRp3536
(dp3537
g67
(dp3538
sg76
g3379
sg69
(lp3539
g62
(g83
g64
NtRp3540
(dp3541
g67
(dp3542
g87
g88
ssg76
g3536
sg69
(lp3543
S'registration_id'
p3544
asbag62
(g83
g64
NtRp3545
(dp3546
g67
(dp3547
g94
g95
ssg76
g3536
sg69
(lp3548
S':'
asbag62
(g83
g64
NtRp3549
(dp3550
g67
(dp3551
sg76
g3536
sg69
(lp3552
g62
(g63
g64
NtRp3553
(dp3554
g67
(dp3555
g75
I3
ssg76
g3549
sg69
(lp3556
S''
asbasbasbag62
(g78
g64
NtRp3557
(dp3558
g67
(dp3559
sg76
g3379
sg69
(lp3560
g62
(g83
g64
NtRp3561
(dp3562
g67
(dp3563
g87
g88
ssg76
g3557
sg69
(lp3564
S'registration_key'
p3565
asbag62
(g83
g64
NtRp3566
(dp3567
g67
(dp3568
g94
g95
ssg76
g3557
sg69
(lp3569
S':'
asbag62
(g83
g64
NtRp3570
(dp3571
g67
(dp3572
sg76
g3557
sg69
(lp3573
g62
(g63
g64
NtRp3574
(dp3575
g67
(dp3576
g75
I3
ssg76
g3570
sg69
(lp3577
S''
asbasbasbag62
(g78
g64
NtRp3578
(dp3579
g67
(dp3580
sg76
g3379
sg69
(lp3581
g62
(g83
g64
NtRp3582
(dp3583
g67
(dp3584
g87
g88
ssg76
g3578
sg69
(lp3585
S'reset_password_key'
p3586
asbag62
(g83
g64
NtRp3587
(dp3588
g67
(dp3589
g94
g95
ssg76
g3578
sg69
(lp3590
S':'
asbag62
(g83
g64
NtRp3591
(dp3592
g67
(dp3593
sg76
g3578
sg69
(lp3594
g62
(g63
g64
NtRp3595
(dp3596
g67
(dp3597
g75
I3
ssg76
g3591
sg69
(lp3598
S''
asbasbasbag62
(g78
g64
NtRp3599
(dp3600
g67
(dp3601
sg76
g3379
sg69
(lp3602
g62
(g83
g64
NtRp3603
(dp3604
g67
(dp3605
g87
g88
ssg76
g3599
sg69
(lp3606
S'username'
p3607
asbag62
(g83
g64
NtRp3608
(dp3609
g67
(dp3610
g94
g95
ssg76
g3599
sg69
(lp3611
S':'
asbag62
(g83
g64
NtRp3612
(dp3613
g67
(dp3614
sg76
g3599
sg69
(lp3615
g62
(g63
g64
NtRp3616
(dp3617
g67
(dp3618
g75
I3
ssg76
g3612
sg69
(lp3619
S'manu1'
p3620
asbasbasbasbasbasbasbag62
(g78
g64
NtRp3621
(dp3622
g67
(dp3623
sg76
g3267
sg69
(lp3624
g62
(g83
g64
NtRp3625
(dp3626
g67
(dp3627
g87
g88
ssg76
g3621
sg69
(lp3628
S'user_groups'
p3629
asbag62
(g83
g64
NtRp3630
(dp3631
g67
(dp3632
g94
g95
ssg76
g3621
sg69
(lp3633
S':'
asbag62
(g83
g64
NtRp3634
(dp3635
g67
(dp3636
sg76
g3621
sg69
(lp3637
g62
(g63
g64
NtRp3638
(dp3639
g67
(dp3640
g75
I4
ssg76
g3634
sg69
(lp3641
g62
(g71
g64
NtRp3642
(dp3643
g67
(dp3644
g75
I3
ssg76
Nsg69
(lp3645
g62
(g78
g64
NtRp3646
(dp3647
g67
(dp3648
sg76
g3642
sg69
(lp3649
g62
(g83
g64
NtRp3650
(dp3651
g67
(dp3652
g87
g88
ssg76
g3646
sg69
(lp3653
S'1'
asbag62
(g83
g64
NtRp3654
(dp3655
g67
(dp3656
g94
g95
ssg76
g3646
sg69
(lp3657
S':'
asbag62
(g83
g64
NtRp3658
(dp3659
g67
(dp3660
sg76
g3646
sg69
(lp3661
g62
(g63
g64
NtRp3662
(dp3663
g67
(dp3664
g75
I3
ssg76
g3658
sg69
(lp3665
S'user_11'
p3666
asbasbasbasbasbasbasbasbasbasbasbasbasbsS'etype'
p3667
S"<type 'exceptions.IOError'>"
p3668
sS'date'
p3669
S'Mon Nov 12 01:52:23 2012'
p3670
sS'response'
p3671
g62
(g63
g64
NtRp3672
(dp3673
g67
(dp3674
sg69
(lp3675
g62
(g71
g64
NtRp3676
(dp3677
g67
(dp3678
g75
I5
ssg76
Nsg69
(lp3679
g62
(g78
g64
NtRp3680
(dp3681
g67
(dp3682
sg76
g3676
sg69
(lp3683
g62
(g83
g64
NtRp3684
(dp3685
g67
(dp3686
g87
g88
ssg76
g3680
sg69
(lp3687
g172
asbag62
(g83
g64
NtRp3688
(dp3689
g67
(dp3690
g94
g95
ssg76
g3680
sg69
(lp3691
S':'
asbag62
(g83
g64
NtRp3692
(dp3693
g67
(dp3694
sg76
g3680
sg69
(lp3695
g62
(g63
g64
NtRp3696
(dp3697
g67
(dp3698
g75
I5
ssg76
g3692
sg69
(lp3699
S'<cStringIO.StringO object at 0x7fbd723a6260>'
p3700
asbasbasbag62
(g78
g64
NtRp3701
(dp3702
g67
(dp3703
sg76
g3676
sg69
(lp3704
g62
(g83
g64
NtRp3705
(dp3706
g67
(dp3707
g87
g88
ssg76
g3701
sg69
(lp3708
g238
asbag62
(g83
g64
NtRp3709
(dp3710
g67
(dp3711
g94
g95
ssg76
g3701
sg69
(lp3712
S':'
asbag62
(g83
g64
NtRp3713
(dp3714
g67
(dp3715
sg76
g3701
sg69
(lp3716
g62
(g63
g64
NtRp3717
(dp3718
g67
(dp3719
g75
I5
ssg76
g3713
sg69
(lp3720
g62
(g71
g64
NtRp3721
(dp3722
g67
(dp3723
g75
I4
ssg76
Nsg69
(lp3724
g62
(g78
g64
NtRp3725
(dp3726
g67
(dp3727
sg76
g3721
sg69
(lp3728
g62
(g83
g64
NtRp3729
(dp3730
g67
(dp3731
g87
g88
ssg76
g3725
sg69
(lp3732
S'session_id_cite_m5'
p3733
asbag62
(g83
g64
NtRp3734
(dp3735
g67
(dp3736
g94
g95
ssg76
g3725
sg69
(lp3737
S':'
asbag62
(g83
g64
NtRp3738
(dp3739
g67
(dp3740
sg76
g3725
sg69
(lp3741
g62
(g63
g64
NtRp3742
(dp3743
g67
(dp3744
g75
I4
ssg76
g3738
sg69
(lp3745
g62
(g71
g64
NtRp3746
(dp3747
g67
(dp3748
g75
I3
ssg76
Nsg69
(lp3749
g62
(g78
g64
NtRp3750
(dp3751
g67
(dp3752
sg76
g3746
sg69
(lp3753
g62
(g83
g64
NtRp3754
(dp3755
g67
(dp3756
g87
g88
ssg76
g3750
sg69
(lp3757
g288
asbag62
(g83
g64
NtRp3758
(dp3759
g67
(dp3760
g94
g95
ssg76
g3750
sg69
(lp3761
S':'
asbag62
(g83
g64
NtRp3762
(dp3763
g67
(dp3764
sg76
g3750
sg69
(lp3765
g62
(g63
g64
NtRp3766
(dp3767
g67
(dp3768
g75
I3
ssg76
g3762
sg69
(lp3769
S''
asbasbasbag62
(g78
g64
NtRp3770
(dp3771
g67
(dp3772
sg76
g3746
sg69
(lp3773
g62
(g83
g64
NtRp3774
(dp3775
g67
(dp3776
g87
g88
ssg76
g3770
sg69
(lp3777
g309
asbag62
(g83
g64
NtRp3778
(dp3779
g67
(dp3780
g94
g95
ssg76
g3770
sg69
(lp3781
S':'
asbag62
(g83
g64
NtRp3782
(dp3783
g67
(dp3784
sg76
g3770
sg69
(lp3785
g62
(g63
g64
NtRp3786
(dp3787
g67
(dp3788
g75
I3
ssg76
g3782
sg69
(lp3789
S''
asbasbasbag62
(g78
g64
NtRp3790
(dp3791
g67
(dp3792
sg76
g3746
sg69
(lp3793
g62
(g83
g64
NtRp3794
(dp3795
g67
(dp3796
g87
g88
ssg76
g3790
sg69
(lp3797
g330
asbag62
(g83
g64
NtRp3798
(dp3799
g67
(dp3800
g94
g95
ssg76
g3790
sg69
(lp3801
S':'
asbag62
(g83
g64
NtRp3802
(dp3803
g67
(dp3804
sg76
g3790
sg69
(lp3805
g62
(g63
g64
NtRp3806
(dp3807
g67
(dp3808
g75
I3
ssg76
g3802
sg69
(lp3809
S''
asbasbasbag62
(g78
g64
NtRp3810
(dp3811
g67
(dp3812
sg76
g3746
sg69
(lp3813
g62
(g83
g64
NtRp3814
(dp3815
g67
(dp3816
g87
g88
ssg76
g3810
sg69
(lp3817
g351
asbag62
(g83
g64
NtRp3818
(dp3819
g67
(dp3820
g94
g95
ssg76
g3810
sg69
(lp3821
S':'
asbag62
(g83
g64
NtRp3822
(dp3823
g67
(dp3824
sg76
g3810
sg69
(lp3825
g62
(g63
g64
NtRp3826
(dp3827
g67
(dp3828
g75
I3
ssg76
g3822
sg69
(lp3829
S''
asbasbasbag62
(g78
g64
NtRp3830
(dp3831
g67
(dp3832
sg76
g3746
sg69
(lp3833
g62
(g83
g64
NtRp3834
(dp3835
g67
(dp3836
g87
g88
ssg76
g3830
sg69
(lp3837
g372
asbag62
(g83
g64
NtRp3838
(dp3839
g67
(dp3840
g94
g95
ssg76
g3830
sg69
(lp3841
S':'
asbag62
(g83
g64
NtRp3842
(dp3843
g67
(dp3844
sg76
g3830
sg69
(lp3845
g62
(g63
g64
NtRp3846
(dp3847
g67
(dp3848
g75
I3
ssg76
g3842
sg69
(lp3849
S''
asbasbasbag62
(g78
g64
NtRp3850
(dp3851
g67
(dp3852
sg76
g3746
sg69
(lp3853
g62
(g83
g64
NtRp3854
(dp3855
g67
(dp3856
g87
g88
ssg76
g3850
sg69
(lp3857
g393
asbag62
(g83
g64
NtRp3858
(dp3859
g67
(dp3860
g94
g95
ssg76
g3850
sg69
(lp3861
S':'
asbag62
(g83
g64
NtRp3862
(dp3863
g67
(dp3864
sg76
g3850
sg69
(lp3865
g62
(g63
g64
NtRp3866
(dp3867
g67
(dp3868
g75
I3
ssg76
g3862
sg69
(lp3869
S'/'
asbasbasbag62
(g78
g64
NtRp3870
(dp3871
g67
(dp3872
sg76
g3746
sg69
(lp3873
g62
(g83
g64
NtRp3874
(dp3875
g67
(dp3876
g87
g88
ssg76
g3870
sg69
(lp3877
g414
asbag62
(g83
g64
NtRp3878
(dp3879
g67
(dp3880
g94
g95
ssg76
g3870
sg69
(lp3881
S':'
asbag62
(g83
g64
NtRp3882
(dp3883
g67
(dp3884
sg76
g3870
sg69
(lp3885
g62
(g63
g64
NtRp3886
(dp3887
g67
(dp3888
g75
I3
ssg76
g3882
sg69
(lp3889
S''
asbasbasbag62
(g78
g64
NtRp3890
(dp3891
g67
(dp3892
sg76
g3746
sg69
(lp3893
g62
(g83
g64
NtRp3894
(dp3895
g67
(dp3896
g87
g88
ssg76
g3890
sg69
(lp3897
g435
asbag62
(g83
g64
NtRp3898
(dp3899
g67
(dp3900
g94
g95
ssg76
g3890
sg69
(lp3901
S':'
asbag62
(g83
g64
NtRp3902
(dp3903
g67
(dp3904
sg76
g3890
sg69
(lp3905
g62
(g63
g64
NtRp3906
(dp3907
g67
(dp3908
g75
I3
ssg76
g3902
sg69
(lp3909
S''
asbasbasbasbasbasbasbasbasbasbasbag62
(g78
g64
NtRp3910
(dp3911
g67
(dp3912
sg76
g3676
sg69
(lp3913
g62
(g83
g64
NtRp3914
(dp3915
g67
(dp3916
g87
g88
ssg76
g3910
sg69
(lp3917
S'delimiters'
p3918
asbag62
(g83
g64
NtRp3919
(dp3920
g67
(dp3921
g94
g95
ssg76
g3910
sg69
(lp3922
S':'
asbag62
(g83
g64
NtRp3923
(dp3924
g67
(dp3925
sg76
g3910
sg69
(lp3926
g62
(g63
g64
NtRp3927
(dp3928
g67
(dp3929
g75
I5
ssg76
g3923
sg69
(lp3930
g62
(g71
g64
NtRp3931
(dp3932
g67
(dp3933
g75
I4
ssg76
Nsg69
(lp3934
g62
(g78
g64
NtRp3935
(dp3936
g67
(dp3937
sg76
g3931
sg69
(lp3938
g62
(g83
g64
NtRp3939
(dp3940
g67
(dp3941
sg76
g3935
sg69
(lp3942
g62
(g63
g64
NtRp3943
(dp3944
g67
(dp3945
g75
I4
ssg76
g3939
sg69
(lp3946
S'{{'
p3947
asbasbasbag62
(g78
g64
NtRp3948
(dp3949
g67
(dp3950
sg76
g3931
sg69
(lp3951
g62
(g83
g64
NtRp3952
(dp3953
g67
(dp3954
sg76
g3948
sg69
(lp3955
g62
(g63
g64
NtRp3956
(dp3957
g67
(dp3958
g75
I4
ssg76
g3952
sg69
(lp3959
S'}}'
p3960
asbasbasbasbasbasbasbag62
(g78
g64
NtRp3961
(dp3962
g67
(dp3963
sg76
g3676
sg69
(lp3964
g62
(g83
g64
NtRp3965
(dp3966
g67
(dp3967
g87
g88
ssg76
g3961
sg69
(lp3968
S'files'
p3969
asbag62
(g83
g64
NtRp3970
(dp3971
g67
(dp3972
g94
g95
ssg76
g3961
sg69
(lp3973
S':'
asbag62
(g83
g64
NtRp3974
(dp3975
g67
(dp3976
sg76
g3961
sg69
(lp3977
g62
(g63
g64
NtRp3978
(dp3979
g67
(dp3980
g75
I5
ssg76
g3974
sg69
(lp3981
g62
(g71
g64
NtRp3982
(dp3983
g67
(dp3984
g75
I4
ssg76
Nsg69
(lp3985
g62
(g78
g64
NtRp3986
(dp3987
g67
(dp3988
sg76
g3982
sg69
(lp3989
g62
(g83
g64
NtRp3990
(dp3991
g67
(dp3992
sg76
g3986
sg69
(lp3993
g62
(g63
g64
NtRp3994
(dp3995
g67
(dp3996
g75
I4
ssg76
g3990
sg69
(lp3997
S'/cite_m5/static/js/jquery.js'
p3998
asbasbasbag62
(g78
g64
NtRp3999
(dp4000
g67
(dp4001
sg76
g3982
sg69
(lp4002
g62
(g83
g64
NtRp4003
(dp4004
g67
(dp4005
sg76
g3999
sg69
(lp4006
g62
(g63
g64
NtRp4007
(dp4008
g67
(dp4009
g75
I4
ssg76
g4003
sg69
(lp4010
S'/cite_m5/static/css/calendar.css'
p4011
asbasbasbag62
(g78
g64
NtRp4012
(dp4013
g67
(dp4014
sg76
g3982
sg69
(lp4015
g62
(g83
g64
NtRp4016
(dp4017
g67
(dp4018
sg76
g4012
sg69
(lp4019
g62
(g63
g64
NtRp4020
(dp4021
g67
(dp4022
g75
I4
ssg76
g4016
sg69
(lp4023
S'/cite_m5/static/js/calendar.js'
p4024
asbasbasbag62
(g78
g64
NtRp4025
(dp4026
g67
(dp4027
sg76
g3982
sg69
(lp4028
g62
(g83
g64
NtRp4029
(dp4030
g67
(dp4031
sg76
g4025
sg69
(lp4032
g62
(g63
g64
NtRp4033
(dp4034
g67
(dp4035
g75
I4
ssg76
g4029
sg69
(lp4036
S'/cite_m5/static/js/web2py.js'
p4037
asbasbasbag62
(g78
g64
NtRp4038
(dp4039
g67
(dp4040
sg76
g3982
sg69
(lp4041
g62
(g83
g64
NtRp4042
(dp4043
g67
(dp4044
sg76
g4038
sg69
(lp4045
g62
(g63
g64
NtRp4046
(dp4047
g67
(dp4048
g75
I4
ssg76
g4042
sg69
(lp4049
S'/cite_m5/static/plugin_layouts/layouts/Blend/default.css'
p4050
asbasbasbag62
(g78
g64
NtRp4051
(dp4052
g67
(dp4053
sg76
g3982
sg69
(lp4054
g62
(g83
g64
NtRp4055
(dp4056
g67
(dp4057
sg76
g4051
sg69
(lp4058
g62
(g63
g64
NtRp4059
(dp4060
g67
(dp4061
g75
I4
ssg76
g4055
sg69
(lp4062
S'/cite_m5/static/plugin_layouts/superfish.js'
p4063
asbasbasbasbasbasbasbag62
(g78
g64
NtRp4064
(dp4065
g67
(dp4066
sg76
g3676
sg69
(lp4067
g62
(g83
g64
NtRp4068
(dp4069
g67
(dp4070
g87
g88
ssg76
g4064
sg69
(lp4071
S'flash'
p4072
asbag62
(g83
g64
NtRp4073
(dp4074
g67
(dp4075
g94
g95
ssg76
g4064
sg69
(lp4076
S':'
asbag62
(g83
g64
NtRp4077
(dp4078
g67
(dp4079
sg76
g4064
sg69
(lp4080
g62
(g63
g64
NtRp4081
(dp4082
g67
(dp4083
g75
I5
ssg76
g4077
sg69
(lp4084
S''
asbasbasbag62
(g78
g64
NtRp4085
(dp4086
g67
(dp4087
sg76
g3676
sg69
(lp4088
g62
(g83
g64
NtRp4089
(dp4090
g67
(dp4091
g87
g88
ssg76
g4085
sg69
(lp4092
S'generic_patterns'
p4093
asbag62
(g83
g64
NtRp4094
(dp4095
g67
(dp4096
g94
g95
ssg76
g4085
sg69
(lp4097
S':'
asbag62
(g83
g64
NtRp4098
(dp4099
g67
(dp4100
sg76
g4085
sg69
(lp4101
g62
(g63
g64
NtRp4102
(dp4103
g67
(dp4104
g75
I5
ssg76
g4098
sg69
(lp4105
g62
(g71
g64
NtRp4106
(dp4107
g67
(dp4108
g75
I4
ssg76
Nsg69
(lp4109
g62
(g78
g64
NtRp4110
(dp4111
g67
(dp4112
sg76
g4106
sg69
(lp4113
g62
(g83
g64
NtRp4114
(dp4115
g67
(dp4116
sg76
g4110
sg69
(lp4117
g62
(g63
g64
NtRp4118
(dp4119
g67
(dp4120
g75
I4
ssg76
g4114
sg69
(lp4121
S'*'
asbasbasbasbasbasbasbag62
(g78
g64
NtRp4122
(dp4123
g67
(dp4124
sg76
g3676
sg69
(lp4125
g62
(g83
g64
NtRp4126
(dp4127
g67
(dp4128
g87
g88
ssg76
g4122
sg69
(lp4129
S'headers'
p4130
asbag62
(g83
g64
NtRp4131
(dp4132
g67
(dp4133
g94
g95
ssg76
g4122
sg69
(lp4134
S':'
asbag62
(g83
g64
NtRp4135
(dp4136
g67
(dp4137
sg76
g4122
sg69
(lp4138
g62
(g63
g64
NtRp4139
(dp4140
g67
(dp4141
g75
I5
ssg76
g4135
sg69
(lp4142
g62
(g71
g64
NtRp4143
(dp4144
g67
(dp4145
g75
I4
ssg76
Nsg69
(lp4146
g62
(g78
g64
NtRp4147
(dp4148
g67
(dp4149
sg76
g4143
sg69
(lp4150
g62
(g83
g64
NtRp4151
(dp4152
g67
(dp4153
g87
g88
ssg76
g4147
sg69
(lp4154
S'Cache-Control'
p4155
asbag62
(g83
g64
NtRp4156
(dp4157
g67
(dp4158
g94
g95
ssg76
g4147
sg69
(lp4159
S':'
asbag62
(g83
g64
NtRp4160
(dp4161
g67
(dp4162
sg76
g4147
sg69
(lp4163
g62
(g63
g64
NtRp4164
(dp4165
g67
(dp4166
g75
I4
ssg76
g4160
sg69
(lp4167
S'no-store, no-cache, must-revalidate, post-check=0, pre-check=0'
p4168
asbasbasbag62
(g78
g64
NtRp4169
(dp4170
g67
(dp4171
sg76
g4143
sg69
(lp4172
g62
(g83
g64
NtRp4173
(dp4174
g67
(dp4175
g87
g88
ssg76
g4169
sg69
(lp4176
S'Content-Type'
p4177
asbag62
(g83
g64
NtRp4178
(dp4179
g67
(dp4180
g94
g95
ssg76
g4169
sg69
(lp4181
S':'
asbag62
(g83
g64
NtRp4182
(dp4183
g67
(dp4184
sg76
g4169
sg69
(lp4185
g62
(g63
g64
NtRp4186
(dp4187
g67
(dp4188
g75
I4
ssg76
g4182
sg69
(lp4189
S'text/html; charset=utf-8'
p4190
asbasbasbag62
(g78
g64
NtRp4191
(dp4192
g67
(dp4193
sg76
g4143
sg69
(lp4194
g62
(g83
g64
NtRp4195
(dp4196
g67
(dp4197
g87
g88
ssg76
g4191
sg69
(lp4198
S'Expires'
p4199
asbag62
(g83
g64
NtRp4200
(dp4201
g67
(dp4202
g94
g95
ssg76
g4191
sg69
(lp4203
S':'
asbag62
(g83
g64
NtRp4204
(dp4205
g67
(dp4206
sg76
g4191
sg69
(lp4207
g62
(g63
g64
NtRp4208
(dp4209
g67
(dp4210
g75
I4
ssg76
g4204
sg69
(lp4211
S'Sun, 11 Nov 2012 20:21:20 GMT'
p4212
asbasbasbag62
(g78
g64
NtRp4213
(dp4214
g67
(dp4215
sg76
g4143
sg69
(lp4216
g62
(g83
g64
NtRp4217
(dp4218
g67
(dp4219
g87
g88
ssg76
g4213
sg69
(lp4220
S'Pragma'
p4221
asbag62
(g83
g64
NtRp4222
(dp4223
g67
(dp4224
g94
g95
ssg76
g4213
sg69
(lp4225
S':'
asbag62
(g83
g64
NtRp4226
(dp4227
g67
(dp4228
sg76
g4213
sg69
(lp4229
g62
(g63
g64
NtRp4230
(dp4231
g67
(dp4232
g75
I4
ssg76
g4226
sg69
(lp4233
S'no-cache'
p4234
asbasbasbag62
(g78
g64
NtRp4235
(dp4236
g67
(dp4237
sg76
g4143
sg69
(lp4238
g62
(g83
g64
NtRp4239
(dp4240
g67
(dp4241
g87
g88
ssg76
g4235
sg69
(lp4242
S'X-Powered-By'
p4243
asbag62
(g83
g64
NtRp4244
(dp4245
g67
(dp4246
g94
g95
ssg76
g4235
sg69
(lp4247
S':'
asbag62
(g83
g64
NtRp4248
(dp4249
g67
(dp4250
sg76
g4235
sg69
(lp4251
g62
(g63
g64
NtRp4252
(dp4253
g67
(dp4254
g75
I4
ssg76
g4248
sg69
(lp4255
S'web2py'
p4256
asbasbasbasbasbasbasbag62
(g78
g64
NtRp4257
(dp4258
g67
(dp4259
sg76
g3676
sg69
(lp4260
g62
(g83
g64
NtRp4261
(dp4262
g67
(dp4263
g87
g88
ssg76
g4257
sg69
(lp4264
S'menu'
p4265
asbag62
(g83
g64
NtRp4266
(dp4267
g67
(dp4268
g94
g95
ssg76
g4257
sg69
(lp4269
S':'
asbag62
(g83
g64
NtRp4270
(dp4271
g67
(dp4272
sg76
g4257
sg69
(lp4273
g62
(g63
g64
NtRp4274
(dp4275
g67
(dp4276
g75
I5
ssg76
g4270
sg69
(lp4277
g62
(g71
g64
NtRp4278
(dp4279
g67
(dp4280
g75
I4
ssg76
Nsg69
(lp4281
g62
(g78
g64
NtRp4282
(dp4283
g67
(dp4284
sg76
g4278
sg69
(lp4285
g62
(g83
g64
NtRp4286
(dp4287
g67
(dp4288
sg76
g4282
sg69
(lp4289
g62
(g63
g64
NtRp4290
(dp4291
g67
(dp4292
g75
I4
ssg76
g4286
sg69
(lp4293
g62
(g71
g64
NtRp4294
(dp4295
g67
(dp4296
g75
I3
ssg76
Nsg69
(lp4297
g62
(g78
g64
NtRp4298
(dp4299
g67
(dp4300
sg76
g4294
sg69
(lp4301
g62
(g83
g64
NtRp4302
(dp4303
g67
(dp4304
sg76
g4298
sg69
(lp4305
g62
(g63
g64
NtRp4306
(dp4307
g67
(dp4308
g75
I3
ssg76
g4302
sg69
(lp4309
cgluon.languages
lazyT_unpickle
p4310
(S't\x05\x00\x00\x00Index'
tRp4311
asbasbasbag62
(g78
g64
NtRp4312
(dp4313
g67
(dp4314
sg76
g4294
sg69
(lp4315
g62
(g83
g64
NtRp4316
(dp4317
g67
(dp4318
sg76
g4312
sg69
(lp4319
g62
(g63
g64
NtRp4320
(dp4321
g67
(dp4322
g75
I3
ssg76
g4316
sg69
(lp4323
g105
asbasbasbag62
(g78
g64
NtRp4324
(dp4325
g67
(dp4326
sg76
g4294
sg69
(lp4327
g62
(g83
g64
NtRp4328
(dp4329
g67
(dp4330
sg76
g4324
sg69
(lp4331
g62
(g63
g64
NtRp4332
(dp4333
g67
(dp4334
g75
I3
ssg76
g4328
sg69
(lp4335
S'/cite_m5/default/index'
p4336
asbasbasbag62
(g78
g64
NtRp4337
(dp4338
g67
(dp4339
sg76
g4294
sg69
(lp4340
g62
(g83
g64
NtRp4341
(dp4342
g67
(dp4343
sg76
g4337
sg69
(lp4344
g62
(g63
g64
NtRp4345
(dp4346
g67
(dp4347
g75
I3
ssg76
g4341
sg69
(lp4348
g62
(g71
g64
NtRp4349
(dp4350
g67
(dp4351
g75
I2
ssg76
Nsg69
(lp4352
sbasbasbasbasbasbasbasbasbasbasbasbag62
(g78
g64
NtRp4353
(dp4354
g67
(dp4355
sg76
g3676
sg69
(lp4356
g62
(g83
g64
NtRp4357
(dp4358
g67
(dp4359
g87
g88
ssg76
g4353
sg69
(lp4360
S'meta'
p4361
asbag62
(g83
g64
NtRp4362
(dp4363
g67
(dp4364
g94
g95
ssg76
g4353
sg69
(lp4365
S':'
asbag62
(g83
g64
NtRp4366
(dp4367
g67
(dp4368
sg76
g4353
sg69
(lp4369
g62
(g63
g64
NtRp4370
(dp4371
g67
(dp4372
g75
I5
ssg76
g4366
sg69
(lp4373
g62
(g71
g64
NtRp4374
(dp4375
g67
(dp4376
g75
I4
ssg76
Nsg69
(lp4377
g62
(g78
g64
NtRp4378
(dp4379
g67
(dp4380
sg76
g4374
sg69
(lp4381
g62
(g83
g64
NtRp4382
(dp4383
g67
(dp4384
g87
g88
ssg76
g4378
sg69
(lp4385
S'author'
p4386
asbag62
(g83
g64
NtRp4387
(dp4388
g67
(dp4389
g94
g95
ssg76
g4378
sg69
(lp4390
S':'
asbag62
(g83
g64
NtRp4391
(dp4392
g67
(dp4393
sg76
g4378
sg69
(lp4394
g62
(g63
g64
NtRp4395
(dp4396
g67
(dp4397
g75
I4
ssg76
g4391
sg69
(lp4398
S'you <you@example.com>'
p4399
asbasbasbag62
(g78
g64
NtRp4400
(dp4401
g67
(dp4402
sg76
g4374
sg69
(lp4403
g62
(g83
g64
NtRp4404
(dp4405
g67
(dp4406
g87
g88
ssg76
g4400
sg69
(lp4407
S'description'
p4408
asbag62
(g83
g64
NtRp4409
(dp4410
g67
(dp4411
g94
g95
ssg76
g4400
sg69
(lp4412
S':'
asbag62
(g83
g64
NtRp4413
(dp4414
g67
(dp4415
sg76
g4400
sg69
(lp4416
g62
(g63
g64
NtRp4417
(dp4418
g67
(dp4419
g75
I4
ssg76
g4413
sg69
(lp4420
S''
asbasbasbag62
(g78
g64
NtRp4421
(dp4422
g67
(dp4423
sg76
g4374
sg69
(lp4424
g62
(g83
g64
NtRp4425
(dp4426
g67
(dp4427
g87
g88
ssg76
g4421
sg69
(lp4428
S'keywords'
p4429
asbag62
(g83
g64
NtRp4430
(dp4431
g67
(dp4432
g94
g95
ssg76
g4421
sg69
(lp4433
S':'
asbag62
(g83
g64
NtRp4434
(dp4435
g67
(dp4436
sg76
g4421
sg69
(lp4437
g62
(g63
g64
NtRp4438
(dp4439
g67
(dp4440
g75
I4
ssg76
g4434
sg69
(lp4441
S''
asbasbasbasbasbasbasbag62
(g78
g64
NtRp4442
(dp4443
g67
(dp4444
sg76
g3676
sg69
(lp4445
g62
(g83
g64
NtRp4446
(dp4447
g67
(dp4448
g87
g88
ssg76
g4442
sg69
(lp4449
S'postprocessing'
p4450
asbag62
(g83
g64
NtRp4451
(dp4452
g67
(dp4453
g94
g95
ssg76
g4442
sg69
(lp4454
S':'
asbag62
(g83
g64
NtRp4455
(dp4456
g67
(dp4457
sg76
g4442
sg69
(lp4458
g62
(g63
g64
NtRp4459
(dp4460
g67
(dp4461
g75
I5
ssg76
g4455
sg69
(lp4462
g62
(g71
g64
NtRp4463
(dp4464
g67
(dp4465
g75
I4
ssg76
Nsg69
(lp4466
sbasbasbasbag62
(g78
g64
NtRp4467
(dp4468
g67
(dp4469
sg76
g3676
sg69
(lp4470
g62
(g83
g64
NtRp4471
(dp4472
g67
(dp4473
g87
g88
ssg76
g4467
sg69
(lp4474
S'session_file'
p4475
asbag62
(g83
g64
NtRp4476
(dp4477
g67
(dp4478
g94
g95
ssg76
g4467
sg69
(lp4479
S':'
asbag62
(g83
g64
NtRp4480
(dp4481
g67
(dp4482
sg76
g4467
sg69
(lp4483
g62
(g63
g64
NtRp4484
(dp4485
g67
(dp4486
g75
I5
ssg76
g4480
sg69
(lp4487
S"<open file '/home/chitra/courses/SSAD/web2py/applications/cite_m5/sessions/127.0.0.1-6b5fef13-ab11-4a8b-a8a1-45e33faa95ff', mode 'rb+' at 0x7fbd8c488780>"
p4488
asbasbasbag62
(g78
g64
NtRp4489
(dp4490
g67
(dp4491
sg76
g3676
sg69
(lp4492
g62
(g83
g64
NtRp4493
(dp4494
g67
(dp4495
g87
g88
ssg76
g4489
sg69
(lp4496
S'session_filename'
p4497
asbag62
(g83
g64
NtRp4498
(dp4499
g67
(dp4500
g94
g95
ssg76
g4489
sg69
(lp4501
S':'
asbag62
(g83
g64
NtRp4502
(dp4503
g67
(dp4504
sg76
g4489
sg69
(lp4505
g62
(g63
g64
NtRp4506
(dp4507
g67
(dp4508
g75
I5
ssg76
g4502
sg69
(lp4509
S'/home/chitra/courses/SSAD/web2py/applications/cite_m5/sessions/127.0.0.1-6b5fef13-ab11-4a8b-a8a1-45e33faa95ff'
p4510
asbasbasbag62
(g78
g64
NtRp4511
(dp4512
g67
(dp4513
sg76
g3676
sg69
(lp4514
g62
(g83
g64
NtRp4515
(dp4516
g67
(dp4517
g87
g88
ssg76
g4511
sg69
(lp4518
S'session_id'
p4519
asbag62
(g83
g64
NtRp4520
(dp4521
g67
(dp4522
g94
g95
ssg76
g4511
sg69
(lp4523
S':'
asbag62
(g83
g64
NtRp4524
(dp4525
g67
(dp4526
sg76
g4511
sg69
(lp4527
g62
(g63
g64
NtRp4528
(dp4529
g67
(dp4530
g75
I5
ssg76
g4524
sg69
(lp4531
S'127.0.0.1-6b5fef13-ab11-4a8b-a8a1-45e33faa95ff'
p4532
asbasbasbag62
(g78
g64
NtRp4533
(dp4534
g67
(dp4535
sg76
g3676
sg69
(lp4536
g62
(g83
g64
NtRp4537
(dp4538
g67
(dp4539
g87
g88
ssg76
g4533
sg69
(lp4540
S'session_id_name'
p4541
asbag62
(g83
g64
NtRp4542
(dp4543
g67
(dp4544
g94
g95
ssg76
g4533
sg69
(lp4545
S':'
asbag62
(g83
g64
NtRp4546
(dp4547
g67
(dp4548
sg76
g4533
sg69
(lp4549
g62
(g63
g64
NtRp4550
(dp4551
g67
(dp4552
g75
I5
ssg76
g4546
sg69
(lp4553
g3733
asbasbasbag62
(g78
g64
NtRp4554
(dp4555
g67
(dp4556
sg76
g3676
sg69
(lp4557
g62
(g83
g64
NtRp4558
(dp4559
g67
(dp4560
g87
g88
ssg76
g4554
sg69
(lp4561
S'session_locked'
p4562
asbag62
(g83
g64
NtRp4563
(dp4564
g67
(dp4565
g94
g95
ssg76
g4554
sg69
(lp4566
S':'
asbag62
(g83
g64
NtRp4567
(dp4568
g67
(dp4569
sg76
g4554
sg69
(lp4570
g62
(g63
g64
NtRp4571
(dp4572
g67
(dp4573
g75
I5
ssg76
g4567
sg69
(lp4574
g1858
asbasbasbag62
(g78
g64
NtRp4575
(dp4576
g67
(dp4577
sg76
g3676
sg69
(lp4578
g62
(g83
g64
NtRp4579
(dp4580
g67
(dp4581
g87
g88
ssg76
g4575
sg69
(lp4582
S'session_new'
p4583
asbag62
(g83
g64
NtRp4584
(dp4585
g67
(dp4586
g94
g95
ssg76
g4575
sg69
(lp4587
S':'
asbag62
(g83
g64
NtRp4588
(dp4589
g67
(dp4590
sg76
g4575
sg69
(lp4591
g62
(g63
g64
NtRp4592
(dp4593
g67
(dp4594
g75
I5
ssg76
g4588
sg69
(lp4595
g105
asbasbasbag62
(g78
g64
NtRp4596
(dp4597
g67
(dp4598
sg76
g3676
sg69
(lp4599
g62
(g83
g64
NtRp4600
(dp4601
g67
(dp4602
g87
g88
ssg76
g4596
sg69
(lp4603
S'status'
p4604
asbag62
(g83
g64
NtRp4605
(dp4606
g67
(dp4607
g94
g95
ssg76
g4596
sg69
(lp4608
S':'
asbag62
(g83
g64
NtRp4609
(dp4610
g67
(dp4611
sg76
g4596
sg69
(lp4612
g62
(g63
g64
NtRp4613
(dp4614
g67
(dp4615
g75
I5
ssg76
g4609
sg69
(lp4616
S'200'
p4617
asbasbasbag62
(g78
g64
NtRp4618
(dp4619
g67
(dp4620
sg76
g3676
sg69
(lp4621
g62
(g83
g64
NtRp4622
(dp4623
g67
(dp4624
g87
g88
ssg76
g4618
sg69
(lp4625
S'subtitle'
p4626
asbag62
(g83
g64
NtRp4627
(dp4628
g67
(dp4629
g94
g95
ssg76
g4618
sg69
(lp4630
S':'
asbag62
(g83
g64
NtRp4631
(dp4632
g67
(dp4633
sg76
g4618
sg69
(lp4634
g62
(g63
g64
NtRp4635
(dp4636
g67
(dp4637
g75
I5
ssg76
g4631
sg69
(lp4638
S'powered by web2py'
p4639
asbasbasbag62
(g78
g64
NtRp4640
(dp4641
g67
(dp4642
sg76
g3676
sg69
(lp4643
g62
(g83
g64
NtRp4644
(dp4645
g67
(dp4646
g87
g88
ssg76
g4640
sg69
(lp4647
S'title'
p4648
asbag62
(g83
g64
NtRp4649
(dp4650
g67
(dp4651
g94
g95
ssg76
g4640
sg69
(lp4652
S':'
asbag62
(g83
g64
NtRp4653
(dp4654
g67
(dp4655
sg76
g4640
sg69
(lp4656
g62
(g63
g64
NtRp4657
(dp4658
g67
(dp4659
g75
I5
ssg76
g4653
sg69
(lp4660
S'My New App'
p4661
asbasbasbag62
(g78
g64
NtRp4662
(dp4663
g67
(dp4664
sg76
g3676
sg69
(lp4665
g62
(g83
g64
NtRp4666
(dp4667
g67
(dp4668
g87
g88
ssg76
g4662
sg69
(lp4669
g2543
asbag62
(g83
g64
NtRp4670
(dp4671
g67
(dp4672
g94
g95
ssg76
g4662
sg69
(lp4673
S':'
asbag62
(g83
g64
NtRp4674
(dp4675
g67
(dp4676
sg76
g4662
sg69
(lp4677
g62
(g63
g64
NtRp4678
(dp4679
g67
(dp4680
g75
I5
ssg76
g4674
sg69
(lp4681
g2556
asbasbasbag62
(g78
g64
NtRp4682
(dp4683
g67
(dp4684
sg76
g3676
sg69
(lp4685
g62
(g83
g64
NtRp4686
(dp4687
g67
(dp4688
g87
g88
ssg76
g4682
sg69
(lp4689
S'view'
p4690
asbag62
(g83
g64
NtRp4691
(dp4692
g67
(dp4693
g94
g95
ssg76
g4682
sg69
(lp4694
S':'
asbag62
(g83
g64
NtRp4695
(dp4696
g67
(dp4697
sg76
g4682
sg69
(lp4698
g62
(g63
g64
NtRp4699
(dp4700
g67
(dp4701
g75
I5
ssg76
g4695
sg69
(lp4702
S'default/sorting.html'
p4703
asbasbasbasbasbsS'locals'
p4704
(dp4705
S'Service'
p4706
S"<class 'gluon.tools.Service'>"
p4707
sS'OBJECT'
p4708
S"<class 'gluon.html.OBJECT'>"
p4709
sS'SQLDB'
p4710
S"<class 'gluon.dal.DAL'>"
p4711
sg3237
S"<Storage {'_formkey[input/create]': 'c8473c18-66...6j\\x8a1\\x81\\xe0\\x9c\\x10u\\xf4\\xe6\\x94+\\xef\\x04 '}>"
p4712
sS'LINK'
p4713
S"<class 'gluon.html.LINK'>"
p4714
sS'BR'
p4715
S"<class 'gluon.html.BR'>"
p4716
sS'local_import'
p4717
S'<function <lambda>>'
p4718
sS'OPTGROUP'
p4719
S"<class 'gluon.html.OPTGROUP'>"
p4720
sS'SimpleDocTemplate'
p4721
S'<class reportlab.platypus.doctemplate.SimpleDocTemplate>'
p4722
sS'PRE'
p4723
S"<class 'gluon.html.PRE'>"
p4724
sS'IS_INT_IN_RANGE'
p4725
S"<class 'gluon.validators.IS_INT_IN_RANGE'>"
p4726
sS'IS_LOWER'
p4727
S"<class 'gluon.validators.IS_LOWER'>"
p4728
sS'IS_STRONG'
p4729
S"<class 'gluon.validators.IS_STRONG'>"
p4730
sS'cache'
p4731
S'<gluon.cache.Cache object>'
p4732
sS'IS_IN_DB'
p4733
S"<class 'gluon.validators.IS_IN_DB'>"
p4734
sS'TAG'
p4735
S'<gluon.html.__TAG__ object>'
p4736
sS'SQLField'
p4737
S"<class 'gluon.dal.Field'>"
p4738
sS'mail'
p4739
S'<gluon.tools.Mail object>'
p4740
sS'BODY'
p4741
S"<class 'gluon.html.BODY'>"
p4742
sS'IS_DATE_IN_RANGE'
p4743
S"<class 'gluon.validators.IS_DATE_IN_RANGE'>"
p4744
sS'TH'
p4745
S"<class 'gluon.html.TH'>"
p4746
sS'URL'
p4747
S'<function URL>'
p4748
sS'__file__'
p4749
S"'/home/chitra/courses/SSAD/web2py/applications/cite_m5/views/default/sorting.html'"
p4750
sS'db'
p4751
S"<DAL {'auth_event': <Table {'origin': <gluon.dal...': <gluon.dal.Field object at 0x7fbd723aa350>}>}>"
p4752
sS'auth'
p4753
S"[' Lori Carter', ' George H. L. Fletcher', ' James J.  Lu', ' Alexander Repenning', ' David  Webb', ' Andri  Ioannidou', ' Thomas A. Augustine', ' Lori L.  DeLooze', ' Justin C.  Monroe', ' Christopher G.  Wheeler', ' David Collins', ' Timothy  McGuire', ' Hongmei Chi', ' Felecia  Dix-Richardson', ' Deidre  Evans', ' Casey Alt', ' Owen  Astrachan', ' Jeffrey  Forbes', ' Richard  Lucic', ' Susan  Rodger', ...]"
p4754
sS'P'
S"<class 'gluon.html.P'>"
p4755
sS'Paragraph'
p4756
S'<class reportlab.platypus.paragraph.Paragraph>'
p4757
sS'TFOOT'
p4758
S"<class 'gluon.html.TFOOT'>"
p4759
sS'SPAN'
p4760
S"<class 'gluon.html.SPAN'>"
p4761
sS'XHTML'
p4762
S"<class 'gluon.html.XHTML'>"
p4763
sS'ON'
p4764
g1858
sS'OL'
p4765
S"<class 'gluon.html.OL'>"
p4766
sS'TEXTAREA'
p4767
S"<class 'gluon.html.TEXTAREA'>"
p4768
sS'settings'
p4769
S"<Storage {'layout_theme': 'Default', 'subtitle':...l_server': 'localhost', 'login_method': 'local'}>"
p4770
sS'MENU'
p4771
S"<class 'gluon.html.MENU'>"
p4772
sg75
S'3'
sS'__package__'
p4773
S'None'
p4774
sS'IS_IMAGE'
p4775
S"<class 'gluon.validators.IS_IMAGE'>"
p4776
sS'getSampleStyleSheet'
p4777
S'<function getSampleStyleSheet>'
p4778
sS'LOAD'
p4779
S'<function LOAD>'
p4780
sS'CODE'
p4781
S"<class 'gluon.html.CODE'>"
p4782
sS'HTTP'
p4783
S"<class 'gluon.http.HTTP'>"
p4784
sS'HR'
p4785
S"<class 'gluon.html.HR'>"
p4786
sS'IS_DATETIME'
p4787
S"<class 'gluon.validators.IS_DATETIME'>"
p4788
sS'Storage'
p4789
S"<class 'gluon.storage.Storage'>"
p4790
sS'HEAD'
p4791
S"<class 'gluon.html.HEAD'>"
p4792
sS'LABEL'
p4793
S"<class 'gluon.html.LABEL'>"
p4794
sS'META'
p4795
S"<class 'gluon.html.META'>"
p4796
sS'A'
S"<class 'gluon.html.A'>"
p4797
sS'plugins'
p4798
S'<gluon.tools.PluginManager object>'
p4799
sS'SELECT'
p4800
S"<class 'gluon.html.SELECT'>"
p4801
sS'use_janrain'
p4802
S'<function use_janrain>'
p4803
sS'CENTER'
p4804
S"<class 'gluon.html.CENTER'>"
p4805
sS'prettydate'
p4806
S'<function prettydate>'
p4807
sS'Crud'
p4808
S"<class 'gluon.tools.Crud'>"
p4809
sS'ret1'
p4810
S"['0', '1']"
p4811
sS'Auth'
p4812
S"<class 'gluon.tools.Auth'>"
p4813
sS'__builtins__'
p4814
S"{'ArithmeticError': <type 'exceptions.ArithmeticError'>, 'AssertionError': <type 'exceptions.AssertionError'>, 'AttributeError': <type 'exceptions.AttributeError'>, 'BaseException': <type 'exceptions.BaseException'>, 'BufferError': <type 'exceptions.BufferError'>, 'BytesWarning': <type 'exceptions.BytesWarning'>, 'DeprecationWarning': <type 'exceptions.DeprecationWarning'>, 'EOFError': <type 'exceptions.EOFError'>, 'Ellipsis': Ellipsis, 'EnvironmentError': <type 'exceptions.EnvironmentError'>, ...}"
p4815
sS'HTML'
p4816
S"<class 'gluon.html.HTML'>"
p4817
sS'SQLFORM'
p4818
S"<class 'gluon.sqlhtml.SQLFORM'>"
p4819
sS'EM'
p4820
S"<class 'gluon.html.EM'>"
p4821
sS'redirect'
p4822
S'<function redirect>'
p4823
sS'FIELDSET'
p4824
S"<class 'gluon.html.FIELDSET'>"
p4825
sS'IS_EQUAL_TO'
p4826
S"<class 'gluon.validators.IS_EQUAL_TO'>"
p4827
sS'Counter'
p4828
S"<class 'collections.Counter'>"
p4829
sS'embed64'
p4830
S'<function embed64>'
p4831
sS'IS_LIST_OF'
p4832
S"<class 'gluon.validators.IS_LIST_OF'>"
p4833
sS'INPUT'
p4834
S"<class 'gluon.html.INPUT'>"
p4835
sS'EMBED'
p4836
S"<class 'gluon.html.EMBED'>"
p4837
sS'FORM'
p4838
S"<class 'gluon.html.FORM'>"
p4839
sS'c'
S"Counter({' Arno Pasternak': 3, ' Jan  Vahrenhold...Brown': 1, ' David  Webb': 1, ' Lori Carter': 1})"
p4840
sS'IS_NOT_IN_DB'
p4841
S"<class 'gluon.validators.IS_NOT_IN_DB'>"
p4842
sS'H2'
p4843
S"<class 'gluon.html.H2'>"
p4844
sS'H3'
p4845
S"<class 'gluon.html.H3'>"
p4846
sS'BUTTON'
p4847
S"<class 'gluon.html.BUTTON'>"
p4848
sS'H1'
p4849
S"<class 'gluon.html.H1'>"
p4850
sS'H6'
p4851
S"<class 'gluon.html.H6'>"
p4852
sS'H4'
p4853
S"<class 'gluon.html.H4'>"
p4854
sS'H5'
p4855
S"<class 'gluon.html.H5'>"
p4856
sS'UL'
p4857
S"<class 'gluon.html.UL'>"
p4858
sS'IS_UPPER'
p4859
S"<class 'gluon.validators.IS_UPPER'>"
p4860
sS'xmlescape'
p4861
S'<function xmlescape>'
p4862
sS'IS_TIME'
p4863
S"<class 'gluon.validators.IS_TIME'>"
p4864
sS'os'
p4865
S"<module 'os' from '/usr/lib/python2.7/os.pyc'>"
p4866
sS'OPTION'
p4867
S"<class 'gluon.html.OPTION'>"
p4868
sS'cm'
p4869
S'28.346456692913385'
p4870
sS'TITLE'
p4871
S"<class 'gluon.html.TITLE'>"
p4872
sS'CRYPT'
p4873
S"<class 'gluon.validators.CRYPT'>"
p4874
sS'IS_EMPTY_OR'
p4875
S"<class 'gluon.validators.IS_EMPTY_OR'>"
p4876
sS'MARKMIN'
p4877
S"<class 'gluon.html.MARKMIN'>"
p4878
sg393
S"<module 'posixpath' from '/usr/lib/python2.7/posixpath.pyc'>"
p4879
sS'ele'
p4880
S"(' Judith  Gal-Ezer', 1)"
p4881
sS'COL'
p4882
S"<class 'gluon.html.COL'>"
p4883
sS'service'
p4884
S'<gluon.tools.Service object>'
p4885
sS'SCRIPT'
p4886
S"<class 'gluon.html.SCRIPT'>"
p4887
sg95
S'3'
sS'mystyle'
p4888
S"<ParagraphStyle 'normal'>"
p4889
sS'TABLE'
p4890
S"<class 'gluon.html.TABLE'>"
p4891
sS'IS_IPV4'
p4892
S"<class 'gluon.validators.IS_IPV4'>"
p4893
sS'IS_LENGTH'
p4894
S"<class 'gluon.validators.IS_LENGTH'>"
p4895
sS'ParagraphStyle'
p4896
S'<class reportlab.lib.styles.ParagraphStyle>'
p4897
sS'XML'
p4898
S"<class 'gluon.html.XML'>"
p4899
sS'B'
S"<class 'gluon.html.B'>"
p4900
sS'IMG'
p4901
S"<class 'gluon.html.IMG'>"
p4902
sS'SQLTABLE'
p4903
S"<class 'gluon.sqlhtml.SQLTABLE'>"
p4904
sS'IS_MATCH'
p4905
S"<class 'gluon.validators.IS_MATCH'>"
p4906
sS'IS_ALPHANUMERIC'
p4907
S"<class 'gluon.validators.IS_ALPHANUMERIC'>"
p4908
sS'styleSheet'
p4909
S'<reportlab.lib.styles.StyleSheet1 instance>'
p4910
sS'count'
p4911
S'-1'
p4912
sS'word'
p4913
S"[' Lori Carter', ' George H. L. Fletcher', ' James J.  Lu', ' Alexander Repenning', ' David  Webb', ' Andri  Ioannidou', ' Thomas A. Augustine', ' Lori L.  DeLooze', ' Justin C.  Monroe', ' Christopher G.  Wheeler', ' David Collins', ' Timothy  McGuire', ' Hongmei Chi', ' Felecia  Dix-Richardson', ' Deidre  Evans', ' Casey Alt', ' Owen  Astrachan', ' Jeffrey  Forbes', ' Richard  Lucic', ' Susan  Rodger', ...]"
p4914
sS'f'
S"<closed file '.Rough', mode 'w'>"
p4915
sS'IS_SLUG'
p4916
S"<class 'gluon.validators.IS_SLUG'>"
p4917
sS'Spacer'
p4918
S'<class reportlab.platypus.flowables.Spacer>'
p4919
sS'CLEANUP'
p4920
S"<class 'gluon.validators.CLEANUP'>"
p4921
sS'abss'
p4922
S"'number number field incorrect perception disinte...mpelling area plan math computer science variety '"
p4923
sS'Image'
p4924
S'<class reportlab.platypus.flowables.Image>'
p4925
sS'print1'
p4926
S'<function print1>'
p4927
sS'IS_DATE'
p4928
S"<class 'gluon.validators.IS_DATE'>"
p4929
sS'IS_EMAIL'
p4930
S"<class 'gluon.validators.IS_EMAIL'>"
p4931
sS'IS_NOT_EMPTY'
p4932
S"<class 'gluon.validators.IS_NOT_EMPTY'>"
p4933
sg61
S"<Storage {'body': <cStringIO.StringO object at 0..._vars': <Storage {}>, 'post_vars': <Storage {}>}>"
p4934
sS'BEAUTIFY'
p4935
S"<class 'gluon.html.BEAUTIFY'>"
p4936
sS'bigans'
p4937
S'[["Why students with an apparent aptitude for compu...science don\'t choose to major in computer science", \'http://dl.acm.org/citation.cfm?id=1121341.112135...M&CFID=140245812&CFTOKEN=29735006&preflayout=flat\', \'http://dl.acm.org/ft_gateway.cfm?id=1121352&ftid=350539&dwn=1&CFID=140245812&CFTOKEN=29735006\', \'Carter, Lori\', \'03/03/2006\', \'\\r\\n\\t\\t\\t\\t\\tThe statistics show that the number of Co... but the reasons for choosing the major differed.\', \'67\', [\'http://dl.acm.org/citation.cfm?id=1461938&CFID=140245812&CFTOKEN=29735006&preflayout=flat\', \'http://dl.acm.org/citation.cfm?id=1858586&CFID=140245812&CFTOKEN=29735006&preflayout=flat\', \'http://dl.acm.org/citation.cfm?id=1352387&CFID=140245812&CFTOKEN=29735006&preflayout=flat\'], [\'Education Human computing skills: rethinking the K-12 experience\', \'http://dl.acm.org/citation.cfm?id=1461938&CFID=140245812&CFTOKEN=29735006&preflayout=flat\', \'http://dl.acm.org/ft_gateway.cfm?id=1461938&ftid=606662&dwn=1&CFID=140245812&CFTOKEN=29735006\', \'Fletcher, George H. L.; Lu, James J.\', \'02/01/2009\', \'\\r\\n\\t\\t\\t\\t\\t\', 1, [\'http://dl.acm.org/citation.cfm?id=1734357&CFID=140245812&CFTOKEN=29735006&preflayout=flat\', \'\', \'\'], [\'Scalable game design and the development of a ch...etting computational thinking into public schools\', \'http://dl.acm.org/citation.cfm?id=1734357&CFID=140245812&CFTOKEN=29735006&preflayout=flat\', \'http://dl.acm.org/ft_gateway.cfm?id=1734357&ftid=752737&dwn=1&CFID=140245812&CFTOKEN=29735006\', \'Repenning, Alexander; Webb, David; Ioannidou, Andri\', \'03/10/2010\', \'\\r\\n\\t\\t\\t\\t\\t\', \'8\', [\'http://dl.acm.org/citation.cfm?id=2157191&CFID=140245812&CFTOKEN=29735006&preflayout=flat\', \'http://dl.acm.org/citation.cfm?id=1822154&CFID=140245812&CFTOKEN=29735006&preflayout=flat\', \'http://dl.acm.org/citation.cfm?id=1953241&CFID=140245812&CFTOKEN=29735006&preflayout=flat\']]], [\'Cyber competitions as a computer science recruiting tool\', \'http://dl.acm.org/citation.cfm?id=1858586&CFID=140245812&CFTOKEN=29735006&preflayout=flat\', \'http://dl.acm.org/ft_gateway.cfm?id=1858586&type=pdf&CFID=140245812&CFTOKEN=29735006\', \'Augustine, Thomas A.; DeLooze, Lori L.; Monroe, Justin C.; Wheeler, Christopher G.\', \'12/01/2010\', \'\\r\\n\\t\\t\\t\\t\\t\', 0, []], [\'Using the DC3 forensic challenge as a basis for ...igital forensics upper level undergraduate course\', \'http://dl.acm.org/citation.cfm?id=1352387&CFID=140245812&CFTOKEN=29735006&preflayout=flat\', \'http://dl.acm.org/ft_gateway.cfm?id=1352387&type=pdf&CFID=140245812&CFTOKEN=29735006\', \'Collins, David; McGuire, Timothy\', \'06/01/2008\', \'\\r\\n\\t\\t\\t\\t\\t\', 1, [\'http://dl.acm.org/citation.cfm?id=1940956&CFID=140245812&CFTOKEN=29735006&preflayout=flat\', \'\', \'\'], [\'Designing a computer forensics concentration for cross-disciplinary undergraduate students\', \'http://dl.acm.org/citation.cfm?id=1940956&CFID=140245812&CFTOKEN=29735006&preflayout=flat\', \'http://dl.acm.org/ft_gateway.cfm?id=1940956&ftid=910258&dwn=1&CFID=140245812&CFTOKEN=29735006\', \'Chi, Hongmei; Dix-Richardson, Felecia; Evans, Deidre\', \'10/01/2010\', \'\\r\\n\\t\\t\\t\\t\\t\', 0, []]]], [\'Social networks generate interest in computer science\', \'http://dl.acm.org/citation.cfm?id=1121341.112147...M&CFID=140245812&CFTOKEN=29735006&preflayout=flat\', \'http://dl.acm.org/ft_gateway.cfm?id=1121477&ftid=350959&dwn=1&CFID=140245812&CFTOKEN=29735006\', \'Alt, Casey; Astrachan, Owen; Forbes, Jeffrey; Lucic, Richard; Rodger, Susan\', \'03/31/2006\', \'\\r\\n\\t\\t\\t\\t\\tFor forty years programming has been the ...ience at a wide variety of schools at all levels.\', \'15\', [\'http://dl.acm.org/citation.cfm?id=2003634&CFID=140245812&CFTOKEN=29735006&preflayout=flat\', \'http://dl.acm.org/citation.cfm?id=2184598&CFID=140245812&CFTOKEN=29735006&preflayout=flat\', \'http://dl.acm.org/citation.cfm?id=1734336&CFID=140245812&CFTOKEN=29735006&preflayout=flat\'], [\'Web information retrieval and filtering course to undergraduates using open source programming\', \'http://dl.acm.org/citation.cfm?id=2003634&CFID=140245812&CFTOKEN=29735006&preflayout=flat\', \'http://dl.acm.org/ft_gateway.cfm?id=2003634&ftid=1017625&dwn=1&CFID=140245812&CFTOKEN=29735006\', \'Jung, Seikyung; Lawrance, Joseph\', \'08/31/2011\', \'\\r\\n\\t\\t\\t\\t\\t\', 0, []], [\'Social network programming with JavaScript and Spotter\', \'http://dl.acm.org/citation.cfm?id=2184598&CFID=140245812&CFTOKEN=29735006&preflayout=flat\', \'http://dl.acm.org/ft_gateway.cfm?id=2184598&ftid=1202468&dwn=1&CFID=140245812&CFTOKEN=29735006\', \'Purewal Jr., Tarsem S.; Brown, David\', \'03/29/2012\', \'\\r\\n\\t\\t\\t\\t\\t\', 0, []], [\'Braided teaching in secondary CS education: contexts, continuity, and the role of programming\', \'http://dl.acm.org/citation.cfm?id=1734336&CFID=140245812&CFTOKEN=29735006&preflayout=flat\', \'http://dl.acm.org/ft_gateway.cfm?id=1734336&ftid=752723&dwn=1&CFID=140245812&CFTOKEN=29735006\', \'Pasternak, Arno; Vahrenhold, Jan\', \'03/10/2010\', \'\\r\\n\\t\\t\\t\\t\\t\', \'2\', [\'http://dl.acm.org/citation.cfm?id=2157154&CFID=140245812&CFTOKEN=29735006&preflayout=flat\', \'http://dl.acm.org/citation.cfm?id=2157272&CFID=140245812&CFTOKEN=29735006&preflayout=flat\', \'\'], [\'Design and evaluation of a braided teaching course in sixth grade computer science education\', \'http://dl.acm.org/citation.cfm?id=2157154&CFID=140245812&CFTOKEN=29735006&preflayout=flat\', \'http://dl.acm.org/ft_gateway.cfm?id=2157154&ftid=1161236&dwn=1&CFID=140245812&CFTOKEN=29735006\', \'Pasternak, Arno; Vahrenhold, Jan\', \'02/29/2012\', \'\\r\\n\\t\\t\\t\\t\\t\', 0, []], [\'Beyond competency: a context-driven CSO course\', \'http://dl.acm.org/citation.cfm?id=2157272&CFID=140245812&CFTOKEN=29735006&preflayout=flat\', \'http://dl.acm.org/ft_gateway.cfm?id=2157272&ftid=1161321&dwn=1&CFID=140245812&CFTOKEN=29735006\', \'Cramer, Jeff; Toll, Bill\', \'02/29/2012\', \'\\r\\n\\t\\t\\t\\t\\t\', 0, []]]], [\'A model for high school computer science education: the four key elements that make it!\', \'http://dl.acm.org/citation.cfm?id=1352135.135223...M&CFID=140245812&CFTOKEN=29735006&preflayout=flat\', \'http://dl.acm.org/ft_gateway.cfm?id=1352233&ftid=502628&dwn=1&CFID=140245812&CFTOKEN=29735006\', \'Hazzan, Orit; Gal-Ezer, Judith; Blum, Lenore\', \'03/12/2008\', \'\\r\\n\\t\\t\\t\\t\\t\', \'11\', [\'http://dl.acm.org/citation.cfm?id=2189861&CFID=140245812&CFTOKEN=29735006&preflayout=flat\', \'http://dl.acm.org/citation.cfm?id=2157154&CFID=140245812&CFTOKEN=29735006&preflayout=flat\', \'http://dl.acm.org/citation.cfm?id=1508965&CFID=140245812&CFTOKEN=29735006&preflayout=flat\'], [\'Status update: high school CS internationally\', \'http://dl.acm.org/citation.cfm?id=2189861&CFID=140245812&CFTOKEN=29735006&preflayout=flat\', \'http://dl.acm.org/ft_gateway.cfm?id=2189861&ftid=1226249&dwn=1&CFID=140245812&CFTOKEN=29735006\', \'Snyder, Lawrence\', \'06/01/2012\', \'\\r\\n\\t\\t\\t\\t\\t\', 0, []], [\'Design and evaluation of a braided teaching course in sixth grade computer science education\', \'http://dl.acm.org/citation.cfm?id=2157154&CFID=140245812&CFTOKEN=29735006&preflayout=flat\', \'http://dl.acm.org/ft_gateway.cfm?id=2157154&ftid=1161236&dwn=1&CFID=140245812&CFTOKEN=29735006\', \'Pasternak, Arno; Vahrenhold, Jan\', \'02/29/2012\', \'\\r\\n\\t\\t\\t\\t\\t\', 0, []], [\'Preparation of high school computer science teachers: the Israeli perspective\', \'http://dl.acm.org/citation.cfm?id=1508965&CFID=140245812&CFTOKEN=29735006&preflayout=flat\', \'http://dl.acm.org/ft_gateway.cfm?id=1508965&ftid=600411&dwn=1&CFID=140245812&CFTOKEN=29735006\', \'Gal-Ezer, Judith; Hazzan, Orit; Ragonis, Noa\', \'03/04/2009\', \'\\r\\n\\t\\t\\t\\t\\t\', \'3\', [\'http://dl.acm.org/citation.cfm?id=2189861&CFID=140245812&CFTOKEN=29735006&preflayout=flat\', \'http://dl.acm.org/citation.cfm?id=2176506&CFID=140245812&CFTOKEN=29735006&preflayout=flat\', \'http://dl.acm.org/citation.cfm?id=2048934&CFID=140245812&CFTOKEN=29735006&preflayout=flat\'], [\'Status update: high school CS internationally\', \'http://dl.acm.org/citation.cfm?id=2189861&CFID=140245812&CFTOKEN=29735006&preflayout=flat\', \'http://dl.acm.org/ft_gateway.cfm?id=2189861&ftid=1226249&dwn=1&CFID=140245812&CFTOKEN=29735006\', \'Snyder, Lawrence\', \'06/01/2012\', \'\\r\\n\\t\\t\\t\\t\\t\', 0, []], [\'Pre-service computer science teacher training wi... development school (PDS) collaboration framework\', \'http://dl.acm.org/citation.cfm?id=2176506&CFID=140245812&CFTOKEN=29735006&preflayout=flat\', \'http://dl.acm.org/ft_gateway.cfm?id=2176494&ftid=1188126&dwn=1&CFID=140245812&CFTOKEN=29735006\', \'Ragonis, Noa; Oster-Levinz, Anat\', \'10/26/2011\', \'\\r\\n\\t\\t\\t\\t\\t\', 0, []], [\'Looking at Secondary Teacher Preparation Through the Lens of Computer Science\', \'http://dl.acm.org/citation.cfm?id=2048934&CFID=140245812&CFTOKEN=29735006&preflayout=flat\', \'http://dl.acm.org/ft_gateway.cfm?id=2048934&ftid=1059428&dwn=1&CFID=140245812&CFTOKEN=29735006\', \'Armoni, Michal\', \'11/01/2011\', \'\\r\\n\\t\\t\\t\\t\\t\', 0, []]]]]'
p4938
sS'TBODY'
p4939
S"<class 'gluon.html.TBODY'>"
p4940
sS'CAT'
p4941
S"<class 'gluon.html.CAT'>"
p4942
sS'Field'
p4943
S"<class 'gluon.dal.Field'>"
p4944
sS'DIV'
p4945
S"<class 'gluon.html.DIV'>"
p4946
sS'LEGEND'
p4947
S"<class 'gluon.html.LEGEND'>"
p4948
sS'COLGROUP'
p4949
S"<class 'gluon.html.COLGROUP'>"
p4950
sS'DAL'
p4951
S"<class 'gluon.dal.DAL'>"
p4952
sS'TT'
p4953
S"<class 'gluon.html.TT'>"
p4954
sS'TR'
p4955
S"<class 'gluon.html.TR'>"
p4956
sS'LI'
p4957
S"<class 'gluon.html.LI'>"
p4958
sS'A4'
p4959
S'(595.275590551181, 841.8897637795275)'
p4960
sS'IFRAME'
p4961
S"<class 'gluon.html.IFRAME'>"
p4962
sS'inch'
p4963
S'72.0'
p4964
sS'TD'
p4965
S"<class 'gluon.html.TD'>"
p4966
sS'PluginManager'
p4967
S"<class 'gluon.tools.PluginManager'>"
p4968
sS'IS_URL'
p4969
S"<class 'gluon.validators.IS_URL'>"
p4970
sS'TA_JUSTIFY'
p4971
S'4'
sS'model_report'
p4972
S"'/home/maneesha/Downloads/web2py/.Rough'"
p4973
sS'STYLE'
p4974
S"<class 'gluon.html.STYLE'>"
p4975
sS'elements'
p4976
S'[]'
p4977
sS'IS_DATETIME_IN_RANGE'
p4978
S"<class 'gluon.validators.IS_DATETIME_IN_RANGE'>"
p4979
sS'populate'
p4980
S'<function populate>'
p4981
sS'I'
S"<class 'gluon.html.I'>"
p4982
sS'crud'
p4983
S'<gluon.tools.Crud object>'
p4984
sS'reportlab'
p4985
S"<module 'reportlab' from '/usr/lib/python2.7/dist-packages/reportlab/__init__.pyc'>"
p4986
sS'most'
p4987
S"[(' Arno Pasternak', 3), (' Jan  Vahrenhold', 3), (' Lawrence Snyder', 2), (' Deidre  Evans', 1), (' Judith  Gal-Ezer', 1)]"
p4988
sS'letter'
p4989
S'(612.0, 792.0)'
p4990
sg3671
S"<Storage {'body': <cStringIO.StringO object at 0...0x7fbd8872d8c0>, 'view': 'default/sorting.html'}>"
p4991
sS'THEAD'
p4992
S"<class 'gluon.html.THEAD'>"
p4993
sS'IS_NULL_OR'
p4994
S"<class 'gluon.validators.IS_EMPTY_OR'>"
p4995
sS'noun'
p4996
S'<function noun>'
p4997
sS'doc'
p4998
S'<reportlab.platypus.doctemplate.SimpleDocTemplate instance>'
p4999
sS'__name__'
p5000
S"'__restricted__'"
p5001
sS'IS_FLOAT_IN_RANGE'
p5002
S"<class 'gluon.validators.IS_FLOAT_IN_RANGE'>"
p5003
sS'IS_EXPR'
p5004
S"<class 'gluon.validators.IS_EXPR'>"
p5005
sS'T'
S'<gluon.languages.translator object>'
p5006
sS'IS_IN_SET'
p5007
S"<class 'gluon.validators.IS_IN_SET'>"
p5008
sS'IS_UPLOAD_FILENAME'
p5009
S"<class 'gluon.validators.IS_UPLOAD_FILENAME'>"
p5010
sS'IS_DECIMAL_IN_RANGE'
p5011
S"<class 'gluon.validators.IS_DECIMAL_IN_RANGE'>"
p5012
sssS'traceback'
p5013
S'Traceback (most recent call last):\n  File "/home/chitra/courses/SSAD/web2py/gluon/restricted.py", line 205, in restricted\n    exec ccode in environment\n  File "/home/chitra/courses/SSAD/web2py/applications/cite_m5/views/default/sorting.html", line 231, in <module>\nIOError: [Errno 2] No such file or directory: \'/home/maneesha/Downloads/web2py/.Rough\'\n'
p5014
s.