(dp1
S'output'
p2
S"<class 'urllib2.URLError'> <urlopen error [Errno -2] Name or service not known>"
p3
sS'layer'
p4
S'/home/maneesha/Downloads/web2py/applications/cite_mf/controllers/default.py'
p5
sS'code'
p6
S'# -*- coding: utf-8 -*-\n### required - do no delete\ndef user(): return dict(form=auth())\n#def download(): return response.download(request,db)\n#def call(): return service()\n### end requires\n#def index():\n #   return dict()\n\n#def error():\n #   return dict()\nfrom gluon.tools import fetch  \nfrom time import sleep\nfrom random import randrange\nimport re\nlistf=[]\ncount=0\nbigans=[]# store the final ouput to be passed into the view\n@auth.requires_login()    #login reqired to access index page\ndef index():\n    form=SQLFORM(db.input) #displays the form to user for taking the input from the user\n    if form.process().accepted:\n        response.flash = \'Login successful\'\n        redirect(URL(\'final_ans\'))\n    return dict(form=form)\ndef extract1(url,l1): #extracts the top_result urls from the first page\n    ret=[]\n    html=fetch(url) #fetches the html page of the given url ans stores it in a string html\n    html_splitted=html.split("<A HREF=\\"citation.cfm") #splitting the fetched string\n    ht=html_splitted[0]\n    del html_splitted[0]\n    k=html_splitted[0].split(\'>\')\n    if k[1][:-3]==l1[0]:#if the user inputs title of a paper\n        k=html_splitted[0].find(\'\\"\')\n        s="http://dl.acm.org/citation.cfm"+html_splitted[0][:k]\n        ret.append(s.split(\'&preflayout\')[0]+\'&preflayout=flat\')\n    else: #if user inputs some keywords\n        for i in range(0,l1[2]):\n            k=html_splitted[i].find(\'\\"\')\n            s="http://dl.acm.org/citation.cfm"+html_splitted[i][:k]\n            ret.append(s.split(\'&preflayout\')[0]+\'&preflayout=flat\')\n    return ret\ndef sorting():\n    bigans=[]   #stores final output in a list\n    l1=u_filter() #stores the user input in list l1\n    url="http://dl.acm.org/results.cfm?h=1&query="+\'+\'.join(l1[0].split()) #construct corresponding url\n    fst_l=[]\n    ret1=[]\n    fst_l=extract1(url,l1) #extracts the urls of query results and stores it in a list fst_l\n    rec(fst_l,l1,bigans)  #this function recursively fetches the required information and stores every result in list bigans.\n    if request.args(0)==\'0\':  #if the list needs to be sorted by relevence,the bigans doesnt change.\n        pass\n    else:\n        bigans=sorted(bigans,key=lambda x:(x[4][6:]*360+x[4][:2]*30+x[4][3:5]),reverse=True)    #if the list needs to be sorted according to release date,it is sorted by sorted() python inbuilt function.\n    au=db(auth.user.username==db.auth_user.username).select().first()   \n    email=au.email        #email of user who is logged in is extracted.\n    return dict(bigans=bigans,level=l1[1],top=l1[2],ret1=ret1,email=email)   \ndef final_ans():\n    bigans=[] #stores the final output in a list\n    l1=u_filter() #extracting the user input in a list\n    url="http://dl.acm.org/results.cfm?h=1&query="+\'+\'.join(l1[0].split()) #forming the url\n    fst_l=[]\n    ret1=[]\n    fst_l=extract1(url,l1)     #extracts the urls of query results and stores it in a list fst_l\n    rec(fst_l,l1,bigans)  #this function recursively fetches the required information and stores every result in list bigans.\n    au=db(auth.user.username==db.auth_user.username).select().first()\n    email=au.email       #email of user who is logged in is extracted.\n    return dict(bigans=bigans,level=l1[1],top=l1[2],ret1=ret1,email=email)\ndef rec(list1,l1,bigans):     #recursion that results the tree of citations.\n    global count #variable for level of recursion.\n    count=count+1\n    global listf\n    listf.append([])\n    for x in list1:\n        if x!=\'\':\n            sleep(randrange(1,5))      #this is to avoid flooding the target url by multiple requests with less time gap.\n            z=cite(x)               #parsing the url x and storing it in a list z\n            bigans.append(z)        #stores that information in bigans\n            if count < l1[1]:            #if level of recursion is less than user input only then continue recursion else return\n                rec(z[7],l1,bigans[-1])     #recursive calls\n    count=count-1\n    return\ndef cite(url):\n    if url==\'\':\n        return []\n    l1=u_filter()\n    html=fetch(url)\n    temp=[]\n    d=re.search(\'<meta name="citation_title"[\\w\\W]*?>\',html).group()\n    d=bold(d)\n    temp.append(d.split(\'=\')[2][1:-2])\n    temp.append(url)\n    f=re.search(\'\\"ft_gateway.cfm[\\w\\W]*?\\"\',html)\n    if f!=None:\n        f=f.group()\n        f=bold(f)\n        temp.append(\'http://dl.acm.org/\'+f[1:-1])\n    else:\n        temp.append(url)\n    c=re.search(\'<meta name="citation_authors"[\\w\\W]*?>\',html).group()\n    c=bold(c)\n    if l1[3]==1:\n        temp.append(c.split(\'=\')[2][1:-2])\n    else:\n        temp.append(-1)\n    b=re.search(\'<meta name="citation_date"[\\w\\W]*?>\',html).group()\n    b=bold(b)\n    if l1[5]==1:\n        temp.append(b.split(\'=\')[2][1:-2])\n    else:\n        temp.append(-1)\n    h=re.search(\'<A NAME="abstract" class="small-text">ABSTRACT[\\w\\W]*?</div>\',html)\n    if h!=None:\n        h=h.group()\n        h=bold(h)\n        if \'An abstract is not available.\' in h:\n            h1="An abstract is not available."\n        elif \'<div style=\\"display:inline\\">\' in h:\n\n            h1=h.split(\'<div style=\\"display:inline\\">\')[1]\n            h1=remove(h1)\n        else:\n            h=h.replace(\'</A></h1>\',\'\')\n            h=remove(h)\n            h1=h.split(\'>\')[1]\n    else:\n        h1=-1\n    temp.append(h1)\n    s=re.search(\'CITED BY[\\w\\W]*?INDEX TERMS\',html).group()\n    if \'Citings are not available\' not in s:\n        e=re.search(\'\\d* Citations\',s)\n        if l1[4]!=1:\n            temp.append(-1)\n        elif e!=None:\n            temp.append(e.group().split()[0])\n        else:                                                                            \n            temp.append(1)\n        i=0\n        cit=[]\n        while i < l1[2]:\n            i+=1\n            s1=re.search(\'<a href[\\w\\W]*?</a>\',s)\n            if s1==None:\n                cit.append(\'\')\n            elif s1!=None:\n                k=s.find(s1.group())\n                cit.append(("http://dl.acm.org/"+s1.group().split(\'\\"\')[1]).split(\'&preflayout\')[0]+\'&preflayout=flat\')\n                s=s[k+2:]\n           \n        temp.append(cit)\n    else:\n        if l1[4]==1:\n            temp.append(0)\n        else:\n            temp.append(-1)\n        temp.append([])\n    return temp\ndef u_filter():\n    inpu=db().select(db.input.ALL)  #selects the last entry in the database table\n    for inp in inpu:\n        key=inp.keywords                    #stores each entry of database into a variable\n        level=inp.Recursion_levels\n        top=inp.Top_results\n        auth=inp.Show_author\n        cited_by=inp.Show_no_of_citations\n        year=inp.Show_release_date\n    return [key,level,top,auth,cited_by,year]      #returns a list\ndef bold(d):              #this function removes the unwanted bold tags from the html page extracted\n    pre=""\n    while pre!=d:\n        pre=d\n        d=d.replace("<b>","")\n        d=d.replace("</b>","")\n    return d\ndef remove(d):          #this function removes unwanted html tags from text.\n    pre=""\n    while pre!=d:                     #removes paragraph tags\n        pre=d\n        d=d.replace("<p>","")\n        d=d.replace("</p>","")\n    pre=""\n    while pre!=d:                     #removes div tags\n        pre=d\n        d=d.replace("<div style=\\"display:inline\\">","") \n        d=d.replace("</div>","")\n    pre=""\n    while pre!=d:                     #removes br tags\n        pre=d\n        d=d.replace("<br>","")\n    pre=""\n    while pre!=d:                     #removes par tags\n        pre=d\n        d=d.replace("<par>","")\n        d=d.replace("</par>","")\n    return d            #returns the filtered text\ndef abstract1():\n    abss=request.args[0]\n    pre=""\n    while pre!=abss:\n        pre=abss\n        abss=abss.replace("_"," ")\n    abss1=abss.split(".")       \n    return dict(abss1=abss1)\n\nresponse._vars=response._caller(final_ans)\n'
p7
sS'snapshot'
p8
(dp9
S'exception'
p10
(dp11
S'__module__'
p12
S"'urllib2'"
p13
sS'__getslice__'
p14
S"<method-wrapper '__getslice__' of URLError object>"
p15
sS'__str__'
p16
S"<bound method URLError.__str__ of URLError(gaierror(-2, 'Name or service not known'),)>"
p17
sS'__reduce__'
p18
S'<built-in method __reduce__ of URLError object>'
p19
sS'__dict__'
p20
S"{'reason': gaierror(-2, 'Name or service not known')}"
p21
sS'__sizeof__'
p22
S'<built-in method __sizeof__ of URLError object>'
p23
sS'__weakref__'
p24
S'None'
p25
sS'__init__'
p26
S"<bound method URLError.__init__ of URLError(gaierror(-2, 'Name or service not known'),)>"
p27
sS'__setattr__'
p28
S"<method-wrapper '__setattr__' of URLError object>"
p29
sS'__reduce_ex__'
p30
S'<built-in method __reduce_ex__ of URLError object>'
p31
sS'__new__'
p32
S'<built-in method __new__ of type object>'
p33
sS'errno'
p34
S'None'
p35
sS'__format__'
p36
S'<built-in method __format__ of URLError object>'
p37
sS'__class__'
p38
S"<class 'urllib2.URLError'>"
p39
sS'filename'
p40
S'None'
p41
sS'__doc__'
p42
S'None'
p43
sS'__getitem__'
p44
S"<method-wrapper '__getitem__' of URLError object>"
p45
sS'__setstate__'
p46
S'<built-in method __setstate__ of URLError object>'
p47
sS'__getattribute__'
p48
S"<method-wrapper '__getattribute__' of URLError object>"
p49
sS'args'
p50
S"(gaierror(-2, 'Name or service not known'),)"
p51
sS'reason'
p52
S"gaierror(-2, 'Name or service not known')"
p53
sS'__subclasshook__'
p54
S'<built-in method __subclasshook__ of type object>'
p55
sS'__unicode__'
p56
S'<built-in method __unicode__ of URLError object>'
p57
sS'strerror'
p58
S'None'
p59
sS'__delattr__'
p60
S"<method-wrapper '__delattr__' of URLError object>"
p61
sS'__repr__'
p62
S"<method-wrapper '__repr__' of URLError object>"
p63
sS'__hash__'
p64
S"<method-wrapper '__hash__' of URLError object>"
p65
ssS'evalue'
p66
S'<urlopen error [Errno -2] Name or service not known>'
p67
sS'request'
p68
ccopy_reg
_reconstructor
p69
(cgluon.html
BEAUTIFY
p70
c__builtin__
object
p71
NtRp72
(dp73
S'attributes'
p74
(dp75
sS'components'
p76
(lp77
g69
(cgluon.html
TABLE
p78
g71
NtRp79
(dp80
g74
(dp81
S'level'
p82
I5
ssS'parent'
p83
Nsg76
(lp84
g69
(cgluon.html
TR
p85
g71
NtRp86
(dp87
g74
(dp88
sg83
g79
sg76
(lp89
g69
(cgluon.html
TD
p90
g71
NtRp91
(dp92
g74
(dp93
S'_style'
p94
S'font-weight:bold;vertical-align:top'
p95
ssg83
g86
sg76
(lp96
S'ajax'
p97
asbag69
(g90
g71
NtRp98
(dp99
g74
(dp100
S'_valign'
p101
S'top'
p102
ssg83
g86
sg76
(lp103
S':'
asbag69
(g90
g71
NtRp104
(dp105
g74
(dp106
sg83
g86
sg76
(lp107
g69
(g70
g71
NtRp108
(dp109
g74
(dp110
g82
I5
ssg83
g104
sg76
(lp111
S'False'
p112
asbasbasbag69
(g85
g71
NtRp113
(dp114
g74
(dp115
sg83
g79
sg76
(lp116
g69
(g90
g71
NtRp117
(dp118
g74
(dp119
g94
g95
ssg83
g113
sg76
(lp120
S'application'
p121
asbag69
(g90
g71
NtRp122
(dp123
g74
(dp124
g101
g102
ssg83
g113
sg76
(lp125
S':'
asbag69
(g90
g71
NtRp126
(dp127
g74
(dp128
sg83
g113
sg76
(lp129
g69
(g70
g71
NtRp130
(dp131
g74
(dp132
g82
I5
ssg83
g126
sg76
(lp133
S'cite_mf'
p134
asbasbasbag69
(g85
g71
NtRp135
(dp136
g74
(dp137
sg83
g79
sg76
(lp138
g69
(g90
g71
NtRp139
(dp140
g74
(dp141
g94
g95
ssg83
g135
sg76
(lp142
g50
asbag69
(g90
g71
NtRp143
(dp144
g74
(dp145
g101
g102
ssg83
g135
sg76
(lp146
S':'
asbag69
(g90
g71
NtRp147
(dp148
g74
(dp149
sg83
g135
sg76
(lp150
g69
(g70
g71
NtRp151
(dp152
g74
(dp153
g82
I5
ssg83
g147
sg76
(lp154
g69
(g78
g71
NtRp155
(dp156
g74
(dp157
g82
I4
ssg83
Nsg76
(lp158
sbasbasbasbag69
(g85
g71
NtRp159
(dp160
g74
(dp161
sg83
g79
sg76
(lp162
g69
(g90
g71
NtRp163
(dp164
g74
(dp165
g94
g95
ssg83
g159
sg76
(lp166
S'body'
p167
asbag69
(g90
g71
NtRp168
(dp169
g74
(dp170
g101
g102
ssg83
g159
sg76
(lp171
S':'
asbag69
(g90
g71
NtRp172
(dp173
g74
(dp174
sg83
g159
sg76
(lp175
g69
(g70
g71
NtRp176
(dp177
g74
(dp178
g82
I5
ssg83
g172
sg76
(lp179
S'<cStringIO.StringO object at 0x7fb5f016f3b0>'
p180
asbasbasbag69
(g85
g71
NtRp181
(dp182
g74
(dp183
sg83
g79
sg76
(lp184
g69
(g90
g71
NtRp185
(dp186
g74
(dp187
g94
g95
ssg83
g181
sg76
(lp188
S'client'
p189
asbag69
(g90
g71
NtRp190
(dp191
g74
(dp192
g101
g102
ssg83
g181
sg76
(lp193
S':'
asbag69
(g90
g71
NtRp194
(dp195
g74
(dp196
sg83
g181
sg76
(lp197
g69
(g70
g71
NtRp198
(dp199
g74
(dp200
g82
I5
ssg83
g194
sg76
(lp201
S'127.0.0.1'
p202
asbasbasbag69
(g85
g71
NtRp203
(dp204
g74
(dp205
sg83
g79
sg76
(lp206
g69
(g90
g71
NtRp207
(dp208
g74
(dp209
g94
g95
ssg83
g203
sg76
(lp210
S'controller'
p211
asbag69
(g90
g71
NtRp212
(dp213
g74
(dp214
g101
g102
ssg83
g203
sg76
(lp215
S':'
asbag69
(g90
g71
NtRp216
(dp217
g74
(dp218
sg83
g203
sg76
(lp219
g69
(g70
g71
NtRp220
(dp221
g74
(dp222
g82
I5
ssg83
g216
sg76
(lp223
S'default'
p224
asbasbasbag69
(g85
g71
NtRp225
(dp226
g74
(dp227
sg83
g79
sg76
(lp228
g69
(g90
g71
NtRp229
(dp230
g74
(dp231
g94
g95
ssg83
g225
sg76
(lp232
S'cookies'
p233
asbag69
(g90
g71
NtRp234
(dp235
g74
(dp236
g101
g102
ssg83
g225
sg76
(lp237
S':'
asbag69
(g90
g71
NtRp238
(dp239
g74
(dp240
sg83
g225
sg76
(lp241
g69
(g70
g71
NtRp242
(dp243
g74
(dp244
g82
I5
ssg83
g238
sg76
(lp245
g69
(g78
g71
NtRp246
(dp247
g74
(dp248
g82
I4
ssg83
Nsg76
(lp249
g69
(g85
g71
NtRp250
(dp251
g74
(dp252
sg83
g246
sg76
(lp253
g69
(g90
g71
NtRp254
(dp255
g74
(dp256
g94
g95
ssg83
g250
sg76
(lp257
S'session_id_admin'
p258
asbag69
(g90
g71
NtRp259
(dp260
g74
(dp261
g101
g102
ssg83
g250
sg76
(lp262
S':'
asbag69
(g90
g71
NtRp263
(dp264
g74
(dp265
sg83
g250
sg76
(lp266
g69
(g70
g71
NtRp267
(dp268
g74
(dp269
g82
I4
ssg83
g263
sg76
(lp270
g69
(g78
g71
NtRp271
(dp272
g74
(dp273
g82
I3
ssg83
Nsg76
(lp274
g69
(g85
g71
NtRp275
(dp276
g74
(dp277
sg83
g271
sg76
(lp278
g69
(g90
g71
NtRp279
(dp280
g74
(dp281
g94
g95
ssg83
g275
sg76
(lp282
S'comment'
p283
asbag69
(g90
g71
NtRp284
(dp285
g74
(dp286
g101
g102
ssg83
g275
sg76
(lp287
S':'
asbag69
(g90
g71
NtRp288
(dp289
g74
(dp290
sg83
g275
sg76
(lp291
g69
(g70
g71
NtRp292
(dp293
g74
(dp294
g82
I3
ssg83
g288
sg76
(lp295
S''
asbasbasbag69
(g85
g71
NtRp296
(dp297
g74
(dp298
sg83
g271
sg76
(lp299
g69
(g90
g71
NtRp300
(dp301
g74
(dp302
g94
g95
ssg83
g296
sg76
(lp303
S'domain'
p304
asbag69
(g90
g71
NtRp305
(dp306
g74
(dp307
g101
g102
ssg83
g296
sg76
(lp308
S':'
asbag69
(g90
g71
NtRp309
(dp310
g74
(dp311
sg83
g296
sg76
(lp312
g69
(g70
g71
NtRp313
(dp314
g74
(dp315
g82
I3
ssg83
g309
sg76
(lp316
S''
asbasbasbag69
(g85
g71
NtRp317
(dp318
g74
(dp319
sg83
g271
sg76
(lp320
g69
(g90
g71
NtRp321
(dp322
g74
(dp323
g94
g95
ssg83
g317
sg76
(lp324
S'expires'
p325
asbag69
(g90
g71
NtRp326
(dp327
g74
(dp328
g101
g102
ssg83
g317
sg76
(lp329
S':'
asbag69
(g90
g71
NtRp330
(dp331
g74
(dp332
sg83
g317
sg76
(lp333
g69
(g70
g71
NtRp334
(dp335
g74
(dp336
g82
I3
ssg83
g330
sg76
(lp337
S''
asbasbasbag69
(g85
g71
NtRp338
(dp339
g74
(dp340
sg83
g271
sg76
(lp341
g69
(g90
g71
NtRp342
(dp343
g74
(dp344
g94
g95
ssg83
g338
sg76
(lp345
S'httponly'
p346
asbag69
(g90
g71
NtRp347
(dp348
g74
(dp349
g101
g102
ssg83
g338
sg76
(lp350
S':'
asbag69
(g90
g71
NtRp351
(dp352
g74
(dp353
sg83
g338
sg76
(lp354
g69
(g70
g71
NtRp355
(dp356
g74
(dp357
g82
I3
ssg83
g351
sg76
(lp358
S''
asbasbasbag69
(g85
g71
NtRp359
(dp360
g74
(dp361
sg83
g271
sg76
(lp362
g69
(g90
g71
NtRp363
(dp364
g74
(dp365
g94
g95
ssg83
g359
sg76
(lp366
S'max-age'
p367
asbag69
(g90
g71
NtRp368
(dp369
g74
(dp370
g101
g102
ssg83
g359
sg76
(lp371
S':'
asbag69
(g90
g71
NtRp372
(dp373
g74
(dp374
sg83
g359
sg76
(lp375
g69
(g70
g71
NtRp376
(dp377
g74
(dp378
g82
I3
ssg83
g372
sg76
(lp379
S''
asbasbasbag69
(g85
g71
NtRp380
(dp381
g74
(dp382
sg83
g271
sg76
(lp383
g69
(g90
g71
NtRp384
(dp385
g74
(dp386
g94
g95
ssg83
g380
sg76
(lp387
S'path'
p388
asbag69
(g90
g71
NtRp389
(dp390
g74
(dp391
g101
g102
ssg83
g380
sg76
(lp392
S':'
asbag69
(g90
g71
NtRp393
(dp394
g74
(dp395
sg83
g380
sg76
(lp396
g69
(g70
g71
NtRp397
(dp398
g74
(dp399
g82
I3
ssg83
g393
sg76
(lp400
S''
asbasbasbag69
(g85
g71
NtRp401
(dp402
g74
(dp403
sg83
g271
sg76
(lp404
g69
(g90
g71
NtRp405
(dp406
g74
(dp407
g94
g95
ssg83
g401
sg76
(lp408
S'secure'
p409
asbag69
(g90
g71
NtRp410
(dp411
g74
(dp412
g101
g102
ssg83
g401
sg76
(lp413
S':'
asbag69
(g90
g71
NtRp414
(dp415
g74
(dp416
sg83
g401
sg76
(lp417
g69
(g70
g71
NtRp418
(dp419
g74
(dp420
g82
I3
ssg83
g414
sg76
(lp421
S''
asbasbasbag69
(g85
g71
NtRp422
(dp423
g74
(dp424
sg83
g271
sg76
(lp425
g69
(g90
g71
NtRp426
(dp427
g74
(dp428
g94
g95
ssg83
g422
sg76
(lp429
S'version'
p430
asbag69
(g90
g71
NtRp431
(dp432
g74
(dp433
g101
g102
ssg83
g422
sg76
(lp434
S':'
asbag69
(g90
g71
NtRp435
(dp436
g74
(dp437
sg83
g422
sg76
(lp438
g69
(g70
g71
NtRp439
(dp440
g74
(dp441
g82
I3
ssg83
g435
sg76
(lp442
S''
asbasbasbasbasbasbasbag69
(g85
g71
NtRp443
(dp444
g74
(dp445
sg83
g246
sg76
(lp446
g69
(g90
g71
NtRp447
(dp448
g74
(dp449
g94
g95
ssg83
g443
sg76
(lp450
S'session_id_cite_mf'
p451
asbag69
(g90
g71
NtRp452
(dp453
g74
(dp454
g101
g102
ssg83
g443
sg76
(lp455
S':'
asbag69
(g90
g71
NtRp456
(dp457
g74
(dp458
sg83
g443
sg76
(lp459
g69
(g70
g71
NtRp460
(dp461
g74
(dp462
g82
I4
ssg83
g456
sg76
(lp463
g69
(g78
g71
NtRp464
(dp465
g74
(dp466
g82
I3
ssg83
Nsg76
(lp467
g69
(g85
g71
NtRp468
(dp469
g74
(dp470
sg83
g464
sg76
(lp471
g69
(g90
g71
NtRp472
(dp473
g74
(dp474
g94
g95
ssg83
g468
sg76
(lp475
g283
asbag69
(g90
g71
NtRp476
(dp477
g74
(dp478
g101
g102
ssg83
g468
sg76
(lp479
S':'
asbag69
(g90
g71
NtRp480
(dp481
g74
(dp482
sg83
g468
sg76
(lp483
g69
(g70
g71
NtRp484
(dp485
g74
(dp486
g82
I3
ssg83
g480
sg76
(lp487
S''
asbasbasbag69
(g85
g71
NtRp488
(dp489
g74
(dp490
sg83
g464
sg76
(lp491
g69
(g90
g71
NtRp492
(dp493
g74
(dp494
g94
g95
ssg83
g488
sg76
(lp495
g304
asbag69
(g90
g71
NtRp496
(dp497
g74
(dp498
g101
g102
ssg83
g488
sg76
(lp499
S':'
asbag69
(g90
g71
NtRp500
(dp501
g74
(dp502
sg83
g488
sg76
(lp503
g69
(g70
g71
NtRp504
(dp505
g74
(dp506
g82
I3
ssg83
g500
sg76
(lp507
S''
asbasbasbag69
(g85
g71
NtRp508
(dp509
g74
(dp510
sg83
g464
sg76
(lp511
g69
(g90
g71
NtRp512
(dp513
g74
(dp514
g94
g95
ssg83
g508
sg76
(lp515
g325
asbag69
(g90
g71
NtRp516
(dp517
g74
(dp518
g101
g102
ssg83
g508
sg76
(lp519
S':'
asbag69
(g90
g71
NtRp520
(dp521
g74
(dp522
sg83
g508
sg76
(lp523
g69
(g70
g71
NtRp524
(dp525
g74
(dp526
g82
I3
ssg83
g520
sg76
(lp527
S''
asbasbasbag69
(g85
g71
NtRp528
(dp529
g74
(dp530
sg83
g464
sg76
(lp531
g69
(g90
g71
NtRp532
(dp533
g74
(dp534
g94
g95
ssg83
g528
sg76
(lp535
g346
asbag69
(g90
g71
NtRp536
(dp537
g74
(dp538
g101
g102
ssg83
g528
sg76
(lp539
S':'
asbag69
(g90
g71
NtRp540
(dp541
g74
(dp542
sg83
g528
sg76
(lp543
g69
(g70
g71
NtRp544
(dp545
g74
(dp546
g82
I3
ssg83
g540
sg76
(lp547
S''
asbasbasbag69
(g85
g71
NtRp548
(dp549
g74
(dp550
sg83
g464
sg76
(lp551
g69
(g90
g71
NtRp552
(dp553
g74
(dp554
g94
g95
ssg83
g548
sg76
(lp555
g367
asbag69
(g90
g71
NtRp556
(dp557
g74
(dp558
g101
g102
ssg83
g548
sg76
(lp559
S':'
asbag69
(g90
g71
NtRp560
(dp561
g74
(dp562
sg83
g548
sg76
(lp563
g69
(g70
g71
NtRp564
(dp565
g74
(dp566
g82
I3
ssg83
g560
sg76
(lp567
S''
asbasbasbag69
(g85
g71
NtRp568
(dp569
g74
(dp570
sg83
g464
sg76
(lp571
g69
(g90
g71
NtRp572
(dp573
g74
(dp574
g94
g95
ssg83
g568
sg76
(lp575
g388
asbag69
(g90
g71
NtRp576
(dp577
g74
(dp578
g101
g102
ssg83
g568
sg76
(lp579
S':'
asbag69
(g90
g71
NtRp580
(dp581
g74
(dp582
sg83
g568
sg76
(lp583
g69
(g70
g71
NtRp584
(dp585
g74
(dp586
g82
I3
ssg83
g580
sg76
(lp587
S''
asbasbasbag69
(g85
g71
NtRp588
(dp589
g74
(dp590
sg83
g464
sg76
(lp591
g69
(g90
g71
NtRp592
(dp593
g74
(dp594
g94
g95
ssg83
g588
sg76
(lp595
g409
asbag69
(g90
g71
NtRp596
(dp597
g74
(dp598
g101
g102
ssg83
g588
sg76
(lp599
S':'
asbag69
(g90
g71
NtRp600
(dp601
g74
(dp602
sg83
g588
sg76
(lp603
g69
(g70
g71
NtRp604
(dp605
g74
(dp606
g82
I3
ssg83
g600
sg76
(lp607
S''
asbasbasbag69
(g85
g71
NtRp608
(dp609
g74
(dp610
sg83
g464
sg76
(lp611
g69
(g90
g71
NtRp612
(dp613
g74
(dp614
g94
g95
ssg83
g608
sg76
(lp615
g430
asbag69
(g90
g71
NtRp616
(dp617
g74
(dp618
g101
g102
ssg83
g608
sg76
(lp619
S':'
asbag69
(g90
g71
NtRp620
(dp621
g74
(dp622
sg83
g608
sg76
(lp623
g69
(g70
g71
NtRp624
(dp625
g74
(dp626
g82
I3
ssg83
g620
sg76
(lp627
S''
asbasbasbasbasbasbasbag69
(g85
g71
NtRp628
(dp629
g74
(dp630
sg83
g246
sg76
(lp631
g69
(g90
g71
NtRp632
(dp633
g74
(dp634
g94
g95
ssg83
g628
sg76
(lp635
S'session_id_welcome'
p636
asbag69
(g90
g71
NtRp637
(dp638
g74
(dp639
g101
g102
ssg83
g628
sg76
(lp640
S':'
asbag69
(g90
g71
NtRp641
(dp642
g74
(dp643
sg83
g628
sg76
(lp644
g69
(g70
g71
NtRp645
(dp646
g74
(dp647
g82
I4
ssg83
g641
sg76
(lp648
g69
(g78
g71
NtRp649
(dp650
g74
(dp651
g82
I3
ssg83
Nsg76
(lp652
g69
(g85
g71
NtRp653
(dp654
g74
(dp655
sg83
g649
sg76
(lp656
g69
(g90
g71
NtRp657
(dp658
g74
(dp659
g94
g95
ssg83
g653
sg76
(lp660
g283
asbag69
(g90
g71
NtRp661
(dp662
g74
(dp663
g101
g102
ssg83
g653
sg76
(lp664
S':'
asbag69
(g90
g71
NtRp665
(dp666
g74
(dp667
sg83
g653
sg76
(lp668
g69
(g70
g71
NtRp669
(dp670
g74
(dp671
g82
I3
ssg83
g665
sg76
(lp672
S''
asbasbasbag69
(g85
g71
NtRp673
(dp674
g74
(dp675
sg83
g649
sg76
(lp676
g69
(g90
g71
NtRp677
(dp678
g74
(dp679
g94
g95
ssg83
g673
sg76
(lp680
g304
asbag69
(g90
g71
NtRp681
(dp682
g74
(dp683
g101
g102
ssg83
g673
sg76
(lp684
S':'
asbag69
(g90
g71
NtRp685
(dp686
g74
(dp687
sg83
g673
sg76
(lp688
g69
(g70
g71
NtRp689
(dp690
g74
(dp691
g82
I3
ssg83
g685
sg76
(lp692
S''
asbasbasbag69
(g85
g71
NtRp693
(dp694
g74
(dp695
sg83
g649
sg76
(lp696
g69
(g90
g71
NtRp697
(dp698
g74
(dp699
g94
g95
ssg83
g693
sg76
(lp700
g325
asbag69
(g90
g71
NtRp701
(dp702
g74
(dp703
g101
g102
ssg83
g693
sg76
(lp704
S':'
asbag69
(g90
g71
NtRp705
(dp706
g74
(dp707
sg83
g693
sg76
(lp708
g69
(g70
g71
NtRp709
(dp710
g74
(dp711
g82
I3
ssg83
g705
sg76
(lp712
S''
asbasbasbag69
(g85
g71
NtRp713
(dp714
g74
(dp715
sg83
g649
sg76
(lp716
g69
(g90
g71
NtRp717
(dp718
g74
(dp719
g94
g95
ssg83
g713
sg76
(lp720
g346
asbag69
(g90
g71
NtRp721
(dp722
g74
(dp723
g101
g102
ssg83
g713
sg76
(lp724
S':'
asbag69
(g90
g71
NtRp725
(dp726
g74
(dp727
sg83
g713
sg76
(lp728
g69
(g70
g71
NtRp729
(dp730
g74
(dp731
g82
I3
ssg83
g725
sg76
(lp732
S''
asbasbasbag69
(g85
g71
NtRp733
(dp734
g74
(dp735
sg83
g649
sg76
(lp736
g69
(g90
g71
NtRp737
(dp738
g74
(dp739
g94
g95
ssg83
g733
sg76
(lp740
g367
asbag69
(g90
g71
NtRp741
(dp742
g74
(dp743
g101
g102
ssg83
g733
sg76
(lp744
S':'
asbag69
(g90
g71
NtRp745
(dp746
g74
(dp747
sg83
g733
sg76
(lp748
g69
(g70
g71
NtRp749
(dp750
g74
(dp751
g82
I3
ssg83
g745
sg76
(lp752
S''
asbasbasbag69
(g85
g71
NtRp753
(dp754
g74
(dp755
sg83
g649
sg76
(lp756
g69
(g90
g71
NtRp757
(dp758
g74
(dp759
g94
g95
ssg83
g753
sg76
(lp760
g388
asbag69
(g90
g71
NtRp761
(dp762
g74
(dp763
g101
g102
ssg83
g753
sg76
(lp764
S':'
asbag69
(g90
g71
NtRp765
(dp766
g74
(dp767
sg83
g753
sg76
(lp768
g69
(g70
g71
NtRp769
(dp770
g74
(dp771
g82
I3
ssg83
g765
sg76
(lp772
S''
asbasbasbag69
(g85
g71
NtRp773
(dp774
g74
(dp775
sg83
g649
sg76
(lp776
g69
(g90
g71
NtRp777
(dp778
g74
(dp779
g94
g95
ssg83
g773
sg76
(lp780
g409
asbag69
(g90
g71
NtRp781
(dp782
g74
(dp783
g101
g102
ssg83
g773
sg76
(lp784
S':'
asbag69
(g90
g71
NtRp785
(dp786
g74
(dp787
sg83
g773
sg76
(lp788
g69
(g70
g71
NtRp789
(dp790
g74
(dp791
g82
I3
ssg83
g785
sg76
(lp792
S''
asbasbasbag69
(g85
g71
NtRp793
(dp794
g74
(dp795
sg83
g649
sg76
(lp796
g69
(g90
g71
NtRp797
(dp798
g74
(dp799
g94
g95
ssg83
g793
sg76
(lp800
g430
asbag69
(g90
g71
NtRp801
(dp802
g74
(dp803
g101
g102
ssg83
g793
sg76
(lp804
S':'
asbag69
(g90
g71
NtRp805
(dp806
g74
(dp807
sg83
g793
sg76
(lp808
g69
(g70
g71
NtRp809
(dp810
g74
(dp811
g82
I3
ssg83
g805
sg76
(lp812
S''
asbasbasbasbasbasbasbasbasbasbasbag69
(g85
g71
NtRp813
(dp814
g74
(dp815
sg83
g79
sg76
(lp816
g69
(g90
g71
NtRp817
(dp818
g74
(dp819
g94
g95
ssg83
g813
sg76
(lp820
S'env'
p821
asbag69
(g90
g71
NtRp822
(dp823
g74
(dp824
g101
g102
ssg83
g813
sg76
(lp825
S':'
asbag69
(g90
g71
NtRp826
(dp827
g74
(dp828
sg83
g813
sg76
(lp829
g69
(g70
g71
NtRp830
(dp831
g74
(dp832
g82
I5
ssg83
g826
sg76
(lp833
g69
(g78
g71
NtRp834
(dp835
g74
(dp836
g82
I4
ssg83
Nsg76
(lp837
g69
(g85
g71
NtRp838
(dp839
g74
(dp840
sg83
g834
sg76
(lp841
g69
(g90
g71
NtRp842
(dp843
g74
(dp844
g94
g95
ssg83
g838
sg76
(lp845
S'app_folders'
p846
asbag69
(g90
g71
NtRp847
(dp848
g74
(dp849
g101
g102
ssg83
g838
sg76
(lp850
S':'
asbag69
(g90
g71
NtRp851
(dp852
g74
(dp853
sg83
g838
sg76
(lp854
g69
(g70
g71
NtRp855
(dp856
g74
(dp857
g82
I4
ssg83
g851
sg76
(lp858
S"set(['/home/maneesha/Downloads/web2py/applications/welcome/', '/home/maneesha/Downloads/web2py/applications/admin/', '/home/maneesha/Downloads/web2py/applications/cite_mf/'])"
p859
asbasbasbag69
(g85
g71
NtRp860
(dp861
g74
(dp862
sg83
g834
sg76
(lp863
g69
(g90
g71
NtRp864
(dp865
g74
(dp866
g94
g95
ssg83
g860
sg76
(lp867
S'applications_parent'
p868
asbag69
(g90
g71
NtRp869
(dp870
g74
(dp871
g101
g102
ssg83
g860
sg76
(lp872
S':'
asbag69
(g90
g71
NtRp873
(dp874
g74
(dp875
sg83
g860
sg76
(lp876
g69
(g70
g71
NtRp877
(dp878
g74
(dp879
g82
I4
ssg83
g873
sg76
(lp880
S'/home/maneesha/Downloads/web2py'
p881
asbasbasbag69
(g85
g71
NtRp882
(dp883
g74
(dp884
sg83
g834
sg76
(lp885
g69
(g90
g71
NtRp886
(dp887
g74
(dp888
g94
g95
ssg83
g882
sg76
(lp889
S'cmd_args'
p890
asbag69
(g90
g71
NtRp891
(dp892
g74
(dp893
g101
g102
ssg83
g882
sg76
(lp894
S':'
asbag69
(g90
g71
NtRp895
(dp896
g74
(dp897
sg83
g882
sg76
(lp898
g69
(g70
g71
NtRp899
(dp900
g74
(dp901
g82
I4
ssg83
g895
sg76
(lp902
g69
(g78
g71
NtRp903
(dp904
g74
(dp905
g82
I3
ssg83
Nsg76
(lp906
sbasbasbasbag69
(g85
g71
NtRp907
(dp908
g74
(dp909
sg83
g834
sg76
(lp910
g69
(g90
g71
NtRp911
(dp912
g74
(dp913
g94
g95
ssg83
g907
sg76
(lp914
S'cmd_options'
p915
asbag69
(g90
g71
NtRp916
(dp917
g74
(dp918
g101
g102
ssg83
g907
sg76
(lp919
S':'
asbag69
(g90
g71
NtRp920
(dp921
g74
(dp922
sg83
g907
sg76
(lp923
g69
(g70
g71
NtRp924
(dp925
g74
(dp926
g82
I4
ssg83
g920
sg76
(lp927
S"<Values at 0x301db00: {'verbose': False, 'ip': '127.0.0.1', 'shutdown_timeout': 5, 'taskbar': False, 'nocron': False, 'pid_filename': 'httpserver.pid', 'maxthreads': None, 'softcron': False, 'server_name': 'maneesha-Inspiron-N5050', 'bpython': False, 'nogui': False, 'port': 8000, 'extcron': False, 'debuglevel': 30, 'test': None, 'folder': '/home/maneesha/Downloads/web2py', 'config': '', 'import_models': False, 'winservice': '', 'shell': None, 'run': '', 'log_filename': 'httpserver.log', 'args': [''], 'socket_timeout': 5, 'ssl_ca_certificate': None, 'scheduler': None, 'profiler_filename': None, 'ssl_private_key': '', 'password': '<ask>', 'request_queue_size': 5, 'ssl_certificate': '', 'cronjob': False, 'numthreads': None, 'quiet': False, 'interfaces': None, 'minthreads': None, 'timeout': 10, 'plain': False, 'nobanner': False}>"
p928
asbasbasbag69
(g85
g71
NtRp929
(dp930
g74
(dp931
sg83
g834
sg76
(lp932
g69
(g90
g71
NtRp933
(dp934
g74
(dp935
g94
g95
ssg83
g929
sg76
(lp936
S'db_sessions'
p937
asbag69
(g90
g71
NtRp938
(dp939
g74
(dp940
g101
g102
ssg83
g929
sg76
(lp941
S':'
asbag69
(g90
g71
NtRp942
(dp943
g74
(dp944
sg83
g929
sg76
(lp945
g69
(g70
g71
NtRp946
(dp947
g74
(dp948
g82
I4
ssg83
g942
sg76
(lp949
S'set([])'
p950
asbasbasbag69
(g85
g71
NtRp951
(dp952
g74
(dp953
sg83
g834
sg76
(lp954
g69
(g90
g71
NtRp955
(dp956
g74
(dp957
g94
g95
ssg83
g951
sg76
(lp958
S'debugging'
p959
asbag69
(g90
g71
NtRp960
(dp961
g74
(dp962
g101
g102
ssg83
g951
sg76
(lp963
S':'
asbag69
(g90
g71
NtRp964
(dp965
g74
(dp966
sg83
g951
sg76
(lp967
g69
(g70
g71
NtRp968
(dp969
g74
(dp970
g82
I4
ssg83
g964
sg76
(lp971
g112
asbasbasbag69
(g85
g71
NtRp972
(dp973
g74
(dp974
sg83
g834
sg76
(lp975
g69
(g90
g71
NtRp976
(dp977
g74
(dp978
g94
g95
ssg83
g972
sg76
(lp979
S'gluon_parent'
p980
asbag69
(g90
g71
NtRp981
(dp982
g74
(dp983
g101
g102
ssg83
g972
sg76
(lp984
S':'
asbag69
(g90
g71
NtRp985
(dp986
g74
(dp987
sg83
g972
sg76
(lp988
g69
(g70
g71
NtRp989
(dp990
g74
(dp991
g82
I4
ssg83
g985
sg76
(lp992
S'/home/maneesha/Downloads/web2py'
p993
asbasbasbag69
(g85
g71
NtRp994
(dp995
g74
(dp996
sg83
g834
sg76
(lp997
g69
(g90
g71
NtRp998
(dp999
g74
(dp1000
g94
g95
ssg83
g994
sg76
(lp1001
S'http_accept'
p1002
asbag69
(g90
g71
NtRp1003
(dp1004
g74
(dp1005
g101
g102
ssg83
g994
sg76
(lp1006
S':'
asbag69
(g90
g71
NtRp1007
(dp1008
g74
(dp1009
sg83
g994
sg76
(lp1010
g69
(g70
g71
NtRp1011
(dp1012
g74
(dp1013
g82
I4
ssg83
g1007
sg76
(lp1014
S'text/html,application/xhtml+xml,application/xml;q=0.9,*/*;q=0.8'
p1015
asbasbasbag69
(g85
g71
NtRp1016
(dp1017
g74
(dp1018
sg83
g834
sg76
(lp1019
g69
(g90
g71
NtRp1020
(dp1021
g74
(dp1022
g94
g95
ssg83
g1016
sg76
(lp1023
S'http_accept_encoding'
p1024
asbag69
(g90
g71
NtRp1025
(dp1026
g74
(dp1027
g101
g102
ssg83
g1016
sg76
(lp1028
S':'
asbag69
(g90
g71
NtRp1029
(dp1030
g74
(dp1031
sg83
g1016
sg76
(lp1032
g69
(g70
g71
NtRp1033
(dp1034
g74
(dp1035
g82
I4
ssg83
g1029
sg76
(lp1036
S'gzip, deflate'
p1037
asbasbasbag69
(g85
g71
NtRp1038
(dp1039
g74
(dp1040
sg83
g834
sg76
(lp1041
g69
(g90
g71
NtRp1042
(dp1043
g74
(dp1044
g94
g95
ssg83
g1038
sg76
(lp1045
S'http_accept_language'
p1046
asbag69
(g90
g71
NtRp1047
(dp1048
g74
(dp1049
g101
g102
ssg83
g1038
sg76
(lp1050
S':'
asbag69
(g90
g71
NtRp1051
(dp1052
g74
(dp1053
sg83
g1038
sg76
(lp1054
g69
(g70
g71
NtRp1055
(dp1056
g74
(dp1057
g82
I4
ssg83
g1051
sg76
(lp1058
S'en-US,en;q=0.5'
p1059
asbasbasbag69
(g85
g71
NtRp1060
(dp1061
g74
(dp1062
sg83
g834
sg76
(lp1063
g69
(g90
g71
NtRp1064
(dp1065
g74
(dp1066
g94
g95
ssg83
g1060
sg76
(lp1067
S'http_connection'
p1068
asbag69
(g90
g71
NtRp1069
(dp1070
g74
(dp1071
g101
g102
ssg83
g1060
sg76
(lp1072
S':'
asbag69
(g90
g71
NtRp1073
(dp1074
g74
(dp1075
sg83
g1060
sg76
(lp1076
g69
(g70
g71
NtRp1077
(dp1078
g74
(dp1079
g82
I4
ssg83
g1073
sg76
(lp1080
S'keep-alive'
p1081
asbasbasbag69
(g85
g71
NtRp1082
(dp1083
g74
(dp1084
sg83
g834
sg76
(lp1085
g69
(g90
g71
NtRp1086
(dp1087
g74
(dp1088
g94
g95
ssg83
g1082
sg76
(lp1089
S'http_cookie'
p1090
asbag69
(g90
g71
NtRp1091
(dp1092
g74
(dp1093
g101
g102
ssg83
g1082
sg76
(lp1094
S':'
asbag69
(g90
g71
NtRp1095
(dp1096
g74
(dp1097
sg83
g1082
sg76
(lp1098
g69
(g70
g71
NtRp1099
(dp1100
g74
(dp1101
g82
I4
ssg83
g1095
sg76
(lp1102
S'session_id_welcome=127.0.0.1-cafe2b1b-2ada-4da8-8d46-2ef330c4fdd5; session_id_admin=127.0.0.1-91f604b8-7914-423f-9f50-02bd610fc77d; session_id_cite_mf=127.0.0.1-92355c06-80c6-4ff2-a629-21abefec8a82'
p1103
asbasbasbag69
(g85
g71
NtRp1104
(dp1105
g74
(dp1106
sg83
g834
sg76
(lp1107
g69
(g90
g71
NtRp1108
(dp1109
g74
(dp1110
g94
g95
ssg83
g1104
sg76
(lp1111
S'http_host'
p1112
asbag69
(g90
g71
NtRp1113
(dp1114
g74
(dp1115
g101
g102
ssg83
g1104
sg76
(lp1116
S':'
asbag69
(g90
g71
NtRp1117
(dp1118
g74
(dp1119
sg83
g1104
sg76
(lp1120
g69
(g70
g71
NtRp1121
(dp1122
g74
(dp1123
g82
I4
ssg83
g1117
sg76
(lp1124
S'127.0.0.1:8000'
p1125
asbasbasbag69
(g85
g71
NtRp1126
(dp1127
g74
(dp1128
sg83
g834
sg76
(lp1129
g69
(g90
g71
NtRp1130
(dp1131
g74
(dp1132
g94
g95
ssg83
g1126
sg76
(lp1133
S'http_referer'
p1134
asbag69
(g90
g71
NtRp1135
(dp1136
g74
(dp1137
g101
g102
ssg83
g1126
sg76
(lp1138
S':'
asbag69
(g90
g71
NtRp1139
(dp1140
g74
(dp1141
sg83
g1126
sg76
(lp1142
g69
(g70
g71
NtRp1143
(dp1144
g74
(dp1145
g82
I4
ssg83
g1139
sg76
(lp1146
S'http://127.0.0.1:8000/cite_mf/default/index'
p1147
asbasbasbag69
(g85
g71
NtRp1148
(dp1149
g74
(dp1150
sg83
g834
sg76
(lp1151
g69
(g90
g71
NtRp1152
(dp1153
g74
(dp1154
g94
g95
ssg83
g1148
sg76
(lp1155
S'http_user_agent'
p1156
asbag69
(g90
g71
NtRp1157
(dp1158
g74
(dp1159
g101
g102
ssg83
g1148
sg76
(lp1160
S':'
asbag69
(g90
g71
NtRp1161
(dp1162
g74
(dp1163
sg83
g1148
sg76
(lp1164
g69
(g70
g71
NtRp1165
(dp1166
g74
(dp1167
g82
I4
ssg83
g1161
sg76
(lp1168
S'Mozilla/5.0 (X11; Ubuntu; Linux x86_64; rv:16.0) Gecko/20100101 Firefox/16.0'
p1169
asbasbasbag69
(g85
g71
NtRp1170
(dp1171
g74
(dp1172
sg83
g834
sg76
(lp1173
g69
(g90
g71
NtRp1174
(dp1175
g74
(dp1176
g94
g95
ssg83
g1170
sg76
(lp1177
S'is_jython'
p1178
asbag69
(g90
g71
NtRp1179
(dp1180
g74
(dp1181
g101
g102
ssg83
g1170
sg76
(lp1182
S':'
asbag69
(g90
g71
NtRp1183
(dp1184
g74
(dp1185
sg83
g1170
sg76
(lp1186
g69
(g70
g71
NtRp1187
(dp1188
g74
(dp1189
g82
I4
ssg83
g1183
sg76
(lp1190
g112
asbasbasbag69
(g85
g71
NtRp1191
(dp1192
g74
(dp1193
sg83
g834
sg76
(lp1194
g69
(g90
g71
NtRp1195
(dp1196
g74
(dp1197
g94
g95
ssg83
g1191
sg76
(lp1198
S'is_pypy'
p1199
asbag69
(g90
g71
NtRp1200
(dp1201
g74
(dp1202
g101
g102
ssg83
g1191
sg76
(lp1203
S':'
asbag69
(g90
g71
NtRp1204
(dp1205
g74
(dp1206
sg83
g1191
sg76
(lp1207
g69
(g70
g71
NtRp1208
(dp1209
g74
(dp1210
g82
I4
ssg83
g1204
sg76
(lp1211
g112
asbasbasbag69
(g85
g71
NtRp1212
(dp1213
g74
(dp1214
sg83
g834
sg76
(lp1215
g69
(g90
g71
NtRp1216
(dp1217
g74
(dp1218
g94
g95
ssg83
g1212
sg76
(lp1219
S'path_info'
p1220
asbag69
(g90
g71
NtRp1221
(dp1222
g74
(dp1223
g101
g102
ssg83
g1212
sg76
(lp1224
S':'
asbag69
(g90
g71
NtRp1225
(dp1226
g74
(dp1227
sg83
g1212
sg76
(lp1228
g69
(g70
g71
NtRp1229
(dp1230
g74
(dp1231
g82
I4
ssg83
g1225
sg76
(lp1232
S'/cite_mf/default/final_ans'
p1233
asbasbasbag69
(g85
g71
NtRp1234
(dp1235
g74
(dp1236
sg83
g834
sg76
(lp1237
g69
(g90
g71
NtRp1238
(dp1239
g74
(dp1240
g94
g95
ssg83
g1234
sg76
(lp1241
S'query_string'
p1242
asbag69
(g90
g71
NtRp1243
(dp1244
g74
(dp1245
g101
g102
ssg83
g1234
sg76
(lp1246
S':'
asbag69
(g90
g71
NtRp1247
(dp1248
g74
(dp1249
sg83
g1234
sg76
(lp1250
g69
(g70
g71
NtRp1251
(dp1252
g74
(dp1253
g82
I4
ssg83
g1247
sg76
(lp1254
S''
asbasbasbag69
(g85
g71
NtRp1255
(dp1256
g74
(dp1257
sg83
g834
sg76
(lp1258
g69
(g90
g71
NtRp1259
(dp1260
g74
(dp1261
g94
g95
ssg83
g1255
sg76
(lp1262
S'remote_addr'
p1263
asbag69
(g90
g71
NtRp1264
(dp1265
g74
(dp1266
g101
g102
ssg83
g1255
sg76
(lp1267
S':'
asbag69
(g90
g71
NtRp1268
(dp1269
g74
(dp1270
sg83
g1255
sg76
(lp1271
g69
(g70
g71
NtRp1272
(dp1273
g74
(dp1274
g82
I4
ssg83
g1268
sg76
(lp1275
g202
asbasbasbag69
(g85
g71
NtRp1276
(dp1277
g74
(dp1278
sg83
g834
sg76
(lp1279
g69
(g90
g71
NtRp1280
(dp1281
g74
(dp1282
g94
g95
ssg83
g1276
sg76
(lp1283
S'remote_port'
p1284
asbag69
(g90
g71
NtRp1285
(dp1286
g74
(dp1287
g101
g102
ssg83
g1276
sg76
(lp1288
S':'
asbag69
(g90
g71
NtRp1289
(dp1290
g74
(dp1291
sg83
g1276
sg76
(lp1292
g69
(g70
g71
NtRp1293
(dp1294
g74
(dp1295
g82
I4
ssg83
g1289
sg76
(lp1296
S'39066'
p1297
asbasbasbag69
(g85
g71
NtRp1298
(dp1299
g74
(dp1300
sg83
g834
sg76
(lp1301
g69
(g90
g71
NtRp1302
(dp1303
g74
(dp1304
g94
g95
ssg83
g1298
sg76
(lp1305
S'request_method'
p1306
asbag69
(g90
g71
NtRp1307
(dp1308
g74
(dp1309
g101
g102
ssg83
g1298
sg76
(lp1310
S':'
asbag69
(g90
g71
NtRp1311
(dp1312
g74
(dp1313
sg83
g1298
sg76
(lp1314
g69
(g70
g71
NtRp1315
(dp1316
g74
(dp1317
g82
I4
ssg83
g1311
sg76
(lp1318
S'GET'
p1319
asbasbasbag69
(g85
g71
NtRp1320
(dp1321
g74
(dp1322
sg83
g834
sg76
(lp1323
g69
(g90
g71
NtRp1324
(dp1325
g74
(dp1326
g94
g95
ssg83
g1320
sg76
(lp1327
S'script_name'
p1328
asbag69
(g90
g71
NtRp1329
(dp1330
g74
(dp1331
g101
g102
ssg83
g1320
sg76
(lp1332
S':'
asbag69
(g90
g71
NtRp1333
(dp1334
g74
(dp1335
sg83
g1320
sg76
(lp1336
g69
(g70
g71
NtRp1337
(dp1338
g74
(dp1339
g82
I4
ssg83
g1333
sg76
(lp1340
S''
asbasbasbag69
(g85
g71
NtRp1341
(dp1342
g74
(dp1343
sg83
g834
sg76
(lp1344
g69
(g90
g71
NtRp1345
(dp1346
g74
(dp1347
g94
g95
ssg83
g1341
sg76
(lp1348
S'server_name'
p1349
asbag69
(g90
g71
NtRp1350
(dp1351
g74
(dp1352
g101
g102
ssg83
g1341
sg76
(lp1353
S':'
asbag69
(g90
g71
NtRp1354
(dp1355
g74
(dp1356
sg83
g1341
sg76
(lp1357
g69
(g70
g71
NtRp1358
(dp1359
g74
(dp1360
g82
I4
ssg83
g1354
sg76
(lp1361
S'maneesha-Inspiron-N5050'
p1362
asbasbasbag69
(g85
g71
NtRp1363
(dp1364
g74
(dp1365
sg83
g834
sg76
(lp1366
g69
(g90
g71
NtRp1367
(dp1368
g74
(dp1369
g94
g95
ssg83
g1363
sg76
(lp1370
S'server_port'
p1371
asbag69
(g90
g71
NtRp1372
(dp1373
g74
(dp1374
g101
g102
ssg83
g1363
sg76
(lp1375
S':'
asbag69
(g90
g71
NtRp1376
(dp1377
g74
(dp1378
sg83
g1363
sg76
(lp1379
g69
(g70
g71
NtRp1380
(dp1381
g74
(dp1382
g82
I4
ssg83
g1376
sg76
(lp1383
S'8000'
p1384
asbasbasbag69
(g85
g71
NtRp1385
(dp1386
g74
(dp1387
sg83
g834
sg76
(lp1388
g69
(g90
g71
NtRp1389
(dp1390
g74
(dp1391
g94
g95
ssg83
g1385
sg76
(lp1392
S'server_protocol'
p1393
asbag69
(g90
g71
NtRp1394
(dp1395
g74
(dp1396
g101
g102
ssg83
g1385
sg76
(lp1397
S':'
asbag69
(g90
g71
NtRp1398
(dp1399
g74
(dp1400
sg83
g1385
sg76
(lp1401
g69
(g70
g71
NtRp1402
(dp1403
g74
(dp1404
g82
I4
ssg83
g1398
sg76
(lp1405
S'HTTP/1.1'
p1406
asbasbasbag69
(g85
g71
NtRp1407
(dp1408
g74
(dp1409
sg83
g834
sg76
(lp1410
g69
(g90
g71
NtRp1411
(dp1412
g74
(dp1413
g94
g95
ssg83
g1407
sg76
(lp1414
S'server_software'
p1415
asbag69
(g90
g71
NtRp1416
(dp1417
g74
(dp1418
g101
g102
ssg83
g1407
sg76
(lp1419
S':'
asbag69
(g90
g71
NtRp1420
(dp1421
g74
(dp1422
sg83
g1407
sg76
(lp1423
g69
(g70
g71
NtRp1424
(dp1425
g74
(dp1426
g82
I4
ssg83
g1420
sg76
(lp1427
S'Rocket 1.2.4'
p1428
asbasbasbag69
(g85
g71
NtRp1429
(dp1430
g74
(dp1431
sg83
g834
sg76
(lp1432
g69
(g90
g71
NtRp1433
(dp1434
g74
(dp1435
g94
g95
ssg83
g1429
sg76
(lp1436
S'web2py_crontype'
p1437
asbag69
(g90
g71
NtRp1438
(dp1439
g74
(dp1440
g101
g102
ssg83
g1429
sg76
(lp1441
S':'
asbag69
(g90
g71
NtRp1442
(dp1443
g74
(dp1444
sg83
g1429
sg76
(lp1445
g69
(g70
g71
NtRp1446
(dp1447
g74
(dp1448
g82
I4
ssg83
g1442
sg76
(lp1449
S'hard'
p1450
asbasbasbag69
(g85
g71
NtRp1451
(dp1452
g74
(dp1453
sg83
g834
sg76
(lp1454
g69
(g90
g71
NtRp1455
(dp1456
g74
(dp1457
g94
g95
ssg83
g1451
sg76
(lp1458
S'web2py_path'
p1459
asbag69
(g90
g71
NtRp1460
(dp1461
g74
(dp1462
g101
g102
ssg83
g1451
sg76
(lp1463
S':'
asbag69
(g90
g71
NtRp1464
(dp1465
g74
(dp1466
sg83
g1451
sg76
(lp1467
g69
(g70
g71
NtRp1468
(dp1469
g74
(dp1470
g82
I4
ssg83
g1464
sg76
(lp1471
g881
asbasbasbag69
(g85
g71
NtRp1472
(dp1473
g74
(dp1474
sg83
g834
sg76
(lp1475
g69
(g90
g71
NtRp1476
(dp1477
g74
(dp1478
g94
g95
ssg83
g1472
sg76
(lp1479
S'web2py_version'
p1480
asbag69
(g90
g71
NtRp1481
(dp1482
g74
(dp1483
g101
g102
ssg83
g1472
sg76
(lp1484
S':'
asbag69
(g90
g71
NtRp1485
(dp1486
g74
(dp1487
sg83
g1472
sg76
(lp1488
g69
(g70
g71
NtRp1489
(dp1490
g74
(dp1491
g82
I4
ssg83
g1485
sg76
(lp1492
g69
(g78
g71
NtRp1493
(dp1494
g74
(dp1495
g82
I3
ssg83
Nsg76
(lp1496
g69
(g85
g71
NtRp1497
(dp1498
g74
(dp1499
sg83
g1493
sg76
(lp1500
g69
(g90
g71
NtRp1501
(dp1502
g74
(dp1503
sg83
g1497
sg76
(lp1504
g69
(g70
g71
NtRp1505
(dp1506
g74
(dp1507
g82
I3
ssg83
g1501
sg76
(lp1508
S'1'
asbasbasbag69
(g85
g71
NtRp1509
(dp1510
g74
(dp1511
sg83
g1493
sg76
(lp1512
g69
(g90
g71
NtRp1513
(dp1514
g74
(dp1515
sg83
g1509
sg76
(lp1516
g69
(g70
g71
NtRp1517
(dp1518
g74
(dp1519
g82
I3
ssg83
g1513
sg76
(lp1520
S'99'
p1521
asbasbasbag69
(g85
g71
NtRp1522
(dp1523
g74
(dp1524
sg83
g1493
sg76
(lp1525
g69
(g90
g71
NtRp1526
(dp1527
g74
(dp1528
sg83
g1522
sg76
(lp1529
g69
(g70
g71
NtRp1530
(dp1531
g74
(dp1532
g82
I3
ssg83
g1526
sg76
(lp1533
S'7'
asbasbasbag69
(g85
g71
NtRp1534
(dp1535
g74
(dp1536
sg83
g1493
sg76
(lp1537
g69
(g90
g71
NtRp1538
(dp1539
g74
(dp1540
sg83
g1534
sg76
(lp1541
g69
(g70
g71
NtRp1542
(dp1543
g74
(dp1544
g82
I3
ssg83
g1538
sg76
(lp1545
S'datetime.datetime(2012, 3, 4, 22, 12, 8)'
p1546
asbasbasbag69
(g85
g71
NtRp1547
(dp1548
g74
(dp1549
sg83
g1493
sg76
(lp1550
g69
(g90
g71
NtRp1551
(dp1552
g74
(dp1553
sg83
g1547
sg76
(lp1554
g69
(g70
g71
NtRp1555
(dp1556
g74
(dp1557
g82
I3
ssg83
g1551
sg76
(lp1558
S'stable'
p1559
asbasbasbasbasbasbasbag69
(g85
g71
NtRp1560
(dp1561
g74
(dp1562
sg83
g834
sg76
(lp1563
g69
(g90
g71
NtRp1564
(dp1565
g74
(dp1566
g94
g95
ssg83
g1560
sg76
(lp1567
S'wsgi_errors'
p1568
asbag69
(g90
g71
NtRp1569
(dp1570
g74
(dp1571
g101
g102
ssg83
g1560
sg76
(lp1572
S':'
asbag69
(g90
g71
NtRp1573
(dp1574
g74
(dp1575
sg83
g1560
sg76
(lp1576
g69
(g70
g71
NtRp1577
(dp1578
g74
(dp1579
g82
I4
ssg83
g1573
sg76
(lp1580
S"<open file '<stderr>', mode 'w' at 0x7fb61e138270>"
p1581
asbasbasbag69
(g85
g71
NtRp1582
(dp1583
g74
(dp1584
sg83
g834
sg76
(lp1585
g69
(g90
g71
NtRp1586
(dp1587
g74
(dp1588
g94
g95
ssg83
g1582
sg76
(lp1589
S'wsgi_file_wrapper'
p1590
asbag69
(g90
g71
NtRp1591
(dp1592
g74
(dp1593
g101
g102
ssg83
g1582
sg76
(lp1594
S':'
asbag69
(g90
g71
NtRp1595
(dp1596
g74
(dp1597
sg83
g1582
sg76
(lp1598
g69
(g70
g71
NtRp1599
(dp1600
g74
(dp1601
g82
I4
ssg83
g1595
sg76
(lp1602
S'<class wsgiref.util.FileWrapper at 0x2eedef0>'
p1603
asbasbasbag69
(g85
g71
NtRp1604
(dp1605
g74
(dp1606
sg83
g834
sg76
(lp1607
g69
(g90
g71
NtRp1608
(dp1609
g74
(dp1610
g94
g95
ssg83
g1604
sg76
(lp1611
S'wsgi_input'
p1612
asbag69
(g90
g71
NtRp1613
(dp1614
g74
(dp1615
g101
g102
ssg83
g1604
sg76
(lp1616
S':'
asbag69
(g90
g71
NtRp1617
(dp1618
g74
(dp1619
sg83
g1604
sg76
(lp1620
g69
(g70
g71
NtRp1621
(dp1622
g74
(dp1623
g82
I4
ssg83
g1617
sg76
(lp1624
S'<socket._fileobject object at 0x7fb5f08324d0>'
p1625
asbasbasbag69
(g85
g71
NtRp1626
(dp1627
g74
(dp1628
sg83
g834
sg76
(lp1629
g69
(g90
g71
NtRp1630
(dp1631
g74
(dp1632
g94
g95
ssg83
g1626
sg76
(lp1633
S'wsgi_multiprocess'
p1634
asbag69
(g90
g71
NtRp1635
(dp1636
g74
(dp1637
g101
g102
ssg83
g1626
sg76
(lp1638
S':'
asbag69
(g90
g71
NtRp1639
(dp1640
g74
(dp1641
sg83
g1626
sg76
(lp1642
g69
(g70
g71
NtRp1643
(dp1644
g74
(dp1645
g82
I4
ssg83
g1639
sg76
(lp1646
g112
asbasbasbag69
(g85
g71
NtRp1647
(dp1648
g74
(dp1649
sg83
g834
sg76
(lp1650
g69
(g90
g71
NtRp1651
(dp1652
g74
(dp1653
g94
g95
ssg83
g1647
sg76
(lp1654
S'wsgi_multithread'
p1655
asbag69
(g90
g71
NtRp1656
(dp1657
g74
(dp1658
g101
g102
ssg83
g1647
sg76
(lp1659
S':'
asbag69
(g90
g71
NtRp1660
(dp1661
g74
(dp1662
sg83
g1647
sg76
(lp1663
g69
(g70
g71
NtRp1664
(dp1665
g74
(dp1666
g82
I4
ssg83
g1660
sg76
(lp1667
S'True'
p1668
asbasbasbag69
(g85
g71
NtRp1669
(dp1670
g74
(dp1671
sg83
g834
sg76
(lp1672
g69
(g90
g71
NtRp1673
(dp1674
g74
(dp1675
g94
g95
ssg83
g1669
sg76
(lp1676
S'wsgi_run_once'
p1677
asbag69
(g90
g71
NtRp1678
(dp1679
g74
(dp1680
g101
g102
ssg83
g1669
sg76
(lp1681
S':'
asbag69
(g90
g71
NtRp1682
(dp1683
g74
(dp1684
sg83
g1669
sg76
(lp1685
g69
(g70
g71
NtRp1686
(dp1687
g74
(dp1688
g82
I4
ssg83
g1682
sg76
(lp1689
g112
asbasbasbag69
(g85
g71
NtRp1690
(dp1691
g74
(dp1692
sg83
g834
sg76
(lp1693
g69
(g90
g71
NtRp1694
(dp1695
g74
(dp1696
g94
g95
ssg83
g1690
sg76
(lp1697
S'wsgi_url_scheme'
p1698
asbag69
(g90
g71
NtRp1699
(dp1700
g74
(dp1701
g101
g102
ssg83
g1690
sg76
(lp1702
S':'
asbag69
(g90
g71
NtRp1703
(dp1704
g74
(dp1705
sg83
g1690
sg76
(lp1706
g69
(g70
g71
NtRp1707
(dp1708
g74
(dp1709
g82
I4
ssg83
g1703
sg76
(lp1710
S'http'
p1711
asbasbasbag69
(g85
g71
NtRp1712
(dp1713
g74
(dp1714
sg83
g834
sg76
(lp1715
g69
(g90
g71
NtRp1716
(dp1717
g74
(dp1718
g94
g95
ssg83
g1712
sg76
(lp1719
S'wsgi_version'
p1720
asbag69
(g90
g71
NtRp1721
(dp1722
g74
(dp1723
g101
g102
ssg83
g1712
sg76
(lp1724
S':'
asbag69
(g90
g71
NtRp1725
(dp1726
g74
(dp1727
sg83
g1712
sg76
(lp1728
g69
(g70
g71
NtRp1729
(dp1730
g74
(dp1731
g82
I4
ssg83
g1725
sg76
(lp1732
g69
(g78
g71
NtRp1733
(dp1734
g74
(dp1735
g82
I3
ssg83
Nsg76
(lp1736
g69
(g85
g71
NtRp1737
(dp1738
g74
(dp1739
sg83
g1733
sg76
(lp1740
g69
(g90
g71
NtRp1741
(dp1742
g74
(dp1743
sg83
g1737
sg76
(lp1744
g69
(g70
g71
NtRp1745
(dp1746
g74
(dp1747
g82
I3
ssg83
g1741
sg76
(lp1748
S'1'
asbasbasbag69
(g85
g71
NtRp1749
(dp1750
g74
(dp1751
sg83
g1733
sg76
(lp1752
g69
(g90
g71
NtRp1753
(dp1754
g74
(dp1755
sg83
g1749
sg76
(lp1756
g69
(g70
g71
NtRp1757
(dp1758
g74
(dp1759
g82
I3
ssg83
g1753
sg76
(lp1760
S'0'
asbasbasbasbasbasbasbasbasbasbasbag69
(g85
g71
NtRp1761
(dp1762
g74
(dp1763
sg83
g79
sg76
(lp1764
g69
(g90
g71
NtRp1765
(dp1766
g74
(dp1767
g94
g95
ssg83
g1761
sg76
(lp1768
S'extension'
p1769
asbag69
(g90
g71
NtRp1770
(dp1771
g74
(dp1772
g101
g102
ssg83
g1761
sg76
(lp1773
S':'
asbag69
(g90
g71
NtRp1774
(dp1775
g74
(dp1776
sg83
g1761
sg76
(lp1777
g69
(g70
g71
NtRp1778
(dp1779
g74
(dp1780
g82
I5
ssg83
g1774
sg76
(lp1781
S'html'
p1782
asbasbasbag69
(g85
g71
NtRp1783
(dp1784
g74
(dp1785
sg83
g79
sg76
(lp1786
g69
(g90
g71
NtRp1787
(dp1788
g74
(dp1789
g94
g95
ssg83
g1783
sg76
(lp1790
S'folder'
p1791
asbag69
(g90
g71
NtRp1792
(dp1793
g74
(dp1794
g101
g102
ssg83
g1783
sg76
(lp1795
S':'
asbag69
(g90
g71
NtRp1796
(dp1797
g74
(dp1798
sg83
g1783
sg76
(lp1799
g69
(g70
g71
NtRp1800
(dp1801
g74
(dp1802
g82
I5
ssg83
g1796
sg76
(lp1803
S'/home/maneesha/Downloads/web2py/applications/cite_mf/'
p1804
asbasbasbag69
(g85
g71
NtRp1805
(dp1806
g74
(dp1807
sg83
g79
sg76
(lp1808
g69
(g90
g71
NtRp1809
(dp1810
g74
(dp1811
g94
g95
ssg83
g1805
sg76
(lp1812
S'function'
p1813
asbag69
(g90
g71
NtRp1814
(dp1815
g74
(dp1816
g101
g102
ssg83
g1805
sg76
(lp1817
S':'
asbag69
(g90
g71
NtRp1818
(dp1819
g74
(dp1820
sg83
g1805
sg76
(lp1821
g69
(g70
g71
NtRp1822
(dp1823
g74
(dp1824
g82
I5
ssg83
g1818
sg76
(lp1825
S'final_ans'
p1826
asbasbasbag69
(g85
g71
NtRp1827
(dp1828
g74
(dp1829
sg83
g79
sg76
(lp1830
g69
(g90
g71
NtRp1831
(dp1832
g74
(dp1833
g94
g95
ssg83
g1827
sg76
(lp1834
S'get_vars'
p1835
asbag69
(g90
g71
NtRp1836
(dp1837
g74
(dp1838
g101
g102
ssg83
g1827
sg76
(lp1839
S':'
asbag69
(g90
g71
NtRp1840
(dp1841
g74
(dp1842
sg83
g1827
sg76
(lp1843
g69
(g70
g71
NtRp1844
(dp1845
g74
(dp1846
g82
I5
ssg83
g1840
sg76
(lp1847
g69
(g78
g71
NtRp1848
(dp1849
g74
(dp1850
g82
I4
ssg83
Nsg76
(lp1851
sbasbasbasbag69
(g85
g71
NtRp1852
(dp1853
g74
(dp1854
sg83
g79
sg76
(lp1855
g69
(g90
g71
NtRp1856
(dp1857
g74
(dp1858
g94
g95
ssg83
g1852
sg76
(lp1859
S'global_settings'
p1860
asbag69
(g90
g71
NtRp1861
(dp1862
g74
(dp1863
g101
g102
ssg83
g1852
sg76
(lp1864
S':'
asbag69
(g90
g71
NtRp1865
(dp1866
g74
(dp1867
sg83
g1852
sg76
(lp1868
g69
(g70
g71
NtRp1869
(dp1870
g74
(dp1871
g82
I5
ssg83
g1865
sg76
(lp1872
g69
(g78
g71
NtRp1873
(dp1874
g74
(dp1875
g82
I4
ssg83
Nsg76
(lp1876
g69
(g85
g71
NtRp1877
(dp1878
g74
(dp1879
sg83
g1873
sg76
(lp1880
g69
(g90
g71
NtRp1881
(dp1882
g74
(dp1883
g94
g95
ssg83
g1877
sg76
(lp1884
g846
asbag69
(g90
g71
NtRp1885
(dp1886
g74
(dp1887
g101
g102
ssg83
g1877
sg76
(lp1888
S':'
asbag69
(g90
g71
NtRp1889
(dp1890
g74
(dp1891
sg83
g1877
sg76
(lp1892
g69
(g70
g71
NtRp1893
(dp1894
g74
(dp1895
g82
I4
ssg83
g1889
sg76
(lp1896
S"set(['/home/maneesha/Downloads/web2py/applications/welcome/', '/home/maneesha/Downloads/web2py/applications/admin/', '/home/maneesha/Downloads/web2py/applications/cite_mf/'])"
p1897
asbasbasbag69
(g85
g71
NtRp1898
(dp1899
g74
(dp1900
sg83
g1873
sg76
(lp1901
g69
(g90
g71
NtRp1902
(dp1903
g74
(dp1904
g94
g95
ssg83
g1898
sg76
(lp1905
g868
asbag69
(g90
g71
NtRp1906
(dp1907
g74
(dp1908
g101
g102
ssg83
g1898
sg76
(lp1909
S':'
asbag69
(g90
g71
NtRp1910
(dp1911
g74
(dp1912
sg83
g1898
sg76
(lp1913
g69
(g70
g71
NtRp1914
(dp1915
g74
(dp1916
g82
I4
ssg83
g1910
sg76
(lp1917
g881
asbasbasbag69
(g85
g71
NtRp1918
(dp1919
g74
(dp1920
sg83
g1873
sg76
(lp1921
g69
(g90
g71
NtRp1922
(dp1923
g74
(dp1924
g94
g95
ssg83
g1918
sg76
(lp1925
g890
asbag69
(g90
g71
NtRp1926
(dp1927
g74
(dp1928
g101
g102
ssg83
g1918
sg76
(lp1929
S':'
asbag69
(g90
g71
NtRp1930
(dp1931
g74
(dp1932
sg83
g1918
sg76
(lp1933
g69
(g70
g71
NtRp1934
(dp1935
g74
(dp1936
g82
I4
ssg83
g1930
sg76
(lp1937
g69
(g78
g71
NtRp1938
(dp1939
g74
(dp1940
g82
I3
ssg83
Nsg76
(lp1941
sbasbasbasbag69
(g85
g71
NtRp1942
(dp1943
g74
(dp1944
sg83
g1873
sg76
(lp1945
g69
(g90
g71
NtRp1946
(dp1947
g74
(dp1948
g94
g95
ssg83
g1942
sg76
(lp1949
g915
asbag69
(g90
g71
NtRp1950
(dp1951
g74
(dp1952
g101
g102
ssg83
g1942
sg76
(lp1953
S':'
asbag69
(g90
g71
NtRp1954
(dp1955
g74
(dp1956
sg83
g1942
sg76
(lp1957
g69
(g70
g71
NtRp1958
(dp1959
g74
(dp1960
g82
I4
ssg83
g1954
sg76
(lp1961
S"<Values at 0x301db00: {'verbose': False, 'ip': '127.0.0.1', 'shutdown_timeout': 5, 'taskbar': False, 'nocron': False, 'pid_filename': 'httpserver.pid', 'maxthreads': None, 'softcron': False, 'server_name': 'maneesha-Inspiron-N5050', 'bpython': False, 'nogui': False, 'port': 8000, 'extcron': False, 'debuglevel': 30, 'test': None, 'folder': '/home/maneesha/Downloads/web2py', 'config': '', 'import_models': False, 'winservice': '', 'shell': None, 'run': '', 'log_filename': 'httpserver.log', 'args': [''], 'socket_timeout': 5, 'ssl_ca_certificate': None, 'scheduler': None, 'profiler_filename': None, 'ssl_private_key': '', 'password': '<ask>', 'request_queue_size': 5, 'ssl_certificate': '', 'cronjob': False, 'numthreads': None, 'quiet': False, 'interfaces': None, 'minthreads': None, 'timeout': 10, 'plain': False, 'nobanner': False}>"
p1962
asbasbasbag69
(g85
g71
NtRp1963
(dp1964
g74
(dp1965
sg83
g1873
sg76
(lp1966
g69
(g90
g71
NtRp1967
(dp1968
g74
(dp1969
g94
g95
ssg83
g1963
sg76
(lp1970
g937
asbag69
(g90
g71
NtRp1971
(dp1972
g74
(dp1973
g101
g102
ssg83
g1963
sg76
(lp1974
S':'
asbag69
(g90
g71
NtRp1975
(dp1976
g74
(dp1977
sg83
g1963
sg76
(lp1978
g69
(g70
g71
NtRp1979
(dp1980
g74
(dp1981
g82
I4
ssg83
g1975
sg76
(lp1982
S'set([])'
p1983
asbasbasbag69
(g85
g71
NtRp1984
(dp1985
g74
(dp1986
sg83
g1873
sg76
(lp1987
g69
(g90
g71
NtRp1988
(dp1989
g74
(dp1990
g94
g95
ssg83
g1984
sg76
(lp1991
g959
asbag69
(g90
g71
NtRp1992
(dp1993
g74
(dp1994
g101
g102
ssg83
g1984
sg76
(lp1995
S':'
asbag69
(g90
g71
NtRp1996
(dp1997
g74
(dp1998
sg83
g1984
sg76
(lp1999
g69
(g70
g71
NtRp2000
(dp2001
g74
(dp2002
g82
I4
ssg83
g1996
sg76
(lp2003
g112
asbasbasbag69
(g85
g71
NtRp2004
(dp2005
g74
(dp2006
sg83
g1873
sg76
(lp2007
g69
(g90
g71
NtRp2008
(dp2009
g74
(dp2010
g94
g95
ssg83
g2004
sg76
(lp2011
g980
asbag69
(g90
g71
NtRp2012
(dp2013
g74
(dp2014
g101
g102
ssg83
g2004
sg76
(lp2015
S':'
asbag69
(g90
g71
NtRp2016
(dp2017
g74
(dp2018
sg83
g2004
sg76
(lp2019
g69
(g70
g71
NtRp2020
(dp2021
g74
(dp2022
g82
I4
ssg83
g2016
sg76
(lp2023
g993
asbasbasbag69
(g85
g71
NtRp2024
(dp2025
g74
(dp2026
sg83
g1873
sg76
(lp2027
g69
(g90
g71
NtRp2028
(dp2029
g74
(dp2030
g94
g95
ssg83
g2024
sg76
(lp2031
g1178
asbag69
(g90
g71
NtRp2032
(dp2033
g74
(dp2034
g101
g102
ssg83
g2024
sg76
(lp2035
S':'
asbag69
(g90
g71
NtRp2036
(dp2037
g74
(dp2038
sg83
g2024
sg76
(lp2039
g69
(g70
g71
NtRp2040
(dp2041
g74
(dp2042
g82
I4
ssg83
g2036
sg76
(lp2043
g112
asbasbasbag69
(g85
g71
NtRp2044
(dp2045
g74
(dp2046
sg83
g1873
sg76
(lp2047
g69
(g90
g71
NtRp2048
(dp2049
g74
(dp2050
g94
g95
ssg83
g2044
sg76
(lp2051
g1199
asbag69
(g90
g71
NtRp2052
(dp2053
g74
(dp2054
g101
g102
ssg83
g2044
sg76
(lp2055
S':'
asbag69
(g90
g71
NtRp2056
(dp2057
g74
(dp2058
sg83
g2044
sg76
(lp2059
g69
(g70
g71
NtRp2060
(dp2061
g74
(dp2062
g82
I4
ssg83
g2056
sg76
(lp2063
g112
asbasbasbag69
(g85
g71
NtRp2064
(dp2065
g74
(dp2066
sg83
g1873
sg76
(lp2067
g69
(g90
g71
NtRp2068
(dp2069
g74
(dp2070
g94
g95
ssg83
g2064
sg76
(lp2071
g1437
asbag69
(g90
g71
NtRp2072
(dp2073
g74
(dp2074
g101
g102
ssg83
g2064
sg76
(lp2075
S':'
asbag69
(g90
g71
NtRp2076
(dp2077
g74
(dp2078
sg83
g2064
sg76
(lp2079
g69
(g70
g71
NtRp2080
(dp2081
g74
(dp2082
g82
I4
ssg83
g2076
sg76
(lp2083
g1450
asbasbasbag69
(g85
g71
NtRp2084
(dp2085
g74
(dp2086
sg83
g1873
sg76
(lp2087
g69
(g90
g71
NtRp2088
(dp2089
g74
(dp2090
g94
g95
ssg83
g2084
sg76
(lp2091
g1480
asbag69
(g90
g71
NtRp2092
(dp2093
g74
(dp2094
g101
g102
ssg83
g2084
sg76
(lp2095
S':'
asbag69
(g90
g71
NtRp2096
(dp2097
g74
(dp2098
sg83
g2084
sg76
(lp2099
g69
(g70
g71
NtRp2100
(dp2101
g74
(dp2102
g82
I4
ssg83
g2096
sg76
(lp2103
g69
(g78
g71
NtRp2104
(dp2105
g74
(dp2106
g82
I3
ssg83
Nsg76
(lp2107
g69
(g85
g71
NtRp2108
(dp2109
g74
(dp2110
sg83
g2104
sg76
(lp2111
g69
(g90
g71
NtRp2112
(dp2113
g74
(dp2114
sg83
g2108
sg76
(lp2115
g69
(g70
g71
NtRp2116
(dp2117
g74
(dp2118
g82
I3
ssg83
g2112
sg76
(lp2119
S'1'
asbasbasbag69
(g85
g71
NtRp2120
(dp2121
g74
(dp2122
sg83
g2104
sg76
(lp2123
g69
(g90
g71
NtRp2124
(dp2125
g74
(dp2126
sg83
g2120
sg76
(lp2127
g69
(g70
g71
NtRp2128
(dp2129
g74
(dp2130
g82
I3
ssg83
g2124
sg76
(lp2131
S'99'
p2132
asbasbasbag69
(g85
g71
NtRp2133
(dp2134
g74
(dp2135
sg83
g2104
sg76
(lp2136
g69
(g90
g71
NtRp2137
(dp2138
g74
(dp2139
sg83
g2133
sg76
(lp2140
g69
(g70
g71
NtRp2141
(dp2142
g74
(dp2143
g82
I3
ssg83
g2137
sg76
(lp2144
S'7'
asbasbasbag69
(g85
g71
NtRp2145
(dp2146
g74
(dp2147
sg83
g2104
sg76
(lp2148
g69
(g90
g71
NtRp2149
(dp2150
g74
(dp2151
sg83
g2145
sg76
(lp2152
g69
(g70
g71
NtRp2153
(dp2154
g74
(dp2155
g82
I3
ssg83
g2149
sg76
(lp2156
S'datetime.datetime(2012, 3, 4, 22, 12, 8)'
p2157
asbasbasbag69
(g85
g71
NtRp2158
(dp2159
g74
(dp2160
sg83
g2104
sg76
(lp2161
g69
(g90
g71
NtRp2162
(dp2163
g74
(dp2164
sg83
g2158
sg76
(lp2165
g69
(g70
g71
NtRp2166
(dp2167
g74
(dp2168
g82
I3
ssg83
g2162
sg76
(lp2169
g1559
asbasbasbasbasbasbasbasbasbasbasbag69
(g85
g71
NtRp2170
(dp2171
g74
(dp2172
sg83
g79
sg76
(lp2173
g69
(g90
g71
NtRp2174
(dp2175
g74
(dp2176
g94
g95
ssg83
g2170
sg76
(lp2177
S'is_https'
p2178
asbag69
(g90
g71
NtRp2179
(dp2180
g74
(dp2181
g101
g102
ssg83
g2170
sg76
(lp2182
S':'
asbag69
(g90
g71
NtRp2183
(dp2184
g74
(dp2185
sg83
g2170
sg76
(lp2186
g69
(g70
g71
NtRp2187
(dp2188
g74
(dp2189
g82
I5
ssg83
g2183
sg76
(lp2190
g112
asbasbasbag69
(g85
g71
NtRp2191
(dp2192
g74
(dp2193
sg83
g79
sg76
(lp2194
g69
(g90
g71
NtRp2195
(dp2196
g74
(dp2197
g94
g95
ssg83
g2191
sg76
(lp2198
S'is_local'
p2199
asbag69
(g90
g71
NtRp2200
(dp2201
g74
(dp2202
g101
g102
ssg83
g2191
sg76
(lp2203
S':'
asbag69
(g90
g71
NtRp2204
(dp2205
g74
(dp2206
sg83
g2191
sg76
(lp2207
g69
(g70
g71
NtRp2208
(dp2209
g74
(dp2210
g82
I5
ssg83
g2204
sg76
(lp2211
g1668
asbasbasbag69
(g85
g71
NtRp2212
(dp2213
g74
(dp2214
sg83
g79
sg76
(lp2215
g69
(g90
g71
NtRp2216
(dp2217
g74
(dp2218
g94
g95
ssg83
g2212
sg76
(lp2219
S'is_restful'
p2220
asbag69
(g90
g71
NtRp2221
(dp2222
g74
(dp2223
g101
g102
ssg83
g2212
sg76
(lp2224
S':'
asbag69
(g90
g71
NtRp2225
(dp2226
g74
(dp2227
sg83
g2212
sg76
(lp2228
g69
(g70
g71
NtRp2229
(dp2230
g74
(dp2231
g82
I5
ssg83
g2225
sg76
(lp2232
g112
asbasbasbag69
(g85
g71
NtRp2233
(dp2234
g74
(dp2235
sg83
g79
sg76
(lp2236
g69
(g90
g71
NtRp2237
(dp2238
g74
(dp2239
g94
g95
ssg83
g2233
sg76
(lp2240
S'now'
p2241
asbag69
(g90
g71
NtRp2242
(dp2243
g74
(dp2244
g101
g102
ssg83
g2233
sg76
(lp2245
S':'
asbag69
(g90
g71
NtRp2246
(dp2247
g74
(dp2248
sg83
g2233
sg76
(lp2249
g69
(g70
g71
NtRp2250
(dp2251
g74
(dp2252
g82
I5
ssg83
g2246
sg76
(lp2253
S'datetime.datetime(2012, 11, 26, 12, 7, 11, 942719)'
p2254
asbasbasbag69
(g85
g71
NtRp2255
(dp2256
g74
(dp2257
sg83
g79
sg76
(lp2258
g69
(g90
g71
NtRp2259
(dp2260
g74
(dp2261
g94
g95
ssg83
g2255
sg76
(lp2262
S'post_vars'
p2263
asbag69
(g90
g71
NtRp2264
(dp2265
g74
(dp2266
g101
g102
ssg83
g2255
sg76
(lp2267
S':'
asbag69
(g90
g71
NtRp2268
(dp2269
g74
(dp2270
sg83
g2255
sg76
(lp2271
g69
(g70
g71
NtRp2272
(dp2273
g74
(dp2274
g82
I5
ssg83
g2268
sg76
(lp2275
g69
(g78
g71
NtRp2276
(dp2277
g74
(dp2278
g82
I4
ssg83
Nsg76
(lp2279
sbasbasbasbag69
(g85
g71
NtRp2280
(dp2281
g74
(dp2282
sg83
g79
sg76
(lp2283
g69
(g90
g71
NtRp2284
(dp2285
g74
(dp2286
g94
g95
ssg83
g2280
sg76
(lp2287
S'url'
p2288
asbag69
(g90
g71
NtRp2289
(dp2290
g74
(dp2291
g101
g102
ssg83
g2280
sg76
(lp2292
S':'
asbag69
(g90
g71
NtRp2293
(dp2294
g74
(dp2295
sg83
g2280
sg76
(lp2296
g69
(g70
g71
NtRp2297
(dp2298
g74
(dp2299
g82
I5
ssg83
g2293
sg76
(lp2300
S'/cite_mf/default/final_ans'
p2301
asbasbasbag69
(g85
g71
NtRp2302
(dp2303
g74
(dp2304
sg83
g79
sg76
(lp2305
g69
(g90
g71
NtRp2306
(dp2307
g74
(dp2308
g94
g95
ssg83
g2302
sg76
(lp2309
S'utcnow'
p2310
asbag69
(g90
g71
NtRp2311
(dp2312
g74
(dp2313
g101
g102
ssg83
g2302
sg76
(lp2314
S':'
asbag69
(g90
g71
NtRp2315
(dp2316
g74
(dp2317
sg83
g2302
sg76
(lp2318
g69
(g70
g71
NtRp2319
(dp2320
g74
(dp2321
g82
I5
ssg83
g2315
sg76
(lp2322
S'datetime.datetime(2012, 11, 26, 6, 37, 11, 942745)'
p2323
asbasbasbag69
(g85
g71
NtRp2324
(dp2325
g74
(dp2326
sg83
g79
sg76
(lp2327
g69
(g90
g71
NtRp2328
(dp2329
g74
(dp2330
g94
g95
ssg83
g2324
sg76
(lp2331
S'uuid'
p2332
asbag69
(g90
g71
NtRp2333
(dp2334
g74
(dp2335
g101
g102
ssg83
g2324
sg76
(lp2336
S':'
asbag69
(g90
g71
NtRp2337
(dp2338
g74
(dp2339
sg83
g2324
sg76
(lp2340
g69
(g70
g71
NtRp2341
(dp2342
g74
(dp2343
g82
I5
ssg83
g2337
sg76
(lp2344
S'cite_mf/127.0.0.1.2012-11-26.12-07-11.41a77e6f-316e-4e48-baaf-898dc73436de'
p2345
asbasbasbag69
(g85
g71
NtRp2346
(dp2347
g74
(dp2348
sg83
g79
sg76
(lp2349
g69
(g90
g71
NtRp2350
(dp2351
g74
(dp2352
g94
g95
ssg83
g2346
sg76
(lp2353
S'vars'
p2354
asbag69
(g90
g71
NtRp2355
(dp2356
g74
(dp2357
g101
g102
ssg83
g2346
sg76
(lp2358
S':'
asbag69
(g90
g71
NtRp2359
(dp2360
g74
(dp2361
sg83
g2346
sg76
(lp2362
g69
(g70
g71
NtRp2363
(dp2364
g74
(dp2365
g82
I5
ssg83
g2359
sg76
(lp2366
g69
(g78
g71
NtRp2367
(dp2368
g74
(dp2369
g82
I4
ssg83
Nsg76
(lp2370
sbasbasbasbag69
(g85
g71
NtRp2371
(dp2372
g74
(dp2373
sg83
g79
sg76
(lp2374
g69
(g90
g71
NtRp2375
(dp2376
g74
(dp2377
g94
g95
ssg83
g2371
sg76
(lp2378
S'wsgi'
p2379
asbag69
(g90
g71
NtRp2380
(dp2381
g74
(dp2382
g101
g102
ssg83
g2371
sg76
(lp2383
S':'
asbag69
(g90
g71
NtRp2384
(dp2385
g74
(dp2386
sg83
g2371
sg76
(lp2387
g69
(g70
g71
NtRp2388
(dp2389
g74
(dp2390
g82
I5
ssg83
g2384
sg76
(lp2391
g69
(g78
g71
NtRp2392
(dp2393
g74
(dp2394
g82
I4
ssg83
Nsg76
(lp2395
g69
(g85
g71
NtRp2396
(dp2397
g74
(dp2398
sg83
g2392
sg76
(lp2399
g69
(g90
g71
NtRp2400
(dp2401
g74
(dp2402
g94
g95
ssg83
g2396
sg76
(lp2403
S'environ'
p2404
asbag69
(g90
g71
NtRp2405
(dp2406
g74
(dp2407
g101
g102
ssg83
g2396
sg76
(lp2408
S':'
asbag69
(g90
g71
NtRp2409
(dp2410
g74
(dp2411
sg83
g2396
sg76
(lp2412
g69
(g70
g71
NtRp2413
(dp2414
g74
(dp2415
g82
I4
ssg83
g2409
sg76
(lp2416
g69
(g78
g71
NtRp2417
(dp2418
g74
(dp2419
g82
I3
ssg83
Nsg76
(lp2420
g69
(g85
g71
NtRp2421
(dp2422
g74
(dp2423
sg83
g2417
sg76
(lp2424
g69
(g90
g71
NtRp2425
(dp2426
g74
(dp2427
g94
g95
ssg83
g2421
sg76
(lp2428
S'HTTP_ACCEPT'
p2429
asbag69
(g90
g71
NtRp2430
(dp2431
g74
(dp2432
g101
g102
ssg83
g2421
sg76
(lp2433
S':'
asbag69
(g90
g71
NtRp2434
(dp2435
g74
(dp2436
sg83
g2421
sg76
(lp2437
g69
(g70
g71
NtRp2438
(dp2439
g74
(dp2440
g82
I3
ssg83
g2434
sg76
(lp2441
g1015
asbasbasbag69
(g85
g71
NtRp2442
(dp2443
g74
(dp2444
sg83
g2417
sg76
(lp2445
g69
(g90
g71
NtRp2446
(dp2447
g74
(dp2448
g94
g95
ssg83
g2442
sg76
(lp2449
S'HTTP_ACCEPT_ENCODING'
p2450
asbag69
(g90
g71
NtRp2451
(dp2452
g74
(dp2453
g101
g102
ssg83
g2442
sg76
(lp2454
S':'
asbag69
(g90
g71
NtRp2455
(dp2456
g74
(dp2457
sg83
g2442
sg76
(lp2458
g69
(g70
g71
NtRp2459
(dp2460
g74
(dp2461
g82
I3
ssg83
g2455
sg76
(lp2462
g1037
asbasbasbag69
(g85
g71
NtRp2463
(dp2464
g74
(dp2465
sg83
g2417
sg76
(lp2466
g69
(g90
g71
NtRp2467
(dp2468
g74
(dp2469
g94
g95
ssg83
g2463
sg76
(lp2470
S'HTTP_ACCEPT_LANGUAGE'
p2471
asbag69
(g90
g71
NtRp2472
(dp2473
g74
(dp2474
g101
g102
ssg83
g2463
sg76
(lp2475
S':'
asbag69
(g90
g71
NtRp2476
(dp2477
g74
(dp2478
sg83
g2463
sg76
(lp2479
g69
(g70
g71
NtRp2480
(dp2481
g74
(dp2482
g82
I3
ssg83
g2476
sg76
(lp2483
g1059
asbasbasbag69
(g85
g71
NtRp2484
(dp2485
g74
(dp2486
sg83
g2417
sg76
(lp2487
g69
(g90
g71
NtRp2488
(dp2489
g74
(dp2490
g94
g95
ssg83
g2484
sg76
(lp2491
S'HTTP_CONNECTION'
p2492
asbag69
(g90
g71
NtRp2493
(dp2494
g74
(dp2495
g101
g102
ssg83
g2484
sg76
(lp2496
S':'
asbag69
(g90
g71
NtRp2497
(dp2498
g74
(dp2499
sg83
g2484
sg76
(lp2500
g69
(g70
g71
NtRp2501
(dp2502
g74
(dp2503
g82
I3
ssg83
g2497
sg76
(lp2504
g1081
asbasbasbag69
(g85
g71
NtRp2505
(dp2506
g74
(dp2507
sg83
g2417
sg76
(lp2508
g69
(g90
g71
NtRp2509
(dp2510
g74
(dp2511
g94
g95
ssg83
g2505
sg76
(lp2512
S'HTTP_COOKIE'
p2513
asbag69
(g90
g71
NtRp2514
(dp2515
g74
(dp2516
g101
g102
ssg83
g2505
sg76
(lp2517
S':'
asbag69
(g90
g71
NtRp2518
(dp2519
g74
(dp2520
sg83
g2505
sg76
(lp2521
g69
(g70
g71
NtRp2522
(dp2523
g74
(dp2524
g82
I3
ssg83
g2518
sg76
(lp2525
g1103
asbasbasbag69
(g85
g71
NtRp2526
(dp2527
g74
(dp2528
sg83
g2417
sg76
(lp2529
g69
(g90
g71
NtRp2530
(dp2531
g74
(dp2532
g94
g95
ssg83
g2526
sg76
(lp2533
S'HTTP_HOST'
p2534
asbag69
(g90
g71
NtRp2535
(dp2536
g74
(dp2537
g101
g102
ssg83
g2526
sg76
(lp2538
S':'
asbag69
(g90
g71
NtRp2539
(dp2540
g74
(dp2541
sg83
g2526
sg76
(lp2542
g69
(g70
g71
NtRp2543
(dp2544
g74
(dp2545
g82
I3
ssg83
g2539
sg76
(lp2546
g1125
asbasbasbag69
(g85
g71
NtRp2547
(dp2548
g74
(dp2549
sg83
g2417
sg76
(lp2550
g69
(g90
g71
NtRp2551
(dp2552
g74
(dp2553
g94
g95
ssg83
g2547
sg76
(lp2554
S'HTTP_REFERER'
p2555
asbag69
(g90
g71
NtRp2556
(dp2557
g74
(dp2558
g101
g102
ssg83
g2547
sg76
(lp2559
S':'
asbag69
(g90
g71
NtRp2560
(dp2561
g74
(dp2562
sg83
g2547
sg76
(lp2563
g69
(g70
g71
NtRp2564
(dp2565
g74
(dp2566
g82
I3
ssg83
g2560
sg76
(lp2567
g1147
asbasbasbag69
(g85
g71
NtRp2568
(dp2569
g74
(dp2570
sg83
g2417
sg76
(lp2571
g69
(g90
g71
NtRp2572
(dp2573
g74
(dp2574
g94
g95
ssg83
g2568
sg76
(lp2575
S'HTTP_USER_AGENT'
p2576
asbag69
(g90
g71
NtRp2577
(dp2578
g74
(dp2579
g101
g102
ssg83
g2568
sg76
(lp2580
S':'
asbag69
(g90
g71
NtRp2581
(dp2582
g74
(dp2583
sg83
g2568
sg76
(lp2584
g69
(g70
g71
NtRp2585
(dp2586
g74
(dp2587
g82
I3
ssg83
g2581
sg76
(lp2588
g1169
asbasbasbag69
(g85
g71
NtRp2589
(dp2590
g74
(dp2591
sg83
g2417
sg76
(lp2592
g69
(g90
g71
NtRp2593
(dp2594
g74
(dp2595
g94
g95
ssg83
g2589
sg76
(lp2596
S'PATH_INFO'
p2597
asbag69
(g90
g71
NtRp2598
(dp2599
g74
(dp2600
g101
g102
ssg83
g2589
sg76
(lp2601
S':'
asbag69
(g90
g71
NtRp2602
(dp2603
g74
(dp2604
sg83
g2589
sg76
(lp2605
g69
(g70
g71
NtRp2606
(dp2607
g74
(dp2608
g82
I3
ssg83
g2602
sg76
(lp2609
g1233
asbasbasbag69
(g85
g71
NtRp2610
(dp2611
g74
(dp2612
sg83
g2417
sg76
(lp2613
g69
(g90
g71
NtRp2614
(dp2615
g74
(dp2616
g94
g95
ssg83
g2610
sg76
(lp2617
S'QUERY_STRING'
p2618
asbag69
(g90
g71
NtRp2619
(dp2620
g74
(dp2621
g101
g102
ssg83
g2610
sg76
(lp2622
S':'
asbag69
(g90
g71
NtRp2623
(dp2624
g74
(dp2625
sg83
g2610
sg76
(lp2626
g69
(g70
g71
NtRp2627
(dp2628
g74
(dp2629
g82
I3
ssg83
g2623
sg76
(lp2630
S''
asbasbasbag69
(g85
g71
NtRp2631
(dp2632
g74
(dp2633
sg83
g2417
sg76
(lp2634
g69
(g90
g71
NtRp2635
(dp2636
g74
(dp2637
g94
g95
ssg83
g2631
sg76
(lp2638
S'REMOTE_ADDR'
p2639
asbag69
(g90
g71
NtRp2640
(dp2641
g74
(dp2642
g101
g102
ssg83
g2631
sg76
(lp2643
S':'
asbag69
(g90
g71
NtRp2644
(dp2645
g74
(dp2646
sg83
g2631
sg76
(lp2647
g69
(g70
g71
NtRp2648
(dp2649
g74
(dp2650
g82
I3
ssg83
g2644
sg76
(lp2651
g202
asbasbasbag69
(g85
g71
NtRp2652
(dp2653
g74
(dp2654
sg83
g2417
sg76
(lp2655
g69
(g90
g71
NtRp2656
(dp2657
g74
(dp2658
g94
g95
ssg83
g2652
sg76
(lp2659
S'REMOTE_PORT'
p2660
asbag69
(g90
g71
NtRp2661
(dp2662
g74
(dp2663
g101
g102
ssg83
g2652
sg76
(lp2664
S':'
asbag69
(g90
g71
NtRp2665
(dp2666
g74
(dp2667
sg83
g2652
sg76
(lp2668
g69
(g70
g71
NtRp2669
(dp2670
g74
(dp2671
g82
I3
ssg83
g2665
sg76
(lp2672
g1297
asbasbasbag69
(g85
g71
NtRp2673
(dp2674
g74
(dp2675
sg83
g2417
sg76
(lp2676
g69
(g90
g71
NtRp2677
(dp2678
g74
(dp2679
g94
g95
ssg83
g2673
sg76
(lp2680
S'REQUEST_METHOD'
p2681
asbag69
(g90
g71
NtRp2682
(dp2683
g74
(dp2684
g101
g102
ssg83
g2673
sg76
(lp2685
S':'
asbag69
(g90
g71
NtRp2686
(dp2687
g74
(dp2688
sg83
g2673
sg76
(lp2689
g69
(g70
g71
NtRp2690
(dp2691
g74
(dp2692
g82
I3
ssg83
g2686
sg76
(lp2693
g1319
asbasbasbag69
(g85
g71
NtRp2694
(dp2695
g74
(dp2696
sg83
g2417
sg76
(lp2697
g69
(g90
g71
NtRp2698
(dp2699
g74
(dp2700
g94
g95
ssg83
g2694
sg76
(lp2701
S'SCRIPT_NAME'
p2702
asbag69
(g90
g71
NtRp2703
(dp2704
g74
(dp2705
g101
g102
ssg83
g2694
sg76
(lp2706
S':'
asbag69
(g90
g71
NtRp2707
(dp2708
g74
(dp2709
sg83
g2694
sg76
(lp2710
g69
(g70
g71
NtRp2711
(dp2712
g74
(dp2713
g82
I3
ssg83
g2707
sg76
(lp2714
S''
asbasbasbag69
(g85
g71
NtRp2715
(dp2716
g74
(dp2717
sg83
g2417
sg76
(lp2718
g69
(g90
g71
NtRp2719
(dp2720
g74
(dp2721
g94
g95
ssg83
g2715
sg76
(lp2722
S'SERVER_NAME'
p2723
asbag69
(g90
g71
NtRp2724
(dp2725
g74
(dp2726
g101
g102
ssg83
g2715
sg76
(lp2727
S':'
asbag69
(g90
g71
NtRp2728
(dp2729
g74
(dp2730
sg83
g2715
sg76
(lp2731
g69
(g70
g71
NtRp2732
(dp2733
g74
(dp2734
g82
I3
ssg83
g2728
sg76
(lp2735
g1362
asbasbasbag69
(g85
g71
NtRp2736
(dp2737
g74
(dp2738
sg83
g2417
sg76
(lp2739
g69
(g90
g71
NtRp2740
(dp2741
g74
(dp2742
g94
g95
ssg83
g2736
sg76
(lp2743
S'SERVER_PORT'
p2744
asbag69
(g90
g71
NtRp2745
(dp2746
g74
(dp2747
g101
g102
ssg83
g2736
sg76
(lp2748
S':'
asbag69
(g90
g71
NtRp2749
(dp2750
g74
(dp2751
sg83
g2736
sg76
(lp2752
g69
(g70
g71
NtRp2753
(dp2754
g74
(dp2755
g82
I3
ssg83
g2749
sg76
(lp2756
g1384
asbasbasbag69
(g85
g71
NtRp2757
(dp2758
g74
(dp2759
sg83
g2417
sg76
(lp2760
g69
(g90
g71
NtRp2761
(dp2762
g74
(dp2763
g94
g95
ssg83
g2757
sg76
(lp2764
S'SERVER_PROTOCOL'
p2765
asbag69
(g90
g71
NtRp2766
(dp2767
g74
(dp2768
g101
g102
ssg83
g2757
sg76
(lp2769
S':'
asbag69
(g90
g71
NtRp2770
(dp2771
g74
(dp2772
sg83
g2757
sg76
(lp2773
g69
(g70
g71
NtRp2774
(dp2775
g74
(dp2776
g82
I3
ssg83
g2770
sg76
(lp2777
g1406
asbasbasbag69
(g85
g71
NtRp2778
(dp2779
g74
(dp2780
sg83
g2417
sg76
(lp2781
g69
(g90
g71
NtRp2782
(dp2783
g74
(dp2784
g94
g95
ssg83
g2778
sg76
(lp2785
S'SERVER_SOFTWARE'
p2786
asbag69
(g90
g71
NtRp2787
(dp2788
g74
(dp2789
g101
g102
ssg83
g2778
sg76
(lp2790
S':'
asbag69
(g90
g71
NtRp2791
(dp2792
g74
(dp2793
sg83
g2778
sg76
(lp2794
g69
(g70
g71
NtRp2795
(dp2796
g74
(dp2797
g82
I3
ssg83
g2791
sg76
(lp2798
g1428
asbasbasbag69
(g85
g71
NtRp2799
(dp2800
g74
(dp2801
sg83
g2417
sg76
(lp2802
g69
(g90
g71
NtRp2803
(dp2804
g74
(dp2805
g94
g95
ssg83
g2799
sg76
(lp2806
S'wsgi.errors'
p2807
asbag69
(g90
g71
NtRp2808
(dp2809
g74
(dp2810
g101
g102
ssg83
g2799
sg76
(lp2811
S':'
asbag69
(g90
g71
NtRp2812
(dp2813
g74
(dp2814
sg83
g2799
sg76
(lp2815
g69
(g70
g71
NtRp2816
(dp2817
g74
(dp2818
g82
I3
ssg83
g2812
sg76
(lp2819
S"<open file '<stderr>', mode 'w' at 0x7fb61e138270>"
p2820
asbasbasbag69
(g85
g71
NtRp2821
(dp2822
g74
(dp2823
sg83
g2417
sg76
(lp2824
g69
(g90
g71
NtRp2825
(dp2826
g74
(dp2827
g94
g95
ssg83
g2821
sg76
(lp2828
S'wsgi.file_wrapper'
p2829
asbag69
(g90
g71
NtRp2830
(dp2831
g74
(dp2832
g101
g102
ssg83
g2821
sg76
(lp2833
S':'
asbag69
(g90
g71
NtRp2834
(dp2835
g74
(dp2836
sg83
g2821
sg76
(lp2837
g69
(g70
g71
NtRp2838
(dp2839
g74
(dp2840
g82
I3
ssg83
g2834
sg76
(lp2841
S'<class wsgiref.util.FileWrapper at 0x2eedef0>'
p2842
asbasbasbag69
(g85
g71
NtRp2843
(dp2844
g74
(dp2845
sg83
g2417
sg76
(lp2846
g69
(g90
g71
NtRp2847
(dp2848
g74
(dp2849
g94
g95
ssg83
g2843
sg76
(lp2850
S'wsgi.input'
p2851
asbag69
(g90
g71
NtRp2852
(dp2853
g74
(dp2854
g101
g102
ssg83
g2843
sg76
(lp2855
S':'
asbag69
(g90
g71
NtRp2856
(dp2857
g74
(dp2858
sg83
g2843
sg76
(lp2859
g69
(g70
g71
NtRp2860
(dp2861
g74
(dp2862
g82
I3
ssg83
g2856
sg76
(lp2863
S'<cStringIO.StringO object at 0x7fb5f016f3b0>'
p2864
asbasbasbag69
(g85
g71
NtRp2865
(dp2866
g74
(dp2867
sg83
g2417
sg76
(lp2868
g69
(g90
g71
NtRp2869
(dp2870
g74
(dp2871
g94
g95
ssg83
g2865
sg76
(lp2872
S'wsgi.multiprocess'
p2873
asbag69
(g90
g71
NtRp2874
(dp2875
g74
(dp2876
g101
g102
ssg83
g2865
sg76
(lp2877
S':'
asbag69
(g90
g71
NtRp2878
(dp2879
g74
(dp2880
sg83
g2865
sg76
(lp2881
g69
(g70
g71
NtRp2882
(dp2883
g74
(dp2884
g82
I3
ssg83
g2878
sg76
(lp2885
g112
asbasbasbag69
(g85
g71
NtRp2886
(dp2887
g74
(dp2888
sg83
g2417
sg76
(lp2889
g69
(g90
g71
NtRp2890
(dp2891
g74
(dp2892
g94
g95
ssg83
g2886
sg76
(lp2893
S'wsgi.multithread'
p2894
asbag69
(g90
g71
NtRp2895
(dp2896
g74
(dp2897
g101
g102
ssg83
g2886
sg76
(lp2898
S':'
asbag69
(g90
g71
NtRp2899
(dp2900
g74
(dp2901
sg83
g2886
sg76
(lp2902
g69
(g70
g71
NtRp2903
(dp2904
g74
(dp2905
g82
I3
ssg83
g2899
sg76
(lp2906
g1668
asbasbasbag69
(g85
g71
NtRp2907
(dp2908
g74
(dp2909
sg83
g2417
sg76
(lp2910
g69
(g90
g71
NtRp2911
(dp2912
g74
(dp2913
g94
g95
ssg83
g2907
sg76
(lp2914
S'wsgi.run_once'
p2915
asbag69
(g90
g71
NtRp2916
(dp2917
g74
(dp2918
g101
g102
ssg83
g2907
sg76
(lp2919
S':'
asbag69
(g90
g71
NtRp2920
(dp2921
g74
(dp2922
sg83
g2907
sg76
(lp2923
g69
(g70
g71
NtRp2924
(dp2925
g74
(dp2926
g82
I3
ssg83
g2920
sg76
(lp2927
g112
asbasbasbag69
(g85
g71
NtRp2928
(dp2929
g74
(dp2930
sg83
g2417
sg76
(lp2931
g69
(g90
g71
NtRp2932
(dp2933
g74
(dp2934
g94
g95
ssg83
g2928
sg76
(lp2935
S'wsgi.url_scheme'
p2936
asbag69
(g90
g71
NtRp2937
(dp2938
g74
(dp2939
g101
g102
ssg83
g2928
sg76
(lp2940
S':'
asbag69
(g90
g71
NtRp2941
(dp2942
g74
(dp2943
sg83
g2928
sg76
(lp2944
g69
(g70
g71
NtRp2945
(dp2946
g74
(dp2947
g82
I3
ssg83
g2941
sg76
(lp2948
g1711
asbasbasbag69
(g85
g71
NtRp2949
(dp2950
g74
(dp2951
sg83
g2417
sg76
(lp2952
g69
(g90
g71
NtRp2953
(dp2954
g74
(dp2955
g94
g95
ssg83
g2949
sg76
(lp2956
S'wsgi.version'
p2957
asbag69
(g90
g71
NtRp2958
(dp2959
g74
(dp2960
g101
g102
ssg83
g2949
sg76
(lp2961
S':'
asbag69
(g90
g71
NtRp2962
(dp2963
g74
(dp2964
sg83
g2949
sg76
(lp2965
g69
(g70
g71
NtRp2966
(dp2967
g74
(dp2968
g82
I3
ssg83
g2962
sg76
(lp2969
S'1'
asbasbasbasbasbasbasbasbasbasbasbasbasbsS'frames'
p2970
(lp2971
(dp2972
S'file'
p2973
S'/home/maneesha/Downloads/web2py/gluon/restricted.py'
p2974
sS'dump'
p2975
(dp2976
S'environment'
p2977
S"{'A': <class 'gluon.html.A'>, 'Auth': <class 'gluon.tools.Auth'>, 'B': <class 'gluon.html.B'>, 'BEAUTIFY': <class 'gluon.html.BEAUTIFY'>, 'BODY': <class 'gluon.html.BODY'>, 'BR': <class 'gluon.html.BR'>, 'BUTTON': <class 'gluon.html.BUTTON'>, 'CAT': <class 'gluon.html.CAT'>, 'CENTER': <class 'gluon.html.CENTER'>, 'CLEANUP': <class 'gluon.validators.CLEANUP'>, ...}"
p2978
sS'ccode'
p2979
S'<code object <module> at 0x7fb5f0832c30, file "/...ications/cite_mf/controllers/default.py", line 3>'
p2980
ssS'lnum'
p2981
I205
sS'lines'
p2982
(dp2983
I200
S'    try:'
p2984
sI201
S'        if type(code) == types.CodeType:'
p2985
sI202
S'            ccode = code'
p2986
sI203
S'        else:'
p2987
sI204
S'            ccode = compile2(code,layer)'
p2988
sI205
S'        exec ccode in environment'
p2989
sI206
S'    except HTTP:'
p2990
sI207
S'        raise'
p2991
sI208
S'    except RestrictedError:'
p2992
sI209
S'        # do not encapsulate (obfuscate) the original RestrictedError'
p2993
ssS'call'
p2994
S"(code='# -*- coding: utf-8 -*-\\n### required - do no del...ss1)\\n\\nresponse._vars=response._caller(final_ans)\\n', environment={'A': <class 'gluon.html.A'>, 'Auth': <class 'gluon.tools.Auth'>, 'B': <class 'gluon.html.B'>, 'BEAUTIFY': <class 'gluon.html.BEAUTIFY'>, 'BODY': <class 'gluon.html.BODY'>, 'BR': <class 'gluon.html.BR'>, 'BUTTON': <class 'gluon.html.BUTTON'>, 'CAT': <class 'gluon.html.CAT'>, 'CENTER': <class 'gluon.html.CENTER'>, 'CLEANUP': <class 'gluon.validators.CLEANUP'>, ...}, layer='/home/maneesha/Downloads/web2py/applications/cite_mf/controllers/default.py')"
p2995
sS'func'
p2996
S'restricted'
p2997
sa(dp2998
g2973
S'/home/maneesha/Downloads/web2py/applications/cite_mf/controllers/default.py'
p2999
sg2975
(dp3000
sg2981
I205
sg2982
(dp3001
I194
S'        d=d.replace("</par>","")'
p3002
sI195
S'    return d            #returns the filtered text'
p3003
sI196
S'def abstract1():'
p3004
sI197
S'    abss=request.args[0]'
p3005
sI198
S'    pre=""'
p3006
sI199
S'    while pre!=abss:'
p3007
sI200
S'        pre=abss'
p3008
sI201
S'        abss=abss.replace("_"," ")'
p3009
sI202
S'    abss1=abss.split(".")'
p3010
sI203
S'    return dict(abss1=abss1)'
p3011
ssg2994
S'()'
p3012
sg2996
S'<module>'
p3013
sa(dp3014
g2973
S'/home/maneesha/Downloads/web2py/gluon/globals.py'
p3015
sg2975
(dp3016
S'self'
p3017
S'undefined'
p3018
sS'f'
S'<function final_ans>'
p3019
ssg2981
I173
sg2982
(dp3020
I168
S'        self.menu = []             # used by the default view layout'
p3021
sI169
S'        self.files = []            # used by web2py_ajax.html'
p3022
sI170
S'        self.generic_patterns = [] # patterns to allow generic views'
p3023
sI171
S"        self.delimiters = ('{{','}}')"
p3024
sI172
S'        self._vars = None'
p3025
sI173
S'        self._caller = lambda f: f()'
p3026
sI174
S'        self._view_environment = None'
p3027
sI175
S'        self._custom_commit = None'
p3028
sI176
S'        self._custom_rollback = None'
p3029
sI177
S''
ssg2994
S'(f=<function final_ans>)'
p3030
sg2996
S'<lambda>'
p3031
sa(dp3032
g2973
S'/home/maneesha/Downloads/web2py/applications/cite_mf/controllers/default.py'
p3033
sg2975
(dp3034
S'global extract1'
p3035
S'<function extract1>'
p3036
sS'url'
p3037
S"'http://dl.acm.org/results.cfm?h=1&query=database+design'"
p3038
sS'l1'
p3039
S"['database design', 1, 2, False, True, True]"
p3040
sS'fst_l'
p3041
S'[]'
p3042
ssg2981
I64
sg2982
(dp3043
I64
S'    fst_l=extract1(url,l1)     #extracts the urls of query results and stores it in a list fst_l'
p3044
sI65
S'    rec(fst_l,l1,bigans)  #this function recursively fetches the required information and stores every result in list bigans.'
p3045
sI66
S'    au=db(auth.user.username==db.auth_user.username).select().first()'
p3046
sI67
S'    email=au.email       #email of user who is logged in is extracted.'
p3047
sI68
S'    return dict(bigans=bigans,level=l1[1],top=l1[2],ret1=ret1,email=email)'
p3048
sI59
S'    bigans=[] #stores the final output in a list'
p3049
sI60
S'    l1=u_filter() #extracting the user input in a list'
p3050
sI61
S'    url="http://dl.acm.org/results.cfm?h=1&query="+\'+\'.join(l1[0].split()) #forming the url'
p3051
sI62
S'    fst_l=[]'
p3052
sI63
S'    ret1=[]'
p3053
ssg2994
S'()'
p3054
sg2996
S'final_ans'
p3055
sa(dp3056
g2973
S'/home/maneesha/Downloads/web2py/applications/cite_mf/controllers/default.py'
p3057
sg2975
(dp3058
S'url'
p3059
S"'http://dl.acm.org/results.cfm?h=1&query=database+design'"
p3060
sS'html'
p3061
g3018
sS'global fetch'
p3062
S'<function fetch>'
p3063
ssg2981
I28
sg2982
(dp3064
I32
S"    k=html_splitted[0].split('>')"
p3065
sI23
S"        response.flash = 'Login successful'"
p3066
sI24
S"        redirect(URL('final_ans'))"
p3067
sI25
S'    return dict(form=form)'
p3068
sI26
S'def extract1(url,l1): #extracts the top_result urls from the first page'
p3069
sI27
S'    ret=[]'
p3070
sI28
S'    html=fetch(url) #fetches the html page of the given url ans stores it in a string html'
p3071
sI29
S'    html_splitted=html.split("<A HREF=\\"citation.cfm") #splitting the fetched string'
p3072
sI30
S'    ht=html_splitted[0]'
p3073
sI31
S'    del html_splitted[0]'
p3074
ssg2994
S"(url='http://dl.acm.org/results.cfm?h=1&query=database+design', l1=['database design', 1, 2, False, True, True])"
p3075
sg2996
S'extract1'
p3076
sa(dp3077
g2973
S'/home/maneesha/Downloads/web2py/gluon/tools.py'
p3078
sg2975
(dp3079
S'urllib2.urlopen'
p3080
S'<function urlopen>'
p3081
sS'global urllib2'
p3082
S"<module 'urllib2' from '/usr/lib/python2.7/urllib2.pyc'>"
p3083
sS'html'
p3084
g3018
sS'req'
p3085
S'<urllib2.Request instance>'
p3086
sS').read'
p3087
g3018
ssg2981
I3424
sg2982
(dp3088
I3424
S'        html = urllib2.urlopen(req).read()'
p3089
sI3425
S'    else:'
p3090
sI3426
S'        method = ((data is None) and urlfetch.GET) or urlfetch.POST'
p3091
sI3427
S'        while url is not None:'
p3092
sI3428
S'            response = urlfetch.fetch(url=url, payload=data,'
p3093
sI3419
S"    headers['Cookie'] = ' '.join(['%s=%s;'%(c.key,c.value) for c in cookie.values()])"
p3094
sI3420
S'    try:'
p3095
sI3421
S'        from google.appengine.api import urlfetch'
p3096
sI3422
S'    except ImportError:'
p3097
sI3423
S'        req = urllib2.Request(url, data, headers)'
p3098
ssg2994
S"(url='http://dl.acm.org/results.cfm?h=1&query=database+design', data=None, headers={'Cookie': '', 'User-agent': 'Mozilla/5.0'}, cookie=<SimpleCookie: >, user_agent='Mozilla/5.0')"
p3099
sg2996
S'fetch'
p3100
sa(dp3101
g2973
S'/usr/lib/python2.7/urllib2.py'
p3102
sg2975
(dp3103
S'_opener.open'
p3104
S'<bound method OpenerDirector.open of <urllib2.OpenerDirector instance>>'
p3105
sS'url'
p3106
S'<urllib2.Request instance>'
p3107
sS'data'
p3108
S'None'
p3109
sS'global _opener'
p3110
S'<urllib2.OpenerDirector instance>'
p3111
sS'timeout'
p3112
S'<object object>'
p3113
ssg2981
I126
sg2982
(dp3114
I128
S'def install_opener(opener):'
p3115
sI129
S'    global _opener'
p3116
sI130
S'    _opener = opener'
p3117
sI121
S'_opener = None'
p3118
sI122
S'def urlopen(url, data=None, timeout=socket._GLOBAL_DEFAULT_TIMEOUT):'
p3119
sI123
S'    global _opener'
p3120
sI124
S'    if _opener is None:'
p3121
sI125
S'        _opener = build_opener()'
p3122
sI126
S'    return _opener.open(url, data, timeout)'
p3123
sI127
S''
ssg2994
S'(url=<urllib2.Request instance>, data=None, timeout=<object object>)'
p3124
sg2996
S'urlopen'
p3125
sa(dp3126
g2973
S'/usr/lib/python2.7/urllib2.py'
p3127
sg2975
(dp3128
S'self'
p3129
S'<urllib2.OpenerDirector instance>'
p3130
sS'req'
p3131
S'<urllib2.Request instance>'
p3132
sS'data'
p3133
S'None'
p3134
sS'response'
p3135
g3018
sS'self._open'
p3136
S'<bound method OpenerDirector._open of <urllib2.OpenerDirector instance>>'
p3137
ssg2981
I400
sg2982
(dp3138
I395
S'        meth_name = protocol+"_request"'
p3139
sI396
S'        for processor in self.process_request.get(protocol, []):'
p3140
sI397
S'            meth = getattr(processor, meth_name)'
p3141
sI398
S'            req = meth(req)'
p3142
sI399
S''
sI400
S'        response = self._open(req, data)'
p3143
sI401
S''
sI402
S'        # post-process response'
p3144
sI403
S'        meth_name = protocol+"_response"'
p3145
sI404
S'        for processor in self.process_response.get(protocol, []):'
p3146
ssg2994
S'(self=<urllib2.OpenerDirector instance>, fullurl=<urllib2.Request instance>, data=None, timeout=<object object>)'
p3147
sg2996
S'open'
p3148
sa(dp3149
g2973
S'/usr/lib/python2.7/urllib2.py'
p3150
sg2975
(dp3151
S'req'
p3152
S'<urllib2.Request instance>'
p3153
ssg2981
I418
sg2982
(dp3154
I416
S'        protocol = req.get_type()'
p3155
sI417
S'        result = self._call_chain(self.handle_open, protocol, protocol +'
p3156
sI418
S"                                  '_open', req)"
p3157
sI419
S'        if result:'
p3158
sI420
S'            return result'
p3159
sI421
S''
sI422
S"        return self._call_chain(self.handle_open, 'unknown',"
p3160
sI413
S'        if result:'
p3161
sI414
S'            return result'
p3162
sI415
S''
ssg2994
S'(self=<urllib2.OpenerDirector instance>, req=<urllib2.Request instance>, data=None)'
p3163
sg2996
S'_open'
p3164
sa(dp3165
g2973
S'/usr/lib/python2.7/urllib2.py'
p3166
sg2975
(dp3167
S'args'
p3168
S'(<urllib2.Request instance>,)'
p3169
sS'result'
p3170
S'None'
p3171
sS'func'
p3172
S'<bound method HTTPHandler.http_open of <urllib2.HTTPHandler instance>>'
p3173
ssg2981
I378
sg2982
(dp3174
I373
S'        # could.  Otherwise, they return the response.'
p3175
sI374
S'        handlers = chain.get(kind, ())'
p3176
sI375
S'        for handler in handlers:'
p3177
sI376
S'            func = getattr(handler, meth_name)'
p3178
sI377
S''
sI378
S'            result = func(*args)'
p3179
sI379
S'            if result is not None:'
p3180
sI380
S'                return result'
p3181
sI381
S''
sI382
S'    def open(self, fullurl, data=None, timeout=socket._GLOBAL_DEFAULT_TIMEOUT):'
p3182
ssg2994
S"(self=<urllib2.OpenerDirector instance>, chain={'all': [<urllib2.ProxyHandler instance>], 'file': [<urllib2.FileHandler instance>], 'ftp': [<urllib2.ProxyHandler instance>, <urllib2.FTPHandler instance>], 'http': [<urllib2.ProxyHandler instance>, <urllib2.HTTPHandler instance>], 'https': [<urllib2.ProxyHandler instance>, <urllib2.HTTPSHandler instance>], 'no': [<urllib2.ProxyHandler instance>], 'socks': [<urllib2.ProxyHandler instance>], 'unknown': [<urllib2.UnknownHandler instance>]}, kind='http', meth_name='http_open', *args=(<urllib2.Request instance>,))"
p3183
sg2996
S'_call_chain'
p3184
sa(dp3185
g2973
S'/usr/lib/python2.7/urllib2.py'
p3186
sg2975
(dp3187
S'self'
p3188
S'<urllib2.HTTPHandler instance>'
p3189
sS'req'
p3190
S'<urllib2.Request instance>'
p3191
sS'global httplib'
p3192
S"<module 'httplib' from '/usr/lib/python2.7/httplib.pyc'>"
p3193
sS'self.do_open'
p3194
S'<bound method HTTPHandler.do_open of <urllib2.HTTPHandler instance>>'
p3195
sS'httplib.HTTPConnection'
p3196
S'<class httplib.HTTPConnection>'
p3197
ssg2981
I1207
sg2982
(dp3198
I1202
S''
sI1203
S''
sI1204
S'class HTTPHandler(AbstractHTTPHandler):'
p3199
sI1205
S''
sI1206
S'    def http_open(self, req):'
p3200
sI1207
S'        return self.do_open(httplib.HTTPConnection, req)'
p3201
sI1208
S''
sI1209
S'    http_request = AbstractHTTPHandler.do_request_'
p3202
sI1210
S''
sI1211
S"if hasattr(httplib, 'HTTPS'):"
p3203
ssg2994
S'(self=<urllib2.HTTPHandler instance>, req=<urllib2.Request instance>)'
p3204
sg2996
S'http_open'
p3205
sa(dp3206
g2973
S'/usr/lib/python2.7/urllib2.py'
p3207
sg2975
(dp3208
S'err'
p3209
S"gaierror(-2, 'Name or service not known')"
p3210
sS'global URLError'
p3211
S"<class 'urllib2.URLError'>"
p3212
ssg2981
I1177
sg2982
(dp3213
I1172
S''
sI1173
S'        try:'
p3214
sI1174
S'            h.request(req.get_method(), req.get_selector(), req.data, headers)'
p3215
sI1175
S'        except socket.error, err: # XXX what error?'
p3216
sI1176
S'            h.close()'
p3217
sI1177
S'            raise URLError(err)'
p3218
sI1178
S'        else:'
p3219
sI1179
S'            try:'
p3220
sI1180
S'                r = h.getresponse(buffering=True)'
p3221
sI1181
S'            except TypeError: # buffering kw not supported'
p3222
ssg2994
S'(self=<urllib2.HTTPHandler instance>, http_class=<class httplib.HTTPConnection>, req=<urllib2.Request instance>)'
p3223
sg2996
S'do_open'
p3224
sasS'pyver'
p3225
S'Python 2.7.3: /usr/bin/python'
p3226
sS'session'
p3227
g69
(g70
g71
NtRp3228
(dp3229
g74
(dp3230
sg76
(lp3231
g69
(g78
g71
NtRp3232
(dp3233
g74
(dp3234
g82
I5
ssg83
Nsg76
(lp3235
g69
(g85
g71
NtRp3236
(dp3237
g74
(dp3238
sg83
g3232
sg76
(lp3239
g69
(g90
g71
NtRp3240
(dp3241
g74
(dp3242
g94
g95
ssg83
g3236
sg76
(lp3243
S'auth'
p3244
asbag69
(g90
g71
NtRp3245
(dp3246
g74
(dp3247
g101
g102
ssg83
g3236
sg76
(lp3248
S':'
asbag69
(g90
g71
NtRp3249
(dp3250
g74
(dp3251
sg83
g3236
sg76
(lp3252
g69
(g70
g71
NtRp3253
(dp3254
g74
(dp3255
g82
I5
ssg83
g3249
sg76
(lp3256
g69
(g78
g71
NtRp3257
(dp3258
g74
(dp3259
g82
I4
ssg83
Nsg76
(lp3260
g69
(g85
g71
NtRp3261
(dp3262
g74
(dp3263
sg83
g3257
sg76
(lp3264
g69
(g90
g71
NtRp3265
(dp3266
g74
(dp3267
g94
g95
ssg83
g3261
sg76
(lp3268
S'expiration'
p3269
asbag69
(g90
g71
NtRp3270
(dp3271
g74
(dp3272
g101
g102
ssg83
g3261
sg76
(lp3273
S':'
asbag69
(g90
g71
NtRp3274
(dp3275
g74
(dp3276
sg83
g3261
sg76
(lp3277
g69
(g70
g71
NtRp3278
(dp3279
g74
(dp3280
g82
I4
ssg83
g3274
sg76
(lp3281
S'3600'
p3282
asbasbasbag69
(g85
g71
NtRp3283
(dp3284
g74
(dp3285
sg83
g3257
sg76
(lp3286
g69
(g90
g71
NtRp3287
(dp3288
g74
(dp3289
g94
g95
ssg83
g3283
sg76
(lp3290
S'hmac_key'
p3291
asbag69
(g90
g71
NtRp3292
(dp3293
g74
(dp3294
g101
g102
ssg83
g3283
sg76
(lp3295
S':'
asbag69
(g90
g71
NtRp3296
(dp3297
g74
(dp3298
sg83
g3283
sg76
(lp3299
g69
(g70
g71
NtRp3300
(dp3301
g74
(dp3302
g82
I4
ssg83
g3296
sg76
(lp3303
S'8de5c13a-bc2c-4261-aa19-1e01433ff30d'
p3304
asbasbasbag69
(g85
g71
NtRp3305
(dp3306
g74
(dp3307
sg83
g3257
sg76
(lp3308
g69
(g90
g71
NtRp3309
(dp3310
g74
(dp3311
g94
g95
ssg83
g3305
sg76
(lp3312
S'last_visit'
p3313
asbag69
(g90
g71
NtRp3314
(dp3315
g74
(dp3316
g101
g102
ssg83
g3305
sg76
(lp3317
S':'
asbag69
(g90
g71
NtRp3318
(dp3319
g74
(dp3320
sg83
g3305
sg76
(lp3321
g69
(g70
g71
NtRp3322
(dp3323
g74
(dp3324
g82
I4
ssg83
g3318
sg76
(lp3325
S'datetime.datetime(2012, 11, 26, 12, 6, 50, 288611)'
p3326
asbasbasbag69
(g85
g71
NtRp3327
(dp3328
g74
(dp3329
sg83
g3257
sg76
(lp3330
g69
(g90
g71
NtRp3331
(dp3332
g74
(dp3333
g94
g95
ssg83
g3327
sg76
(lp3334
S'remember'
p3335
asbag69
(g90
g71
NtRp3336
(dp3337
g74
(dp3338
g101
g102
ssg83
g3327
sg76
(lp3339
S':'
asbag69
(g90
g71
NtRp3340
(dp3341
g74
(dp3342
sg83
g3327
sg76
(lp3343
g69
(g70
g71
NtRp3344
(dp3345
g74
(dp3346
g82
I4
ssg83
g3340
sg76
(lp3347
g112
asbasbasbag69
(g85
g71
NtRp3348
(dp3349
g74
(dp3350
sg83
g3257
sg76
(lp3351
g69
(g90
g71
NtRp3352
(dp3353
g74
(dp3354
g94
g95
ssg83
g3348
sg76
(lp3355
S'user'
p3356
asbag69
(g90
g71
NtRp3357
(dp3358
g74
(dp3359
g101
g102
ssg83
g3348
sg76
(lp3360
S':'
asbag69
(g90
g71
NtRp3361
(dp3362
g74
(dp3363
sg83
g3348
sg76
(lp3364
g69
(g70
g71
NtRp3365
(dp3366
g74
(dp3367
g82
I4
ssg83
g3361
sg76
(lp3368
g69
(g78
g71
NtRp3369
(dp3370
g74
(dp3371
g82
I3
ssg83
Nsg76
(lp3372
g69
(g85
g71
NtRp3373
(dp3374
g74
(dp3375
sg83
g3369
sg76
(lp3376
g69
(g90
g71
NtRp3377
(dp3378
g74
(dp3379
g94
g95
ssg83
g3373
sg76
(lp3380
S'created_on'
p3381
asbag69
(g90
g71
NtRp3382
(dp3383
g74
(dp3384
g101
g102
ssg83
g3373
sg76
(lp3385
S':'
asbag69
(g90
g71
NtRp3386
(dp3387
g74
(dp3388
sg83
g3373
sg76
(lp3389
g69
(g70
g71
NtRp3390
(dp3391
g74
(dp3392
g82
I3
ssg83
g3386
sg76
(lp3393
S'datetime.datetime(2012, 10, 23, 2, 28, 41)'
p3394
asbasbasbag69
(g85
g71
NtRp3395
(dp3396
g74
(dp3397
sg83
g3369
sg76
(lp3398
g69
(g90
g71
NtRp3399
(dp3400
g74
(dp3401
g94
g95
ssg83
g3395
sg76
(lp3402
S'email'
p3403
asbag69
(g90
g71
NtRp3404
(dp3405
g74
(dp3406
g101
g102
ssg83
g3395
sg76
(lp3407
S':'
asbag69
(g90
g71
NtRp3408
(dp3409
g74
(dp3410
sg83
g3395
sg76
(lp3411
g69
(g70
g71
NtRp3412
(dp3413
g74
(dp3414
g82
I3
ssg83
g3408
sg76
(lp3415
S'chitra.khatwani@students.iiit.ac.in'
p3416
asbasbasbag69
(g85
g71
NtRp3417
(dp3418
g74
(dp3419
sg83
g3369
sg76
(lp3420
g69
(g90
g71
NtRp3421
(dp3422
g74
(dp3423
g94
g95
ssg83
g3417
sg76
(lp3424
S'first_name'
p3425
asbag69
(g90
g71
NtRp3426
(dp3427
g74
(dp3428
g101
g102
ssg83
g3417
sg76
(lp3429
S':'
asbag69
(g90
g71
NtRp3430
(dp3431
g74
(dp3432
sg83
g3417
sg76
(lp3433
g69
(g70
g71
NtRp3434
(dp3435
g74
(dp3436
g82
I3
ssg83
g3430
sg76
(lp3437
S'manu'
p3438
asbasbasbag69
(g85
g71
NtRp3439
(dp3440
g74
(dp3441
sg83
g3369
sg76
(lp3442
g69
(g90
g71
NtRp3443
(dp3444
g74
(dp3445
g94
g95
ssg83
g3439
sg76
(lp3446
S'id'
p3447
asbag69
(g90
g71
NtRp3448
(dp3449
g74
(dp3450
g101
g102
ssg83
g3439
sg76
(lp3451
S':'
asbag69
(g90
g71
NtRp3452
(dp3453
g74
(dp3454
sg83
g3439
sg76
(lp3455
g69
(g70
g71
NtRp3456
(dp3457
g74
(dp3458
g82
I3
ssg83
g3452
sg76
(lp3459
S'11'
p3460
asbasbasbag69
(g85
g71
NtRp3461
(dp3462
g74
(dp3463
sg83
g3369
sg76
(lp3464
g69
(g90
g71
NtRp3465
(dp3466
g74
(dp3467
g94
g95
ssg83
g3461
sg76
(lp3468
S'last_name'
p3469
asbag69
(g90
g71
NtRp3470
(dp3471
g74
(dp3472
g101
g102
ssg83
g3461
sg76
(lp3473
S':'
asbag69
(g90
g71
NtRp3474
(dp3475
g74
(dp3476
sg83
g3461
sg76
(lp3477
g69
(g70
g71
NtRp3478
(dp3479
g74
(dp3480
g82
I3
ssg83
g3474
sg76
(lp3481
S'p'
asbasbasbag69
(g85
g71
NtRp3482
(dp3483
g74
(dp3484
sg83
g3369
sg76
(lp3485
g69
(g90
g71
NtRp3486
(dp3487
g74
(dp3488
g94
g95
ssg83
g3482
sg76
(lp3489
S'modified_on'
p3490
asbag69
(g90
g71
NtRp3491
(dp3492
g74
(dp3493
g101
g102
ssg83
g3482
sg76
(lp3494
S':'
asbag69
(g90
g71
NtRp3495
(dp3496
g74
(dp3497
sg83
g3482
sg76
(lp3498
g69
(g70
g71
NtRp3499
(dp3500
g74
(dp3501
g82
I3
ssg83
g3495
sg76
(lp3502
S'datetime.datetime(2012, 11, 15, 21, 54, 14)'
p3503
asbasbasbag69
(g85
g71
NtRp3504
(dp3505
g74
(dp3506
sg83
g3369
sg76
(lp3507
g69
(g90
g71
NtRp3508
(dp3509
g74
(dp3510
g94
g95
ssg83
g3504
sg76
(lp3511
S'password'
p3512
asbag69
(g90
g71
NtRp3513
(dp3514
g74
(dp3515
g101
g102
ssg83
g3504
sg76
(lp3516
S':'
asbag69
(g90
g71
NtRp3517
(dp3518
g74
(dp3519
sg83
g3504
sg76
(lp3520
g69
(g70
g71
NtRp3521
(dp3522
g74
(dp3523
g82
I3
ssg83
g3517
sg76
(lp3524
S'32371e3190f8e63e16755b2e6bf663a2'
p3525
asbasbasbag69
(g85
g71
NtRp3526
(dp3527
g74
(dp3528
sg83
g3369
sg76
(lp3529
g69
(g90
g71
NtRp3530
(dp3531
g74
(dp3532
g94
g95
ssg83
g3526
sg76
(lp3533
S'registration_id'
p3534
asbag69
(g90
g71
NtRp3535
(dp3536
g74
(dp3537
g101
g102
ssg83
g3526
sg76
(lp3538
S':'
asbag69
(g90
g71
NtRp3539
(dp3540
g74
(dp3541
sg83
g3526
sg76
(lp3542
g69
(g70
g71
NtRp3543
(dp3544
g74
(dp3545
g82
I3
ssg83
g3539
sg76
(lp3546
S''
asbasbasbag69
(g85
g71
NtRp3547
(dp3548
g74
(dp3549
sg83
g3369
sg76
(lp3550
g69
(g90
g71
NtRp3551
(dp3552
g74
(dp3553
g94
g95
ssg83
g3547
sg76
(lp3554
S'registration_key'
p3555
asbag69
(g90
g71
NtRp3556
(dp3557
g74
(dp3558
g101
g102
ssg83
g3547
sg76
(lp3559
S':'
asbag69
(g90
g71
NtRp3560
(dp3561
g74
(dp3562
sg83
g3547
sg76
(lp3563
g69
(g70
g71
NtRp3564
(dp3565
g74
(dp3566
g82
I3
ssg83
g3560
sg76
(lp3567
S''
asbasbasbag69
(g85
g71
NtRp3568
(dp3569
g74
(dp3570
sg83
g3369
sg76
(lp3571
g69
(g90
g71
NtRp3572
(dp3573
g74
(dp3574
g94
g95
ssg83
g3568
sg76
(lp3575
S'reset_password_key'
p3576
asbag69
(g90
g71
NtRp3577
(dp3578
g74
(dp3579
g101
g102
ssg83
g3568
sg76
(lp3580
S':'
asbag69
(g90
g71
NtRp3581
(dp3582
g74
(dp3583
sg83
g3568
sg76
(lp3584
g69
(g70
g71
NtRp3585
(dp3586
g74
(dp3587
g82
I3
ssg83
g3581
sg76
(lp3588
S''
asbasbasbag69
(g85
g71
NtRp3589
(dp3590
g74
(dp3591
sg83
g3369
sg76
(lp3592
g69
(g90
g71
NtRp3593
(dp3594
g74
(dp3595
g94
g95
ssg83
g3589
sg76
(lp3596
S'username'
p3597
asbag69
(g90
g71
NtRp3598
(dp3599
g74
(dp3600
g101
g102
ssg83
g3589
sg76
(lp3601
S':'
asbag69
(g90
g71
NtRp3602
(dp3603
g74
(dp3604
sg83
g3589
sg76
(lp3605
g69
(g70
g71
NtRp3606
(dp3607
g74
(dp3608
g82
I3
ssg83
g3602
sg76
(lp3609
S'manu1'
p3610
asbasbasbasbasbasbasbag69
(g85
g71
NtRp3611
(dp3612
g74
(dp3613
sg83
g3257
sg76
(lp3614
g69
(g90
g71
NtRp3615
(dp3616
g74
(dp3617
g94
g95
ssg83
g3611
sg76
(lp3618
S'user_groups'
p3619
asbag69
(g90
g71
NtRp3620
(dp3621
g74
(dp3622
g101
g102
ssg83
g3611
sg76
(lp3623
S':'
asbag69
(g90
g71
NtRp3624
(dp3625
g74
(dp3626
sg83
g3611
sg76
(lp3627
g69
(g70
g71
NtRp3628
(dp3629
g74
(dp3630
g82
I4
ssg83
g3624
sg76
(lp3631
g69
(g78
g71
NtRp3632
(dp3633
g74
(dp3634
g82
I3
ssg83
Nsg76
(lp3635
g69
(g85
g71
NtRp3636
(dp3637
g74
(dp3638
sg83
g3632
sg76
(lp3639
g69
(g90
g71
NtRp3640
(dp3641
g74
(dp3642
g94
g95
ssg83
g3636
sg76
(lp3643
S'1'
asbag69
(g90
g71
NtRp3644
(dp3645
g74
(dp3646
g101
g102
ssg83
g3636
sg76
(lp3647
S':'
asbag69
(g90
g71
NtRp3648
(dp3649
g74
(dp3650
sg83
g3636
sg76
(lp3651
g69
(g70
g71
NtRp3652
(dp3653
g74
(dp3654
g82
I3
ssg83
g3648
sg76
(lp3655
S'user_11'
p3656
asbasbasbasbasbasbasbasbasbasbasbasbasbsS'etype'
p3657
S"<class 'urllib2.URLError'>"
p3658
sS'date'
p3659
S'Mon Nov 26 12:07:12 2012'
p3660
sS'response'
p3661
g69
(g70
g71
NtRp3662
(dp3663
g74
(dp3664
sg76
(lp3665
g69
(g78
g71
NtRp3666
(dp3667
g74
(dp3668
g82
I5
ssg83
Nsg76
(lp3669
g69
(g85
g71
NtRp3670
(dp3671
g74
(dp3672
sg83
g3666
sg76
(lp3673
g69
(g90
g71
NtRp3674
(dp3675
g74
(dp3676
g94
g95
ssg83
g3670
sg76
(lp3677
g167
asbag69
(g90
g71
NtRp3678
(dp3679
g74
(dp3680
g101
g102
ssg83
g3670
sg76
(lp3681
S':'
asbag69
(g90
g71
NtRp3682
(dp3683
g74
(dp3684
sg83
g3670
sg76
(lp3685
g69
(g70
g71
NtRp3686
(dp3687
g74
(dp3688
g82
I5
ssg83
g3682
sg76
(lp3689
S'<cStringIO.StringO object at 0x7fb5f016f1b8>'
p3690
asbasbasbag69
(g85
g71
NtRp3691
(dp3692
g74
(dp3693
sg83
g3666
sg76
(lp3694
g69
(g90
g71
NtRp3695
(dp3696
g74
(dp3697
g94
g95
ssg83
g3691
sg76
(lp3698
g233
asbag69
(g90
g71
NtRp3699
(dp3700
g74
(dp3701
g101
g102
ssg83
g3691
sg76
(lp3702
S':'
asbag69
(g90
g71
NtRp3703
(dp3704
g74
(dp3705
sg83
g3691
sg76
(lp3706
g69
(g70
g71
NtRp3707
(dp3708
g74
(dp3709
g82
I5
ssg83
g3703
sg76
(lp3710
g69
(g78
g71
NtRp3711
(dp3712
g74
(dp3713
g82
I4
ssg83
Nsg76
(lp3714
g69
(g85
g71
NtRp3715
(dp3716
g74
(dp3717
sg83
g3711
sg76
(lp3718
g69
(g90
g71
NtRp3719
(dp3720
g74
(dp3721
g94
g95
ssg83
g3715
sg76
(lp3722
S'session_id_cite_mf'
p3723
asbag69
(g90
g71
NtRp3724
(dp3725
g74
(dp3726
g101
g102
ssg83
g3715
sg76
(lp3727
S':'
asbag69
(g90
g71
NtRp3728
(dp3729
g74
(dp3730
sg83
g3715
sg76
(lp3731
g69
(g70
g71
NtRp3732
(dp3733
g74
(dp3734
g82
I4
ssg83
g3728
sg76
(lp3735
g69
(g78
g71
NtRp3736
(dp3737
g74
(dp3738
g82
I3
ssg83
Nsg76
(lp3739
g69
(g85
g71
NtRp3740
(dp3741
g74
(dp3742
sg83
g3736
sg76
(lp3743
g69
(g90
g71
NtRp3744
(dp3745
g74
(dp3746
g94
g95
ssg83
g3740
sg76
(lp3747
g283
asbag69
(g90
g71
NtRp3748
(dp3749
g74
(dp3750
g101
g102
ssg83
g3740
sg76
(lp3751
S':'
asbag69
(g90
g71
NtRp3752
(dp3753
g74
(dp3754
sg83
g3740
sg76
(lp3755
g69
(g70
g71
NtRp3756
(dp3757
g74
(dp3758
g82
I3
ssg83
g3752
sg76
(lp3759
S''
asbasbasbag69
(g85
g71
NtRp3760
(dp3761
g74
(dp3762
sg83
g3736
sg76
(lp3763
g69
(g90
g71
NtRp3764
(dp3765
g74
(dp3766
g94
g95
ssg83
g3760
sg76
(lp3767
g304
asbag69
(g90
g71
NtRp3768
(dp3769
g74
(dp3770
g101
g102
ssg83
g3760
sg76
(lp3771
S':'
asbag69
(g90
g71
NtRp3772
(dp3773
g74
(dp3774
sg83
g3760
sg76
(lp3775
g69
(g70
g71
NtRp3776
(dp3777
g74
(dp3778
g82
I3
ssg83
g3772
sg76
(lp3779
S''
asbasbasbag69
(g85
g71
NtRp3780
(dp3781
g74
(dp3782
sg83
g3736
sg76
(lp3783
g69
(g90
g71
NtRp3784
(dp3785
g74
(dp3786
g94
g95
ssg83
g3780
sg76
(lp3787
g325
asbag69
(g90
g71
NtRp3788
(dp3789
g74
(dp3790
g101
g102
ssg83
g3780
sg76
(lp3791
S':'
asbag69
(g90
g71
NtRp3792
(dp3793
g74
(dp3794
sg83
g3780
sg76
(lp3795
g69
(g70
g71
NtRp3796
(dp3797
g74
(dp3798
g82
I3
ssg83
g3792
sg76
(lp3799
S''
asbasbasbag69
(g85
g71
NtRp3800
(dp3801
g74
(dp3802
sg83
g3736
sg76
(lp3803
g69
(g90
g71
NtRp3804
(dp3805
g74
(dp3806
g94
g95
ssg83
g3800
sg76
(lp3807
g346
asbag69
(g90
g71
NtRp3808
(dp3809
g74
(dp3810
g101
g102
ssg83
g3800
sg76
(lp3811
S':'
asbag69
(g90
g71
NtRp3812
(dp3813
g74
(dp3814
sg83
g3800
sg76
(lp3815
g69
(g70
g71
NtRp3816
(dp3817
g74
(dp3818
g82
I3
ssg83
g3812
sg76
(lp3819
S''
asbasbasbag69
(g85
g71
NtRp3820
(dp3821
g74
(dp3822
sg83
g3736
sg76
(lp3823
g69
(g90
g71
NtRp3824
(dp3825
g74
(dp3826
g94
g95
ssg83
g3820
sg76
(lp3827
g367
asbag69
(g90
g71
NtRp3828
(dp3829
g74
(dp3830
g101
g102
ssg83
g3820
sg76
(lp3831
S':'
asbag69
(g90
g71
NtRp3832
(dp3833
g74
(dp3834
sg83
g3820
sg76
(lp3835
g69
(g70
g71
NtRp3836
(dp3837
g74
(dp3838
g82
I3
ssg83
g3832
sg76
(lp3839
S''
asbasbasbag69
(g85
g71
NtRp3840
(dp3841
g74
(dp3842
sg83
g3736
sg76
(lp3843
g69
(g90
g71
NtRp3844
(dp3845
g74
(dp3846
g94
g95
ssg83
g3840
sg76
(lp3847
g388
asbag69
(g90
g71
NtRp3848
(dp3849
g74
(dp3850
g101
g102
ssg83
g3840
sg76
(lp3851
S':'
asbag69
(g90
g71
NtRp3852
(dp3853
g74
(dp3854
sg83
g3840
sg76
(lp3855
g69
(g70
g71
NtRp3856
(dp3857
g74
(dp3858
g82
I3
ssg83
g3852
sg76
(lp3859
S'/'
asbasbasbag69
(g85
g71
NtRp3860
(dp3861
g74
(dp3862
sg83
g3736
sg76
(lp3863
g69
(g90
g71
NtRp3864
(dp3865
g74
(dp3866
g94
g95
ssg83
g3860
sg76
(lp3867
g409
asbag69
(g90
g71
NtRp3868
(dp3869
g74
(dp3870
g101
g102
ssg83
g3860
sg76
(lp3871
S':'
asbag69
(g90
g71
NtRp3872
(dp3873
g74
(dp3874
sg83
g3860
sg76
(lp3875
g69
(g70
g71
NtRp3876
(dp3877
g74
(dp3878
g82
I3
ssg83
g3872
sg76
(lp3879
S''
asbasbasbag69
(g85
g71
NtRp3880
(dp3881
g74
(dp3882
sg83
g3736
sg76
(lp3883
g69
(g90
g71
NtRp3884
(dp3885
g74
(dp3886
g94
g95
ssg83
g3880
sg76
(lp3887
g430
asbag69
(g90
g71
NtRp3888
(dp3889
g74
(dp3890
g101
g102
ssg83
g3880
sg76
(lp3891
S':'
asbag69
(g90
g71
NtRp3892
(dp3893
g74
(dp3894
sg83
g3880
sg76
(lp3895
g69
(g70
g71
NtRp3896
(dp3897
g74
(dp3898
g82
I3
ssg83
g3892
sg76
(lp3899
S''
asbasbasbasbasbasbasbasbasbasbasbag69
(g85
g71
NtRp3900
(dp3901
g74
(dp3902
sg83
g3666
sg76
(lp3903
g69
(g90
g71
NtRp3904
(dp3905
g74
(dp3906
g94
g95
ssg83
g3900
sg76
(lp3907
S'delimiters'
p3908
asbag69
(g90
g71
NtRp3909
(dp3910
g74
(dp3911
g101
g102
ssg83
g3900
sg76
(lp3912
S':'
asbag69
(g90
g71
NtRp3913
(dp3914
g74
(dp3915
sg83
g3900
sg76
(lp3916
g69
(g70
g71
NtRp3917
(dp3918
g74
(dp3919
g82
I5
ssg83
g3913
sg76
(lp3920
g69
(g78
g71
NtRp3921
(dp3922
g74
(dp3923
g82
I4
ssg83
Nsg76
(lp3924
g69
(g85
g71
NtRp3925
(dp3926
g74
(dp3927
sg83
g3921
sg76
(lp3928
g69
(g90
g71
NtRp3929
(dp3930
g74
(dp3931
sg83
g3925
sg76
(lp3932
g69
(g70
g71
NtRp3933
(dp3934
g74
(dp3935
g82
I4
ssg83
g3929
sg76
(lp3936
S'{{'
p3937
asbasbasbag69
(g85
g71
NtRp3938
(dp3939
g74
(dp3940
sg83
g3921
sg76
(lp3941
g69
(g90
g71
NtRp3942
(dp3943
g74
(dp3944
sg83
g3938
sg76
(lp3945
g69
(g70
g71
NtRp3946
(dp3947
g74
(dp3948
g82
I4
ssg83
g3942
sg76
(lp3949
S'}}'
p3950
asbasbasbasbasbasbasbag69
(g85
g71
NtRp3951
(dp3952
g74
(dp3953
sg83
g3666
sg76
(lp3954
g69
(g90
g71
NtRp3955
(dp3956
g74
(dp3957
g94
g95
ssg83
g3951
sg76
(lp3958
S'files'
p3959
asbag69
(g90
g71
NtRp3960
(dp3961
g74
(dp3962
g101
g102
ssg83
g3951
sg76
(lp3963
S':'
asbag69
(g90
g71
NtRp3964
(dp3965
g74
(dp3966
sg83
g3951
sg76
(lp3967
g69
(g70
g71
NtRp3968
(dp3969
g74
(dp3970
g82
I5
ssg83
g3964
sg76
(lp3971
g69
(g78
g71
NtRp3972
(dp3973
g74
(dp3974
g82
I4
ssg83
Nsg76
(lp3975
sbasbasbasbag69
(g85
g71
NtRp3976
(dp3977
g74
(dp3978
sg83
g3666
sg76
(lp3979
g69
(g90
g71
NtRp3980
(dp3981
g74
(dp3982
g94
g95
ssg83
g3976
sg76
(lp3983
S'flash'
p3984
asbag69
(g90
g71
NtRp3985
(dp3986
g74
(dp3987
g101
g102
ssg83
g3976
sg76
(lp3988
S':'
asbag69
(g90
g71
NtRp3989
(dp3990
g74
(dp3991
sg83
g3976
sg76
(lp3992
g69
(g70
g71
NtRp3993
(dp3994
g74
(dp3995
g82
I5
ssg83
g3989
sg76
(lp3996
S''
asbasbasbag69
(g85
g71
NtRp3997
(dp3998
g74
(dp3999
sg83
g3666
sg76
(lp4000
g69
(g90
g71
NtRp4001
(dp4002
g74
(dp4003
g94
g95
ssg83
g3997
sg76
(lp4004
S'generic_patterns'
p4005
asbag69
(g90
g71
NtRp4006
(dp4007
g74
(dp4008
g101
g102
ssg83
g3997
sg76
(lp4009
S':'
asbag69
(g90
g71
NtRp4010
(dp4011
g74
(dp4012
sg83
g3997
sg76
(lp4013
g69
(g70
g71
NtRp4014
(dp4015
g74
(dp4016
g82
I5
ssg83
g4010
sg76
(lp4017
g69
(g78
g71
NtRp4018
(dp4019
g74
(dp4020
g82
I4
ssg83
Nsg76
(lp4021
g69
(g85
g71
NtRp4022
(dp4023
g74
(dp4024
sg83
g4018
sg76
(lp4025
g69
(g90
g71
NtRp4026
(dp4027
g74
(dp4028
sg83
g4022
sg76
(lp4029
g69
(g70
g71
NtRp4030
(dp4031
g74
(dp4032
g82
I4
ssg83
g4026
sg76
(lp4033
S'*'
asbasbasbasbasbasbasbag69
(g85
g71
NtRp4034
(dp4035
g74
(dp4036
sg83
g3666
sg76
(lp4037
g69
(g90
g71
NtRp4038
(dp4039
g74
(dp4040
g94
g95
ssg83
g4034
sg76
(lp4041
S'headers'
p4042
asbag69
(g90
g71
NtRp4043
(dp4044
g74
(dp4045
g101
g102
ssg83
g4034
sg76
(lp4046
S':'
asbag69
(g90
g71
NtRp4047
(dp4048
g74
(dp4049
sg83
g4034
sg76
(lp4050
g69
(g70
g71
NtRp4051
(dp4052
g74
(dp4053
g82
I5
ssg83
g4047
sg76
(lp4054
g69
(g78
g71
NtRp4055
(dp4056
g74
(dp4057
g82
I4
ssg83
Nsg76
(lp4058
g69
(g85
g71
NtRp4059
(dp4060
g74
(dp4061
sg83
g4055
sg76
(lp4062
g69
(g90
g71
NtRp4063
(dp4064
g74
(dp4065
g94
g95
ssg83
g4059
sg76
(lp4066
S'Cache-Control'
p4067
asbag69
(g90
g71
NtRp4068
(dp4069
g74
(dp4070
g101
g102
ssg83
g4059
sg76
(lp4071
S':'
asbag69
(g90
g71
NtRp4072
(dp4073
g74
(dp4074
sg83
g4059
sg76
(lp4075
g69
(g70
g71
NtRp4076
(dp4077
g74
(dp4078
g82
I4
ssg83
g4072
sg76
(lp4079
S'no-store, no-cache, must-revalidate, post-check=0, pre-check=0'
p4080
asbasbasbag69
(g85
g71
NtRp4081
(dp4082
g74
(dp4083
sg83
g4055
sg76
(lp4084
g69
(g90
g71
NtRp4085
(dp4086
g74
(dp4087
g94
g95
ssg83
g4081
sg76
(lp4088
S'Content-Type'
p4089
asbag69
(g90
g71
NtRp4090
(dp4091
g74
(dp4092
g101
g102
ssg83
g4081
sg76
(lp4093
S':'
asbag69
(g90
g71
NtRp4094
(dp4095
g74
(dp4096
sg83
g4081
sg76
(lp4097
g69
(g70
g71
NtRp4098
(dp4099
g74
(dp4100
g82
I4
ssg83
g4094
sg76
(lp4101
S'text/html; charset=utf-8'
p4102
asbasbasbag69
(g85
g71
NtRp4103
(dp4104
g74
(dp4105
sg83
g4055
sg76
(lp4106
g69
(g90
g71
NtRp4107
(dp4108
g74
(dp4109
g94
g95
ssg83
g4103
sg76
(lp4110
S'Expires'
p4111
asbag69
(g90
g71
NtRp4112
(dp4113
g74
(dp4114
g101
g102
ssg83
g4103
sg76
(lp4115
S':'
asbag69
(g90
g71
NtRp4116
(dp4117
g74
(dp4118
sg83
g4103
sg76
(lp4119
g69
(g70
g71
NtRp4120
(dp4121
g74
(dp4122
g82
I4
ssg83
g4116
sg76
(lp4123
S'Mon, 26 Nov 2012 06:37:11 GMT'
p4124
asbasbasbag69
(g85
g71
NtRp4125
(dp4126
g74
(dp4127
sg83
g4055
sg76
(lp4128
g69
(g90
g71
NtRp4129
(dp4130
g74
(dp4131
g94
g95
ssg83
g4125
sg76
(lp4132
S'Pragma'
p4133
asbag69
(g90
g71
NtRp4134
(dp4135
g74
(dp4136
g101
g102
ssg83
g4125
sg76
(lp4137
S':'
asbag69
(g90
g71
NtRp4138
(dp4139
g74
(dp4140
sg83
g4125
sg76
(lp4141
g69
(g70
g71
NtRp4142
(dp4143
g74
(dp4144
g82
I4
ssg83
g4138
sg76
(lp4145
S'no-cache'
p4146
asbasbasbag69
(g85
g71
NtRp4147
(dp4148
g74
(dp4149
sg83
g4055
sg76
(lp4150
g69
(g90
g71
NtRp4151
(dp4152
g74
(dp4153
g94
g95
ssg83
g4147
sg76
(lp4154
S'X-Powered-By'
p4155
asbag69
(g90
g71
NtRp4156
(dp4157
g74
(dp4158
g101
g102
ssg83
g4147
sg76
(lp4159
S':'
asbag69
(g90
g71
NtRp4160
(dp4161
g74
(dp4162
sg83
g4147
sg76
(lp4163
g69
(g70
g71
NtRp4164
(dp4165
g74
(dp4166
g82
I4
ssg83
g4160
sg76
(lp4167
S'web2py'
p4168
asbasbasbasbasbasbasbag69
(g85
g71
NtRp4169
(dp4170
g74
(dp4171
sg83
g3666
sg76
(lp4172
g69
(g90
g71
NtRp4173
(dp4174
g74
(dp4175
g94
g95
ssg83
g4169
sg76
(lp4176
S'menu'
p4177
asbag69
(g90
g71
NtRp4178
(dp4179
g74
(dp4180
g101
g102
ssg83
g4169
sg76
(lp4181
S':'
asbag69
(g90
g71
NtRp4182
(dp4183
g74
(dp4184
sg83
g4169
sg76
(lp4185
g69
(g70
g71
NtRp4186
(dp4187
g74
(dp4188
g82
I5
ssg83
g4182
sg76
(lp4189
g69
(g78
g71
NtRp4190
(dp4191
g74
(dp4192
g82
I4
ssg83
Nsg76
(lp4193
g69
(g85
g71
NtRp4194
(dp4195
g74
(dp4196
sg83
g4190
sg76
(lp4197
g69
(g90
g71
NtRp4198
(dp4199
g74
(dp4200
sg83
g4194
sg76
(lp4201
g69
(g70
g71
NtRp4202
(dp4203
g74
(dp4204
g82
I4
ssg83
g4198
sg76
(lp4205
g69
(g78
g71
NtRp4206
(dp4207
g74
(dp4208
g82
I3
ssg83
Nsg76
(lp4209
g69
(g85
g71
NtRp4210
(dp4211
g74
(dp4212
sg83
g4206
sg76
(lp4213
g69
(g90
g71
NtRp4214
(dp4215
g74
(dp4216
sg83
g4210
sg76
(lp4217
g69
(g70
g71
NtRp4218
(dp4219
g74
(dp4220
g82
I3
ssg83
g4214
sg76
(lp4221
cgluon.languages
lazyT_unpickle
p4222
(S't\x05\x00\x00\x00Index'
tRp4223
asbasbasbag69
(g85
g71
NtRp4224
(dp4225
g74
(dp4226
sg83
g4206
sg76
(lp4227
g69
(g90
g71
NtRp4228
(dp4229
g74
(dp4230
sg83
g4224
sg76
(lp4231
g69
(g70
g71
NtRp4232
(dp4233
g74
(dp4234
g82
I3
ssg83
g4228
sg76
(lp4235
g112
asbasbasbag69
(g85
g71
NtRp4236
(dp4237
g74
(dp4238
sg83
g4206
sg76
(lp4239
g69
(g90
g71
NtRp4240
(dp4241
g74
(dp4242
sg83
g4236
sg76
(lp4243
g69
(g70
g71
NtRp4244
(dp4245
g74
(dp4246
g82
I3
ssg83
g4240
sg76
(lp4247
S'/cite_mf/default/index'
p4248
asbasbasbag69
(g85
g71
NtRp4249
(dp4250
g74
(dp4251
sg83
g4206
sg76
(lp4252
g69
(g90
g71
NtRp4253
(dp4254
g74
(dp4255
sg83
g4249
sg76
(lp4256
g69
(g70
g71
NtRp4257
(dp4258
g74
(dp4259
g82
I3
ssg83
g4253
sg76
(lp4260
g69
(g78
g71
NtRp4261
(dp4262
g74
(dp4263
g82
I2
ssg83
Nsg76
(lp4264
sbasbasbasbasbasbasbasbasbasbasbasbag69
(g85
g71
NtRp4265
(dp4266
g74
(dp4267
sg83
g3666
sg76
(lp4268
g69
(g90
g71
NtRp4269
(dp4270
g74
(dp4271
g94
g95
ssg83
g4265
sg76
(lp4272
S'meta'
p4273
asbag69
(g90
g71
NtRp4274
(dp4275
g74
(dp4276
g101
g102
ssg83
g4265
sg76
(lp4277
S':'
asbag69
(g90
g71
NtRp4278
(dp4279
g74
(dp4280
sg83
g4265
sg76
(lp4281
g69
(g70
g71
NtRp4282
(dp4283
g74
(dp4284
g82
I5
ssg83
g4278
sg76
(lp4285
g69
(g78
g71
NtRp4286
(dp4287
g74
(dp4288
g82
I4
ssg83
Nsg76
(lp4289
g69
(g85
g71
NtRp4290
(dp4291
g74
(dp4292
sg83
g4286
sg76
(lp4293
g69
(g90
g71
NtRp4294
(dp4295
g74
(dp4296
g94
g95
ssg83
g4290
sg76
(lp4297
S'author'
p4298
asbag69
(g90
g71
NtRp4299
(dp4300
g74
(dp4301
g101
g102
ssg83
g4290
sg76
(lp4302
S':'
asbag69
(g90
g71
NtRp4303
(dp4304
g74
(dp4305
sg83
g4290
sg76
(lp4306
g69
(g70
g71
NtRp4307
(dp4308
g74
(dp4309
g82
I4
ssg83
g4303
sg76
(lp4310
S'you <you@example.com>'
p4311
asbasbasbag69
(g85
g71
NtRp4312
(dp4313
g74
(dp4314
sg83
g4286
sg76
(lp4315
g69
(g90
g71
NtRp4316
(dp4317
g74
(dp4318
g94
g95
ssg83
g4312
sg76
(lp4319
S'description'
p4320
asbag69
(g90
g71
NtRp4321
(dp4322
g74
(dp4323
g101
g102
ssg83
g4312
sg76
(lp4324
S':'
asbag69
(g90
g71
NtRp4325
(dp4326
g74
(dp4327
sg83
g4312
sg76
(lp4328
g69
(g70
g71
NtRp4329
(dp4330
g74
(dp4331
g82
I4
ssg83
g4325
sg76
(lp4332
S''
asbasbasbag69
(g85
g71
NtRp4333
(dp4334
g74
(dp4335
sg83
g4286
sg76
(lp4336
g69
(g90
g71
NtRp4337
(dp4338
g74
(dp4339
g94
g95
ssg83
g4333
sg76
(lp4340
S'keywords'
p4341
asbag69
(g90
g71
NtRp4342
(dp4343
g74
(dp4344
g101
g102
ssg83
g4333
sg76
(lp4345
S':'
asbag69
(g90
g71
NtRp4346
(dp4347
g74
(dp4348
sg83
g4333
sg76
(lp4349
g69
(g70
g71
NtRp4350
(dp4351
g74
(dp4352
g82
I4
ssg83
g4346
sg76
(lp4353
S''
asbasbasbasbasbasbasbag69
(g85
g71
NtRp4354
(dp4355
g74
(dp4356
sg83
g3666
sg76
(lp4357
g69
(g90
g71
NtRp4358
(dp4359
g74
(dp4360
g94
g95
ssg83
g4354
sg76
(lp4361
S'postprocessing'
p4362
asbag69
(g90
g71
NtRp4363
(dp4364
g74
(dp4365
g101
g102
ssg83
g4354
sg76
(lp4366
S':'
asbag69
(g90
g71
NtRp4367
(dp4368
g74
(dp4369
sg83
g4354
sg76
(lp4370
g69
(g70
g71
NtRp4371
(dp4372
g74
(dp4373
g82
I5
ssg83
g4367
sg76
(lp4374
g69
(g78
g71
NtRp4375
(dp4376
g74
(dp4377
g82
I4
ssg83
Nsg76
(lp4378
sbasbasbasbag69
(g85
g71
NtRp4379
(dp4380
g74
(dp4381
sg83
g3666
sg76
(lp4382
g69
(g90
g71
NtRp4383
(dp4384
g74
(dp4385
g94
g95
ssg83
g4379
sg76
(lp4386
S'session_file'
p4387
asbag69
(g90
g71
NtRp4388
(dp4389
g74
(dp4390
g101
g102
ssg83
g4379
sg76
(lp4391
S':'
asbag69
(g90
g71
NtRp4392
(dp4393
g74
(dp4394
sg83
g4379
sg76
(lp4395
g69
(g70
g71
NtRp4396
(dp4397
g74
(dp4398
g82
I5
ssg83
g4392
sg76
(lp4399
S"<open file '/home/maneesha/Downloads/web2py/applications/cite_mf/sessions/127.0.0.1-92355c06-80c6-4ff2-a629-21abefec8a82', mode 'rb+' at 0x7fb5e4254b70>"
p4400
asbasbasbag69
(g85
g71
NtRp4401
(dp4402
g74
(dp4403
sg83
g3666
sg76
(lp4404
g69
(g90
g71
NtRp4405
(dp4406
g74
(dp4407
g94
g95
ssg83
g4401
sg76
(lp4408
S'session_filename'
p4409
asbag69
(g90
g71
NtRp4410
(dp4411
g74
(dp4412
g101
g102
ssg83
g4401
sg76
(lp4413
S':'
asbag69
(g90
g71
NtRp4414
(dp4415
g74
(dp4416
sg83
g4401
sg76
(lp4417
g69
(g70
g71
NtRp4418
(dp4419
g74
(dp4420
g82
I5
ssg83
g4414
sg76
(lp4421
S'/home/maneesha/Downloads/web2py/applications/cite_mf/sessions/127.0.0.1-92355c06-80c6-4ff2-a629-21abefec8a82'
p4422
asbasbasbag69
(g85
g71
NtRp4423
(dp4424
g74
(dp4425
sg83
g3666
sg76
(lp4426
g69
(g90
g71
NtRp4427
(dp4428
g74
(dp4429
g94
g95
ssg83
g4423
sg76
(lp4430
S'session_id'
p4431
asbag69
(g90
g71
NtRp4432
(dp4433
g74
(dp4434
g101
g102
ssg83
g4423
sg76
(lp4435
S':'
asbag69
(g90
g71
NtRp4436
(dp4437
g74
(dp4438
sg83
g4423
sg76
(lp4439
g69
(g70
g71
NtRp4440
(dp4441
g74
(dp4442
g82
I5
ssg83
g4436
sg76
(lp4443
S'127.0.0.1-92355c06-80c6-4ff2-a629-21abefec8a82'
p4444
asbasbasbag69
(g85
g71
NtRp4445
(dp4446
g74
(dp4447
sg83
g3666
sg76
(lp4448
g69
(g90
g71
NtRp4449
(dp4450
g74
(dp4451
g94
g95
ssg83
g4445
sg76
(lp4452
S'session_id_name'
p4453
asbag69
(g90
g71
NtRp4454
(dp4455
g74
(dp4456
g101
g102
ssg83
g4445
sg76
(lp4457
S':'
asbag69
(g90
g71
NtRp4458
(dp4459
g74
(dp4460
sg83
g4445
sg76
(lp4461
g69
(g70
g71
NtRp4462
(dp4463
g74
(dp4464
g82
I5
ssg83
g4458
sg76
(lp4465
g3723
asbasbasbag69
(g85
g71
NtRp4466
(dp4467
g74
(dp4468
sg83
g3666
sg76
(lp4469
g69
(g90
g71
NtRp4470
(dp4471
g74
(dp4472
g94
g95
ssg83
g4466
sg76
(lp4473
S'session_locked'
p4474
asbag69
(g90
g71
NtRp4475
(dp4476
g74
(dp4477
g101
g102
ssg83
g4466
sg76
(lp4478
S':'
asbag69
(g90
g71
NtRp4479
(dp4480
g74
(dp4481
sg83
g4466
sg76
(lp4482
g69
(g70
g71
NtRp4483
(dp4484
g74
(dp4485
g82
I5
ssg83
g4479
sg76
(lp4486
g1668
asbasbasbag69
(g85
g71
NtRp4487
(dp4488
g74
(dp4489
sg83
g3666
sg76
(lp4490
g69
(g90
g71
NtRp4491
(dp4492
g74
(dp4493
g94
g95
ssg83
g4487
sg76
(lp4494
S'session_new'
p4495
asbag69
(g90
g71
NtRp4496
(dp4497
g74
(dp4498
g101
g102
ssg83
g4487
sg76
(lp4499
S':'
asbag69
(g90
g71
NtRp4500
(dp4501
g74
(dp4502
sg83
g4487
sg76
(lp4503
g69
(g70
g71
NtRp4504
(dp4505
g74
(dp4506
g82
I5
ssg83
g4500
sg76
(lp4507
g112
asbasbasbag69
(g85
g71
NtRp4508
(dp4509
g74
(dp4510
sg83
g3666
sg76
(lp4511
g69
(g90
g71
NtRp4512
(dp4513
g74
(dp4514
g94
g95
ssg83
g4508
sg76
(lp4515
S'status'
p4516
asbag69
(g90
g71
NtRp4517
(dp4518
g74
(dp4519
g101
g102
ssg83
g4508
sg76
(lp4520
S':'
asbag69
(g90
g71
NtRp4521
(dp4522
g74
(dp4523
sg83
g4508
sg76
(lp4524
g69
(g70
g71
NtRp4525
(dp4526
g74
(dp4527
g82
I5
ssg83
g4521
sg76
(lp4528
S'200'
p4529
asbasbasbag69
(g85
g71
NtRp4530
(dp4531
g74
(dp4532
sg83
g3666
sg76
(lp4533
g69
(g90
g71
NtRp4534
(dp4535
g74
(dp4536
g94
g95
ssg83
g4530
sg76
(lp4537
S'subtitle'
p4538
asbag69
(g90
g71
NtRp4539
(dp4540
g74
(dp4541
g101
g102
ssg83
g4530
sg76
(lp4542
S':'
asbag69
(g90
g71
NtRp4543
(dp4544
g74
(dp4545
sg83
g4530
sg76
(lp4546
g69
(g70
g71
NtRp4547
(dp4548
g74
(dp4549
g82
I5
ssg83
g4543
sg76
(lp4550
S'powered by web2py'
p4551
asbasbasbag69
(g85
g71
NtRp4552
(dp4553
g74
(dp4554
sg83
g3666
sg76
(lp4555
g69
(g90
g71
NtRp4556
(dp4557
g74
(dp4558
g94
g95
ssg83
g4552
sg76
(lp4559
S'title'
p4560
asbag69
(g90
g71
NtRp4561
(dp4562
g74
(dp4563
g101
g102
ssg83
g4552
sg76
(lp4564
S':'
asbag69
(g90
g71
NtRp4565
(dp4566
g74
(dp4567
sg83
g4552
sg76
(lp4568
g69
(g70
g71
NtRp4569
(dp4570
g74
(dp4571
g82
I5
ssg83
g4565
sg76
(lp4572
S'My New App'
p4573
asbasbasbag69
(g85
g71
NtRp4574
(dp4575
g74
(dp4576
sg83
g3666
sg76
(lp4577
g69
(g90
g71
NtRp4578
(dp4579
g74
(dp4580
g94
g95
ssg83
g4574
sg76
(lp4581
g2332
asbag69
(g90
g71
NtRp4582
(dp4583
g74
(dp4584
g101
g102
ssg83
g4574
sg76
(lp4585
S':'
asbag69
(g90
g71
NtRp4586
(dp4587
g74
(dp4588
sg83
g4574
sg76
(lp4589
g69
(g70
g71
NtRp4590
(dp4591
g74
(dp4592
g82
I5
ssg83
g4586
sg76
(lp4593
g2345
asbasbasbag69
(g85
g71
NtRp4594
(dp4595
g74
(dp4596
sg83
g3666
sg76
(lp4597
g69
(g90
g71
NtRp4598
(dp4599
g74
(dp4600
g94
g95
ssg83
g4594
sg76
(lp4601
S'view'
p4602
asbag69
(g90
g71
NtRp4603
(dp4604
g74
(dp4605
g101
g102
ssg83
g4594
sg76
(lp4606
S':'
asbag69
(g90
g71
NtRp4607
(dp4608
g74
(dp4609
sg83
g4594
sg76
(lp4610
g69
(g70
g71
NtRp4611
(dp4612
g74
(dp4613
g82
I5
ssg83
g4607
sg76
(lp4614
S'default/final_ans.html'
p4615
asbasbasbasbasbsS'locals'
p4616
(dp4617
S'err'
p4618
S"gaierror(-2, 'Name or service not known')"
p4619
sS'h'
S'<httplib.HTTPConnection instance>'
p4620
sS'self'
p4621
S'<urllib2.HTTPHandler instance>'
p4622
sS'req'
p4623
S'<urllib2.Request instance>'
p4624
sg4042
S"{'Connection': 'close', 'Cookie': '', 'Host': 'dl.acm.org', 'User-Agent': 'Mozilla/5.0'}"
p4625
sS'host'
p4626
S"'proxy.iiit.ac.in:8080'"
p4627
sS'http_class'
p4628
S'<class httplib.HTTPConnection>'
p4629
sssS'traceback'
p4630
S'Traceback (most recent call last):\n  File "/home/maneesha/Downloads/web2py/gluon/restricted.py", line 205, in restricted\n    exec ccode in environment\n  File "/home/maneesha/Downloads/web2py/applications/cite_mf/controllers/default.py", line 205, in <module>\n  File "/home/maneesha/Downloads/web2py/gluon/globals.py", line 173, in <lambda>\n    self._caller = lambda f: f()\n  File "/home/maneesha/Downloads/web2py/applications/cite_mf/controllers/default.py", line 64, in final_ans\n    fst_l=extract1(url,l1)     #extracts the urls of query results and stores it in a list fst_l\n  File "/home/maneesha/Downloads/web2py/applications/cite_mf/controllers/default.py", line 28, in extract1\n    html=fetch(url) #fetches the html page of the given url ans stores it in a string html\n  File "/home/maneesha/Downloads/web2py/gluon/tools.py", line 3424, in fetch\n    html = urllib2.urlopen(req).read()\n  File "/usr/lib/python2.7/urllib2.py", line 126, in urlopen\n    return _opener.open(url, data, timeout)\n  File "/usr/lib/python2.7/urllib2.py", line 400, in open\n    response = self._open(req, data)\n  File "/usr/lib/python2.7/urllib2.py", line 418, in _open\n    \'_open\', req)\n  File "/usr/lib/python2.7/urllib2.py", line 378, in _call_chain\n    result = func(*args)\n  File "/usr/lib/python2.7/urllib2.py", line 1207, in http_open\n    return self.do_open(httplib.HTTPConnection, req)\n  File "/usr/lib/python2.7/urllib2.py", line 1177, in do_open\n    raise URLError(err)\nURLError: <urlopen error [Errno -2] Name or service not known>\n'
p4631
s.